(dp1
Vhttps://media2.wnyc.org/i/raw/photologue/photos/dream.jpg
p2
ccopy_reg
_reconstructor
p3
(cbase.graph_fetch.fetcher
ImageSlot
p4
c__builtin__
tuple
p5
(cdatetime
datetime
p6
(S'\x07\xe0\t\x0c\x0b*\x14\x07\x11!'
tRp7
S'30'
p8
I1
ttRp9
sVhttp://science-all.com/images/wallpapers/dream-wallpaper/dream-wallpaper-13.jpg
p10
g3
(g4
g5
(g6
(S'\x07\xe0\x08\x08\x12.3\n\xac5'
tRp11
I-1
I1
ttRp12
sVhttp://shusterman.com/images/dream-3.jpg
p13
g3
(g4
g5
(g6
(S"\x07\xe0\x06\x14\x02' \t `"
tRp14
S'138'
p15
I1
ttRp16
sVhttp://www.pockettactics.com/wp-content/uploads/2014/12/sailors-dream-review-header.jpg
p17
g3
(g4
g5
(g6
(S'\x07\xe0\x06\x18\n\x10\x16\x07\x00\xaf'
tRp18
S'261'
p19
I1
ttRp20
sVhttps://pbs.twimg.com/profile_images/691731934377054212/T0QZdO9B.jpg
p21
g3
(g4
g5
(g6
(S'\x07\xe0\x08\x1e\x15!%\x01\x87\x80'
tRp22
S'335'
p23
I1
ttRp24
sVhttp://all4desktop.com/data_images/1920%20x%201080/4140304-two-suns-dream-world.jpg
p25
g3
(g4
g5
(g6
(S'\x07\xe0\x08\x18\x131;\x01\x11\xe3'
tRp26
I-1
I1
ttRp27
sVhttp://pastors.com/wp-content/uploads/2016/04/Dream.jpg
p28
g3
(g4
g5
(g6
(S'\x07\xe0\t\x0c\x0b*\x14\x07\x11\xd0'
tRp29
S'242'
p30
I1
ttRp31
sVhttp://fc08.deviantart.net/fs70/i/2013/077/3/f/wall_dream_big_by_analaurasam-d5yikgw.png
p32
g3
(g4
g5
(g6
(S'\x07\xe0\x05\x15\x17\x06*\x03\x14\x0b'
tRp33
S'238'
p34
I1
ttRp35
sVhttp://blog.ub.ac.id/hadiyaniafina/files/2013/04/dreams-speaks-louder.jpg
p36
g3
(g4
g5
(g6
(S'\x07\xe0\x08\x18\x131;\x01\x12\x14'
tRp37
I-1
I1
ttRp38
sVhttp://www.goal-setting-guide.com/wallpapersimages/DREAM-wall-1280-1024.jpg
p39
g3
(g4
g5
(g6
(S'\x07\xdf\x0c\x14\x10\x10\x10\x04.\xde'
tRp40
S'126'
p41
I2
ttRp42
sVhttp://kickofjoy.com/wp-content/uploads/2014/02/dreams-2.jpg
p43
g3
(g4
g5
(g6
(S'\x07\xdf\x0c\x06\x10\x13\x06\x0e\xe0l'
tRp44
S'78'
p45
I1
ttRp46
sVhttp://cdn.motocross.transworld.net/wp-content/blogs.dir/441/files/2015/07/robbie-maddison-pipe-dream-fb.jpg
p47
g3
(g4
g5
(g6
(S'\x07\xdf\x0c\x14\x10\x10\x10\x04/>'
tRp48
I-1
I2
ttRp49
sVhttp://eskipaper.com/images/amazing-dream-wallpaper-1.jpg
p50
g3
(g4
g5
(g6
(S'\x07\xe0\x08\x18\x131;\x01\x12x'
tRp51
S'269'
p52
I1
ttRp53
sVhttp://www.8womendream.com/wp-content/uploads/Why-its-hard-to-dream-big-quote-on-cherish-your-visions-by-James-Allen.jpg
p54
g3
(g4
g5
(g6
(S'\x07\xe0\x08\x1c\x15\x1d\x08\x03+\xcd'
tRp55
S'135'
p56
I3
ttRp57
sVhttp://science-all.com/images/wallpapers/dream-images/dream-images-9.jpg
p58
g3
(g4
g5
(g6
(S'\x07\xe0\x08\x18\x131;\x01\x12\xab'
tRp59
I-1
I1
ttRp60
sVhttp://onlineeducare.com/wp-content/uploads/2016/04/WDF_903234.jpg
p61
g3
(g4
g5
(g6
(S'\x07\xe0\x08\x1c\x15\x1d\x08\x03+\x9f'
tRp62
S'300'
p63
I1
ttRp64
sVhttps://pixabay.com/static/uploads/photo/2015/07/06/07/45/dreams-833054_960_720.jpg
p65
g3
(g4
g5
(g6
(S'\x07\xe0\x05\x11\x13\x1e\x10\x05\xdfi'
tRp66
S'186'
p67
I1
ttRp68
sVhttps://www.fumbletip.com/wp-content/uploads/2015/07/EN_dreambigspongeletters.jpg
p69
g3
(g4
g5
(g6
(S'\x07\xdf\x0c\n\x10\n;\x03\xd6\x85'
tRp70
I-1
I1
ttRp71
sVhttp://cdn-media-1.lifehack.org/wp-content/files/2013/09/11-Reasons-Why-Its-Important-to-Follow-Your-Dreams.jpg
p72
g3
(g4
g5
(g6
(S"\x07\xe0\x05\t\r'\x13\x01\xaf\xfb"
tRp73
S'205'
p74
I1
ttRp75
sVhttp://echoes19.files.wordpress.com/2012/10/black-and-white-girl-writing-dream-on-wall.jpg
p76
g3
(g4
g5
(g6
(S'\x07\xdf\n\x1b\r0\r\x0eA\xca'
tRp77
S'52'
p78
I1
ttRp79
sVhttps://i.ytimg.com/vi/Ved_tstvVvs/maxresdefault.jpg
p80
g3
(g4
g5
(g6
(S'\x07\xdf\x0c\x14\x10\x10\x10\x04/\xa4'
tRp81
S'106'
p82
I1
ttRp83
sVhttp://i.ytimg.com/vi/1ht8jVEvoRc/maxresdefault.jpg
p84
g3
(g4
g5
(g6
(S'\x07\xdf\x0c\x06\x10\x13\x06\x0e\xe1\x14'
tRp85
S'94'
p86
I1
ttRp87
sVhttp://pantheonuk.org/wp-content/uploads/2015/02/dream-way-hd-desktop-wallpaper.jpg
p88
g3
(g4
g5
(g6
(S'\x07\xdf\x0c\x06\x10\x13\x06\x0e\xe1\x10'
tRp89
S'42'
p90
I1
ttRp91
sVhttp://orig08.deviantart.net/4b77/f/2013/146/7/3/130525_follow_your_dreams_by_photoflake-d66mb1a.jpg
p92
g3
(g4
g5
(g6
(S"\x07\xe0\x05\t\r'\x13\x01\xb0/"
tRp93
S'178'
p94
I1
ttRp95
sVhttp://atldreamcenter.com/wp-content/uploads/2013/08/1796733_857564234269634_1369647639_o.jpg
p96
g3
(g4
g5
(g6
(S"\x07\xe0\x05\t\r'\x13\x01\xb0@"
tRp97
S'210'
p98
I2
ttRp99
sVhttp://cdn.quotesgram.com/img/35/44/1358461172-dreams-speaks-louder.jpg
p100
g3
(g4
g5
(g6
(S"\x07\xe0\x06\x14\x02' \t!A"
tRp101
S'255'
p102
I1
ttRp103
sVhttp://cdn.quotesgram.com/img/19/37/1631726664-dream-big-850px.jpg
p104
g3
(g4
g5
(g6
(S"\x07\xe0\x06\x14\x02' \t!D"
tRp105
S'259'
p106
I1
ttRp107
sVhttp://media.simogo.com/2014/07/thesailorsdream_screen_04.png
p108
g3
(g4
g5
(g6
(S'\x07\xe0\x05\x01\r\x0e\x0e\x0b\xf8\xba'
tRp109
S'183'
p110
I1
ttRp111
sVhttp://media.simogo.com/2014/07/thesailorsdream_screen_071.png
p112
g3
(g4
g5
(g6
(S'\x07\xe0\t\x0c\x0b*\x14\x07\x11\x9b'
tRp113
S'148'
p114
I2
ttRp115
sVhttp://science-all.com/images/wallpapers/dream-images/dream-images-10.jpg
p116
g3
(g4
g5
(g6
(S'\x07\xe0\x08\x12\x1268\x01V\xe5'
tRp117
I-1
I1
ttRp118
sVhttp://cdn-media-2.lifehack.org/wp-content/files/2013/08/Dream-Big.png
p119
g3
(g4
g5
(g6
(S"\x07\xe0\x06\x14\x02' \t k"
tRp120
S'40'
p121
I1
ttRp122
sVhttps://shusterman.com/images/dream-3.jpg
p123
g3
(g4
g5
(g6
(S'\x07\xe0\x06\x18\n\x10\x16\x07\x00\xb9'
tRp124
S'9'
I1
ttRp125
sVhttp://www.jamflo.com/users/akapellazmuziqk/wp-content/uploads/sites/822/edd/2016/01/635874488671732508-1849730022_Odyssey-Article-on-Dreams-Image-2.jpg
p126
g3
(g4
g5
(g6
(S'\x07\xe0\t\x0c\x0b*\x14\x07\x11\xc7'
tRp127
S'298'
p128
I1
ttRp129
sVhttps://s-media-cache-ak0.pinimg.com/736x/02/1c/de/021cdeb38d5ac415da6711131b5d41fc.jpg
p130
g3
(g4
g5
(g6
(S'\x07\xe0\x06\r\x16/\x1d\x08\x9fi'
tRp131
S'87'
p132
I1
ttRp133
sVhttp://www.smartambala.com/wp-content/uploads/2012/09/Dream-Quote-119.jpg
p134
g3
(g4
g5
(g6
(S'\x07\xe0\t\x0c\x0b*\x14\x07\x12*'
tRp135
S'346'
p136
I1
ttRp137
sVhttp://www.gateway-to-lucid-dreaming.com/images/WILD_flying.jpg
p138
g3
(g4
g5
(g6
(S'\x07\xdf\x0b\x18\x0e\x18\x01\n\x8d*'
tRp139
S'31'
p140
I1
ttRp141
sVhttp://www.youcanluciddream.com/wp-content/uploads/2011/10/two_types_of_dream_by_desexign-full.jpg
p142
g3
(g4
g5
(g6
(S'\x07\xe0\x08\x1c\x15\x1d\x08\x03+\xbd'
tRp143
S'35'
p144
I1
ttRp145
sVhttp://www.lorianngarner.com/wp-content/uploads/2015/12/dream-big.jpg
p146
g3
(g4
g5
(g6
(S'\x07\xe0\x08\x12\x1268\x01V\xa7'
tRp147
S'318'
p148
I1
ttRp149
sVhttps://f1.bcbits.com/img/a3925758384_10.jpg
p150
g3
(g4
g5
(g6
(S'\x07\xdf\x0c\x14\x10\x10\x10\x04.\xce'
tRp151
S'105'
p152
I1
ttRp153
sVhttps://c2.staticflickr.com/6/5217/5473595994_8160684fd8_b.jpg
p154
g3
(g4
g5
(g6
(S'\x07\xdf\x0c\x14\x10\x10\x10\x04/p'
tRp155
S'103'
p156
I1
ttRp157
sVhttp://static.boredpanda.com/blog/wp-content/uuuploads/interesting-facts-dreams/13-Interesting-Facts-about-Dreams-flowers.jpg
p158
g3
(g4
g5
(g6
(S'\x07\xe0\t\x0c\x0b*\x14\x07\x13\x02'
tRp159
S'333'
p160
I1
ttRp161
sVhttp://e2ua.com/data/wallpapers/43/WDF_903178.jpg
p162
g3
(g4
g5
(g6
(S'\x07\xe0\x04\x19\n\x183\x01\x83\xf0'
tRp163
I-1
I1
ttRp164
sVhttp://cdn1.theodysseyonline.com/files/2016/01/29/635896422787272319-1663804671_dream%20big.jpg
p165
g3
(g4
g5
(g6
(S'\x07\xe0\x05\x15\x17\x06*\x03\x14\x86'
tRp166
S'241'
p167
I1
ttRp168
sVhttp://assets.faena.com/wp-content/uploads/sites/4/2015/06/dream-atlas-opcion-2.jpg
p169
g3
(g4
g5
(g6
(S'\x07\xe0\x08\x1e\x15!%\x01\x88\x0b'
tRp170
S'253'
p171
I2
ttRp172
sVhttp://cdn.motocross.transworld.net/wp-content/blogs.dir/441/files/2015/07/pipe-dream-header.png
p173
g3
(g4
g5
(g6
(S'\x07\xe0\x07\r\x11#.\x02\x99\xd1'
tRp174
I-1
I1
ttRp175
sVhttp://s8.favim.com/orig/151029/alone-autumn-away-city-dreams-Favim.com-3495149.png
p176
g3
(g4
g5
(g6
(S'\x07\xe0\t\x0c\x0b*\x14\x07\x13\r'
tRp177
S'289'
p178
I1
ttRp179
sVhttp://images.huffingtonpost.com/2013-12-27-shutterstock_95252467_Dreams_Cloud_Death.jpg
p180
g3
(g4
g5
(g6
(S'\x07\xe0\n\x1e\x12\x11/\x08V('
tRp181
S'188'
p182
I1
ttRp183
sVhttp://www.survivefirstaid.com.au/wp-content/uploads/1-Dare-to-Dream1-e1409741195270-820x408.jpg
p184
g3
(g4
g5
(g6
(S'\x07\xe0\x07\r\x11#.\x02\x99\xbf'
tRp185
S'283'
p186
I1
ttRp187
sVhttp://images4.fanpop.com/image/photos/20500000/Dream-castle-daydreaming-20507056-2560-1920.jpg
p188
g3
(g4
g5
(g6
(S'\x07\xe0\x08\x18\x131;\x01\x13\xc5'
tRp189
I-1
I1
ttRp190
sVhttp://ctcw.net/wp-content/uploads/Holman_Josephs_Dream.jpg
p191
g3
(g4
g5
(g6
(S'\x07\xdf\x0c\x14\x10\x10\x10\x04/G'
tRp192
I-1
I1
ttRp193
sVhttps://upload.wikimedia.org/wikipedia/commons/2/2b/Purple_dream_at_Masai_Mara.jpg
p194
g3
(g4
g5
(g6
(S'\x07\xe0\t\x0c\x0b*\x14\x07\x13v'
tRp195
S'93'
p196
I1
ttRp197
sVhttp://images.huffingtonpost.com/2014-01-16-shutterstock_114318994.jpg
p198
g3
(g4
g5
(g6
(S'\x07\xe0\x05\x15\x17\x06*\x03\x14&'
tRp199
S'189'
p200
I2
ttRp201
sVhttp://img15.deviantart.net/d8dc/i/2013/291/b/2/paradise_is_just_a_dream_by_morgainelefee-d6qxt8x.jpg
p202
g3
(g4
g5
(g6
(S'\x07\xe0\x05\x03\r\x0f/\x0e\xc1\xff'
tRp203
S'208'
p204
I1
ttRp205
sVhttps://gloveo.com/wp-content/uploads/2015/12/manic-pixie-dream-girl.jpg
p206
g3
(g4
g5
(g6
(S'\x07\xe0\x06\x07\x16,\x17\x05\x85~'
tRp207
I-1
I1
ttRp208
sVhttp://www.ilikewallpaper.net/ipad-air-wallpapers/download/4456/Dream-iPad-4-wallpaper-ilikewallpaper_com.jpg
p209
g3
(g4
g5
(g6
(S'\x07\xe0\x08\x18\x131;\x01\x11Q'
tRp210
S'262'
p211
I1
ttRp212
sVhttp://elitetrack.com/wp-content/uploads/2016/04/211.jpg
p213
g3
(g4
g5
(g6
(S'\x07\xe0\x08\x1e\x15!%\x01\x87\x8f'
tRp214
S'280'
p215
I1
ttRp216
sVhttp://e2ua.com/data/wallpapers/43/WDF_903495.jpg
p217
g3
(g4
g5
(g6
(S'\x07\xe0\x04\x19\n\x183\x01\x83:'
tRp218
I-1
I1
ttRp219
sVhttp://images.huffingtonpost.com/2013-12-27-shutterstock_162685259_Dreams_Cloud_Flying.jpg
p220
g3
(g4
g5
(g6
(S'\x07\xdf\x0c\x14\x10\x10\x10\x04/['
tRp221
S'125'
p222
I1
ttRp223
sVhttp://www.nrpastors.com/wp-content/uploads/2015/10/dream.jpg
p224
g3
(g4
g5
(g6
(S'\x07\xe0\x08\x1e\x15!%\x01\x87\xaa'
tRp225
I-1
I1
ttRp226
sVhttp://cdn-media-2.lifehack.org/wp-content/files/2012/10/make-dreams-come-true.jpg
p227
g3
(g4
g5
(g6
(S'\x07\xe0\n\x1e\x12\x11/\x08U\xf9'
tRp228
S'26'
p229
I1
ttRp230
sVhttp://az616578.vo.msecnd.net/files/2016/04/15/635963556385883343-1341965896_dreamscape.jpg
p231
g3
(g4
g5
(g6
(S'\x07\xe0\x08\x1e\x15!%\x01\x87\xc0'
tRp232
S'168'
p233
I1
ttRp234
sVhttp://churchimagenetwork.com/ghfc/wp-content/uploads/2015/10/a-lodier-s-dream-hd-wallpaper-332996.jpg
p235
g3
(g4
g5
(g6
(S'\x07\xe0\x05\x01\r\x0e\x0e\x0b\xf9\x89'
tRp236
I-1
I1
ttRp237
sVhttp://static.boredpanda.com/blog/wp-content/uuuploads/interesting-facts-dreams/13-Interesting-Facts-about-Dreams-flying.jpg
p238
g3
(g4
g5
(g6
(S'\x07\xe0\x08\x1e\x15!%\x01\x87\xf7'
tRp239
S'326'
p240
I1
ttRp241
sVhttp://psychictarona.com/wp-content/uploads/2015/03/dream-girlandsky.jpg
p242
g3
(g4
g5
(g6
(S'\x07\xdf\x0b\x13\x0e\x17"\x08\x0c\xdc'
tRp243
S'72'
p244
I1
ttRp245
sVhttps://tedconfblog.files.wordpress.com/2016/02/dream-image.png?w=900&h=614
p246
g3
(g4
g5
(g6
(S"\x07\xe0\x06\x14\x02' \t \xd4"
tRp247
S'195'
p248
I1
ttRp249
sVhttp://rickwarren.org/images/default-source/Devotional-Images/01-05-16-daring-faith-god-can-top-your-biggest-dream.jpg?sfvrsn=0
p250
g3
(g4
g5
(g6
(S'\x07\xe0\x07\x07\x10\x07\x0c\x02\x05u'
tRp251
S'199'
p252
I1
ttRp253
sVhttps://evbdn.eventbrite.com/s3-s3/eventlogos/2995386/4617-1.jpg
p254
g3
(g4
g5
(g6
(S'\x07\xdf\x0c\x14\x10\x10\x10\x04/\xb8'
tRp255
S'75'
p256
I1
ttRp257
sVhttp://image.shutterstock.com/z/stock-photo-dream-cloud-word-95605240.jpg
p258
g3
(g4
g5
(g6
(S'\x07\xe0\x08\x1e\x15!%\x01\x88^'
tRp259
S'136'
p260
I1
ttRp261
sVhttp://www.cfau-pd.net/images/dream-images/dream-images-2.jpg
p262
g3
(g4
g5
(g6
(S'\x07\xe0\t\x0c\x0b*\x14\x07\x13c'
tRp263
S'344'
p264
I1
ttRp265
sVhttp://www.finerminds.com/wp-content/uploads/2015/08/shutterstock_250236022.jpg
p266
g3
(g4
g5
(g6
(S'\x07\xe0\n\x1e\x12\x11/\x08V.'
tRp267
I-1
I1
ttRp268
sVhttp://theunboundedspirit.com/wp-content/uploads/2012/11/dream.jpg
p269
g3
(g4
g5
(g6
(S'\x07\xdf\x0c\x14\x10\x10\x10\x04.\xae'
tRp270
I-1
I1
ttRp271
sVhttp://www.download-free-wallpaper.com/img70/aqlweyfkzpmrbxxexwno.jpg
p272
g3
(g4
g5
(g6
(S'\x07\xdf\x0c\x14\x10\x10\x10\x04/c'
tRp273
I-1
I2
ttRp274
sVhttp://cdn.playbuzz.com/cdn/3d338470-52fa-4cb5-8ebf-aa388896d289/a89040ff-e9de-44ec-8065-e5a2ab837634.jpg
p275
g3
(g4
g5
(g6
(S'\x07\xe0\x04\x15\n\x102\x04\x8e\xc4'
tRp276
S'215'
p277
I1
ttRp278
sVhttps://i.ytimg.com/vi/rfCCF40by-A/maxresdefault.jpg
p279
g3
(g4
g5
(g6
(S'\x07\xe0\x08\x18\x131;\x01\x11\xd6'
tRp280
S'162'
p281
I1
ttRp282
sVhttp://jeremyryanslate.com/wp-content/uploads/2016/07/dreams-1.jpg?b8226b
p283
g3
(g4
g5
(g6
(S'\x07\xe0\t\x0c\x0b*\x14\x07\x12L'
tRp284
S'349'
p285
I1
ttRp286
sVhttps://i.ytimg.com/vi/AhQbGNf8Ix0/hqdefault.jpg
p287
g3
(g4
g5
(g6
(S'\x07\xe0\t\x0c\x0b*\x14\x07\x12!'
tRp288
S'58'
p289
I2
ttRp290
sVhttp://i1045.photobucket.com/albums/b460/mjr_attitude/anibd16.gif
p291
g3
(g4
g5
(g6
(S'\x07\xe0\x08\x1e\x15!%\x01\x87\xd5'
tRp292
S'340'
p293
I1
ttRp294
sVhttp://e2ua.com/data/wallpapers/43/WDF_903234.jpg
p295
g3
(g4
g5
(g6
(S'\x07\xe0\x04\x15\n\x102\x04\x8f\n'
tRp296
I-1
I1
ttRp297
sVhttp://fungerms.com/wp-content/uploads/2013/12/sayings-on-dream.jpg
p298
g3
(g4
g5
(g6
(S'\x07\xdf\x0b\x18\x0e\x18\x01\n\x8d$'
tRp299
S'76'
p300
I1
ttRp301
sVhttp://www.dreamhotels.com/d/midtown/mod_pukkaSimpleRooms/itemImage_531.jpg?1421171440
p302
g3
(g4
g5
(g6
(S'\x07\xe0\x07\x07\x10\x07\x0c\x02\x04\xe5'
tRp303
S'153'
p304
I1
ttRp305
sVhttp://cdn1.medicalnewstoday.com/content/images/articles/284/284378/playing-violin-in-dream.jpg
p306
g3
(g4
g5
(g6
(S'\x07\xe0\t\x0c\x0b*\x14\x07\x12\xc6'
tRp307
S'66'
p308
I1
ttRp309
sVhttp://brandwiki.today/wellnessgospel/files/2015/03/Journey_Of_Dreams_by_jerry8448.jpg
p310
g3
(g4
g5
(g6
(S'\x07\xe0\x05\x03\r\x0f/\x0e\xc1U'
tRp311
S'190'
p312
I2
ttRp313
sVhttp://www.chicagonow.com/god-running-partner/files/2015/03/dream.jpg
p314
g3
(g4
g5
(g6
(S'\x07\xdf\x0b\x18\x0e\x18\x01\n\x8dp'
tRp315
S'41'
p316
I1
ttRp317
sVhttp://e2ua.com/data/wallpapers/162/WDF_2025236.jpg
p318
g3
(g4
g5
(g6
(S'\x07\xe0\x04\x15\n\x102\x04\x8f>'
tRp319
I-1
I1
ttRp320
sVhttps://quotefancy.com/media/wallpaper/3840x2160/22527-Walt-Disney-Quote-If-you-can-dream-it-you-can-do-it.jpg
p321
g3
(g4
g5
(g6
(S'\x07\xe0\x08\x12\x1268\x01W$'
tRp322
S'264'
p323
I2
ttRp324
sVhttp://churchofchristarticles.com/blog/wp-content/uploads/2011/08/dream-girl.jpg
p325
g3
(g4
g5
(g6
(S'\x07\xe0\x07\x07\x10\x07\x0c\x02\x05D'
tRp326
S'154'
p327
I1
ttRp328
sVhttp://youngmoneyhacker.com/wp-content/uploads/2013/01/Dream.jpg
p329
g3
(g4
g5
(g6
(S'\x07\xe0\x06\x07\x16,\x17\x05\x84\xf7'
tRp330
S'197'
p331
I1
ttRp332
sVhttp://www.beliefnet.com/columnists/everydayinspiration/files/2015/05/dream-back-on-track.jpg
p333
g3
(g4
g5
(g6
(S'\x07\xdf\x0b\x18\x0e\x18\x01\n\x8dg'
tRp334
S'16'
p335
I1
ttRp336
sVhttp://cdn1.pri.org/sites/default/files/styles/story_main/public/story/images/DIANA%20GAMEROS%20B%26W%20GUITAR%20CASE.jpg?itok=0CgdP_2a
p337
g3
(g4
g5
(g6
(S'\x07\xe0\x06\r\x16/\x1d\x08\x9e\xda'
tRp338
S'203'
p339
I1
ttRp340
sVhttp://www.hotel-r.net/im/hotel/es/dream-10.jpg
p341
g3
(g4
g5
(g6
(S'\x07\xe0\t\x0c\x0b*\x14\x07\x13E'
tRp342
S'332'
p343
I1
ttRp344
sVhttps://lsatmax.com/wp-content/uploads/2013/05/two_types_of_dream_by_desexign-full.jpg
p345
g3
(g4
g5
(g6
(S'\x07\xe0\x07\x01\r:\x03\r\x1b6'
tRp346
S'304'
p347
I1
ttRp348
sVhttp://s.hswstatic.com/gif/lucid-dream-flying.jpg
p349
g3
(g4
g5
(g6
(S'\x07\xe0\t\x0c\x0b*\x14\x07\x13i'
tRp350
S'345'
p351
I1
ttRp352
sVhttp://fractal.fractalenlighten.netdna-cdn.com/wp-content/uploads/2014/10/luciddreamingimage2.jpg
p353
g3
(g4
g5
(g6
(S'\x07\xdf\n\x1b\r0\r\x0eA\xfc'
tRp354
S'1'
I2
ttRp355
sVhttp://7-themes.com/data_images/out/22/6842294-dream-wallpaper.jpg
p356
g3
(g4
g5
(g6
(S'\x07\xe0\t\x0c\x0b*\x14\x07\x13\x81'
tRp357
S'4'
I1
ttRp358
sVhttp://science-all.com/images/wallpapers/dream-images/dream-images-21.jpg
p359
g3
(g4
g5
(g6
(S'\x07\xe0\x06\r\x16/\x1d\x08\x9d\xb3'
tRp360
S'247'
p361
I1
ttRp362
sVhttp://pre03.deviantart.net/8fcc/th/pre/f/2016/110/2/b/dream_escape_by_yuumei-d9zlsvq.jpg
p363
g3
(g4
g5
(g6
(S'\x07\xe0\x08\x1c\x15\x1d\x08\x03+5'
tRp364
S'331'
p365
I2
ttRp366
sVhttp://d3i6fh83elv35t.cloudfront.net/newshour/wp-content/uploads/2015/11/GettyImages-459146393-1024x717.jpg
p367
g3
(g4
g5
(g6
(S'\x07\xe0\n\x1e\x12\x11/\x08V\x1a'
tRp368
S'226'
p369
I1
ttRp370
sVhttp://7-themes.com/data_images/out/22/6842299-dream-wallpaper.jpg
p371
g3
(g4
g5
(g6
(S'\x07\xe0\x08\x18\x131;\x01\x11\x85'
tRp372
I-1
I1
ttRp373
sVhttps://upload.wikimedia.org/wikipedia/commons/a/a9/Briullov,_Karl_-_A_Dream_of_a_Girl_Before_a_Sunrise.jpg
p374
g3
(g4
g5
(g6
(S'\x07\xe0\x06\r\x16/\x1d\x08\x9f\x05'
tRp375
S'185'
p376
I1
ttRp377
sVhttp://www.cfau-pd.net/images/dream-images/dream-images-13.jpg
p378
g3
(g4
g5
(g6
(S'\x07\xe0\x08\x18\x131;\x01\x11\xbb'
tRp379
S'317'
p380
I1
ttRp381
sVhttp://www.dreamdictionary.org/wp-content/uploads/2010/04/WILD_flying.jpg
p382
g3
(g4
g5
(g6
(S'\x07\xe0\t\x0c\x0b*\x14\x07\x11\xfd'
tRp383
S'294'
p384
I1
ttRp385
sVhttp://randalldsmith.com/wp-content/uploads/2015/01/dream.jpg
p386
g3
(g4
g5
(g6
(S'\x07\xe0\x08\x12\x1268\x01V\x9f'
tRp387
S'10'
p388
I1
ttRp389
sVhttp://boards.420chan.org/dr/src/1471800402713.jpg
p390
g3
(g4
g5
(g6
(S'\x07\xe0\x08\x1e\x15!%\x01\x87U'
tRp391
S'341'
p392
I1
ttRp393
sVhttp://www.gracewaynesboro.com/wp-content/uploads/2014/08/a-lodier-s-dream-hd-wallpaper-332996.jpg
p394
g3
(g4
g5
(g6
(S'\x07\xdf\x0c\n\x10\n;\x03\xd6E'
tRp395
S'6'
I1
ttRp396
sVhttp://6iee.com/data/uploads/15/430595.jpg
p397
g3
(g4
g5
(g6
(S'\x07\xe0\x08\x08\x12.3\n\xad\x8c'
tRp398
I-1
I1
ttRp399
sVhttp://img05.deviantart.net/bdca/i/2012/021/0/8/the_dream_walker_by_theflickerees-d3cx8zh.jpg
p400
g3
(g4
g5
(g6
(S'\x07\xe0\x06\r\x16/\x1d\x08\x9ev'
tRp401
S'86'
p402
I2
ttRp403
sVhttp://uppercases.net/wp-content/uploads/2012/10/case_dream_big-1024x768.jpg
p404
g3
(g4
g5
(g6
(S'\x07\xdf\x0c\x14\x10\x10\x10\x04/l'
tRp405
S'98'
p406
I1
ttRp407
sVhttps://www.rantlifestyle.com/wp-content/uploads/2014/08/703.-More-Than-One-Dream.jpg
p408
g3
(g4
g5
(g6
(S'\x07\xe0\x07\x07\x10\x07\x0c\x02\x052'
tRp409
S'260'
p410
I1
ttRp411
sVhttp://asfort.org/wp-content/uploads/2016/04/dream1.jpg
p412
g3
(g4
g5
(g6
(S"\x07\xe0\x06\x14\x02' \t \xf5"
tRp413
S'232'
p414
I1
ttRp415
sVhttp://static1.squarespace.com/static/52d3818ae4b067bcd605cc0c/t/55e0123be4b020dde60fbf48/1440748098682/Dreamanddo_work
p416
g3
(g4
g5
(g6
(S'\x07\xe0\t\x0c\x0b*\x14\x07\x13\x15'
tRp417
S'282'
p418
I1
ttRp419
sVhttps://pixabay.com/static/uploads/photo/2015/05/02/09/32/surreal-749685_960_720.jpg
p420
g3
(g4
g5
(g6
(S'\x07\xe0\x05\x03\r\x0f/\x0e\xc1\xbc'
tRp421
S'221'
p422
I1
ttRp423
sVhttp://ripplekindness.org/wp-content/uploads/2015/07/Dig-deeper-to-manifest-your-dreams.jpg
p424
g3
(g4
g5
(g6
(S'\x07\xe0\t\x0c\x0b*\x14\x07\x13L'
tRp425
S'328'
p426
I1
ttRp427
sVhttps://c1.staticflickr.com/8/7723/16630001184_4c4c6bfb04_b.jpg
p428
g3
(g4
g5
(g6
(S"\x07\xe0\x06\x14\x02' \t!2"
tRp429
S'177'
p430
I1
ttRp431
sVhttp://cdn-media-1.lifehack.org/wp-content/files/2013/08/Dream-Big.png
p432
g3
(g4
g5
(g6
(S'\x07\xe0\x07\x07\x10\x07\x0c\x02\x05\x81'
tRp433
S'288'
p434
I1
ttRp435
sVhttp://jeremyryanslate.com/wp-content/uploads/2016/07/dreams-1.jpg
p436
g3
(g4
g5
(g6
(S'\x07\xe0\t\n\x0b\x18\r\x07w\x8d'
tRp437
S'348'
p438
I1
ttRp439
sVhttp://bestmusicbook.com/wp-content/uploads/2014/10/HQ-Fish-In-The-Ocean-Dream-Girl-Hd-Wallpaper.jpg
p440
g3
(g4
g5
(g6
(S'\x07\xdf\x0c\n\x10\n;\x03\xd6R'
tRp441
S'99'
p442
I2
ttRp443
sVhttps://i.ytimg.com/vi/kLYzP2yfK0c/maxresdefault.jpg
p444
g3
(g4
g5
(g6
(S'\x07\xe0\t\x0c\x0b*\x14\x07\x12<'
tRp445
S'88'
p446
I2
ttRp447
sVhttp://kickofjoy.com/wp-content/uploads/2014/02/dare-to-dream.jpg
p448
g3
(g4
g5
(g6
(S'\x07\xdf\x0c\x14\x10\x10\x10\x04/\xc4'
tRp449
S'28'
p450
I1
ttRp451
sVhttp://cdn1.theodysseyonline.com/files/2016/01/15/635884265052408808219653933_Dream-Big.png
p452
g3
(g4
g5
(g6
(S'\x07\xe0\x05\x15\x17\x06*\x03\x14\xba'
tRp453
S'191'
p454
I2
ttRp455
sVhttp://cdn-media-1.lifehack.org/wp-content/files/2014/12/Go-after-your-dream-no-matter-how-unattainable-others-think-it-is.png
p456
g3
(g4
g5
(g6
(S'\x07\xe0\t\x0c\x0b*\x14\x07\x11y'
tRp457
S'33'
p458
I1
ttRp459
sVhttp://www.slantmagazine.com/assets/house/23339/games_sailorsdream.jpg
p460
g3
(g4
g5
(g6
(S'\x07\xe0\x07\x01\r:\x03\r\x19\x85'
tRp461
S'79'
p462
I1
ttRp463
sVhttp://thehowardtheatre.com/assets/The-Dream-652x367.jpg
p464
g3
(g4
g5
(g6
(S'\x07\xe0\x08\x1e\x15!%\x01\x87{'
tRp465
S'284'
p466
I1
ttRp467
sVhttp://blog.cremationsolutions.com/wp-content/uploads/2014/10/Dreams-3.jpg
p468
g3
(g4
g5
(g6
(S'\x07\xdf\x0b\x18\x0e\x18\x01\n\x8c\xff'
tRp469
S'47'
p470
I1
ttRp471
sVhttp://cdn-media-2.lifehack.org/wp-content/files/2013/09/11-Reasons-Why-Its-Important-to-Follow-Your-Dreams.jpg
p472
g3
(g4
g5
(g6
(S'\x07\xe0\x05\x11\x13\x1e\x10\x05\xdbz'
tRp473
S'228'
p474
I2
ttRp475
sVhttp://www.pbs.org/newshour/wp-content/uploads/2015/11/GettyImages-459146393-1024x717.jpg
p476
g3
(g4
g5
(g6
(S"\x07\xe0\x05\t\r'\x13\x01\xafx"
tRp477
S'150'
p478
I1
ttRp479
sVhttp://orig05.deviantart.net/e511/f/2009/329/6/4/dream_world_by_yaxxe.jpg
p480
g3
(g4
g5
(g6
(S'\x07\xe0\x08\x12\x1268\x01Va'
tRp481
S'263'
p482
I1
ttRp483
sVhttps://i.ytimg.com/vi/lsj_3c8mA3M/maxresdefault.jpg
p484
g3
(g4
g5
(g6
(S'\x07\xdf\x0c\x14\x10\x10\x10\x04/\x0b'
tRp485
S'122'
p486
I1
ttRp487
sVhttp://www.pic.cx/img70/zkpftxjkepvqanimyxmn.jpg
p488
g3
(g4
g5
(g6
(S'\x07\xe0\x08\x18\x131;\x01\x12 '
tRp489
I-1
I1
ttRp490
sVhttp://d.wildapricot.net/images/newsblog/dream.jpg?sfvrsn=1
p491
g3
(g4
g5
(g6
(S"\x07\xe0\x07\r\x11#.\x02\x99'"
tRp492
S'34'
p493
I1
ttRp494
sVhttp://www.dreamonapp.com/img/femaledreams.jpg
p495
g3
(g4
g5
(g6
(S'\x07\xdf\x0c\x14\x10\x10\x10\x04/\xb4'
tRp496
S'22'
p497
I1
ttRp498
sVhttps://i.ytimg.com/vi/TOg4TZH9uS4/maxresdefault.jpg
p499
g3
(g4
g5
(g6
(S'\x07\xe0\x08\x12\x1268\x01V\x8e'
tRp500
S'64'
p501
I2
ttRp502
sVhttp://6iee.com/data/uploads/15/647559.jpg
p503
g3
(g4
g5
(g6
(S'\x07\xe0\x08\x12\x1268\x01V\x97'
tRp504
I-1
I1
ttRp505
sVhttp://www.dreamanity.com/wp-content/uploads/2014/02/dream-interpretation-and-the-function-of-our-dreams.jpg
p506
g3
(g4
g5
(g6
(S'\x07\xe0\x05\x03\r\x0f/\x0e\xc0\xf8'
tRp507
S'217'
p508
I1
ttRp509
sVhttp://www.iflscience.com/sites/www.iflscience.com/files/blog/%5Bnid%5D/shutterstock_250236022.jpg
p510
g3
(g4
g5
(g6
(S"\x07\xe0\x05\t\r'\x13\x01\xb04"
tRp511
S'157'
p512
I1
ttRp513
sVhttp://dreamlifecoachtraining.com/wp-content/uploads/2013/10/Resurrection.jpg
p514
g3
(g4
g5
(g6
(S'\x07\xe0\x07\x01\r:\x03\r\x1a\xf8'
tRp515
S'149'
p516
I1
ttRp517
sVhttps://au29.files.wordpress.com/2016/05/dreams.jpg?w=656
p518
g3
(g4
g5
(g6
(S'\x07\xe0\t\x0c\x0b*\x14\x07\x12\xb5'
tRp519
S'323'
p520
I1
ttRp521
sVhttp://images.huffingtonpost.com/2013-12-17-DreamsCloudDreamInterpretationWhyDoWeDream1.jpg
p522
g3
(g4
g5
(g6
(S'\x07\xdf\x0c\x14\x10\x10\x10\x04/_'
tRp523
S'91'
p524
I1
ttRp525
sVhttp://paulcbrunson.wpengine.com/wp-content/uploads/2014/01/Dreams.jpg
p526
g3
(g4
g5
(g6
(S'\x07\xe0\t\x0c\x0b*\x14\x07\x12k'
tRp527
I-1
I1
ttRp528
sVhttp://az616578.vo.msecnd.net/files/2016/01/15/635884265052408808219653933_Dream-Big.png
p529
g3
(g4
g5
(g6
(S'\x07\xe0\x06\r\x16/\x1d\x08\x9e\xba'
tRp530
S'246'
p531
I1
ttRp532
sVhttp://thefishbowlnetwork.com/blog/wp-content/uploads/2014/01/Dream.jpg
p533
g3
(g4
g5
(g6
(S'\x07\xe0\n\x1e\x12\x11/\x08V\x0f'
tRp534
S'343'
p535
I1
ttRp536
sVhttps://i.ytimg.com/vi/1ht8jVEvoRc/maxresdefault.jpg
p537
g3
(g4
g5
(g6
(S'\x07\xe0\x07\x01\r:\x03\r\x1a\xeb'
tRp538
S'97'
p539
I1
ttRp540
sVhttps://i.ytimg.com/vi/nOnrDAjdr7s/maxresdefault.jpg
p541
g3
(g4
g5
(g6
(S'\x07\xe0\t\x0c\x0b*\x14\x07\x13&'
tRp542
S'145'
p543
I2
ttRp544
sVhttp://www.engineering.com/Portals/0/BlogFiles/Anthony%20Fasano/path%20toward%20dream%20engineering%20job.jpg
p545
g3
(g4
g5
(g6
(S'\x07\xe0\x08\x1e\x15!%\x01\x88,'
tRp546
S'286'
p547
I1
ttRp548
sVhttp://www.hmmrmedia.com/wp-content/uploads/2016/04/starting_line.jpg
p549
g3
(g4
g5
(g6
(S'\x07\xe0\x08\x1e\x15!%\x01\x880'
tRp550
S'155'
p551
I1
ttRp552
sVhttp://ssl.quiksilver.com/static/DC/default/category-assets/cat-experiences/maddo_collab/img/intro/homepage.jpg
p553
g3
(g4
g5
(g6
(S'\x07\xe0\x07\x01\r:\x03\r\x1b\x1e'
tRp554
S'112'
p555
I1
ttRp556
sVhttps://i.ytimg.com/vi/YYLZrCuhu_0/maxresdefault.jpg
p557
g3
(g4
g5
(g6
(S'\x07\xe0\x08\x12\x1268\x01W\xc8'
tRp558
S'314'
p559
I1
ttRp560
sVhttp://youthvoices.net/sites/default/files/image/10895/apr/_victim_of_a_dream__by_nonnetta.jpg
p561
g3
(g4
g5
(g6
(S'\x07\xe0\x06\r\x16/\x1d\x08\x9fX'
tRp562
I-1
I1
ttRp563
sVhttps://i.unu.edu/media/ourworld.unu.edu-en/article/5174/energy-dream.jpg
p564
g3
(g4
g5
(g6
(S'\x07\xe0\x08\x1e\x15!%\x01\x88f'
tRp565
S'338'
p566
I1
ttRp567
sVhttps://destinationsanfranciscoblog.files.wordpress.com/2015/07/1370771268-157313623.jpg
p568
g3
(g4
g5
(g6
(S'\x07\xdf\x0b\x18\x0e\x18\x01\n\x8d\xae'
tRp569
S'37'
p570
I1
ttRp571
sVhttp://careerrocketeercom.c.presscdn.com/wp-content/uploads/Career-Ambitions.jpg
p572
g3
(g4
g5
(g6
(S'\x07\xdf\x0b\x13\x0e\x17"\x08\x0b\xf0'
tRp573
S'36'
p574
I1
ttRp575
sVhttp://cdni.wired.co.uk/1920x1280/d_f/dream-memory.jpg
p576
g3
(g4
g5
(g6
(S'\x07\xe0\x04\x19\n\x183\x01\x83\x04'
tRp577
S'18'
p578
I1
ttRp579
sVhttp://blogs-images.forbes.com/teradata/files/2015/09/Dream-Big.jpg
p580
g3
(g4
g5
(g6
(S'\x07\xe0\t\x0c\x0b*\x14\x07\x11\xbe'
tRp581
S'237'
p582
I2
ttRp583
sVhttp://www.dreamdictionarynow.com/wp-content/uploads/2014/07/how-to-control-your-dreams-with-dream-incubation.jpg
p584
g3
(g4
g5
(g6
(S"\x07\xe0\x05\t\r'\x13\x01\xaf|"
tRp585
I-1
I1
ttRp586
sVhttp://animal-dream.com/data_images/dreams.jpg
p587
g3
(g4
g5
(g6
(S'\x07\xe0\t\x0c\x0b*\x14\x07\x11\xe1'
tRp588
S'257'
p589
I1
ttRp590
sVhttp://islamicencyclopedia.org/public/blog_images/526_WG-2010-Birth-of-Dreams.jpg
p591
g3
(g4
g5
(g6
(S'\x07\xe0\x06\x07\x16,\x17\x05\x84\xb5'
tRp592
S'187'
p593
I1
ttRp594
sVhttp://www.tedxtorvergatau.com/images/news/Dare-to-dream.jpg
p595
g3
(g4
g5
(g6
(S'\x07\xe0\x05\x15\x17\x06*\x03\x14!'
tRp596
S'173'
p597
I1
ttRp598
sVhttps://i.ytimg.com/vi/90Fu8fZlq30/maxresdefault.jpg
p599
g3
(g4
g5
(g6
(S'\x07\xdf\x0c\x14\x10\x10\x10\x04/:'
tRp600
S'123'
p601
I1
ttRp602
sVhttp://az616578.vo.msecnd.net/files/2016/03/11/635933201370480331-2029777550_dream%20big.png
p603
g3
(g4
g5
(g6
(S'\x07\xe0\n\x1e\x12\x11/\x08V\x01'
tRp604
S'198'
p605
I1
ttRp606
sVhttp://www.fubiz.net/wp-content/uploads/2012/06/Dream.jpg
p607
g3
(g4
g5
(g6
(S'\x07\xe0\x06\x1d\x02\x16,\x02]\x1b'
tRp608
S'273'
p609
I1
ttRp610
sVhttp://img.freepik.com/free-vector/dream-summer-vacation-background_23-2147513770.jpg?size=338&ext=jpg
p611
g3
(g4
g5
(g6
(S'\x07\xe0\x07\r\x11#.\x02\x99['
tRp612
S'277'
p613
I1
ttRp614
sVhttp://thefactfile.org/wp-content/uploads/2015/10/dream-facts.jpg
p615
g3
(g4
g5
(g6
(S'\x07\xe0\x05\x15\x17\x06*\x03\x14E'
tRp616
S'174'
p617
I1
ttRp618
sVhttp://www.rooshv.com/wp-content/uploads/2016/05/dreaming-604x270.jpg
p619
g3
(g4
g5
(g6
(S'\x07\xe0\t\x0c\x0b*\x14\x07\x12\x90'
tRp620
I-1
I1
ttRp621
sVhttp://soulsurfing.website/wp-content/uploads/2015/10/two_types_of_dream_by_desexign-full.jpg
p622
g3
(g4
g5
(g6
(S'\x07\xe0\x04\x15\n\x102\x04\x8fD'
tRp623
S'74'
p624
I1
ttRp625
sVhttp://hccgoshen.org/wp-content/uploads/2015/01/Dream-Big-PPT-Title.jpg
p626
g3
(g4
g5
(g6
(S'\x07\xe0\t\x0c\x0b*\x14\x07\x13,'
tRp627
S'19'
p628
I1
ttRp629
sVhttp://www.emme-magazine.com/wp-content/uploads/2013/05/dream1.jpeg
p630
g3
(g4
g5
(g6
(S'\x07\xdf\x0c\x14\x10\x10\x10\x04/\xb0'
tRp631
S'111'
p632
I1
ttRp633
sVhttp://www.cfau-pd.net/images/dream-wallpapers/dream-wallpapers-15.jpg
p634
g3
(g4
g5
(g6
(S'\x07\xe0\x08\x12\x1268\x01W,'
tRp635
S'319'
p636
I1
ttRp637
sVhttp://www.spyderonlines.com/images/wallpapers/dream-images/dream-images-9.jpg
p638
g3
(g4
g5
(g6
(S'\x07\xe0\x07\r\x11#.\x02\x99\xbb'
tRp639
S'302'
p640
I1
ttRp641
sVhttp://science-all.com/images/wallpapers/dream-images/dream-images-16.jpg
p642
g3
(g4
g5
(g6
(S'\x07\xe0\x08\x08\x12.3\n\xad\xf8'
tRp643
S'309'
p644
I1
ttRp645
sVhttp://www.si.edu/Content/img/Exhibitions/db/NPG_DancingDreamGraham.jpg
p646
g3
(g4
g5
(g6
(S'\x07\xe0\x08\x1e\x15!%\x01\x88\x1c'
tRp647
I-1
I1
ttRp648
sVhttps://www.psychologies.co.uk/sites/default/files/field/image/Life%20Lab%20dream%20job%20Oliver%20Burkeman.jpg
p649
g3
(g4
g5
(g6
(S'\x07\xe0\x08\x08\x12.3\n\xad\x16'
tRp650
S'310'
p651
I1
ttRp652
sVhttp://www.blogyoutrust.com/wp-content/uploads/2014/09/56.jpg
p653
g3
(g4
g5
(g6
(S'\x07\xe0\x05\x03\r\x0f/\x0e\xc1\xc5'
tRp654
I-1
I2
ttRp655
sVhttp://cdn.theatlantic.com/assets/media/img/mt/2015/10/RTR2OC1W/lead_960.jpg?1444234676
p656
g3
(g4
g5
(g6
(S'\x07\xe0\x05\x15\x17\x06*\x03\x14\xc3'
tRp657
S'147'
p658
I1
ttRp659
sVhttp://www.careerealism.com/wp-content/uploads/2012/09/how-pay-bills-pursue-dream-career.jpg
p660
g3
(g4
g5
(g6
(S'\x07\xe0\x05\x03\r\x0f/\x0e\xc1\xe0'
tRp661
S'212'
p662
I1
ttRp663
sVhttp://awesomeaj.com/wp-content/uploads/2013/04/attract-dream-job.jpg
p664
g3
(g4
g5
(g6
(S'\x07\xe0\x08\x08\x12.3\n\xad\xe2'
tRp665
I-1
I1
ttRp666
sVhttp://www.davidbrownautomotive.com/wp-content/uploads/2014/02/DB_DreamSlider.jpg
p667
g3
(g4
g5
(g6
(S'\x07\xe0\x08\x1e\x15!%\x01\x88Z'
tRp668
S'270'
p669
I1
ttRp670
sVhttp://az616578.vo.msecnd.net/files/2016/04/02/635952119381019025-1271553552_dreamscape.jpg
p671
g3
(g4
g5
(g6
(S'\x07\xe0\x05\x11\x13\x1e\x10\x05\xe15'
tRp672
S'233'
p673
I1
ttRp674
sVhttp://www.bthebestnow.com/wp-content/uploads/2014/10/dreams-and-visions.jpg
p675
g3
(g4
g5
(g6
(S'\x07\xe0\x06\r\x16/\x1d\x08\x9f\r'
tRp676
S'184'
p677
I1
ttRp678
sVhttp://under30ceo.com/wp-content/uploads/2013/02/Dreams.jpg?f7e559
p679
g3
(g4
g5
(g6
(S'\x07\xe0\x07\x07\x10\x07\x0c\x02\x05\x9e'
tRp680
I-1
I1
ttRp681
sVhttps://thumb1.shutterstock.com/display_pic_with_logo/1152659/294823523/stock-vector-dream-handwritten-text-watercolour-handmade-texture-294823523.jpg
p682
g3
(g4
g5
(g6
(S'\x07\xe0\x08\x1e\x15!%\x01\x88c'
tRp683
S'336'
p684
I1
ttRp685
sVhttp://cdn.tinybuddha.com/wp-content/uploads/2015/04/Woman-with-Guitar.jpg
p686
g3
(g4
g5
(g6
(S'\x07\xe0\t\x0c\x0b*\x14\x07\x11\x91'
tRp687
S'24'
p688
I1
ttRp689
sVhttp://th02.deviantart.net/fs71/PRE/i/2013/273/c/c/luminescent_dream_by_antoshines-d6on8nm.jpg
p690
g3
(g4
g5
(g6
(S'\x07\xe0\x04\x15\n\x102\x04\x8e\xe2'
tRp691
S'95'
p692
I1
ttRp693
sVhttp://awesomejelly.com/wp-content/uploads/2016/06/Dreams.jpg
p694
g3
(g4
g5
(g6
(S'\x07\xe0\x08\x1c\x15\x1d\x08\x03+e'
tRp695
S'351'
p696
I1
ttRp697
sVhttp://blog.lesroches.edu/wp-content/uploads/DARE-TO-DREAM.jpg
p698
g3
(g4
g5
(g6
(S'\x07\xe0\t\x0c\x0b*\x14\x07\x12\x11'
tRp699
S'325'
p700
I1
ttRp701
sVhttp://www.shusterman.com/images/dream-3.jpg
p702
g3
(g4
g5
(g6
(S'\x07\xe0\t\x0c\x0b*\x14\x07\x12\xfc'
tRp703
S'343'
p704
I1
ttRp705
sVhttps://s-media-cache-ak0.pinimg.com/736x/15/7b/b8/157bb8aa1e9494076ca86d7253df6aa5.jpg
p706
g3
(g4
g5
(g6
(S'\x07\xe0\x07\x01\r:\x03\r\x1a<'
tRp707
S'134'
p708
I1
ttRp709
sVhttp://cdn.mode.com/files/15492f7092490ef482c3d4d1a5be2d0c/d9/57/95082def-2902-449f-b877-adcc831f57d9.jpg
p710
g3
(g4
g5
(g6
(S'\x07\xe0\x06\r\x16/\x1d\x08\x9d\xe9'
tRp711
S'143'
p712
I1
ttRp713
sVhttp://www.weber.edu/wsuimages/dreamweber/Dream-Big.jpg
p714
g3
(g4
g5
(g6
(S'\x07\xe0\t\x0c\x0b*\x14\x07\x12X'
tRp715
S'287'
p716
I1
ttRp717
sVhttp://bknation.org/wp-content/uploads/2015/01/bknation_dreams2.jpg.jpg
p718
g3
(g4
g5
(g6
(S'\x07\xe0\x05\x03\r\x0f/\x0e\xc1\xae'
tRp719
S'209'
p720
I1
ttRp721
sVhttp://cdn.akamai.steamstatic.com/steam/apps/266230/extras/LastDreamCover.jpg?t=1447359582
p722
g3
(g4
g5
(g6
(S'\x07\xe0\t\x0c\x0b*\x14\x07\x12}'
tRp723
S'245'
p724
I1
ttRp725
sVhttp://www.cfau-pd.net/images/dream-wallpaper/dream-wallpaper-2.jpg
p726
g3
(g4
g5
(g6
(S'\x07\xe0\x08\x12\x1268\x01V\xdc'
tRp727
I-1
I1
ttRp728
sVhttps://media.licdn.com/mpr/mpr/shrinknp_400_400/p/7/005/0b6/010/01fea24.jpg
p729
g3
(g4
g5
(g6
(S'\x07\xdf\x0b\x08\r2\x13\x0bQ\x87'
tRp730
S'56'
p731
I1
ttRp732
sVhttps://i.ytimg.com/vi/nq17zh-NV9o/maxresdefault.jpg
p733
g3
(g4
g5
(g6
(S'\x07\xdf\x0c\x14\x10\x10\x10\x04/O'
tRp734
S'85'
p735
I1
ttRp736
sVhttps://lh3.googleusercontent.com/M2_pk4TtlMf_aYa3_7a9eBjDE_SNZ4mEZPNWVimQNGsqFP_f6fFpRQ1gT7wPWFFdLRCU=h900
p737
g3
(g4
g5
(g6
(S'\x07\xe0\x07\x07\x10\x07\x0c\x02\x05)'
tRp738
S'211'
p739
I2
ttRp740
sVhttp://static1.squarespace.com/static/5455a8cfe4b0c28f3a04d905/556a79c4e4b0599fc806bf7e/556abedae4b084f6ac096c2e/1433059035252/DreamBigFrontFixed.jpg
p741
g3
(g4
g5
(g6
(S"\x07\xe0\x05\t\r'\x13\x01\xafl"
tRp742
S'240'
p743
I1
ttRp744
sVhttp://static.tumblr.com/669ae54ba97f4824c0d549a870c105ca/nzbt77a/AzZn4kgde/tumblr_static_8777u9f0hyg4sco4s48wc4w44.png
p745
g3
(g4
g5
(g6
(S'\x07\xe0\x06\r\x16/\x1d\x08\x9f\x83'
tRp746
S'179'
p747
I1
ttRp748
sVhttp://churchinhollywood.com/wp/wp-content/uploads/2015/10/dream-big.jpg
p749
g3
(g4
g5
(g6
(S'\x07\xdf\x0b\x08\r2\x13\x0bQ\xd7'
tRp750
S'50'
p751
I1
ttRp752
sVhttp://asfort.org/wp-content/uploads/2016/04/dreams.jpg
p753
g3
(g4
g5
(g6
(S'\x07\xe0\x06\r\x16/\x1d\x08\x9d\xbe'
tRp754
S'250'
p755
I1
ttRp756
sVhttp://images.huffingtonpost.com/2014-01-09-Dreams_Cloud_Recurring_Dreams_shutterstock_96056636.jpg
p757
g3
(g4
g5
(g6
(S'\x07\xe0\x07\x01\r:\x03\r\x1a\xe5'
tRp758
S'60'
p759
I1
ttRp760
sVhttp://www.thedailyawe.com/wp-content/uploads/2010/10/day_dreaming_by_vxside.jpg
p761
g3
(g4
g5
(g6
(S'\x07\xe0\x08\x12\x1268\x01WW'
tRp762
S'312'
p763
I1
ttRp764
sVhttp://1080wallpaper.net/wp-content/uploads/2015/05/Love-dream1.jpg
p765
g3
(g4
g5
(g6
(S'\x07\xe0\x08\x08\x12.3\n\xad\xa4'
tRp766
S'170'
p767
I2
ttRp768
sVhttps://poeticpals.files.wordpress.com/2016/03/dream.jpg?w=736
p769
g3
(g4
g5
(g6
(S'\x07\xe0\t\x0c\x0b*\x14\x07\x13<'
tRp770
S'301'
p771
I1
ttRp772
sVhttp://nightwriterpoet.com/wp-content/uploads/2016/04/fight-for-your-dreams.jpg
p773
g3
(g4
g5
(g6
(S'\x07\xe0\x07\x01\r:\x03\r\x1b\x17'
tRp774
S'258'
p775
I1
ttRp776
sVhttp://wallpaperstock.net/explore-dream-discover_wallpapers_28449_1920x1080.jpg
p777
g3
(g4
g5
(g6
(S'\x07\xe0\x06\x1d\x02\x16,\x02]\xbe'
tRp778
S'159'
p779
I1
ttRp780
sVhttp://me.psytreasure.com/library/apps/Everything_We_See_In_Dream_Has_A_Meaning_Find_Out_What_Does_Your_Dream_Signify/fi.jpg
p781
g3
(g4
g5
(g6
(S'\x07\xdf\x0c\x14\x10\x10\x10\x04/\xa8'
tRp782
S'132'
p783
I1
ttRp784
sVhttp://www.gratefuldailyinspirations.com/jeffboston53/images/126007/Dare-to-Dream.jpg
p785
g3
(g4
g5
(g6
(S'\x07\xe0\t\x0c\x0b*\x14\x07\x13Q'
tRp786
S'334'
p787
I1
ttRp788
sVhttps://pixabay.com/static/uploads/photo/2015/05/12/06/40/dream-catcher-763602_960_720.jpg
p789
g3
(g4
g5
(g6
(S"\x07\xe0\x05\t\r'\x13\x01\xb0+"
tRp790
S'201'
p791
I1
ttRp792
sVhttps://coolinterviews.files.wordpress.com/2013/08/dreams.jpg
p793
g3
(g4
g5
(g6
(S'\x07\xdf\x0b\x0c\r6\x07\x00\xa0\n'
tRp794
S'7'
I1
ttRp795
sVhttps://i.ytimg.com/vi/9RMHHwJ9Eqk/maxresdefault.jpg
p796
g3
(g4
g5
(g6
(S'\x07\xe0\x08\x1c\x15\x1d\x08\x03+\x14'
tRp797
S'337'
p798
I1
ttRp799
sVhttp://datingpaladin.com/wp-content/uploads/2015/01/dream.jpg
p800
g3
(g4
g5
(g6
(S'\x07\xdf\x0b\x08\r2\x13\x0bP\xb9'
tRp801
S'27'
p802
I1
ttRp803
sVhttp://michelephoenix.com/wp-content/uploads/2014/05/Dream-Big.jpg
p804
g3
(g4
g5
(g6
(S'\x07\xdf\x0c\x14\x10\x10\x10\x04.\xe4'
tRp805
I-1
I1
ttRp806
sVhttps://az616578.vo.msecnd.net/files/2016/04/15/635963556385883343-1341965896_dreamscape.jpg
p807
g3
(g4
g5
(g6
(S'\x07\xe0\x05\x15\x17\x06*\x03\x13\xf1'
tRp808
S'235'
p809
I1
ttRp810
sVhttp://kusi.images.worldnow.com/images/8594148_G.jpg
p811
g3
(g4
g5
(g6
(S'\x07\xe0\x06\r\x16/\x1d\x08\x9d\xdb'
tRp812
S'207'
p813
I1
ttRp814
sVhttp://zellox.com/wp-content/uploads/2016/02/dream.jpg
p815
g3
(g4
g5
(g6
(S'\x07\xe0\x06\x18\n\x10\x16\x07\x00\xc7'
tRp816
S'144'
p817
I1
ttRp818
sVhttp://blog.evolutionfitnessny.com/wp-content/uploads/2015/01/dream-big-850px.jpg
p819
g3
(g4
g5
(g6
(S"\x07\xe0\x05\t\r'\x13\x01\xafs"
tRp820
S'45'
p821
I1
ttRp822
sVhttp://orig11.deviantart.net/89b1/f/2011/250/9/e/dream_world_by_graphicco-d494g4u.jpg
p823
g3
(g4
g5
(g6
(S'\x07\xdf\x0c\x14\x10\x10\x10\x04/\x93'
tRp824
S'48'
p825
I2
ttRp826
sVhttp://7-themes.com/data_images/out/63/6985859-chruch-in-dream-world.jpg
p827
g3
(g4
g5
(g6
(S'\x07\xe0\x08\x12\x1268\x01V<'
tRp828
I-1
I1
ttRp829
sVhttp://images.123hdwallpapers.com/20150424/amazing-dream-wallpaper-1920x1080.jpg
p830
g3
(g4
g5
(g6
(S'\x07\xe0\x06\x18\n\x10\x16\x07\x00\xdb'
tRp831
I-1
I1
ttRp832
sVhttp://userscontent2.emaze.com/images/2391b797-f839-49c2-bc22-e05645f107d6/e8fb367a-0de0-4e2c-8499-86530ef40e49.jpg
p833
g3
(g4
g5
(g6
(S'\x07\xe0\t\x0c\x0b*\x14\x07\x12\x08'
tRp834
S'297'
p835
I1
ttRp836
sVhttp://www.hotel-r.net/im/hotel/es/dream-12.jpg
p837
g3
(g4
g5
(g6
(S'\x07\xe0\t\x0c\x0b*\x14\x07\x12\x19'
tRp838
S'327'
p839
I1
ttRp840
sVhttps://pixabay.com/static/uploads/photo/2015/10/18/09/22/dream-993984_960_720.jpg
p841
g3
(g4
g5
(g6
(S'\x07\xe0\x06\r\x16/\x1d\x08\x9e\x13'
tRp842
S'169'
p843
I1
ttRp844
sVhttps://upload.wikimedia.org/wikipedia/commons/d/d4/Hupao.jpg
p845
g3
(g4
g5
(g6
(S'\x07\xe0\x08\x12\x1268\x01VO'
tRp846
S'11'
p847
I2
ttRp848
sVhttp://cdn1.theodysseyonline.com/files/2016/01/03/635874487628764009-110136431_Odyssey%20Article%20Dreams%20Image%201.jpg
p849
g3
(g4
g5
(g6
(S'\x07\xe0\x05\x01\r\x0e\x0e\x0b\xf8\xfb'
tRp850
S'139'
p851
I1
ttRp852
sVhttp://cdn.tinybuddha.com/wp-content/uploads/2015/06/Boy-Reaching-for-Stars.png
p853
g3
(g4
g5
(g6
(S'\x07\xe0\t\x0c\x0b*\x14\x07\x12\xa3'
tRp854
S'275'
p855
I1
ttRp856
sVhttp://cdn.tinybuddha.com/wp-content/uploads/2015/09/Follow-Your-Dreams1.png
p857
g3
(g4
g5
(g6
(S'\x07\xe0\t\x0c\x0b*\x14\x07\x12\xbd'
tRp858
S'225'
p859
I1
ttRp860
sVhttp://wonderopolis.org/wp-content/uploads//2014/08/a60a39708a00cd765e09e86874532e84.jpg
p861
g3
(g4
g5
(g6
(S'\x07\xdf\x0c\x14\x10\x10\x10\x04/C'
tRp862
S'73'
p863
I1
ttRp864
sVhttp://www.briantracy.com/blog/wp-content/uploads/2014/02/dare-to-dream-just-do-it-seize-the-day1.jpg
p865
g3
(g4
g5
(g6
(S'\x07\xe0\t\x0c\x0b*\x14\x07\x12\xf7'
tRp866
S'17'
p867
I1
ttRp868
sVhttp://www.rantlifestyle.com/wp-content/uploads/2014/08/703.-More-Than-One-Dream.jpg
p869
g3
(g4
g5
(g6
(S'\x07\xe0\x08\x1e\x15!%\x01\x88M'
tRp870
I-1
I1
ttRp871
sVhttp://orig02.deviantart.net/dd64/f/2013/352/8/9/a_dream_upon_waking_by_oer_wout-d6yfdxl.jpg
p872
g3
(g4
g5
(g6
(S'\x07\xdf\x0b\x08\r2\x13\x0bP\xed'
tRp873
S'38'
p874
I1
ttRp875
sVhttp://i.ytimg.com/vi/eL3LEAIswd4/maxresdefault.jpg
p876
g3
(g4
g5
(g6
(S'\x07\xdf\x0c\x14\x10\x10\x10\x04/\x87'
tRp877
S'104'
p878
I1
ttRp879
sVhttp://cdn1.theodysseyonline.com/files/2015/12/29/635869505944750742-124040045_marketing-dreams.jpg
p880
g3
(g4
g5
(g6
(S'\x07\xe0\n\x1e\x12\x11/\x08V!'
tRp881
S'158'
p882
I1
ttRp883
sVhttp://img01.deviantart.net/aced/i/2014/138/d/a/bottled_dream_by_arefin03-d7iv012.jpg
p884
g3
(g4
g5
(g6
(S'\x07\xe0\x07\x07\x10\x07\x0c\x02\x05_'
tRp885
S'46'
p886
I2
ttRp887
sVhttp://d221bowpyatdp2.cloudfront.net/catalog/product/cache/3/image/800x/9df78eab33525d08d6e5fb8d27136e95/m/r/mrwonderful_lib21a_libreta-craft_if-you-can-dream-5.jpg
p888
g3
(g4
g5
(g6
(S'\x07\xe0\x05\x01\r\x0e\x0e\x0b\xf9\\'
tRp889
S'180'
p890
I1
ttRp891
sVhttp://cdn-media-1.lifehack.org/wp-content/files/2012/10/make-dreams-come-true.jpg
p892
g3
(g4
g5
(g6
(S'\x07\xe0\x07\x07\x10\x07\x0c\x02\x05p'
tRp893
S'59'
p894
I1
ttRp895
sVhttp://www.carnival.com/~/media/Images/Ships/DR/carnival-dream-1.jpg
p896
g3
(g4
g5
(g6
(S'\x07\xe0\x06\r\x16/\x1d\x08\x9e\xd1'
tRp897
S'249'
p898
I1
ttRp899
sVhttp://www.scienceofrelationships.com/storage/dreams-road-sign.jpg?__SQUARESPACE_CACHEVERSION=1371586978063
p900
g3
(g4
g5
(g6
(S'\x07\xe0\x06\r\x16/\x1d\x08\x9d|'
tRp901
S'51'
p902
I1
ttRp903
sVhttp://www.dreamhotels.com/d/bangkok/media/Interior_Exterior/__thumbs_1600_677_crop/ntrance.jpg?1423057963
p904
g3
(g4
g5
(g6
(S'\x07\xdf\x0c\x14\x10\x10\x10\x04.\xed'
tRp905
S'107'
p906
I1
ttRp907
sVhttp://pic.1fotonin.com/data/wallpapers/43/WDF_903284.jpg
p908
g3
(g4
g5
(g6
(S'\x07\xe0\x05\x03\r\x0f/\x0e\xc1\x0c'
tRp909
S'182'
p910
I1
ttRp911
sVhttps://images.onmogul.com/uploads/article/thumbnail/20801/9411235148.jpg?ixlib=rails-0.3.2&ch=Width%2CDPR&fit=crop&h=465&w=820&s=eadf1515666c8cb9b3ebc0decf610158
p912
g3
(g4
g5
(g6
(S'\x07\xe0\x06\x07\x16,\x17\x05\x84\xa2'
tRp913
I-1
I1
ttRp914
sVhttp://f.tqn.com/y/healing/1/W/a/r/1/gi-birds-flying-dream.jpg
p915
g3
(g4
g5
(g6
(S'\x07\xe0\t\x0c\x0b*\x14\x07\x11\xf4'
tRp916
S'296'
p917
I1
ttRp918
sVhttp://www.hotel-r.net/im/hotel/es/dream-6.jpg
p919
g3
(g4
g5
(g6
(S'\x07\xe0\x08\x18\x131;\x01\x12;'
tRp920
S'313'
p921
I1
ttRp922
sVhttp://mashupcorner.s3-ap-southeast-1.amazonaws.com/wp-content/uploads/20150929140656/20.jpg
p923
g3
(g4
g5
(g6
(S'\x07\xe0\x07\x01\r:\x03\r\x1a/'
tRp924
I-1
I1
ttRp925
sVhttp://www.bang2write.com/wp-content/uploads/2014/11/atrapasomnis.jpg
p926
g3
(g4
g5
(g6
(S'\x07\xe0\x08\x1e\x15!%\x01\x88\x0f'
tRp927
S'70'
p928
I1
ttRp929
sVhttp://dreamthegame.co.uk/assets/dwl.png
p930
g3
(g4
g5
(g6
(S'\x07\xe0\t\x0c\x0b*\x14\x07\x12\x99'
tRp931
I-1
I1
ttRp932
sVhttp://orig10.deviantart.net/a753/f/2009/164/1/7/dream_vs_illusion_by_kofo.png
p933
g3
(g4
g5
(g6
(S'\x07\xdf\x0c\x14\x10\x10\x10\x04/S'
tRp934
S'120'
p935
I1
ttRp936
sVhttp://www.whatakuai.com/Curiosity/wp-content/uploads/2013/09/Dream.jpg
p937
g3
(g4
g5
(g6
(S'\x07\xe0\x08\x18\x131;\x01\x12\xf3'
tRp938
I-1
I1
ttRp939
sVhttps://static.pexels.com/photos/2222/dream-filter-infrared-surreal.jpg
p940
g3
(g4
g5
(g6
(S'\x07\xe0\x08\x12\x1268\x01V\xfd'
tRp941
I-1
I1
ttRp942
sVhttp://pre09.deviantart.net/33c9/th/pre/f/2013/249/b/e/be92df660bff0b7678a28b69f885f6e3-d6l8nq2.jpg
p943
g3
(g4
g5
(g6
(S'\x07\xdf\x0c\x14\x10\x10\x10\x04/y'
tRp944
S'119'
p945
I2
ttRp946
sVhttps://www.nlm.nih.gov/dreamanatomy/images/homepage_dream.jpg
p947
g3
(g4
g5
(g6
(S'\x07\xe0\t\x0c\x0b*\x14\x07\x13o'
tRp948
S'350'
p949
I1
ttRp950
sVhttp://www.datekoupdatekar.com/wp-content/uploads/2015/06/dreams-fresh-new-hd-wallpaper1.jpg
p951
g3
(g4
g5
(g6
(S'\x07\xe0\x04\x19\n\x183\x01\x83\xf7'
tRp952
I-1
I1
ttRp953
sVhttp://www.michaelwhelan.com/wp-content/uploads/goldendream.jpg
p954
g3
(g4
g5
(g6
(S'\x07\xe0\x05\x03\r\x0f/\x0e\xc1J'
tRp955
S'200'
p956
I1
ttRp957
sVhttps://dogdharma.files.wordpress.com/2014/09/dream.jpg
p958
g3
(g4
g5
(g6
(S"\x07\xe0\x05\t\r'\x13\x01\xb0Q"
tRp959
S'181'
p960
I1
ttRp961
sVhttps://beautyhealthtips.in/wp-content/uploads/2013/12/Dream-Interpretation.jpg
p962
g3
(g4
g5
(g6
(S'\x07\xe0\x07\r\x11#.\x02\x98\xf3'
tRp963
I-1
I1
ttRp964
sVhttp://www.chappnet.com/rordel/files/2015/11/dreams-solve-problems.jpg
p965
g3
(g4
g5
(g6
(S"\x07\xe0\x06\x14\x02' \t e"
tRp966
S'254'
p967
I1
ttRp968
sVhttp://thedailyenlightenment.com/wp-content/uploads/2013/10/118.jpg
p969
g3
(g4
g5
(g6
(S'\x07\xdf\n\x1b\r0\r\x0eAO'
tRp970
I-1
I1
ttRp971
sVhttps://beamingnotes.com/wp-content/uploads/2016/07/a-lodier-s-dream-hd-wallpaper-332996.jpg
p972
g3
(g4
g5
(g6
(S'\x07\xe0\x08\x18\x131;\x01\x11\xfb'
tRp973
S'306'
p974
I1
ttRp975
sVhttp://www.dreamhotels.com/d/midtown/media/Exterior/__thumbs_1600_677_crop/DreamExterior1.jpg?1421169143
p976
g3
(g4
g5
(g6
(S'\x07\xdf\x0c\x14\x10\x10\x10\x04/\x07'
tRp977
S'124'
p978
I2
ttRp979
sVhttp://az616578.vo.msecnd.net/files/2016/04/30/635975833083084706183920919_dream%20big.jpg
p980
g3
(g4
g5
(g6
(S'\x07\xe0\x06\r\x16/\x1d\x08\x9e\xa1'
tRp981
S'239'
p982
I1
ttRp983
sVhttp://i.ytimg.com/vi/TOg4TZH9uS4/maxresdefault.jpg
p984
g3
(g4
g5
(g6
(S'\x07\xdf\n\x1b\r0\r\x0eAh'
tRp985
S'53'
p986
I2
ttRp987
sVhttp://img15.deviantart.net/2d0a/i/2010/346/0/0/dream_by_taenaron-d34q599.jpg
p988
g3
(g4
g5
(g6
(S'\x07\xdf\x0c\x14\x10\x10\x10\x04/\x17'
tRp989
S'25'
p990
I2
ttRp991
sVhttp://headlinebox.com/wp-content/uploads/2015/09/c94516ae6f33935db20a1b6699a361fb.jpg
p992
g3
(g4
g5
(g6
(S'\x07\xdf\x0c\x14\x10\x10\x10\x04/('
tRp993
I-1
I1
ttRp994
sVhttps://www.rockpoolpublishing.com.au/site/user-assets/images/dreams.jpg
p995
g3
(g4
g5
(g6
(S'\x07\xe0\x08\x1e\x15!%\x01\x87\xbc'
tRp996
S'295'
p997
I1
ttRp998
sVhttp://www.notable-quotes.com/d/dreams_quote_2.jpg
p999
g3
(g4
g5
(g6
(S'\x07\xe0\t\x0c\x0b*\x14\x07\x12b'
tRp1000
S'347'
p1001
I2
ttRp1002
sVhttp://thebullbustercafe.com/wp-content/uploads/2013/05/dream2.jpg
p1003
g3
(g4
g5
(g6
(S'\x07\xe0\x08\x1e\x15!%\x01\x87\xe2'
tRp1004
S'49'
p1005
I1
ttRp1006
sVhttps://insanephilosophers.files.wordpress.com/2016/05/a-lodier-s-dream-hd-wallpaper-332996.jpg?w=1200
p1007
g3
(g4
g5
(g6
(S'\x07\xe0\x08\x1c\x15\x1d\x08\x03+\xb9'
tRp1008
I-1
I1
ttRp1009
sVhttp://www.andreaanastasiou.com/wp-content/uploads/2015/03/dream.jpg
p1010
g3
(g4
g5
(g6
(S'\x07\xe0\x08\x18\x131;\x01\x13O'
tRp1011
S'274'
p1012
I1
ttRp1013
sVhttp://theentrepreneursradioshow.com/wp-content/uploads/2014/10/Dream.jpg
p1014
g3
(g4
g5
(g6
(S'\x07\xdf\x0b\x0c\r6\x07\x00\x9f"'
tRp1015
I-1
I1
ttRp1016
sVhttp://cdn.akamai.steamstatic.com/steam/apps/406210/header.jpg?t=1461344128
p1017
g3
(g4
g5
(g6
(S'\x07\xe0\t\x0c\x0b*\x14\x07\x13\x08'
tRp1018
I-1
I1
ttRp1019
sVhttp://images2.fanpop.com/image/photos/9300000/Unicorn-Dream-unicorns-9366550-1024-768.jpg
p1020
g3
(g4
g5
(g6
(S'\x07\xdf\x0c\x14\x10\x10\x10\x04/K'
tRp1021
I-1
I1
ttRp1022
sVhttp://i.huffpost.com/gen/1056860/images/o-DREAM-MEANING-facebook.jpg
p1023
g3
(g4
g5
(g6
(S'\x07\xe0\x08\x1e\x15!%\x01\x884'
tRp1024
S'15'
p1025
I1
ttRp1026
sVhttp://www.hdwallpapersact.com/wp-content/gallery/dreams/winter-dreams.jpg
p1027
g3
(g4
g5
(g6
(S'\x07\xdf\x0c\x14\x10\x10\x10\x04/\xac'
tRp1028
S'108'
p1029
I2
ttRp1030
sVhttp://www.marcjacobsfragrances.com/sites/all/modules/custom/cotymj_daisydream/assets/img/sections/landing/product-bottle-clouds.jpg
p1031
g3
(g4
g5
(g6
(S'\x07\xe0\x04\x19\n\x183\x01\x82\xdd'
tRp1032
S'172'
p1033
I1
ttRp1034
sVhttp://www.notable-quotes.com/d/dreams_quote_4.jpg
p1035
g3
(g4
g5
(g6
(S'\x07\xdf\x0b\x18\x0e\x18\x01\n\x8d\xe2'
tRp1036
S'14'
p1037
I1
ttRp1038
sVhttp://images.huffingtonpost.com/2013-12-27-shutterstock_136470932_Dreams_Cloud_People_Romance.jpg
p1039
g3
(g4
g5
(g6
(S'\x07\xe0\x06\r\x16/\x1d\x08\x9e\x7f'
tRp1040
S'57'
p1041
I1
ttRp1042
sVhttp://static1.squarespace.com/static/54a05397e4b004237f87083a/54efcffee4b093c84efc2e0a/54efd03ee4b0325fce32fbd2/1425002573054/DREAM+BIG-NH+PHOTOGRAPHER__36.jpg?format=1500w
p1043
g3
(g4
g5
(g6
(S'\x07\xe0\x04\x15\n\x102\x04\x8f\xf0'
tRp1044
S'164'
p1045
I1
ttRp1046
sVhttps://pixabay.com/static/uploads/photo/2015/09/09/17/20/scrabble-931988_960_720.jpg
p1047
g3
(g4
g5
(g6
(S'\x07\xe0\x06\r\x16/\x1d\x08\x9eG'
tRp1048
S'192'
p1049
I1
ttRp1050
sVhttp://thumbs.dreamstime.com/z/what-s-your-dream-written-blackboard-chalkboard-personal-aspiration-concept-37086925.jpg
p1051
g3
(g4
g5
(g6
(S'\x07\xe0\x04\x13\x00/&\x001\xaf'
tRp1052
S'167'
p1053
I1
ttRp1054
sVhttp://dingo.care2.com/pictures/greenliving/1371/1370918.large.jpg
p1055
g3
(g4
g5
(g6
(S'\x07\xe0\x07\r\x11#.\x02\x98\xd7'
tRp1056
S'293'
p1057
I1
ttRp1058
sVhttp://longmontmagazine.com/wp-content/uploads/2012/05/Biz.jpg
p1059
g3
(g4
g5
(g6
(S'\x07\xe0\x06\x18\n\x10\x16\x07\x01?'
tRp1060
I-1
I1
ttRp1061
sVhttp://media.lifehack.org/wp-content/files/2013/07/png1
p1062
g3
(g4
g5
(g6
(S'\x07\xe0\x05\x03\r\x0f/\x0e\xc1\x05'
tRp1063
S'202'
p1064
I1
ttRp1065
sVhttp://1quotes.org/wp-content/uploads/2016/07/Dreams-quotes-9.jpg
p1066
g3
(g4
g5
(g6
(S'\x07\xe0\t\x0c\x0b*\x14\x07\x11\xd8'
tRp1067
S'342'
p1068
I2
ttRp1069
sVhttp://www.dreamanity.com/wp-content/uploads/2013/11/dreamanity-dream-interpretation-guide-healing-through-dreams.jpg
p1070
g3
(g4
g5
(g6
(S'\x07\xe0\x07\x07\x10\x07\x0c\x02\x04\xbd'
tRp1071
S'82'
p1072
I1
ttRp1073
sVhttp://www.lifehack.org/articles/productivity/how-to-make-dreams-come-true.html
p1074
g3
(g4
g5
(g6
(S'\x07\xdf\n\x1b\r0\r\x0eAW'
tRp1075
I-1
I1
ttRp1076
sVhttp://7-themes.com/data_images/out/17/6825567-dream-wallpaper-hd.jpg
p1077
g3
(g4
g5
(g6
(S'\x07\xe0\x08\x18\x131;\x01\x13#'
tRp1078
S'90'
p1079
I1
ttRp1080
sVhttp://muslemfeed.com/wp-content/uploads/2015/04/Dream_vs_Illusion_by_kofo.jpg
p1081
g3
(g4
g5
(g6
(S'\x07\xdf\x0c\x14\x10\x10\x10\x04/\xc8'
tRp1082
S'101'
p1083
I1
ttRp1084
sVhttp://www.pxleyes.com/images/contests/house-in-the-clouds/fullsize/Kids-Dream-5143a2d08f93e_hires.jpg
p1085
g3
(g4
g5
(g6
(S'\x07\xe0\t\x0c\x0b*\x14\x07\x12t'
tRp1086
S'161'
p1087
I1
ttRp1088
sVhttp://christinechenyoga.com/wp-content/uploads/2013/01/dream-image.jpg
p1089
g3
(g4
g5
(g6
(S'\x07\xdf\x0c\x14\x10\x10\x10\x04/2'
tRp1090
S'29'
p1091
I1
ttRp1092
sVhttp://cdn.playbuzz.com/cdn/af63e001-c4d4-48b6-9d98-9ad0a2cc0f1a/6e685668-27a4-4c60-9968-8630ea5ceac2.jpg
p1093
g3
(g4
g5
(g6
(S'\x07\xe0\x08\x1c\x15\x1d\x08\x03+P'
tRp1094
S'276'
p1095
I1
ttRp1096
sVhttps://cdn.theatlantic.com/assets/media/img/mt/2015/10/RTR2OC1W/lead_960.jpg?1444234676
p1097
g3
(g4
g5
(g6
(S'\x07\xe0\n\x1e\x12\x11/\x08V\t'
tRp1098
S'244'
p1099
I1
ttRp1100
sVhttp://www.micheleknight.com/wp-content/uploads/Depositphotos_8385241_M.jpg
p1101
g3
(g4
g5
(g6
(S'\x07\xe0\x08\x18\x131;\x01\x12\xb7'
tRp1102
S'272'
p1103
I1
ttRp1104
sVhttp://www.dreamdictionarynow.com/wp-content/uploads/2013/09/dream-interpretation-tornado-dreams.jpg
p1105
g3
(g4
g5
(g6
(S'\x07\xe0\n\x1e\x12\x11/\x08U\xcb'
tRp1106
I-1
I1
ttRp1107
sVhttp://www.download-free-wallpaper.com/img70/thgevspzffjqdmiphteb.jpg
p1108
g3
(g4
g5
(g6
(S'\x07\xdf\x0c\x14\x10\x10\x10\x04/h'
tRp1109
I-1
I2
ttRp1110
sVhttp://ziglarvault.com/wp-content/uploads/2015/09/0924-dream-730x362.jpg
p1111
g3
(g4
g5
(g6
(S'\x07\xe0\x08\x1e\x15!%\x01\x88\x03'
tRp1112
S'330'
p1113
I1
ttRp1114
sVhttp://brianameade.com/wp-content/uploads/2014/09/876a1171-a7f8-44da-bd2d-b2c0ef3a3736.jpg
p1115
g3
(g4
g5
(g6
(S'\x07\xdf\x0c\x14\x10\x10\x10\x04/\x97'
tRp1116
S'128'
p1117
I1
ttRp1118
sVhttp://cdn-media-2.lifehack.org/wp-content/files/2014/12/Go-after-your-dream-no-matter-how-unattainable-others-think-it-is.png
p1119
g3
(g4
g5
(g6
(S'\x07\xe0\x08\x1e\x15!%\x01\x888'
tRp1120
S'303'
p1121
I2
ttRp1122
sVhttp://trustlifetoday.com/wp-content/uploads/2015/05/Dream.jpg
p1123
g3
(g4
g5
(g6
(S'\x07\xe0\x08\x1e\x15!%\x01\x88V'
tRp1124
S'39'
p1125
I1
ttRp1126
sVhttps://rebeccameyer1.files.wordpress.com/2015/03/dreams-4.jpg
p1127
g3
(g4
g5
(g6
(S'\x07\xe0\t\x0c\x0b*\x14\x07\x13^'
tRp1128
S'83'
p1129
I1
ttRp1130
sVhttp://b-i.forbesimg.com/kathycaprino/files/2013/05/dreambig.jpg
p1131
g3
(g4
g5
(g6
(S'\x07\xe0\x08\x1e\x15!%\x01\x87\xde'
tRp1132
S'292'
p1133
I1
ttRp1134
sVhttp://moneyramblings.com/wp-content/uploads/2014/08/chase-catch-dream-big-picture-quote.jpg
p1135
g3
(g4
g5
(g6
(S'\x07\xdf\x0b\x18\x0e\x18\x01\n\x8d?'
tRp1136
S'20'
p1137
I1
ttRp1138
sVhttp://www.hotel-r.net/im/hotel/es/dream-23.jpg
p1139
g3
(g4
g5
(g6
(S'\x07\xe0\t\x0c\x0b*\x14\x07\x13{'
tRp1140
S'329'
p1141
I1
ttRp1142
sVhttp://ndl.mgccw.com/mu3/wallpaper/20140619/00/1403118547473/1220427-2560x1440-Dream-world.jpg
p1143
g3
(g4
g5
(g6
(S'\x07\xe0\x06\x18\n\x10\x16\x07\x01\x9d'
tRp1144
I-1
I1
ttRp1145
sVhttp://cdn.shopify.com/s/files/1/0099/1732/products/A-Surfers-Dream_1024x1024.jpg?v=1410302417
p1146
g3
(g4
g5
(g6
(S"\x07\xe0\x06\x14\x02' \t \x94"
tRp1147
S'193'
p1148
I1
ttRp1149
sVhttp://statemagazine.com/wp-content/uploads/2014/12/ManFormulasHC1501_L_300_C_R.jpg
p1150
g3
(g4
g5
(g6
(S'\x07\xe0\t\x0c\x0b*\x14\x07\x13 '
tRp1151
I-1
I1
ttRp1152
sVhttp://media.simogo.com/2014/07/thesailorsdream_screen_021.png
p1153
g3
(g4
g5
(g6
(S'\x07\xe0\x08\x12\x1268\x01V\xaf'
tRp1154
S'321'
p1155
I1
ttRp1156
sVhttp://www.entertaining-n-enlightening.com/wp-content/uploads/2015/08/dreams_woman.jpg
p1157
g3
(g4
g5
(g6
(S'\x07\xdf\x0c\x14\x10\x10\x10\x04.\xfe'
tRp1158
S'131'
p1159
I3
ttRp1160
sVhttp://i2.wp.com/www.jungiantherapist.net/wp-content/uploads/2014/06/Dream-Tree.jpg
p1161
g3
(g4
g5
(g6
(S'\x07\xe0\x06\x1d\x02\x16,\x02\\\xd1'
tRp1162
S'171'
p1163
I1
ttRp1164
sVhttps://awesomeideas2003.files.wordpress.com/2015/09/dreams.jpg
p1165
g3
(g4
g5
(g6
(S'\x07\xdf\x0c\n\x10\n;\x03\xd6&'
tRp1166
S'12'
p1167
I1
ttRp1168
sVhttp://e.fastcompany.net/multisite_files/fastcompany/imagecache/1280/poster/2015/07/3048941-poster-p-1-why-google-deep-dreams-of-dogs.jpg
p1169
g3
(g4
g5
(g6
(S'\x07\xdf\x0c\x14\x10\x10\x10\x04/ '
tRp1170
S'114'
p1171
I1
ttRp1172
sVhttps://i.ytimg.com/vi/pUY8uvWY9TM/maxresdefault.jpg
p1173
g3
(g4
g5
(g6
(S'\x07\xe0\x06\x18\n\x10\x16\x07\x01y'
tRp1174
S'89'
p1175
I1
ttRp1176
sVhttp://thisislifeblood.com/wp-content/uploads/2014/06/dream-big.jpg
p1177
g3
(g4
g5
(g6
(S'\x07\xe0\t\x0c\x0b*\x14\x07\x11\xa7'
tRp1178
S'2'
I1
ttRp1179
sVhttp://www.newarticleworld.com/wp-content/uploads/2015/08/Dream-1.jpg
p1180
g3
(g4
g5
(g6
(S'\x07\xdf\x0b\x18\x0e\x18\x01\n\x8dk'
tRp1181
S'13'
p1182
I1
ttRp1183
sVhttp://cdn.playbuzz.com/cdn/3d338470-52fa-4cb5-8ebf-aa388896d289/99507452-25dd-45a7-80e3-68abd0e4c519.jpg
p1184
g3
(g4
g5
(g6
(S'\x07\xdf\x0c\x06\x10\x13\x06\x0e\xe0\xe7'
tRp1185
S'71'
p1186
I1
ttRp1187
sVhttps://i.ytimg.com/vi/JCMTs56w2no/maxresdefault.jpg
p1188
g3
(g4
g5
(g6
(S'\x07\xe0\x04\x19\n\x183\x01\x84\t'
tRp1189
S'96'
p1190
I1
ttRp1191
sVhttp://www.tamiboehmer.com/wordpress/wp-content/uploads/2013/11/dream.jpg
p1192
g3
(g4
g5
(g6
(S'\x07\xe0\x08\x12\x1268\x01WN'
tRp1193
S'21'
p1194
I2
ttRp1195
sVhttp://www.pngall.com/wp-content/uploads/2016/06/Dream-PNG.png
p1196
g3
(g4
g5
(g6
(S'\x07\xe0\n\x1e\x12\x11/\x08U\xef'
tRp1197
S'252'
p1198
I1
ttRp1199
sVhttp://metamansion.com/wp-content/uploads/images/Dream_6843.jpg
p1200
g3
(g4
g5
(g6
(S'\x07\xe0\x06\x18\n\x10\x16\x07\x01\x1f'
tRp1201
S'156'
p1202
I1
ttRp1203
sVhttp://thespiritscience.net/wp-content/uploads/2015/07/o-DREAMING-facebook.jpg
p1204
g3
(g4
g5
(g6
(S'\x07\xe0\x08\x1e\x15!%\x01\x87\xaf'
tRp1205
S'229'
p1206
I1
ttRp1207
sVhttp://www.slate.com/content/dam/slate/blogs/the_drift/2015/11/151112_DRIFT_Dream-Research.jpg.CROP.promo-xlarge2.jpg
p1208
g3
(g4
g5
(g6
(S'\x07\xe0\x08\x1c\x15\x1d\x08\x03,@'
tRp1209
S'141'
p1210
I2
ttRp1211
sVhttp://godconversations.com/wp-content/uploads/2015/04/dream.jpg
p1212
g3
(g4
g5
(g6
(S'\x07\xdf\x0c\n\x10\n;\x03\xd5\xe4'
tRp1213
S'23'
p1214
I1
ttRp1215
sVhttp://images4.fanpop.com/image/photos/23900000/live-your-dreams-my-dream-is-23986885-1280-1024.jpg
p1216
g3
(g4
g5
(g6
(S'\x07\xdf\x0c\x14\x10\x10\x10\x04.\xda'
tRp1217
I-1
I1
ttRp1218
sVhttp://design.lolrus.mediamolecule.com/homepage/dreams-pgw/bg-dreamcloud.png
p1219
g3
(g4
g5
(g6
(S'\x07\xe0\x06\x07\x16,\x17\x05\x84\x93'
tRp1220
S'230'
p1221
I1
ttRp1222
sVhttp://www.findingthegracewithin.com/wp-content/uploads/2015/03/Dream-iPad-4-wallpaper-ilikewallpaper_com.jpg
p1223
g3
(g4
g5
(g6
(S'\x07\xe0\x08\x12\x1268\x01V\xf5'
tRp1224
S'80'
p1225
I1
ttRp1226
sVhttp://e2ua.com/data/wallpapers/43/WDF_903349.jpg
p1227
g3
(g4
g5
(g6
(S'\x07\xe0\x04\x19\n\x183\x01\x83*'
tRp1228
I-1
I1
ttRp1229
sVhttps://i.ytimg.com/vi/6V6UvhVXruE/maxresdefault.jpg
p1230
g3
(g4
g5
(g6
(S'\x07\xdf\x0c\x12\x10\n\x08\x04vf'
tRp1231
S'109'
p1232
I1
ttRp1233
sVhttp://www.brainscape.com/blog/wp-content/uploads/2013/01/don__t_trash_your_dreams_by_aquasixio-d5clzyo.jpg
p1234
g3
(g4
g5
(g6
(S'\x07\xdf\x0c\x14\x10\x10\x10\x04.\xfa'
tRp1235
I-1
I1
ttRp1236
sVhttp://static1.squarespace.com/static/51ba9161e4b01669c442d1bc/t/53e7a47fe4b09ae60ef21940/1407689864200/
p1237
g3
(g4
g5
(g6
(S"\x07\xe0\x05\t\r'\x13\x01\xaf\x98"
tRp1238
S'216'
p1239
I1
ttRp1240
sVhttp://dream-scar.net/content/dsc-layout02-top-2.jpg
p1241
g3
(g4
g5
(g6
(S'\x07\xe0\t\x0c\x0b*\x14\x07\x11\xea'
tRp1242
S'281'
p1243
I1
ttRp1244
sVhttps://img1.etsystatic.com/039/0/9127327/il_fullxfull.656146429_hxla.jpg
p1245
g3
(g4
g5
(g6
(S'\x07\xdf\x0c\x14\x10\x10\x10\x04/\x03'
tRp1246
S'84'
p1247
I1
ttRp1248
sVhttp://mashupcorner.s3-ap-southeast-1.amazonaws.com/wp-content/uploads/20150929140558/211.jpg
p1249
g3
(g4
g5
(g6
(S'\x07\xe0\x05\x11\x13\x1e\x10\x05\xde\xc6'
tRp1250
S'68'
p1251
I1
ttRp1252
sVhttp://www.viralnovelty.net/wp-content/uploads/2014/10/117.jpg
p1253
g3
(g4
g5
(g6
(S'\x07\xdf\x0c\x14\x10\x10\x10\x04/\x8f'
tRp1254
S'67'
p1255
I1
ttRp1256
sVhttp://thumbs.dreamstime.com/z/holding-dream-sky-word-hand-40290706.jpg
p1257
g3
(g4
g5
(g6
(S'\x07\xe0\x04\x15\n\x102\x04\x8e\xfe'
tRp1258
S'81'
p1259
I1
ttRp1260
sVhttps://f4.bcbits.com/img/a0359889003_10.jpg
p1261
g3
(g4
g5
(g6
(S'\x07\xe0\x08\x1e\x15!%\x01\x87\xb3'
tRp1262
S'151'
p1263
I1
ttRp1264
sVhttp://orig03.deviantart.net/1c28/f/2011/272/4/6/endless_dream_by_supcowpur-d4bbmj6.jpg
p1265
g3
(g4
g5
(g6
(S'\x07\xdf\x0c\x14\x10\x10\x10\x04/6'
tRp1266
S'113'
p1267
I1
ttRp1268
sVhttp://www.pockettactics.com/assets/pockettactics/28434_sailors-dream-review-header.jpg
p1269
g3
(g4
g5
(g6
(S'\x07\xe0\x08\x12\x1268\x01V\xed'
tRp1270
S'320'
p1271
I1
ttRp1272
sVhttp://www.bluemarbledreams.org/assets/Uploads/_resampled/SetSize1154654-explore.jpg
p1273
g3
(g4
g5
(g6
(S'\x07\xe0\x05\x15\x17\x06*\x03\x14\x00'
tRp1274
I-1
I1
ttRp1275
sVhttp://gracehouse.co.za/wp-content/uploads/2015/10/a-lodier-s-dream-hd-wallpaper-332996.jpg
p1276
g3
(g4
g5
(g6
(S'\x07\xe0\x07\r\x11#.\x02\x99r'
tRp1277
S'251'
p1278
I1
ttRp1279
sVhttp://www.spiderlady.com.au/images/spiderlady-dream-analysis-02.jpg
p1280
g3
(g4
g5
(g6
(S'\x07\xe0\t\x0c\x0b*\x14\x07\x12\xec'
tRp1281
S'339'
p1282
I1
ttRp1283
sVhttp://orig14.deviantart.net/2d01/f/2013/032/e/7/owl_dream_by_qetza-d5thdxu.jpg
p1284
g3
(g4
g5
(g6
(S'\x07\xe0\x05\x03\r\x0f/\x0e\xc1\x8a'
tRp1285
S'214'
p1286
I1
ttRp1287
sVhttp://mochadad.com/app/uploads/2015/03/dream.jpg
p1288
g3
(g4
g5
(g6
(S"\x07\xe0\x05\t\r'\x13\x01\xb0M"
tRp1289
I-1
I2
ttRp1290
sVhttp://themindunleashed.org/wp-content/uploads/2014/10/12-commonnn.gif
p1291
g3
(g4
g5
(g6
(S'\x07\xe0\t\x0c\x0b*\x14\x07\x13\x1a'
tRp1292
I-1
I1
ttRp1293
sVhttp://www.pattiamsden.org/store/images/Passion%20The%20Power%20of%20The%20Dream.jpg
p1294
g3
(g4
g5
(g6
(S'\x07\xe0\x08\x12\x1268\x01V\xc3'
tRp1295
I-1
I1
ttRp1296
sVhttps://i.ytimg.com/vi/BWu7JDETw_I/maxresdefault.jpg
p1297
g3
(g4
g5
(g6
(S'\x07\xe0\x08\x18\x131;\x01\x13\x89'
tRp1298
S'163'
p1299
I1
ttRp1300
sVhttps://i.ytimg.com/vi/_GND0p99KJU/maxresdefault.jpg
p1301
g3
(g4
g5
(g6
(S'\x07\xe0\t\x0c\x0b*\x14\x07\x12\xd0'
tRp1302
S'55'
p1303
I1
ttRp1304
sVhttp://philmckinney.com/wp/wp-content/uploads/2015/05/lucid-dreaming.jpg
p1305
g3
(g4
g5
(g6
(S'\x07\xe0\x06\x18\n\x10\x16\x07\x01\n'
tRp1306
I-1
I1
ttRp1307
sVhttps://upload.wikimedia.org/wikipedia/commons/c/cf/DreamTheater2011.jpg
p1308
g3
(g4
g5
(g6
(S'\x07\xdf\x0c\x14\x10\x10\x10\x04/\x82'
tRp1309
I-1
I1
ttRp1310
sVhttp://az616578.vo.msecnd.net/files/2016/01/29/635896422787272319-1663804671_dream%20big.jpg
p1311
g3
(g4
g5
(g6
(S'\x07\xe0\x06\x07\x16,\x17\x05\x85Z'
tRp1312
S'248'
p1313
I1
ttRp1314
sVhttps://s-media-cache-ak0.pinimg.com/736x/1e/a8/46/1ea8461928404a7c78689e23068c7ced.jpg
p1315
g3
(g4
g5
(g6
(S'\x07\xe0\x05\x15\x17\x06*\x03\x14\xcf'
tRp1316
S'236'
p1317
I1
ttRp1318
sVhttp://i.imgur.com/qoUQhyE.gif
p1319
g3
(g4
g5
(g6
(S'\x07\xe0\x07\x07\x10\x07\x0c\x02\x05\x9a'
tRp1320
S'231'
p1321
I1
ttRp1322
sVhttp://www.cfau-pd.net/images/dream-wallpapers/dream-wallpapers-4.jpg
p1323
g3
(g4
g5
(g6
(S'\x07\xe0\x08\x12\x1268\x01W\xe0'
tRp1324
I-1
I1
ttRp1325
sVhttp://infornicle.com/wp-content/uploads/2016/02/dreamscape.jpg
p1326
g3
(g4
g5
(g6
(S'\x07\xe0\x04\x13\x00/&\x001\xa6'
tRp1327
S'140'
p1328
I1
ttRp1329
sVhttp://totalformfitness.com/wp-content/uploads/2015/04/dare-to-dream.jpg
p1330
g3
(g4
g5
(g6
(S'\x07\xe0\x08\x06\x12,\x06\x02xt'
tRp1331
S'142'
p1332
I1
ttRp1333
sVhttp://cdn1.medicalnewstoday.com/content/images/articles/284/284378/abstract-image-of-head-and-imagination.jpg
p1334
g3
(g4
g5
(g6
(S'\x07\xe0\x08\x1e\x15!%\x01\x88n'
tRp1335
S'299'
p1336
I1
ttRp1337
sVhttp://media.trusper.net/u/2fb0eb80-136d-4afb-a316-01488e9ced87.png
p1338
g3
(g4
g5
(g6
(S'\x07\xdf\x0c\x14\x10\x10\x10\x04.\xe9'
tRp1339
S'117'
p1340
I1
ttRp1341
sVhttp://d221bowpyatdp2.cloudfront.net/catalog/product/cache/3/image/800x/9df78eab33525d08d6e5fb8d27136e95/m/r/mrwonderful_lib21a_libreta-craft_if-you-can-dream-6.jpg
p1342
g3
(g4
g5
(g6
(S'\x07\xe0\x05\x03\r\x0f/\x0e\xc0\xe9'
tRp1343
S'196'
p1344
I1
ttRp1345
sVhttp://cdn.ziglarvault.com/wp-content/uploads/2015/09/0924-dream-730x362.jpg
p1346
g3
(g4
g5
(g6
(S'\x07\xe0\x07\r\x11#.\x02\x98\xfe'
tRp1347
S'224'
p1348
I1
ttRp1349
sVhttp://7-themes.com/data_images/out/22/6842302-dream-wallpaper.jpg
p1350
g3
(g4
g5
(g6
(S'\x07\xe0\x08\x12\x1268\x01Wi'
tRp1351
I-1
I1
ttRp1352
sVhttp://meaws.com/wp-content/uploads/2015/10/do-you-have-a-dream.png
p1353
g3
(g4
g5
(g6
(S'\x07\xe0\t\x0c\x0b*\x14\x07\x11\xb4'
tRp1354
S'175'
p1355
I1
ttRp1356
sVhttp://esciencelog.com/data_images/wlls/16/224558-dream.jpg
p1357
g3
(g4
g5
(g6
(S'\x07\xe0\x05\x15\x17\x06*\x03\x14\x1d'
tRp1358
I-1
I1
ttRp1359
sVhttp://img01.deviantart.net/40ef/i/2013/172/7/e/wallpaper_dream__d_by_analaurasam-d6a2wvc.jpg
p1360
g3
(g4
g5
(g6
(S'\x07\xe0\x05\x03\r\x0f/\x0e\xc1&'
tRp1361
S'213'
p1362
I1
ttRp1363
sVhttp://lonemind.com/wp-content/uploads/2015/04/dream-diary.jpg
p1364
g3
(g4
g5
(g6
(S'\x07\xe0\x08\x18\x131;\x01\x13g'
tRp1365
S'61'
p1366
I1
ttRp1367
sVhttp://www.cultnoise.com/wp-content/uploads/2014/07/dream.jpg
p1368
g3
(g4
g5
(g6
(S'\x07\xdf\x0c\x14\x10\x10\x10\x04/\x13'
tRp1369
I-1
I1
ttRp1370
sVhttp://herlifesong.com/wp-content/uploads/2014/06/dreams-come-true-pt-3.jpg
p1371
g3
(g4
g5
(g6
(S'\x07\xe0\x05\x03\r\x0f/\x0e\xc1*'
tRp1372
S'219'
p1373
I2
ttRp1374
sVhttp://www.sleeps.com/pics/dream-interp.jpg
p1375
g3
(g4
g5
(g6
(S'\x07\xe0\t\x0c\x0b*\x14\x07\x11\x87'
tRp1376
S'279'
p1377
I1
ttRp1378
sVhttp://dykn.com/storage/2015/01/collective-evolution.png
p1379
g3
(g4
g5
(g6
(S'\x07\xdf\n\x1b\r0\r\x0eA\x82'
tRp1380
I-1
I1
ttRp1381
sVhttp://www.quotationof.com/images/dream-quotes-3.jpg
p1382
g3
(g4
g5
(g6
(S'\x07\xdf\x0b\x18\x0e\x18\x01\n\x8dZ'
tRp1383
S'62'
p1384
I1
ttRp1385
sVhttp://www.carnival.com/~/media/Images/Ships/DR/carnival-dream-1.ashx
p1386
g3
(g4
g5
(g6
(S'\x07\xe0\x05\x15\x17\x06*\x03\x14A'
tRp1387
S'220'
p1388
I1
ttRp1389
sVhttp://funlava.com/wp-content/uploads/2013/09/sayings-on-dream.jpg
p1390
g3
(g4
g5
(g6
(S'\x07\xdf\x0b\x13\x0e\x17"\x08\x0c\xad'
tRp1391
I-1
I1
ttRp1392
sVhttp://dreamweavebags.com/wp-content/uploads/sites/29/2016/05/dream-hand-in-sun.jpg
p1393
g3
(g4
g5
(g6
(S'\x07\xe0\x05\x15\x17\x06*\x03\x14O'
tRp1394
I-1
I1
ttRp1395
sVhttp://cdn.tinybuddha.com/wp-content/uploads/2013/10/Follow-Your-Dream.png
p1396
g3
(g4
g5
(g6
(S'\x07\xe0\t\x0c\x0b*\x14\x07\x12\xac'
tRp1397
S'43'
p1398
I1
ttRp1399
sVhttp://designoval.com/wp-content/uploads/2015/04/Dream-Quotes-3.jpg
p1400
g3
(g4
g5
(g6
(S'\x07\xe0\x07\x07\x10\x07\x0c\x02\x05\x1b'
tRp1401
S'92'
p1402
I1
ttRp1403
sVhttp://static1.squarespace.com/static/51e030c5e4b07aea08927ed5/52578393e4b066932a9a83a9/558db483e4b0cba66cbfcc0d/1435350183212/A+Quiet+Place.jpg?format=2500w
p1404
g3
(g4
g5
(g6
(S'\x07\xe0\x08\x12\x1268\x01W\x05'
tRp1405
S'267'
p1406
I2
ttRp1407
sVhttp://dreamemporium.com/title.jpg
p1408
g3
(g4
g5
(g6
(S'\x07\xe0\x07\t\x11"0\x07\x82\xc5'
tRp1409
S'285'
p1410
I1
ttRp1411
sVhttps://dreambigdreamoften.files.wordpress.com/2016/02/live-your-dreams-my-dream-is-23986887-1600-1200.jpg
p1412
g3
(g4
g5
(g6
(S'\x07\xe0\x04\x19\n\x183\x01\x83\xfd'
tRp1413
S'160'
p1414
I1
ttRp1415
sVhttps://upload.wikimedia.org/wikipedia/commons/6/68/Dream_Evil_2010.05.06.jpg
p1416
g3
(g4
g5
(g6
(S'\x07\xe0\x08\x18\x131;\x01\x13D'
tRp1417
S'165'
p1418
I1
ttRp1419
sVhttp://i.ytimg.com/vi/_GND0p99KJU/maxresdefault.jpg
p1420
g3
(g4
g5
(g6
(S'\x07\xdf\n\x1b\r0\r\x0eA\xc2'
tRp1421
S'5'
I1
ttRp1422
sVhttp://bigalmanack.com/wp-content/uploads/2015/12/entrepreneur-dream.jpg
p1423
g3
(g4
g5
(g6
(S'\x07\xe0\x06\x18\n\x10\x16\x07\x01S'
tRp1424
S'152'
p1425
I1
ttRp1426
sVhttp://nrpastors.com/wp-content/uploads/2015/10/dream.jpg
p1427
g3
(g4
g5
(g6
(S'\x07\xe0\x07\r\x11#.\x02\x99\xa4'
tRp1428
I-1
I1
ttRp1429
sVhttps://static.pexels.com/photos/2220/red-sun-purple-dream.jpg
p1430
g3
(g4
g5
(g6
(S'\x07\xe0\t\x0c\x0b*\x14\x07\x13Y'
tRp1431
I-1
I1
ttRp1432
sVhttp://ahintoflife.com/wp-content/uploads/2016/08/dream.jpg
p1433
g3
(g4
g5
(g6
(S'\x07\xe0\x08\x1e\x15!%\x01\x88I'
tRp1434
S'324'
p1435
I1
ttRp1436
sVhttp://feminspire.com/wp-content/uploads/2012/09/manic-pixie-dream-girl.jpg
p1437
g3
(g4
g5
(g6
(S'\x07\xdf\x0c\x14\x10\x10\x10\x04/\xbc'
tRp1438
I-1
I1
ttRp1439
sVhttp://kathycleaver.com/wp-content/uploads/2012/09/live-your-dreams-my-dream-is-23986887-1600-1200.jpg
p1440
g3
(g4
g5
(g6
(S'\x07\xe0\x08\x18\x131;\x01\x11\xaf'
tRp1441
S'3'
I1
ttRp1442
sVhttp://www.relatably.com/q/img/dream-quotes/dream-quotes-3.jpg
p1443
g3
(g4
g5
(g6
(S'\x07\xe0\x05\x03\r\x0f/\x0e\xc1{'
tRp1444
I-1
I1
ttRp1445
sVhttps://x1399x768wallpaper.files.wordpress.com/2012/03/dream-clouds-wallpaper3.jpg
p1446
g3
(g4
g5
(g6
(S'\x07\xdf\x0c\x14\x10\x10\x10\x04.\xf2'
tRp1447
S'110'
p1448
I1
ttRp1449
sVhttp://www.theluxuryspot.com/wp-content/uploads/2014/12/609750-86a491a8-9dae-11e3-b2ad-08c02f4f904c.jpg
p1450
g3
(g4
g5
(g6
(S'\x07\xe0\x08\x1e\x15!%\x01\x88R'
tRp1451
S'65'
p1452
I1
ttRp1453
sVhttps://lh3.googleusercontent.com/BXFpp08urNlFVlsD7MWC0AxoF2q8drwUKGTSM8DIYzKY06ABMoywgfgVuZ5DheD0Gg=h900
p1454
g3
(g4
g5
(g6
(S'\x07\xe0\x07\x07\x10\x07\x0c\x02\x04\xc1'
tRp1455
S'218'
p1456
I1
ttRp1457
sVhttps://secure.parksandresorts.wdpromedia.com/media/disneyparks/blog/wp-content/uploads/2016/02/DreamonprincessFeatured.png
p1458
g3
(g4
g5
(g6
(S'\x07\xe0\t\x0c\x0b*\x14\x07\x124'
tRp1459
S'278'
p1460
I1
ttRp1461
sVhttp://edge.alluremedia.com.au/m/l/2014/04/Dreams.jpg
p1462
g3
(g4
g5
(g6
(S'\x07\xe0\x07\x01\r:\x03\r\x19\xb0'
tRp1463
I-1
I1
ttRp1464
sVhttp://www.dreamhotels.com/d/meatpackingdistrict/mod_pukkaSimpleRooms/itemImage_301.jpg?1417821986
p1465
g3
(g4
g5
(g6
(S'\x07\xe0\x07\x07\x10\x07\x0c\x02\x04\xea'
tRp1466
S'133'
p1467
I1
ttRp1468
sVhttp://dreamchallenges.org/wordpress2/wp-content/uploads/2014/10/dream_header_dream.jpg
p1469
g3
(g4
g5
(g6
(S'\x07\xe0\x05\x15\x17\x06*\x03\x14y'
tRp1470
S'234'
p1471
I1
ttRp1472
sVhttp://motocross.transworld.net/wp-content/blogs.dir/441/files/2015/07/pipe-dream-header.png
p1473
g3
(g4
g5
(g6
(S'\x07\xe0\x08\x1e\x15!%\x01\x87\xfb'
tRp1474
I-1
I1
ttRp1475
sVhttp://www.thystars.com/wp-content/uploads/2014/06/purple_dream-1581695.jpg
p1476
g3
(g4
g5
(g6
(S'\x07\xe0\t\x0c\x0b*\x14\x07\x12\x87'
tRp1477
S'63'
p1478
I1
ttRp1479
sVhttp://orig06.deviantart.net/5408/f/2007/036/1/c/a_childhood_dream_iii_by_yusufartun.jpg
p1480
g3
(g4
g5
(g6
(S'\x07\xe0\x06\r\x16/\x1d\x08\x9e\xc3'
tRp1481
S'194'
p1482
I1
ttRp1483
sVhttp://www.lyfaces.com/wallpaper/images/images-for-gt-is-this-dream-wallpaper-drea-wallpaper-.jpg
p1484
g3
(g4
g5
(g6
(S'\x07\xdf\x0c\n\x10\n;\x03\xd6{'
tRp1485
I-1
I1
ttRp1486
sVhttp://www.dumblittleman.com/wp-content/uploads/2014/04/Pursue-Your-Dreams.jpg
p1487
g3
(g4
g5
(g6
(S'\x07\xdf\x0c\x14\x10\x10\x10\x04/}'
tRp1488
S'130'
p1489
I1
ttRp1490
sVhttp://orig15.deviantart.net/8957/f/2012/289/8/8/a_purple_cat__s_dream_by_caring201-d5hzffg.jpg
p1491
g3
(g4
g5
(g6
(S'\x07\xe0\x05\x01\r\x0e\x0e\x0b\xf9\x85'
tRp1492
S'176'
p1493
I1
ttRp1494
sVhttps://jamesvineeth.files.wordpress.com/2013/01/dream.jpg
p1495
g3
(g4
g5
(g6
(S'\x07\xe0\x08\x18\x131;\x01\x13Z'
tRp1496
S'268'
p1497
I2
ttRp1498
sVhttp://www.hdwallpapers.in/download/two_suns_dream_world-1920x1080.jpg
p1499
g3
(g4
g5
(g6
(S'\x07\xe0\x08\x12\x1268\x01W`'
tRp1500
S'271'
p1501
I2
ttRp1502
sVhttp://science-all.com/images/wallpapers/dream-images/dream-images-4.jpg
p1503
g3
(g4
g5
(g6
(S'\x07\xe0\x06\x07\x16,\x17\x05\x851'
tRp1504
I-1
I1
ttRp1505
sVhttp://www.dreamhotels.com/d/meatpackingdistrict/media/Dream_Lobby_Exterior_Final_images/__thumbs_1600_677_crop/DreamExterior_high-res.jpg?1417793427
p1506
g3
(g4
g5
(g6
(S'\x07\xdf\x0c\x14\x10\x10\x10\x04/\x0f'
tRp1507
S'115'
p1508
I1
ttRp1509
sVhttp://www.truthinsideofyou.org/wp-content/uploads/2015/03/Dreams.jpg
p1510
g3
(g4
g5
(g6
(S'\x07\xdf\x0b\x0c\r6\x07\x00\x9f\xc1'
tRp1511
S'32'
p1512
I1
ttRp1513
sVhttp://images.huffingtonpost.com/2015-11-15-1447564509-6183409-dreams.jpg
p1514
g3
(g4
g5
(g6
(S'\x07\xdf\x0b\x18\x0e\x18\x01\n\x8d\xbf'
tRp1515
S'69'
p1516
I1
ttRp1517
sVhttp://www.sihina.info/wp-content/uploads/2016/01/dream2.jpg
p1518
g3
(g4
g5
(g6
(S'\x07\xe0\x08\x1c\x15\x1d\x08\x03,\x18'
tRp1519
I-1
I1
ttRp1520
sVhttps://d13yacurqjgara.cloudfront.net/users/463836/screenshots/1974085/gif.dream.gif
p1521
g3
(g4
g5
(g6
(S'\x07\xe0\x08\x1e\x15!%\x01\x88E'
tRp1522
S'290'
p1523
I1
ttRp1524
sVhttp://fecdn.fractalenlighten.netdna-cdn.com/wp-content/uploads/2014/10/luciddreamingimage3.jpg
p1525
g3
(g4
g5
(g6
(S'\x07\xe0\x08\x12\x1268\x01W\x9c'
tRp1526
S'311'
p1527
I1
ttRp1528
sVhttp://teocracia.files.wordpress.com/2012/03/dream-way-hd-desktop-wallpaper.jpg
p1529
g3
(g4
g5
(g6
(S'\x07\xe0\x08\x18\x131;\x01\x13\xe5'
tRp1530
S'307'
p1531
I1
ttRp1532
sVhttp://pixtream.samolinov.com/images/20111209102245_christmas_dream.jpg
p1533
g3
(g4
g5
(g6
(S'\x07\xdf\x0c\x14\x10\x10\x10\x04/.'
tRp1534
S'129'
p1535
I2
ttRp1536
sVhttp://loosemoorings.org/wp-content/uploads/2013/09/Just_a_Dream____by_enricoagostoni.jpg
p1537
g3
(g4
g5
(g6
(S'\x07\xdf\x0c\x14\x10\x10\x10\x04/\xc0'
tRp1538
S'102'
p1539
I1
ttRp1540
sVhttp://www.taracronica.com/wp-content/uploads/2013/03/what-if-this-reality-is-a-dream.jpg
p1541
g3
(g4
g5
(g6
(S'\x07\xe0\x06\x07\x16,\x17\x05\x85v'
tRp1542
S'223'
p1543
I2
ttRp1544
sVhttp://psytreasure.com/wp-content/uploads/2014/07/d-room-blue-hd-dream-abstract-animal-boat-cat-cg-clouds-sail-302036.jpg
p1545
g3
(g4
g5
(g6
(S'\x07\xe0\x08\x18\x131;\x01\x14 '
tRp1546
S'315'
p1547
I2
ttRp1548
s.