(dp1
Vhttps://media2.wnyc.org/i/raw/photologue/photos/dream.jpg
p2
ccopy_reg
_reconstructor
p3
(cbase.graph_fetch.fetcher
ImageSlot
p4
c__builtin__
tuple
p5
(cdatetime
datetime
p6
(S'\x07\xe0\t\x0c\x0b*\x14\x07\x11!'
tRp7
S'30'
p8
I1
ttRp9
sVhttp://science-all.com/images/wallpapers/dream-wallpaper/dream-wallpaper-13.jpg
p10
g3
(g4
g5
(g6
(S'\x07\xe0\x08\x08\x12.3\n\xac5'
tRp11
S'305'
p12
I1
ttRp13
sVhttp://shusterman.com/images/dream-3.jpg
p14
g3
(g4
g5
(g6
(S"\x07\xe0\x06\x14\x02' \t `"
tRp15
S'138'
p16
I1
ttRp17
sVhttp://www.pockettactics.com/wp-content/uploads/2014/12/sailors-dream-review-header.jpg
p18
g3
(g4
g5
(g6
(S'\x07\xe0\x06\x18\n\x10\x16\x07\x00\xaf'
tRp19
S'261'
p20
I1
ttRp21
sVhttps://pbs.twimg.com/profile_images/691731934377054212/T0QZdO9B.jpg
p22
g3
(g4
g5
(g6
(S'\x07\xe0\x08\x1e\x15!%\x01\x87\x80'
tRp23
S'335'
p24
I1
ttRp25
sVhttp://all4desktop.com/data_images/1920%20x%201080/4140304-two-suns-dream-world.jpg
p26
g3
(g4
g5
(g6
(S'\x07\xe0\x08\x18\x131;\x01\x11\xe3'
tRp27
I-1
I1
ttRp28
sVhttp://pastors.com/wp-content/uploads/2016/04/Dream.jpg
p29
g3
(g4
g5
(g6
(S'\x07\xe0\t\x0c\x0b*\x14\x07\x11\xd0'
tRp30
S'242'
p31
I1
ttRp32
sVhttp://fc08.deviantart.net/fs70/i/2013/077/3/f/wall_dream_big_by_analaurasam-d5yikgw.png
p33
g3
(g4
g5
(g6
(S'\x07\xe0\x05\x15\x17\x06*\x03\x14\x0b'
tRp34
S'238'
p35
I1
ttRp36
sVhttp://blog.ub.ac.id/hadiyaniafina/files/2013/04/dreams-speaks-louder.jpg
p37
g3
(g4
g5
(g6
(S'\x07\xe0\x08\x18\x131;\x01\x12\x14'
tRp38
I-1
I1
ttRp39
sVhttp://www.goal-setting-guide.com/wallpapersimages/DREAM-wall-1280-1024.jpg
p40
g3
(g4
g5
(g6
(S'\x07\xdf\x0c\x14\x10\x10\x10\x04.\xde'
tRp41
S'126'
p42
I2
ttRp43
sVhttp://kickofjoy.com/wp-content/uploads/2014/02/dreams-2.jpg
p44
g3
(g4
g5
(g6
(S'\x07\xdf\x0c\x06\x10\x13\x06\x0e\xe0l'
tRp45
S'78'
p46
I1
ttRp47
sVhttp://cdn.motocross.transworld.net/wp-content/blogs.dir/441/files/2015/07/robbie-maddison-pipe-dream-fb.jpg
p48
g3
(g4
g5
(g6
(S'\x07\xdf\x0c\x14\x10\x10\x10\x04/>'
tRp49
S'100'
p50
I2
ttRp51
sVhttp://eskipaper.com/images/amazing-dream-wallpaper-1.jpg
p52
g3
(g4
g5
(g6
(S'\x07\xe0\x08\x18\x131;\x01\x12x'
tRp53
S'269'
p54
I1
ttRp55
sVhttp://www.8womendream.com/wp-content/uploads/Why-its-hard-to-dream-big-quote-on-cherish-your-visions-by-James-Allen.jpg
p56
g3
(g4
g5
(g6
(S'\x07\xe0\x08\x1c\x15\x1d\x08\x03+\xcd'
tRp57
S'135'
p58
I3
ttRp59
sVhttp://science-all.com/images/wallpapers/dream-images/dream-images-9.jpg
p60
g3
(g4
g5
(g6
(S'\x07\xe0\x08\x18\x131;\x01\x12\xab'
tRp61
I-1
I1
ttRp62
sVhttp://onlineeducare.com/wp-content/uploads/2016/04/WDF_903234.jpg
p63
g3
(g4
g5
(g6
(S'\x07\xe0\x08\x1c\x15\x1d\x08\x03+\x9f'
tRp64
S'300'
p65
I1
ttRp66
sVhttps://pixabay.com/static/uploads/photo/2015/07/06/07/45/dreams-833054_960_720.jpg
p67
g3
(g4
g5
(g6
(S'\x07\xe0\x05\x11\x13\x1e\x10\x05\xdfi'
tRp68
S'186'
p69
I1
ttRp70
sVhttps://www.fumbletip.com/wp-content/uploads/2015/07/EN_dreambigspongeletters.jpg
p71
g3
(g4
g5
(g6
(S'\x07\xdf\x0c\n\x10\n;\x03\xd6\x85'
tRp72
S'54'
p73
I1
ttRp74
sVhttp://cdn-media-1.lifehack.org/wp-content/files/2013/09/11-Reasons-Why-Its-Important-to-Follow-Your-Dreams.jpg
p75
g3
(g4
g5
(g6
(S"\x07\xe0\x05\t\r'\x13\x01\xaf\xfb"
tRp76
S'205'
p77
I1
ttRp78
sVhttp://echoes19.files.wordpress.com/2012/10/black-and-white-girl-writing-dream-on-wall.jpg
p79
g3
(g4
g5
(g6
(S'\x07\xdf\n\x1b\r0\r\x0eA\xca'
tRp80
S'52'
p81
I1
ttRp82
sVhttps://i.ytimg.com/vi/Ved_tstvVvs/maxresdefault.jpg
p83
g3
(g4
g5
(g6
(S'\x07\xdf\x0c\x14\x10\x10\x10\x04/\xa4'
tRp84
S'106'
p85
I1
ttRp86
sVhttp://i.ytimg.com/vi/1ht8jVEvoRc/maxresdefault.jpg
p87
g3
(g4
g5
(g6
(S'\x07\xdf\x0c\x06\x10\x13\x06\x0e\xe1\x14'
tRp88
S'94'
p89
I1
ttRp90
sVhttp://pantheonuk.org/wp-content/uploads/2015/02/dream-way-hd-desktop-wallpaper.jpg
p91
g3
(g4
g5
(g6
(S'\x07\xdf\x0c\x06\x10\x13\x06\x0e\xe1\x10'
tRp92
S'42'
p93
I1
ttRp94
sVhttp://orig08.deviantart.net/4b77/f/2013/146/7/3/130525_follow_your_dreams_by_photoflake-d66mb1a.jpg
p95
g3
(g4
g5
(g6
(S"\x07\xe0\x05\t\r'\x13\x01\xb0/"
tRp96
S'178'
p97
I1
ttRp98
sVhttp://atldreamcenter.com/wp-content/uploads/2013/08/1796733_857564234269634_1369647639_o.jpg
p99
g3
(g4
g5
(g6
(S"\x07\xe0\x05\t\r'\x13\x01\xb0@"
tRp100
S'210'
p101
I2
ttRp102
sVhttp://cdn.quotesgram.com/img/35/44/1358461172-dreams-speaks-louder.jpg
p103
g3
(g4
g5
(g6
(S"\x07\xe0\x06\x14\x02' \t!A"
tRp104
S'255'
p105
I1
ttRp106
sVhttp://cdn.quotesgram.com/img/19/37/1631726664-dream-big-850px.jpg
p107
g3
(g4
g5
(g6
(S"\x07\xe0\x06\x14\x02' \t!D"
tRp108
S'259'
p109
I1
ttRp110
sVhttp://media.simogo.com/2014/07/thesailorsdream_screen_04.png
p111
g3
(g4
g5
(g6
(S'\x07\xe0\x05\x01\r\x0e\x0e\x0b\xf8\xba'
tRp112
S'183'
p113
I1
ttRp114
sVhttp://media.simogo.com/2014/07/thesailorsdream_screen_071.png
p115
g3
(g4
g5
(g6
(S'\x07\xe0\t\x0c\x0b*\x14\x07\x11\x9b'
tRp116
S'148'
p117
I2
ttRp118
sVhttp://science-all.com/images/wallpapers/dream-images/dream-images-10.jpg
p119
g3
(g4
g5
(g6
(S'\x07\xe0\x08\x12\x1268\x01V\xe5'
tRp120
S'308'
p121
I1
ttRp122
sVhttp://cdn-media-2.lifehack.org/wp-content/files/2013/08/Dream-Big.png
p123
g3
(g4
g5
(g6
(S"\x07\xe0\x06\x14\x02' \t k"
tRp124
S'40'
p125
I1
ttRp126
sVhttps://shusterman.com/images/dream-3.jpg
p127
g3
(g4
g5
(g6
(S'\x07\xe0\x06\x18\n\x10\x16\x07\x00\xb9'
tRp128
S'9'
I1
ttRp129
sVhttp://www.jamflo.com/users/akapellazmuziqk/wp-content/uploads/sites/822/edd/2016/01/635874488671732508-1849730022_Odyssey-Article-on-Dreams-Image-2.jpg
p130
g3
(g4
g5
(g6
(S'\x07\xe0\t\x0c\x0b*\x14\x07\x11\xc7'
tRp131
S'298'
p132
I1
ttRp133
sVhttps://s-media-cache-ak0.pinimg.com/736x/02/1c/de/021cdeb38d5ac415da6711131b5d41fc.jpg
p134
g3
(g4
g5
(g6
(S'\x07\xe0\x06\r\x16/\x1d\x08\x9fi'
tRp135
S'87'
p136
I1
ttRp137
sVhttp://www.smartambala.com/wp-content/uploads/2012/09/Dream-Quote-119.jpg
p138
g3
(g4
g5
(g6
(S'\x07\xe0\t\x0c\x0b*\x14\x07\x12*'
tRp139
S'346'
p140
I1
ttRp141
sVhttp://www.gateway-to-lucid-dreaming.com/images/WILD_flying.jpg
p142
g3
(g4
g5
(g6
(S'\x07\xdf\x0b\x18\x0e\x18\x01\n\x8d*'
tRp143
S'31'
p144
I1
ttRp145
sVhttp://www.youcanluciddream.com/wp-content/uploads/2011/10/two_types_of_dream_by_desexign-full.jpg
p146
g3
(g4
g5
(g6
(S'\x07\xe0\x08\x1c\x15\x1d\x08\x03+\xbd'
tRp147
S'35'
p148
I1
ttRp149
sVhttp://www.lorianngarner.com/wp-content/uploads/2015/12/dream-big.jpg
p150
g3
(g4
g5
(g6
(S'\x07\xe0\x08\x12\x1268\x01V\xa7'
tRp151
S'318'
p152
I1
ttRp153
sVhttps://f1.bcbits.com/img/a3925758384_10.jpg
p154
g3
(g4
g5
(g6
(S'\x07\xdf\x0c\x14\x10\x10\x10\x04.\xce'
tRp155
S'105'
p156
I1
ttRp157
sVhttps://c2.staticflickr.com/6/5217/5473595994_8160684fd8_b.jpg
p158
g3
(g4
g5
(g6
(S'\x07\xdf\x0c\x14\x10\x10\x10\x04/p'
tRp159
S'103'
p160
I1
ttRp161
sVhttp://static.boredpanda.com/blog/wp-content/uuuploads/interesting-facts-dreams/13-Interesting-Facts-about-Dreams-flowers.jpg
p162
g3
(g4
g5
(g6
(S'\x07\xe0\t\x0c\x0b*\x14\x07\x13\x02'
tRp163
S'333'
p164
I1
ttRp165
sVhttp://e2ua.com/data/wallpapers/43/WDF_903178.jpg
p166
g3
(g4
g5
(g6
(S'\x07\xe0\x04\x19\n\x183\x01\x83\xf0'
tRp167
I-1
I1
ttRp168
sVhttp://cdn1.theodysseyonline.com/files/2016/01/29/635896422787272319-1663804671_dream%20big.jpg
p169
g3
(g4
g5
(g6
(S'\x07\xe0\x05\x15\x17\x06*\x03\x14\x86'
tRp170
S'241'
p171
I1
ttRp172
sVhttp://assets.faena.com/wp-content/uploads/sites/4/2015/06/dream-atlas-opcion-2.jpg
p173
g3
(g4
g5
(g6
(S'\x07\xe0\x08\x1e\x15!%\x01\x88\x0b'
tRp174
S'253'
p175
I2
ttRp176
sVhttp://cdn.motocross.transworld.net/wp-content/blogs.dir/441/files/2015/07/pipe-dream-header.png
p177
g3
(g4
g5
(g6
(S'\x07\xe0\x07\r\x11#.\x02\x99\xd1'
tRp178
S'291'
p179
I1
ttRp180
sVhttp://s8.favim.com/orig/151029/alone-autumn-away-city-dreams-Favim.com-3495149.png
p181
g3
(g4
g5
(g6
(S'\x07\xe0\t\x0c\x0b*\x14\x07\x13\r'
tRp182
S'289'
p183
I1
ttRp184
sVhttp://images.huffingtonpost.com/2013-12-27-shutterstock_95252467_Dreams_Cloud_Death.jpg
p185
g3
(g4
g5
(g6
(S'\x07\xe0\x07\x07\x10\x07\x0c\x02\x05V'
tRp186
S'188'
p187
I1
ttRp188
sVhttp://www.survivefirstaid.com.au/wp-content/uploads/1-Dare-to-Dream1-e1409741195270-820x408.jpg
p189
g3
(g4
g5
(g6
(S'\x07\xe0\x07\r\x11#.\x02\x99\xbf'
tRp190
S'283'
p191
I1
ttRp192
sVhttp://images4.fanpop.com/image/photos/20500000/Dream-castle-daydreaming-20507056-2560-1920.jpg
p193
g3
(g4
g5
(g6
(S'\x07\xe0\x08\x18\x131;\x01\x13\xc5'
tRp194
I-1
I1
ttRp195
sVhttp://ctcw.net/wp-content/uploads/Holman_Josephs_Dream.jpg
p196
g3
(g4
g5
(g6
(S'\x07\xdf\x0c\x14\x10\x10\x10\x04/G'
tRp197
I-1
I1
ttRp198
sVhttps://upload.wikimedia.org/wikipedia/commons/2/2b/Purple_dream_at_Masai_Mara.jpg
p199
g3
(g4
g5
(g6
(S'\x07\xe0\t\x0c\x0b*\x14\x07\x13v'
tRp200
S'93'
p201
I1
ttRp202
sVhttp://images.huffingtonpost.com/2014-01-16-shutterstock_114318994.jpg
p203
g3
(g4
g5
(g6
(S'\x07\xe0\x05\x15\x17\x06*\x03\x14&'
tRp204
S'189'
p205
I2
ttRp206
sVhttp://img15.deviantart.net/d8dc/i/2013/291/b/2/paradise_is_just_a_dream_by_morgainelefee-d6qxt8x.jpg
p207
g3
(g4
g5
(g6
(S'\x07\xe0\x05\x03\r\x0f/\x0e\xc1\xff'
tRp208
S'208'
p209
I1
ttRp210
sVhttps://gloveo.com/wp-content/uploads/2015/12/manic-pixie-dream-girl.jpg
p211
g3
(g4
g5
(g6
(S'\x07\xe0\x06\x07\x16,\x17\x05\x85~'
tRp212
I-1
I1
ttRp213
sVhttp://www.ilikewallpaper.net/ipad-air-wallpapers/download/4456/Dream-iPad-4-wallpaper-ilikewallpaper_com.jpg
p214
g3
(g4
g5
(g6
(S'\x07\xe0\x08\x18\x131;\x01\x11Q'
tRp215
S'262'
p216
I1
ttRp217
sVhttp://elitetrack.com/wp-content/uploads/2016/04/211.jpg
p218
g3
(g4
g5
(g6
(S'\x07\xe0\x08\x1e\x15!%\x01\x87\x8f'
tRp219
S'280'
p220
I1
ttRp221
sVhttp://e2ua.com/data/wallpapers/43/WDF_903495.jpg
p222
g3
(g4
g5
(g6
(S'\x07\xe0\x04\x19\n\x183\x01\x83:'
tRp223
I-1
I1
ttRp224
sVhttp://images.huffingtonpost.com/2013-12-27-shutterstock_162685259_Dreams_Cloud_Flying.jpg
p225
g3
(g4
g5
(g6
(S'\x07\xdf\x0c\x14\x10\x10\x10\x04/['
tRp226
S'125'
p227
I1
ttRp228
sVhttp://www.nrpastors.com/wp-content/uploads/2015/10/dream.jpg
p229
g3
(g4
g5
(g6
(S'\x07\xe0\x08\x1e\x15!%\x01\x87\xaa'
tRp230
I-1
I1
ttRp231
sVhttp://cdn-media-2.lifehack.org/wp-content/files/2012/10/make-dreams-come-true.jpg
p232
g3
(g4
g5
(g6
(S'\x07\xe0\x07\x01\r:\x03\r\x1bO'
tRp233
S'26'
p234
I1
ttRp235
sVhttp://az616578.vo.msecnd.net/files/2016/04/15/635963556385883343-1341965896_dreamscape.jpg
p236
g3
(g4
g5
(g6
(S'\x07\xe0\x08\x1e\x15!%\x01\x87\xc0'
tRp237
S'168'
p238
I1
ttRp239
sVhttp://churchimagenetwork.com/ghfc/wp-content/uploads/2015/10/a-lodier-s-dream-hd-wallpaper-332996.jpg
p240
g3
(g4
g5
(g6
(S'\x07\xe0\x05\x01\r\x0e\x0e\x0b\xf9\x89'
tRp241
I-1
I1
ttRp242
sVhttp://static.boredpanda.com/blog/wp-content/uuuploads/interesting-facts-dreams/13-Interesting-Facts-about-Dreams-flying.jpg
p243
g3
(g4
g5
(g6
(S'\x07\xe0\x08\x1e\x15!%\x01\x87\xf7'
tRp244
S'326'
p245
I1
ttRp246
sVhttp://psychictarona.com/wp-content/uploads/2015/03/dream-girlandsky.jpg
p247
g3
(g4
g5
(g6
(S'\x07\xdf\x0b\x13\x0e\x17"\x08\x0c\xdc'
tRp248
S'72'
p249
I1
ttRp250
sVhttps://tedconfblog.files.wordpress.com/2016/02/dream-image.png?w=900&h=614
p251
g3
(g4
g5
(g6
(S"\x07\xe0\x06\x14\x02' \t \xd4"
tRp252
S'195'
p253
I1
ttRp254
sVhttp://rickwarren.org/images/default-source/Devotional-Images/01-05-16-daring-faith-god-can-top-your-biggest-dream.jpg?sfvrsn=0
p255
g3
(g4
g5
(g6
(S'\x07\xe0\x07\x07\x10\x07\x0c\x02\x05u'
tRp256
S'199'
p257
I1
ttRp258
sVhttps://evbdn.eventbrite.com/s3-s3/eventlogos/2995386/4617-1.jpg
p259
g3
(g4
g5
(g6
(S'\x07\xdf\x0c\x14\x10\x10\x10\x04/\xb8'
tRp260
S'75'
p261
I1
ttRp262
sVhttp://image.shutterstock.com/z/stock-photo-dream-cloud-word-95605240.jpg
p263
g3
(g4
g5
(g6
(S'\x07\xe0\x08\x1e\x15!%\x01\x88^'
tRp264
S'136'
p265
I1
ttRp266
sVhttp://www.cfau-pd.net/images/dream-images/dream-images-2.jpg
p267
g3
(g4
g5
(g6
(S'\x07\xe0\t\x0c\x0b*\x14\x07\x13c'
tRp268
S'344'
p269
I1
ttRp270
sVhttp://theunboundedspirit.com/wp-content/uploads/2012/11/dream.jpg
p271
g3
(g4
g5
(g6
(S'\x07\xdf\x0c\x14\x10\x10\x10\x04.\xae'
tRp272
S'118'
p273
I1
ttRp274
sVhttp://www.download-free-wallpaper.com/img70/aqlweyfkzpmrbxxexwno.jpg
p275
g3
(g4
g5
(g6
(S'\x07\xdf\x0c\x14\x10\x10\x10\x04/c'
tRp276
S'121'
p277
I2
ttRp278
sVhttp://cdn.playbuzz.com/cdn/3d338470-52fa-4cb5-8ebf-aa388896d289/a89040ff-e9de-44ec-8065-e5a2ab837634.jpg
p279
g3
(g4
g5
(g6
(S'\x07\xe0\x04\x15\n\x102\x04\x8e\xc4'
tRp280
S'215'
p281
I1
ttRp282
sVhttps://i.ytimg.com/vi/rfCCF40by-A/maxresdefault.jpg
p283
g3
(g4
g5
(g6
(S'\x07\xe0\x08\x18\x131;\x01\x11\xd6'
tRp284
S'162'
p285
I1
ttRp286
sVhttp://jeremyryanslate.com/wp-content/uploads/2016/07/dreams-1.jpg?b8226b
p287
g3
(g4
g5
(g6
(S'\x07\xe0\t\x0c\x0b*\x14\x07\x12L'
tRp288
S'349'
p289
I1
ttRp290
sVhttps://i.ytimg.com/vi/AhQbGNf8Ix0/hqdefault.jpg
p291
g3
(g4
g5
(g6
(S'\x07\xe0\t\x0c\x0b*\x14\x07\x12!'
tRp292
S'58'
p293
I2
ttRp294
sVhttp://i1045.photobucket.com/albums/b460/mjr_attitude/anibd16.gif
p295
g3
(g4
g5
(g6
(S'\x07\xe0\x08\x1e\x15!%\x01\x87\xd5'
tRp296
S'340'
p297
I1
ttRp298
sVhttp://e2ua.com/data/wallpapers/43/WDF_903234.jpg
p299
g3
(g4
g5
(g6
(S'\x07\xe0\x04\x15\n\x102\x04\x8f\n'
tRp300
I-1
I1
ttRp301
sVhttp://fungerms.com/wp-content/uploads/2013/12/sayings-on-dream.jpg
p302
g3
(g4
g5
(g6
(S'\x07\xdf\x0b\x18\x0e\x18\x01\n\x8d$'
tRp303
S'76'
p304
I1
ttRp305
sVhttp://www.dreamhotels.com/d/midtown/mod_pukkaSimpleRooms/itemImage_531.jpg?1421171440
p306
g3
(g4
g5
(g6
(S'\x07\xe0\x07\x07\x10\x07\x0c\x02\x04\xe5'
tRp307
S'153'
p308
I1
ttRp309
sVhttp://cdn1.medicalnewstoday.com/content/images/articles/284/284378/playing-violin-in-dream.jpg
p310
g3
(g4
g5
(g6
(S'\x07\xe0\t\x0c\x0b*\x14\x07\x12\xc6'
tRp311
S'66'
p312
I1
ttRp313
sVhttp://brandwiki.today/wellnessgospel/files/2015/03/Journey_Of_Dreams_by_jerry8448.jpg
p314
g3
(g4
g5
(g6
(S'\x07\xe0\x05\x03\r\x0f/\x0e\xc1U'
tRp315
S'190'
p316
I2
ttRp317
sVhttp://www.chicagonow.com/god-running-partner/files/2015/03/dream.jpg
p318
g3
(g4
g5
(g6
(S'\x07\xdf\x0b\x18\x0e\x18\x01\n\x8dp'
tRp319
S'41'
p320
I1
ttRp321
sVhttp://e2ua.com/data/wallpapers/162/WDF_2025236.jpg
p322
g3
(g4
g5
(g6
(S'\x07\xe0\x04\x15\n\x102\x04\x8f>'
tRp323
I-1
I1
ttRp324
sVhttps://quotefancy.com/media/wallpaper/3840x2160/22527-Walt-Disney-Quote-If-you-can-dream-it-you-can-do-it.jpg
p325
g3
(g4
g5
(g6
(S'\x07\xe0\x08\x12\x1268\x01W$'
tRp326
S'264'
p327
I2
ttRp328
sVhttp://churchofchristarticles.com/blog/wp-content/uploads/2011/08/dream-girl.jpg
p329
g3
(g4
g5
(g6
(S'\x07\xe0\x07\x07\x10\x07\x0c\x02\x05D'
tRp330
S'154'
p331
I1
ttRp332
sVhttp://youngmoneyhacker.com/wp-content/uploads/2013/01/Dream.jpg
p333
g3
(g4
g5
(g6
(S'\x07\xe0\x06\x07\x16,\x17\x05\x84\xf7'
tRp334
S'197'
p335
I1
ttRp336
sVhttp://www.beliefnet.com/columnists/everydayinspiration/files/2015/05/dream-back-on-track.jpg
p337
g3
(g4
g5
(g6
(S'\x07\xdf\x0b\x18\x0e\x18\x01\n\x8dg'
tRp338
S'16'
p339
I1
ttRp340
sVhttp://cdn1.pri.org/sites/default/files/styles/story_main/public/story/images/DIANA%20GAMEROS%20B%26W%20GUITAR%20CASE.jpg?itok=0CgdP_2a
p341
g3
(g4
g5
(g6
(S'\x07\xe0\x06\r\x16/\x1d\x08\x9e\xda'
tRp342
S'203'
p343
I1
ttRp344
sVhttp://www.hotel-r.net/im/hotel/es/dream-10.jpg
p345
g3
(g4
g5
(g6
(S'\x07\xe0\t\x0c\x0b*\x14\x07\x13E'
tRp346
S'332'
p347
I1
ttRp348
sVhttps://lsatmax.com/wp-content/uploads/2013/05/two_types_of_dream_by_desexign-full.jpg
p349
g3
(g4
g5
(g6
(S'\x07\xe0\x07\x01\r:\x03\r\x1b6'
tRp350
S'304'
p351
I1
ttRp352
sVhttp://s.hswstatic.com/gif/lucid-dream-flying.jpg
p353
g3
(g4
g5
(g6
(S'\x07\xe0\t\x0c\x0b*\x14\x07\x13i'
tRp354
S'345'
p355
I1
ttRp356
sVhttp://fractal.fractalenlighten.netdna-cdn.com/wp-content/uploads/2014/10/luciddreamingimage2.jpg
p357
g3
(g4
g5
(g6
(S'\x07\xdf\n\x1b\r0\r\x0eA\xfc'
tRp358
S'1'
I2
ttRp359
sVhttp://7-themes.com/data_images/out/22/6842294-dream-wallpaper.jpg
p360
g3
(g4
g5
(g6
(S'\x07\xe0\t\x0c\x0b*\x14\x07\x13\x81'
tRp361
S'4'
I1
ttRp362
sVhttp://science-all.com/images/wallpapers/dream-images/dream-images-21.jpg
p363
g3
(g4
g5
(g6
(S'\x07\xe0\x06\r\x16/\x1d\x08\x9d\xb3'
tRp364
S'247'
p365
I1
ttRp366
sVhttp://pre03.deviantart.net/8fcc/th/pre/f/2016/110/2/b/dream_escape_by_yuumei-d9zlsvq.jpg
p367
g3
(g4
g5
(g6
(S'\x07\xe0\x08\x1c\x15\x1d\x08\x03+5'
tRp368
S'331'
p369
I2
ttRp370
sVhttp://d3i6fh83elv35t.cloudfront.net/newshour/wp-content/uploads/2015/11/GettyImages-459146393-1024x717.jpg
p371
g3
(g4
g5
(g6
(S'\x07\xe0\x07\x07\x10\x07\x0c\x02\x05I'
tRp372
S'226'
p373
I1
ttRp374
sVhttp://7-themes.com/data_images/out/22/6842299-dream-wallpaper.jpg
p375
g3
(g4
g5
(g6
(S'\x07\xe0\x08\x18\x131;\x01\x11\x85'
tRp376
I-1
I1
ttRp377
sVhttps://upload.wikimedia.org/wikipedia/commons/a/a9/Briullov,_Karl_-_A_Dream_of_a_Girl_Before_a_Sunrise.jpg
p378
g3
(g4
g5
(g6
(S'\x07\xe0\x06\r\x16/\x1d\x08\x9f\x05'
tRp379
S'185'
p380
I1
ttRp381
sVhttp://www.cfau-pd.net/images/dream-images/dream-images-13.jpg
p382
g3
(g4
g5
(g6
(S'\x07\xe0\x08\x18\x131;\x01\x11\xbb'
tRp383
S'317'
p384
I1
ttRp385
sVhttp://www.dreamdictionary.org/wp-content/uploads/2010/04/WILD_flying.jpg
p386
g3
(g4
g5
(g6
(S'\x07\xe0\t\x0c\x0b*\x14\x07\x11\xfd'
tRp387
S'294'
p388
I1
ttRp389
sVhttp://randalldsmith.com/wp-content/uploads/2015/01/dream.jpg
p390
g3
(g4
g5
(g6
(S'\x07\xe0\x08\x12\x1268\x01V\x9f'
tRp391
S'10'
p392
I1
ttRp393
sVhttp://boards.420chan.org/dr/src/1471800402713.jpg
p394
g3
(g4
g5
(g6
(S'\x07\xe0\x08\x1e\x15!%\x01\x87U'
tRp395
S'341'
p396
I1
ttRp397
sVhttp://www.gracewaynesboro.com/wp-content/uploads/2014/08/a-lodier-s-dream-hd-wallpaper-332996.jpg
p398
g3
(g4
g5
(g6
(S'\x07\xdf\x0c\n\x10\n;\x03\xd6E'
tRp399
S'6'
I1
ttRp400
sVhttp://6iee.com/data/uploads/15/430595.jpg
p401
g3
(g4
g5
(g6
(S'\x07\xe0\x08\x08\x12.3\n\xad\x8c'
tRp402
I-1
I1
ttRp403
sVhttp://img05.deviantart.net/bdca/i/2012/021/0/8/the_dream_walker_by_theflickerees-d3cx8zh.jpg
p404
g3
(g4
g5
(g6
(S'\x07\xe0\x06\r\x16/\x1d\x08\x9ev'
tRp405
S'86'
p406
I2
ttRp407
sVhttps://destinationsanfranciscoblog.files.wordpress.com/2015/07/1370771268-157313623.jpg
p408
g3
(g4
g5
(g6
(S'\x07\xdf\x0b\x18\x0e\x18\x01\n\x8d\xae'
tRp409
S'37'
p410
I1
ttRp411
sVhttp://uppercases.net/wp-content/uploads/2012/10/case_dream_big-1024x768.jpg
p412
g3
(g4
g5
(g6
(S'\x07\xdf\x0c\x14\x10\x10\x10\x04/l'
tRp413
S'98'
p414
I1
ttRp415
sVhttps://www.rantlifestyle.com/wp-content/uploads/2014/08/703.-More-Than-One-Dream.jpg
p416
g3
(g4
g5
(g6
(S'\x07\xe0\x07\x07\x10\x07\x0c\x02\x052'
tRp417
S'260'
p418
I1
ttRp419
sVhttp://asfort.org/wp-content/uploads/2016/04/dream1.jpg
p420
g3
(g4
g5
(g6
(S"\x07\xe0\x06\x14\x02' \t \xf5"
tRp421
S'232'
p422
I1
ttRp423
sVhttp://static1.squarespace.com/static/52d3818ae4b067bcd605cc0c/t/55e0123be4b020dde60fbf48/1440748098682/Dreamanddo_work
p424
g3
(g4
g5
(g6
(S'\x07\xe0\t\x0c\x0b*\x14\x07\x13\x15'
tRp425
S'282'
p426
I1
ttRp427
sVhttps://pixabay.com/static/uploads/photo/2015/05/02/09/32/surreal-749685_960_720.jpg
p428
g3
(g4
g5
(g6
(S'\x07\xe0\x05\x03\r\x0f/\x0e\xc1\xbc'
tRp429
S'221'
p430
I1
ttRp431
sVhttp://ripplekindness.org/wp-content/uploads/2015/07/Dig-deeper-to-manifest-your-dreams.jpg
p432
g3
(g4
g5
(g6
(S'\x07\xe0\t\x0c\x0b*\x14\x07\x13L'
tRp433
S'328'
p434
I1
ttRp435
sVhttps://c1.staticflickr.com/8/7723/16630001184_4c4c6bfb04_b.jpg
p436
g3
(g4
g5
(g6
(S"\x07\xe0\x06\x14\x02' \t!2"
tRp437
S'177'
p438
I1
ttRp439
sVhttp://cdn-media-1.lifehack.org/wp-content/files/2013/08/Dream-Big.png
p440
g3
(g4
g5
(g6
(S'\x07\xe0\x07\x07\x10\x07\x0c\x02\x05\x81'
tRp441
S'288'
p442
I1
ttRp443
sVhttp://jeremyryanslate.com/wp-content/uploads/2016/07/dreams-1.jpg
p444
g3
(g4
g5
(g6
(S'\x07\xe0\t\n\x0b\x18\r\x07w\x8d'
tRp445
S'348'
p446
I1
ttRp447
sVhttp://bestmusicbook.com/wp-content/uploads/2014/10/HQ-Fish-In-The-Ocean-Dream-Girl-Hd-Wallpaper.jpg
p448
g3
(g4
g5
(g6
(S'\x07\xdf\x0c\n\x10\n;\x03\xd6R'
tRp449
S'99'
p450
I2
ttRp451
sVhttps://i.ytimg.com/vi/kLYzP2yfK0c/maxresdefault.jpg
p452
g3
(g4
g5
(g6
(S'\x07\xe0\t\x0c\x0b*\x14\x07\x12<'
tRp453
S'88'
p454
I2
ttRp455
sVhttp://kickofjoy.com/wp-content/uploads/2014/02/dare-to-dream.jpg
p456
g3
(g4
g5
(g6
(S'\x07\xdf\x0c\x14\x10\x10\x10\x04/\xc4'
tRp457
S'28'
p458
I1
ttRp459
sVhttp://cdn1.theodysseyonline.com/files/2016/01/15/635884265052408808219653933_Dream-Big.png
p460
g3
(g4
g5
(g6
(S'\x07\xe0\x05\x15\x17\x06*\x03\x14\xba'
tRp461
S'191'
p462
I2
ttRp463
sVhttp://cdn-media-1.lifehack.org/wp-content/files/2014/12/Go-after-your-dream-no-matter-how-unattainable-others-think-it-is.png
p464
g3
(g4
g5
(g6
(S'\x07\xe0\t\x0c\x0b*\x14\x07\x11y'
tRp465
S'33'
p466
I1
ttRp467
sVhttp://www.slantmagazine.com/assets/house/23339/games_sailorsdream.jpg
p468
g3
(g4
g5
(g6
(S'\x07\xe0\x07\x01\r:\x03\r\x19\x85'
tRp469
S'79'
p470
I1
ttRp471
sVhttp://thehowardtheatre.com/assets/The-Dream-652x367.jpg
p472
g3
(g4
g5
(g6
(S'\x07\xe0\x08\x1e\x15!%\x01\x87{'
tRp473
S'284'
p474
I1
ttRp475
sVhttp://blog.cremationsolutions.com/wp-content/uploads/2014/10/Dreams-3.jpg
p476
g3
(g4
g5
(g6
(S'\x07\xdf\x0b\x18\x0e\x18\x01\n\x8c\xff'
tRp477
S'47'
p478
I1
ttRp479
sVhttp://cdn-media-2.lifehack.org/wp-content/files/2013/09/11-Reasons-Why-Its-Important-to-Follow-Your-Dreams.jpg
p480
g3
(g4
g5
(g6
(S'\x07\xe0\x05\x11\x13\x1e\x10\x05\xdbz'
tRp481
S'228'
p482
I2
ttRp483
sVhttp://www.pbs.org/newshour/wp-content/uploads/2015/11/GettyImages-459146393-1024x717.jpg
p484
g3
(g4
g5
(g6
(S"\x07\xe0\x05\t\r'\x13\x01\xafx"
tRp485
S'150'
p486
I1
ttRp487
sVhttp://orig05.deviantart.net/e511/f/2009/329/6/4/dream_world_by_yaxxe.jpg
p488
g3
(g4
g5
(g6
(S'\x07\xe0\x08\x12\x1268\x01Va'
tRp489
S'263'
p490
I1
ttRp491
sVhttps://i.ytimg.com/vi/lsj_3c8mA3M/maxresdefault.jpg
p492
g3
(g4
g5
(g6
(S'\x07\xdf\x0c\x14\x10\x10\x10\x04/\x0b'
tRp493
S'122'
p494
I1
ttRp495
sVhttp://www.pic.cx/img70/zkpftxjkepvqanimyxmn.jpg
p496
g3
(g4
g5
(g6
(S'\x07\xe0\x08\x18\x131;\x01\x12 '
tRp497
S'256'
p498
I1
ttRp499
sVhttp://d.wildapricot.net/images/newsblog/dream.jpg?sfvrsn=1
p500
g3
(g4
g5
(g6
(S"\x07\xe0\x07\r\x11#.\x02\x99'"
tRp501
S'34'
p502
I1
ttRp503
sVhttp://www.dreamonapp.com/img/femaledreams.jpg
p504
g3
(g4
g5
(g6
(S'\x07\xdf\x0c\x14\x10\x10\x10\x04/\xb4'
tRp505
S'22'
p506
I1
ttRp507
sVhttps://i.ytimg.com/vi/TOg4TZH9uS4/maxresdefault.jpg
p508
g3
(g4
g5
(g6
(S'\x07\xe0\x08\x12\x1268\x01V\x8e'
tRp509
S'64'
p510
I2
ttRp511
sVhttp://6iee.com/data/uploads/15/647559.jpg
p512
g3
(g4
g5
(g6
(S'\x07\xe0\x08\x12\x1268\x01V\x97'
tRp513
I-1
I1
ttRp514
sVhttp://www.dreamanity.com/wp-content/uploads/2014/02/dream-interpretation-and-the-function-of-our-dreams.jpg
p515
g3
(g4
g5
(g6
(S'\x07\xe0\x05\x03\r\x0f/\x0e\xc0\xf8'
tRp516
S'217'
p517
I1
ttRp518
sVhttp://www.iflscience.com/sites/www.iflscience.com/files/blog/%5Bnid%5D/shutterstock_250236022.jpg
p519
g3
(g4
g5
(g6
(S"\x07\xe0\x05\t\r'\x13\x01\xb04"
tRp520
S'157'
p521
I1
ttRp522
sVhttp://dreamlifecoachtraining.com/wp-content/uploads/2013/10/Resurrection.jpg
p523
g3
(g4
g5
(g6
(S'\x07\xe0\x07\x01\r:\x03\r\x1a\xf8'
tRp524
S'149'
p525
I1
ttRp526
sVhttps://au29.files.wordpress.com/2016/05/dreams.jpg?w=656
p527
g3
(g4
g5
(g6
(S'\x07\xe0\t\x0c\x0b*\x14\x07\x12\xb5'
tRp528
S'323'
p529
I1
ttRp530
sVhttp://images.huffingtonpost.com/2013-12-17-DreamsCloudDreamInterpretationWhyDoWeDream1.jpg
p531
g3
(g4
g5
(g6
(S'\x07\xdf\x0c\x14\x10\x10\x10\x04/_'
tRp532
S'91'
p533
I1
ttRp534
sVhttp://paulcbrunson.wpengine.com/wp-content/uploads/2014/01/Dreams.jpg
p535
g3
(g4
g5
(g6
(S'\x07\xe0\t\x0c\x0b*\x14\x07\x12k'
tRp536
I-1
I1
ttRp537
sVhttp://az616578.vo.msecnd.net/files/2016/01/15/635884265052408808219653933_Dream-Big.png
p538
g3
(g4
g5
(g6
(S'\x07\xe0\x06\r\x16/\x1d\x08\x9e\xba'
tRp539
S'246'
p540
I1
ttRp541
sVhttps://i.ytimg.com/vi/1ht8jVEvoRc/maxresdefault.jpg
p542
g3
(g4
g5
(g6
(S'\x07\xe0\x07\x01\r:\x03\r\x1a\xeb'
tRp543
S'97'
p544
I1
ttRp545
sVhttps://i.ytimg.com/vi/nOnrDAjdr7s/maxresdefault.jpg
p546
g3
(g4
g5
(g6
(S'\x07\xe0\t\x0c\x0b*\x14\x07\x13&'
tRp547
S'145'
p548
I2
ttRp549
sVhttp://www.engineering.com/Portals/0/BlogFiles/Anthony%20Fasano/path%20toward%20dream%20engineering%20job.jpg
p550
g3
(g4
g5
(g6
(S'\x07\xe0\x08\x1e\x15!%\x01\x88,'
tRp551
S'286'
p552
I1
ttRp553
sVhttp://www.hmmrmedia.com/wp-content/uploads/2016/04/starting_line.jpg
p554
g3
(g4
g5
(g6
(S'\x07\xe0\x08\x1e\x15!%\x01\x880'
tRp555
S'155'
p556
I1
ttRp557
sVhttp://ssl.quiksilver.com/static/DC/default/category-assets/cat-experiences/maddo_collab/img/intro/homepage.jpg
p558
g3
(g4
g5
(g6
(S'\x07\xe0\x07\x01\r:\x03\r\x1b\x1e'
tRp559
S'112'
p560
I1
ttRp561
sVhttps://i.ytimg.com/vi/YYLZrCuhu_0/maxresdefault.jpg
p562
g3
(g4
g5
(g6
(S'\x07\xe0\x08\x12\x1268\x01W\xc8'
tRp563
S'314'
p564
I1
ttRp565
sVhttp://youthvoices.net/sites/default/files/image/10895/apr/_victim_of_a_dream__by_nonnetta.jpg
p566
g3
(g4
g5
(g6
(S'\x07\xe0\x06\r\x16/\x1d\x08\x9fX'
tRp567
I-1
I1
ttRp568
sVhttps://i.unu.edu/media/ourworld.unu.edu-en/article/5174/energy-dream.jpg
p569
g3
(g4
g5
(g6
(S'\x07\xe0\x08\x1e\x15!%\x01\x88f'
tRp570
S'338'
p571
I1
ttRp572
sVhttp://www.finerminds.com/wp-content/uploads/2015/08/shutterstock_250236022.jpg
p573
g3
(g4
g5
(g6
(S'\x07\xe0\x07\x07\x10\x07\x0c\x02\x05\xa2'
tRp574
I-1
I1
ttRp575
sVhttp://careerrocketeercom.c.presscdn.com/wp-content/uploads/Career-Ambitions.jpg
p576
g3
(g4
g5
(g6
(S'\x07\xdf\x0b\x13\x0e\x17"\x08\x0b\xf0'
tRp577
S'36'
p578
I1
ttRp579
sVhttp://cdni.wired.co.uk/1920x1280/d_f/dream-memory.jpg
p580
g3
(g4
g5
(g6
(S'\x07\xe0\x04\x19\n\x183\x01\x83\x04'
tRp581
S'18'
p582
I1
ttRp583
sVhttp://blogs-images.forbes.com/teradata/files/2015/09/Dream-Big.jpg
p584
g3
(g4
g5
(g6
(S'\x07\xe0\t\x0c\x0b*\x14\x07\x11\xbe'
tRp585
S'237'
p586
I2
ttRp587
sVhttp://www.dreamdictionarynow.com/wp-content/uploads/2014/07/how-to-control-your-dreams-with-dream-incubation.jpg
p588
g3
(g4
g5
(g6
(S"\x07\xe0\x05\t\r'\x13\x01\xaf|"
tRp589
S'227'
p590
I1
ttRp591
sVhttp://animal-dream.com/data_images/dreams.jpg
p592
g3
(g4
g5
(g6
(S'\x07\xe0\t\x0c\x0b*\x14\x07\x11\xe1'
tRp593
S'257'
p594
I1
ttRp595
sVhttp://islamicencyclopedia.org/public/blog_images/526_WG-2010-Birth-of-Dreams.jpg
p596
g3
(g4
g5
(g6
(S'\x07\xe0\x06\x07\x16,\x17\x05\x84\xb5'
tRp597
S'187'
p598
I1
ttRp599
sVhttp://www.tedxtorvergatau.com/images/news/Dare-to-dream.jpg
p600
g3
(g4
g5
(g6
(S'\x07\xe0\x05\x15\x17\x06*\x03\x14!'
tRp601
S'173'
p602
I1
ttRp603
sVhttps://i.ytimg.com/vi/90Fu8fZlq30/maxresdefault.jpg
p604
g3
(g4
g5
(g6
(S'\x07\xdf\x0c\x14\x10\x10\x10\x04/:'
tRp605
S'123'
p606
I1
ttRp607
sVhttp://az616578.vo.msecnd.net/files/2016/03/11/635933201370480331-2029777550_dream%20big.png
p608
g3
(g4
g5
(g6
(S'\x07\xe0\x07\x07\x10\x07\x0c\x02\x04\xd3'
tRp609
S'198'
p610
I1
ttRp611
sVhttp://www.fubiz.net/wp-content/uploads/2012/06/Dream.jpg
p612
g3
(g4
g5
(g6
(S'\x07\xe0\x06\x1d\x02\x16,\x02]\x1b'
tRp613
S'273'
p614
I1
ttRp615
sVhttp://img.freepik.com/free-vector/dream-summer-vacation-background_23-2147513770.jpg?size=338&ext=jpg
p616
g3
(g4
g5
(g6
(S'\x07\xe0\x07\r\x11#.\x02\x99['
tRp617
S'277'
p618
I1
ttRp619
sVhttp://thefactfile.org/wp-content/uploads/2015/10/dream-facts.jpg
p620
g3
(g4
g5
(g6
(S'\x07\xe0\x05\x15\x17\x06*\x03\x14E'
tRp621
S'174'
p622
I1
ttRp623
sVhttp://www.rooshv.com/wp-content/uploads/2016/05/dreaming-604x270.jpg
p624
g3
(g4
g5
(g6
(S'\x07\xe0\t\x0c\x0b*\x14\x07\x12\x90'
tRp625
I-1
I1
ttRp626
sVhttp://soulsurfing.website/wp-content/uploads/2015/10/two_types_of_dream_by_desexign-full.jpg
p627
g3
(g4
g5
(g6
(S'\x07\xe0\x04\x15\n\x102\x04\x8fD'
tRp628
S'74'
p629
I1
ttRp630
sVhttp://hccgoshen.org/wp-content/uploads/2015/01/Dream-Big-PPT-Title.jpg
p631
g3
(g4
g5
(g6
(S'\x07\xe0\t\x0c\x0b*\x14\x07\x13,'
tRp632
S'19'
p633
I1
ttRp634
sVhttp://www.emme-magazine.com/wp-content/uploads/2013/05/dream1.jpeg
p635
g3
(g4
g5
(g6
(S'\x07\xdf\x0c\x14\x10\x10\x10\x04/\xb0'
tRp636
S'111'
p637
I1
ttRp638
sVhttp://www.cfau-pd.net/images/dream-wallpapers/dream-wallpapers-15.jpg
p639
g3
(g4
g5
(g6
(S'\x07\xe0\x08\x12\x1268\x01W,'
tRp640
S'319'
p641
I1
ttRp642
sVhttp://www.spyderonlines.com/images/wallpapers/dream-images/dream-images-9.jpg
p643
g3
(g4
g5
(g6
(S'\x07\xe0\x07\r\x11#.\x02\x99\xbb'
tRp644
S'302'
p645
I1
ttRp646
sVhttp://science-all.com/images/wallpapers/dream-images/dream-images-16.jpg
p647
g3
(g4
g5
(g6
(S'\x07\xe0\x08\x08\x12.3\n\xad\xf8'
tRp648
S'309'
p649
I1
ttRp650
sVhttp://www.si.edu/Content/img/Exhibitions/db/NPG_DancingDreamGraham.jpg
p651
g3
(g4
g5
(g6
(S'\x07\xe0\x08\x1e\x15!%\x01\x88\x1c'
tRp652
I-1
I1
ttRp653
sVhttps://www.psychologies.co.uk/sites/default/files/field/image/Life%20Lab%20dream%20job%20Oliver%20Burkeman.jpg
p654
g3
(g4
g5
(g6
(S'\x07\xe0\x08\x08\x12.3\n\xad\x16'
tRp655
S'310'
p656
I1
ttRp657
sVhttp://www.blogyoutrust.com/wp-content/uploads/2014/09/56.jpg
p658
g3
(g4
g5
(g6
(S'\x07\xe0\x05\x03\r\x0f/\x0e\xc1\xc5'
tRp659
S'204'
p660
I2
ttRp661
sVhttp://cdn.theatlantic.com/assets/media/img/mt/2015/10/RTR2OC1W/lead_960.jpg?1444234676
p662
g3
(g4
g5
(g6
(S'\x07\xe0\x05\x15\x17\x06*\x03\x14\xc3'
tRp663
S'147'
p664
I1
ttRp665
sVhttp://www.careerealism.com/wp-content/uploads/2012/09/how-pay-bills-pursue-dream-career.jpg
p666
g3
(g4
g5
(g6
(S'\x07\xe0\x05\x03\r\x0f/\x0e\xc1\xe0'
tRp667
S'212'
p668
I1
ttRp669
sVhttp://awesomeaj.com/wp-content/uploads/2013/04/attract-dream-job.jpg
p670
g3
(g4
g5
(g6
(S'\x07\xe0\x08\x08\x12.3\n\xad\xe2'
tRp671
I-1
I1
ttRp672
sVhttp://www.davidbrownautomotive.com/wp-content/uploads/2014/02/DB_DreamSlider.jpg
p673
g3
(g4
g5
(g6
(S'\x07\xe0\x08\x1e\x15!%\x01\x88Z'
tRp674
S'270'
p675
I1
ttRp676
sVhttp://az616578.vo.msecnd.net/files/2016/04/02/635952119381019025-1271553552_dreamscape.jpg
p677
g3
(g4
g5
(g6
(S'\x07\xe0\x05\x11\x13\x1e\x10\x05\xe15'
tRp678
S'233'
p679
I1
ttRp680
sVhttp://www.bthebestnow.com/wp-content/uploads/2014/10/dreams-and-visions.jpg
p681
g3
(g4
g5
(g6
(S'\x07\xe0\x06\r\x16/\x1d\x08\x9f\r'
tRp682
S'184'
p683
I1
ttRp684
sVhttp://under30ceo.com/wp-content/uploads/2013/02/Dreams.jpg?f7e559
p685
g3
(g4
g5
(g6
(S'\x07\xe0\x07\x07\x10\x07\x0c\x02\x05\x9e'
tRp686
S'137'
p687
I1
ttRp688
sVhttps://thumb1.shutterstock.com/display_pic_with_logo/1152659/294823523/stock-vector-dream-handwritten-text-watercolour-handmade-texture-294823523.jpg
p689
g3
(g4
g5
(g6
(S'\x07\xe0\x08\x1e\x15!%\x01\x88c'
tRp690
S'336'
p691
I1
ttRp692
sVhttp://cdn.tinybuddha.com/wp-content/uploads/2015/04/Woman-with-Guitar.jpg
p693
g3
(g4
g5
(g6
(S'\x07\xe0\t\x0c\x0b*\x14\x07\x11\x91'
tRp694
S'24'
p695
I1
ttRp696
sVhttp://th02.deviantart.net/fs71/PRE/i/2013/273/c/c/luminescent_dream_by_antoshines-d6on8nm.jpg
p697
g3
(g4
g5
(g6
(S'\x07\xe0\x04\x15\n\x102\x04\x8e\xe2'
tRp698
S'95'
p699
I1
ttRp700
sVhttp://awesomejelly.com/wp-content/uploads/2016/06/Dreams.jpg
p701
g3
(g4
g5
(g6
(S'\x07\xe0\x08\x1c\x15\x1d\x08\x03+e'
tRp702
S'351'
p703
I1
ttRp704
sVhttp://blog.lesroches.edu/wp-content/uploads/DARE-TO-DREAM.jpg
p705
g3
(g4
g5
(g6
(S'\x07\xe0\t\x0c\x0b*\x14\x07\x12\x11'
tRp706
S'325'
p707
I1
ttRp708
sVhttp://www.shusterman.com/images/dream-3.jpg
p709
g3
(g4
g5
(g6
(S'\x07\xe0\t\x0c\x0b*\x14\x07\x12\xfc'
tRp710
S'343'
p711
I1
ttRp712
sVhttps://s-media-cache-ak0.pinimg.com/736x/15/7b/b8/157bb8aa1e9494076ca86d7253df6aa5.jpg
p713
g3
(g4
g5
(g6
(S'\x07\xe0\x07\x01\r:\x03\r\x1a<'
tRp714
S'134'
p715
I1
ttRp716
sVhttp://cdn.mode.com/files/15492f7092490ef482c3d4d1a5be2d0c/d9/57/95082def-2902-449f-b877-adcc831f57d9.jpg
p717
g3
(g4
g5
(g6
(S'\x07\xe0\x06\r\x16/\x1d\x08\x9d\xe9'
tRp718
S'143'
p719
I1
ttRp720
sVhttp://www.weber.edu/wsuimages/dreamweber/Dream-Big.jpg
p721
g3
(g4
g5
(g6
(S'\x07\xe0\t\x0c\x0b*\x14\x07\x12X'
tRp722
S'287'
p723
I1
ttRp724
sVhttp://bknation.org/wp-content/uploads/2015/01/bknation_dreams2.jpg.jpg
p725
g3
(g4
g5
(g6
(S'\x07\xe0\x05\x03\r\x0f/\x0e\xc1\xae'
tRp726
S'209'
p727
I1
ttRp728
sVhttp://cdn.akamai.steamstatic.com/steam/apps/266230/extras/LastDreamCover.jpg?t=1447359582
p729
g3
(g4
g5
(g6
(S'\x07\xe0\t\x0c\x0b*\x14\x07\x12}'
tRp730
S'245'
p731
I1
ttRp732
sVhttp://www.cfau-pd.net/images/dream-wallpaper/dream-wallpaper-2.jpg
p733
g3
(g4
g5
(g6
(S'\x07\xe0\x08\x12\x1268\x01V\xdc'
tRp734
S'316'
p735
I1
ttRp736
sVhttps://media.licdn.com/mpr/mpr/shrinknp_400_400/p/7/005/0b6/010/01fea24.jpg
p737
g3
(g4
g5
(g6
(S'\x07\xdf\x0b\x08\r2\x13\x0bQ\x87'
tRp738
S'56'
p739
I1
ttRp740
sVhttps://i.ytimg.com/vi/nq17zh-NV9o/maxresdefault.jpg
p741
g3
(g4
g5
(g6
(S'\x07\xdf\x0c\x14\x10\x10\x10\x04/O'
tRp742
S'85'
p743
I1
ttRp744
sVhttps://lh3.googleusercontent.com/M2_pk4TtlMf_aYa3_7a9eBjDE_SNZ4mEZPNWVimQNGsqFP_f6fFpRQ1gT7wPWFFdLRCU=h900
p745
g3
(g4
g5
(g6
(S'\x07\xe0\x07\x07\x10\x07\x0c\x02\x05)'
tRp746
S'211'
p747
I2
ttRp748
sVhttp://static1.squarespace.com/static/5455a8cfe4b0c28f3a04d905/556a79c4e4b0599fc806bf7e/556abedae4b084f6ac096c2e/1433059035252/DreamBigFrontFixed.jpg
p749
g3
(g4
g5
(g6
(S"\x07\xe0\x05\t\r'\x13\x01\xafl"
tRp750
S'240'
p751
I1
ttRp752
sVhttp://static.tumblr.com/669ae54ba97f4824c0d549a870c105ca/nzbt77a/AzZn4kgde/tumblr_static_8777u9f0hyg4sco4s48wc4w44.png
p753
g3
(g4
g5
(g6
(S'\x07\xe0\x06\r\x16/\x1d\x08\x9f\x83'
tRp754
S'179'
p755
I1
ttRp756
sVhttp://churchinhollywood.com/wp/wp-content/uploads/2015/10/dream-big.jpg
p757
g3
(g4
g5
(g6
(S'\x07\xdf\x0b\x08\r2\x13\x0bQ\xd7'
tRp758
S'50'
p759
I1
ttRp760
sVhttp://asfort.org/wp-content/uploads/2016/04/dreams.jpg
p761
g3
(g4
g5
(g6
(S'\x07\xe0\x06\r\x16/\x1d\x08\x9d\xbe'
tRp762
S'250'
p763
I1
ttRp764
sVhttp://images.huffingtonpost.com/2014-01-09-Dreams_Cloud_Recurring_Dreams_shutterstock_96056636.jpg
p765
g3
(g4
g5
(g6
(S'\x07\xe0\x07\x01\r:\x03\r\x1a\xe5'
tRp766
S'60'
p767
I1
ttRp768
sVhttp://www.thedailyawe.com/wp-content/uploads/2010/10/day_dreaming_by_vxside.jpg
p769
g3
(g4
g5
(g6
(S'\x07\xe0\x08\x12\x1268\x01WW'
tRp770
S'312'
p771
I1
ttRp772
sVhttp://1080wallpaper.net/wp-content/uploads/2015/05/Love-dream1.jpg
p773
g3
(g4
g5
(g6
(S'\x07\xe0\x08\x08\x12.3\n\xad\xa4'
tRp774
S'170'
p775
I2
ttRp776
sVhttps://poeticpals.files.wordpress.com/2016/03/dream.jpg?w=736
p777
g3
(g4
g5
(g6
(S'\x07\xe0\t\x0c\x0b*\x14\x07\x13<'
tRp778
S'301'
p779
I1
ttRp780
sVhttp://nightwriterpoet.com/wp-content/uploads/2016/04/fight-for-your-dreams.jpg
p781
g3
(g4
g5
(g6
(S'\x07\xe0\x07\x01\r:\x03\r\x1b\x17'
tRp782
S'258'
p783
I1
ttRp784
sVhttp://wallpaperstock.net/explore-dream-discover_wallpapers_28449_1920x1080.jpg
p785
g3
(g4
g5
(g6
(S'\x07\xe0\x06\x1d\x02\x16,\x02]\xbe'
tRp786
S'159'
p787
I1
ttRp788
sVhttp://me.psytreasure.com/library/apps/Everything_We_See_In_Dream_Has_A_Meaning_Find_Out_What_Does_Your_Dream_Signify/fi.jpg
p789
g3
(g4
g5
(g6
(S'\x07\xdf\x0c\x14\x10\x10\x10\x04/\xa8'
tRp790
S'132'
p791
I1
ttRp792
sVhttp://www.gratefuldailyinspirations.com/jeffboston53/images/126007/Dare-to-Dream.jpg
p793
g3
(g4
g5
(g6
(S'\x07\xe0\t\x0c\x0b*\x14\x07\x13Q'
tRp794
S'334'
p795
I1
ttRp796
sVhttps://pixabay.com/static/uploads/photo/2015/05/12/06/40/dream-catcher-763602_960_720.jpg
p797
g3
(g4
g5
(g6
(S"\x07\xe0\x05\t\r'\x13\x01\xb0+"
tRp798
S'201'
p799
I1
ttRp800
sVhttps://coolinterviews.files.wordpress.com/2013/08/dreams.jpg
p801
g3
(g4
g5
(g6
(S'\x07\xdf\x0b\x0c\r6\x07\x00\xa0\n'
tRp802
S'7'
I1
ttRp803
sVhttps://i.ytimg.com/vi/9RMHHwJ9Eqk/maxresdefault.jpg
p804
g3
(g4
g5
(g6
(S'\x07\xe0\x08\x1c\x15\x1d\x08\x03+\x14'
tRp805
S'337'
p806
I1
ttRp807
sVhttp://datingpaladin.com/wp-content/uploads/2015/01/dream.jpg
p808
g3
(g4
g5
(g6
(S'\x07\xdf\x0b\x08\r2\x13\x0bP\xb9'
tRp809
S'27'
p810
I1
ttRp811
sVhttp://michelephoenix.com/wp-content/uploads/2014/05/Dream-Big.jpg
p812
g3
(g4
g5
(g6
(S'\x07\xdf\x0c\x14\x10\x10\x10\x04.\xe4'
tRp813
I-1
I1
ttRp814
sVhttps://az616578.vo.msecnd.net/files/2016/04/15/635963556385883343-1341965896_dreamscape.jpg
p815
g3
(g4
g5
(g6
(S'\x07\xe0\x05\x15\x17\x06*\x03\x13\xf1'
tRp816
S'235'
p817
I1
ttRp818
sVhttp://kusi.images.worldnow.com/images/8594148_G.jpg
p819
g3
(g4
g5
(g6
(S'\x07\xe0\x06\r\x16/\x1d\x08\x9d\xdb'
tRp820
S'207'
p821
I1
ttRp822
sVhttp://zellox.com/wp-content/uploads/2016/02/dream.jpg
p823
g3
(g4
g5
(g6
(S'\x07\xe0\x06\x18\n\x10\x16\x07\x00\xc7'
tRp824
S'144'
p825
I1
ttRp826
sVhttp://blog.evolutionfitnessny.com/wp-content/uploads/2015/01/dream-big-850px.jpg
p827
g3
(g4
g5
(g6
(S"\x07\xe0\x05\t\r'\x13\x01\xafs"
tRp828
S'45'
p829
I1
ttRp830
sVhttp://orig11.deviantart.net/89b1/f/2011/250/9/e/dream_world_by_graphicco-d494g4u.jpg
p831
g3
(g4
g5
(g6
(S'\x07\xdf\x0c\x14\x10\x10\x10\x04/\x93'
tRp832
S'48'
p833
I2
ttRp834
sVhttp://7-themes.com/data_images/out/63/6985859-chruch-in-dream-world.jpg
p835
g3
(g4
g5
(g6
(S'\x07\xe0\x08\x12\x1268\x01V<'
tRp836
I-1
I1
ttRp837
sVhttp://images.123hdwallpapers.com/20150424/amazing-dream-wallpaper-1920x1080.jpg
p838
g3
(g4
g5
(g6
(S'\x07\xe0\x06\x18\n\x10\x16\x07\x00\xdb'
tRp839
S'265'
p840
I1
ttRp841
sVhttp://userscontent2.emaze.com/images/2391b797-f839-49c2-bc22-e05645f107d6/e8fb367a-0de0-4e2c-8499-86530ef40e49.jpg
p842
g3
(g4
g5
(g6
(S'\x07\xe0\t\x0c\x0b*\x14\x07\x12\x08'
tRp843
S'297'
p844
I1
ttRp845
sVhttp://www.hotel-r.net/im/hotel/es/dream-12.jpg
p846
g3
(g4
g5
(g6
(S'\x07\xe0\t\x0c\x0b*\x14\x07\x12\x19'
tRp847
S'327'
p848
I1
ttRp849
sVhttps://pixabay.com/static/uploads/photo/2015/10/18/09/22/dream-993984_960_720.jpg
p850
g3
(g4
g5
(g6
(S'\x07\xe0\x06\r\x16/\x1d\x08\x9e\x13'
tRp851
S'169'
p852
I1
ttRp853
sVhttps://upload.wikimedia.org/wikipedia/commons/d/d4/Hupao.jpg
p854
g3
(g4
g5
(g6
(S'\x07\xe0\x08\x12\x1268\x01VO'
tRp855
S'11'
p856
I2
ttRp857
sVhttp://cdn1.theodysseyonline.com/files/2016/01/03/635874487628764009-110136431_Odyssey%20Article%20Dreams%20Image%201.jpg
p858
g3
(g4
g5
(g6
(S'\x07\xe0\x05\x01\r\x0e\x0e\x0b\xf8\xfb'
tRp859
S'139'
p860
I1
ttRp861
sVhttp://cdn.tinybuddha.com/wp-content/uploads/2015/06/Boy-Reaching-for-Stars.png
p862
g3
(g4
g5
(g6
(S'\x07\xe0\t\x0c\x0b*\x14\x07\x12\xa3'
tRp863
S'275'
p864
I1
ttRp865
sVhttp://cdn.tinybuddha.com/wp-content/uploads/2015/09/Follow-Your-Dreams1.png
p866
g3
(g4
g5
(g6
(S'\x07\xe0\t\x0c\x0b*\x14\x07\x12\xbd'
tRp867
S'225'
p868
I1
ttRp869
sVhttp://wonderopolis.org/wp-content/uploads//2014/08/a60a39708a00cd765e09e86874532e84.jpg
p870
g3
(g4
g5
(g6
(S'\x07\xdf\x0c\x14\x10\x10\x10\x04/C'
tRp871
S'73'
p872
I1
ttRp873
sVhttp://www.briantracy.com/blog/wp-content/uploads/2014/02/dare-to-dream-just-do-it-seize-the-day1.jpg
p874
g3
(g4
g5
(g6
(S'\x07\xe0\t\x0c\x0b*\x14\x07\x12\xf7'
tRp875
S'17'
p876
I1
ttRp877
sVhttp://www.rantlifestyle.com/wp-content/uploads/2014/08/703.-More-Than-One-Dream.jpg
p878
g3
(g4
g5
(g6
(S'\x07\xe0\x08\x1e\x15!%\x01\x88M'
tRp879
I-1
I1
ttRp880
sVhttp://orig02.deviantart.net/dd64/f/2013/352/8/9/a_dream_upon_waking_by_oer_wout-d6yfdxl.jpg
p881
g3
(g4
g5
(g6
(S'\x07\xdf\x0b\x08\r2\x13\x0bP\xed'
tRp882
S'38'
p883
I1
ttRp884
sVhttp://i.ytimg.com/vi/eL3LEAIswd4/maxresdefault.jpg
p885
g3
(g4
g5
(g6
(S'\x07\xdf\x0c\x14\x10\x10\x10\x04/\x87'
tRp886
S'104'
p887
I1
ttRp888
sVhttp://img01.deviantart.net/aced/i/2014/138/d/a/bottled_dream_by_arefin03-d7iv012.jpg
p889
g3
(g4
g5
(g6
(S'\x07\xe0\x07\x07\x10\x07\x0c\x02\x05_'
tRp890
S'46'
p891
I2
ttRp892
sVhttp://d221bowpyatdp2.cloudfront.net/catalog/product/cache/3/image/800x/9df78eab33525d08d6e5fb8d27136e95/m/r/mrwonderful_lib21a_libreta-craft_if-you-can-dream-5.jpg
p893
g3
(g4
g5
(g6
(S'\x07\xe0\x05\x01\r\x0e\x0e\x0b\xf9\\'
tRp894
S'180'
p895
I1
ttRp896
sVhttp://cdn-media-1.lifehack.org/wp-content/files/2012/10/make-dreams-come-true.jpg
p897
g3
(g4
g5
(g6
(S'\x07\xe0\x07\x07\x10\x07\x0c\x02\x05p'
tRp898
S'59'
p899
I1
ttRp900
sVhttp://www.carnival.com/~/media/Images/Ships/DR/carnival-dream-1.jpg
p901
g3
(g4
g5
(g6
(S'\x07\xe0\x06\r\x16/\x1d\x08\x9e\xd1'
tRp902
S'249'
p903
I1
ttRp904
sVhttp://www.scienceofrelationships.com/storage/dreams-road-sign.jpg?__SQUARESPACE_CACHEVERSION=1371586978063
p905
g3
(g4
g5
(g6
(S'\x07\xe0\x06\r\x16/\x1d\x08\x9d|'
tRp906
S'51'
p907
I1
ttRp908
sVhttp://www.dreamhotels.com/d/bangkok/media/Interior_Exterior/__thumbs_1600_677_crop/ntrance.jpg?1423057963
p909
g3
(g4
g5
(g6
(S'\x07\xdf\x0c\x14\x10\x10\x10\x04.\xed'
tRp910
S'107'
p911
I1
ttRp912
sVhttp://pic.1fotonin.com/data/wallpapers/43/WDF_903284.jpg
p913
g3
(g4
g5
(g6
(S'\x07\xe0\x05\x03\r\x0f/\x0e\xc1\x0c'
tRp914
S'182'
p915
I1
ttRp916
sVhttps://images.onmogul.com/uploads/article/thumbnail/20801/9411235148.jpg?ixlib=rails-0.3.2&ch=Width%2CDPR&fit=crop&h=465&w=820&s=eadf1515666c8cb9b3ebc0decf610158
p917
g3
(g4
g5
(g6
(S'\x07\xe0\x06\x07\x16,\x17\x05\x84\xa2'
tRp918
I-1
I1
ttRp919
sVhttp://f.tqn.com/y/healing/1/W/a/r/1/gi-birds-flying-dream.jpg
p920
g3
(g4
g5
(g6
(S'\x07\xe0\t\x0c\x0b*\x14\x07\x11\xf4'
tRp921
S'296'
p922
I1
ttRp923
sVhttp://www.hotel-r.net/im/hotel/es/dream-6.jpg
p924
g3
(g4
g5
(g6
(S'\x07\xe0\x08\x18\x131;\x01\x12;'
tRp925
S'313'
p926
I1
ttRp927
sVhttp://mashupcorner.s3-ap-southeast-1.amazonaws.com/wp-content/uploads/20150929140656/20.jpg
p928
g3
(g4
g5
(g6
(S'\x07\xe0\x07\x01\r:\x03\r\x1a/'
tRp929
S'8'
I1
ttRp930
sVhttp://www.bang2write.com/wp-content/uploads/2014/11/atrapasomnis.jpg
p931
g3
(g4
g5
(g6
(S'\x07\xe0\x08\x1e\x15!%\x01\x88\x0f'
tRp932
S'70'
p933
I1
ttRp934
sVhttp://dreamthegame.co.uk/assets/dwl.png
p935
g3
(g4
g5
(g6
(S'\x07\xe0\t\x0c\x0b*\x14\x07\x12\x99'
tRp936
I-1
I1
ttRp937
sVhttp://orig10.deviantart.net/a753/f/2009/164/1/7/dream_vs_illusion_by_kofo.png
p938
g3
(g4
g5
(g6
(S'\x07\xdf\x0c\x14\x10\x10\x10\x04/S'
tRp939
S'120'
p940
I1
ttRp941
sVhttp://www.whatakuai.com/Curiosity/wp-content/uploads/2013/09/Dream.jpg
p942
g3
(g4
g5
(g6
(S'\x07\xe0\x08\x18\x131;\x01\x12\xf3'
tRp943
I-1
I1
ttRp944
sVhttps://static.pexels.com/photos/2222/dream-filter-infrared-surreal.jpg
p945
g3
(g4
g5
(g6
(S'\x07\xe0\x08\x12\x1268\x01V\xfd'
tRp946
I-1
I1
ttRp947
sVhttp://pre09.deviantart.net/33c9/th/pre/f/2013/249/b/e/be92df660bff0b7678a28b69f885f6e3-d6l8nq2.jpg
p948
g3
(g4
g5
(g6
(S'\x07\xdf\x0c\x14\x10\x10\x10\x04/y'
tRp949
S'119'
p950
I2
ttRp951
sVhttps://www.nlm.nih.gov/dreamanatomy/images/homepage_dream.jpg
p952
g3
(g4
g5
(g6
(S'\x07\xe0\t\x0c\x0b*\x14\x07\x13o'
tRp953
S'350'
p954
I1
ttRp955
sVhttp://www.datekoupdatekar.com/wp-content/uploads/2015/06/dreams-fresh-new-hd-wallpaper1.jpg
p956
g3
(g4
g5
(g6
(S'\x07\xe0\x04\x19\n\x183\x01\x83\xf7'
tRp957
S'77'
p958
I1
ttRp959
sVhttp://www.michaelwhelan.com/wp-content/uploads/goldendream.jpg
p960
g3
(g4
g5
(g6
(S'\x07\xe0\x05\x03\r\x0f/\x0e\xc1J'
tRp961
S'200'
p962
I1
ttRp963
sVhttps://dogdharma.files.wordpress.com/2014/09/dream.jpg
p964
g3
(g4
g5
(g6
(S"\x07\xe0\x05\t\r'\x13\x01\xb0Q"
tRp965
S'181'
p966
I1
ttRp967
sVhttps://beautyhealthtips.in/wp-content/uploads/2013/12/Dream-Interpretation.jpg
p968
g3
(g4
g5
(g6
(S'\x07\xe0\x07\r\x11#.\x02\x98\xf3'
tRp969
I-1
I1
ttRp970
sVhttp://www.chappnet.com/rordel/files/2015/11/dreams-solve-problems.jpg
p971
g3
(g4
g5
(g6
(S"\x07\xe0\x06\x14\x02' \t e"
tRp972
S'254'
p973
I1
ttRp974
sVhttp://thedailyenlightenment.com/wp-content/uploads/2013/10/118.jpg
p975
g3
(g4
g5
(g6
(S'\x07\xdf\n\x1b\r0\r\x0eAO'
tRp976
I-1
I1
ttRp977
sVhttps://beamingnotes.com/wp-content/uploads/2016/07/a-lodier-s-dream-hd-wallpaper-332996.jpg
p978
g3
(g4
g5
(g6
(S'\x07\xe0\x08\x18\x131;\x01\x11\xfb'
tRp979
S'306'
p980
I1
ttRp981
sVhttp://www.dreamhotels.com/d/midtown/media/Exterior/__thumbs_1600_677_crop/DreamExterior1.jpg?1421169143
p982
g3
(g4
g5
(g6
(S'\x07\xdf\x0c\x14\x10\x10\x10\x04/\x07'
tRp983
S'124'
p984
I2
ttRp985
sVhttp://az616578.vo.msecnd.net/files/2016/04/30/635975833083084706183920919_dream%20big.jpg
p986
g3
(g4
g5
(g6
(S'\x07\xe0\x06\r\x16/\x1d\x08\x9e\xa1'
tRp987
S'239'
p988
I1
ttRp989
sVhttp://i.ytimg.com/vi/TOg4TZH9uS4/maxresdefault.jpg
p990
g3
(g4
g5
(g6
(S'\x07\xdf\n\x1b\r0\r\x0eAh'
tRp991
S'53'
p992
I2
ttRp993
sVhttp://img15.deviantart.net/2d0a/i/2010/346/0/0/dream_by_taenaron-d34q599.jpg
p994
g3
(g4
g5
(g6
(S'\x07\xdf\x0c\x14\x10\x10\x10\x04/\x17'
tRp995
S'25'
p996
I2
ttRp997
sVhttp://headlinebox.com/wp-content/uploads/2015/09/c94516ae6f33935db20a1b6699a361fb.jpg
p998
g3
(g4
g5
(g6
(S'\x07\xdf\x0c\x14\x10\x10\x10\x04/('
tRp999
S'44'
p1000
I1
ttRp1001
sVhttps://www.rockpoolpublishing.com.au/site/user-assets/images/dreams.jpg
p1002
g3
(g4
g5
(g6
(S'\x07\xe0\x08\x1e\x15!%\x01\x87\xbc'
tRp1003
S'295'
p1004
I1
ttRp1005
sVhttp://www.notable-quotes.com/d/dreams_quote_2.jpg
p1006
g3
(g4
g5
(g6
(S'\x07\xe0\t\x0c\x0b*\x14\x07\x12b'
tRp1007
S'347'
p1008
I2
ttRp1009
sVhttp://thebullbustercafe.com/wp-content/uploads/2013/05/dream2.jpg
p1010
g3
(g4
g5
(g6
(S'\x07\xe0\x08\x1e\x15!%\x01\x87\xe2'
tRp1011
S'49'
p1012
I1
ttRp1013
sVhttps://insanephilosophers.files.wordpress.com/2016/05/a-lodier-s-dream-hd-wallpaper-332996.jpg?w=1200
p1014
g3
(g4
g5
(g6
(S'\x07\xe0\x08\x1c\x15\x1d\x08\x03+\xb9'
tRp1015
I-1
I1
ttRp1016
sVhttp://www.andreaanastasiou.com/wp-content/uploads/2015/03/dream.jpg
p1017
g3
(g4
g5
(g6
(S'\x07\xe0\x08\x18\x131;\x01\x13O'
tRp1018
S'274'
p1019
I1
ttRp1020
sVhttp://theentrepreneursradioshow.com/wp-content/uploads/2014/10/Dream.jpg
p1021
g3
(g4
g5
(g6
(S'\x07\xdf\x0b\x0c\r6\x07\x00\x9f"'
tRp1022
I-1
I1
ttRp1023
sVhttp://cdn.akamai.steamstatic.com/steam/apps/406210/header.jpg?t=1461344128
p1024
g3
(g4
g5
(g6
(S'\x07\xe0\t\x0c\x0b*\x14\x07\x13\x08'
tRp1025
I-1
I1
ttRp1026
sVhttp://images2.fanpop.com/image/photos/9300000/Unicorn-Dream-unicorns-9366550-1024-768.jpg
p1027
g3
(g4
g5
(g6
(S'\x07\xdf\x0c\x14\x10\x10\x10\x04/K'
tRp1028
I-1
I1
ttRp1029
sVhttp://i.huffpost.com/gen/1056860/images/o-DREAM-MEANING-facebook.jpg
p1030
g3
(g4
g5
(g6
(S'\x07\xe0\x08\x1e\x15!%\x01\x884'
tRp1031
S'15'
p1032
I1
ttRp1033
sVhttp://www.hdwallpapersact.com/wp-content/gallery/dreams/winter-dreams.jpg
p1034
g3
(g4
g5
(g6
(S'\x07\xdf\x0c\x14\x10\x10\x10\x04/\xac'
tRp1035
S'108'
p1036
I2
ttRp1037
sVhttp://www.marcjacobsfragrances.com/sites/all/modules/custom/cotymj_daisydream/assets/img/sections/landing/product-bottle-clouds.jpg
p1038
g3
(g4
g5
(g6
(S'\x07\xe0\x04\x19\n\x183\x01\x82\xdd'
tRp1039
S'172'
p1040
I1
ttRp1041
sVhttp://www.notable-quotes.com/d/dreams_quote_4.jpg
p1042
g3
(g4
g5
(g6
(S'\x07\xdf\x0b\x18\x0e\x18\x01\n\x8d\xe2'
tRp1043
S'14'
p1044
I1
ttRp1045
sVhttp://images.huffingtonpost.com/2013-12-27-shutterstock_136470932_Dreams_Cloud_People_Romance.jpg
p1046
g3
(g4
g5
(g6
(S'\x07\xe0\x06\r\x16/\x1d\x08\x9e\x7f'
tRp1047
S'57'
p1048
I1
ttRp1049
sVhttp://static1.squarespace.com/static/54a05397e4b004237f87083a/54efcffee4b093c84efc2e0a/54efd03ee4b0325fce32fbd2/1425002573054/DREAM+BIG-NH+PHOTOGRAPHER__36.jpg?format=1500w
p1050
g3
(g4
g5
(g6
(S'\x07\xe0\x04\x15\n\x102\x04\x8f\xf0'
tRp1051
S'164'
p1052
I1
ttRp1053
sVhttps://pixabay.com/static/uploads/photo/2015/09/09/17/20/scrabble-931988_960_720.jpg
p1054
g3
(g4
g5
(g6
(S'\x07\xe0\x06\r\x16/\x1d\x08\x9eG'
tRp1055
S'192'
p1056
I1
ttRp1057
sVhttp://thumbs.dreamstime.com/z/what-s-your-dream-written-blackboard-chalkboard-personal-aspiration-concept-37086925.jpg
p1058
g3
(g4
g5
(g6
(S'\x07\xe0\x04\x13\x00/&\x001\xaf'
tRp1059
S'167'
p1060
I1
ttRp1061
sVhttp://dingo.care2.com/pictures/greenliving/1371/1370918.large.jpg
p1062
g3
(g4
g5
(g6
(S'\x07\xe0\x07\r\x11#.\x02\x98\xd7'
tRp1063
S'293'
p1064
I1
ttRp1065
sVhttp://longmontmagazine.com/wp-content/uploads/2012/05/Biz.jpg
p1066
g3
(g4
g5
(g6
(S'\x07\xe0\x06\x18\n\x10\x16\x07\x01?'
tRp1067
S'266'
p1068
I1
ttRp1069
sVhttp://media.lifehack.org/wp-content/files/2013/07/png1
p1070
g3
(g4
g5
(g6
(S'\x07\xe0\x05\x03\r\x0f/\x0e\xc1\x05'
tRp1071
S'202'
p1072
I1
ttRp1073
sVhttp://1quotes.org/wp-content/uploads/2016/07/Dreams-quotes-9.jpg
p1074
g3
(g4
g5
(g6
(S'\x07\xe0\t\x0c\x0b*\x14\x07\x11\xd8'
tRp1075
S'342'
p1076
I2
ttRp1077
sVhttp://www.dreamanity.com/wp-content/uploads/2013/11/dreamanity-dream-interpretation-guide-healing-through-dreams.jpg
p1078
g3
(g4
g5
(g6
(S'\x07\xe0\x07\x07\x10\x07\x0c\x02\x04\xbd'
tRp1079
S'82'
p1080
I1
ttRp1081
sVhttp://www.lifehack.org/articles/productivity/how-to-make-dreams-come-true.html
p1082
g3
(g4
g5
(g6
(S'\x07\xdf\n\x1b\r0\r\x0eAW'
tRp1083
I-1
I1
ttRp1084
sVhttp://7-themes.com/data_images/out/17/6825567-dream-wallpaper-hd.jpg
p1085
g3
(g4
g5
(g6
(S'\x07\xe0\x08\x18\x131;\x01\x13#'
tRp1086
S'90'
p1087
I1
ttRp1088
sVhttp://muslemfeed.com/wp-content/uploads/2015/04/Dream_vs_Illusion_by_kofo.jpg
p1089
g3
(g4
g5
(g6
(S'\x07\xdf\x0c\x14\x10\x10\x10\x04/\xc8'
tRp1090
S'101'
p1091
I1
ttRp1092
sVhttp://www.pxleyes.com/images/contests/house-in-the-clouds/fullsize/Kids-Dream-5143a2d08f93e_hires.jpg
p1093
g3
(g4
g5
(g6
(S'\x07\xe0\t\x0c\x0b*\x14\x07\x12t'
tRp1094
S'161'
p1095
I1
ttRp1096
sVhttp://christinechenyoga.com/wp-content/uploads/2013/01/dream-image.jpg
p1097
g3
(g4
g5
(g6
(S'\x07\xdf\x0c\x14\x10\x10\x10\x04/2'
tRp1098
S'29'
p1099
I1
ttRp1100
sVhttp://cdn.playbuzz.com/cdn/af63e001-c4d4-48b6-9d98-9ad0a2cc0f1a/6e685668-27a4-4c60-9968-8630ea5ceac2.jpg
p1101
g3
(g4
g5
(g6
(S'\x07\xe0\x08\x1c\x15\x1d\x08\x03+P'
tRp1102
S'276'
p1103
I1
ttRp1104
sVhttps://cdn.theatlantic.com/assets/media/img/mt/2015/10/RTR2OC1W/lead_960.jpg?1444234676
p1105
g3
(g4
g5
(g6
(S'\x07\xe0\x07\x07\x10\x07\x0c\x02\x04\xe1'
tRp1106
S'244'
p1107
I1
ttRp1108
sVhttp://cdn1.theodysseyonline.com/files/2015/12/29/635869505944750742-124040045_marketing-dreams.jpg
p1109
g3
(g4
g5
(g6
(S'\x07\xe0\x07\x07\x10\x07\x0c\x02\x05\x02'
tRp1110
S'158'
p1111
I1
ttRp1112
sVhttp://www.dreamdictionarynow.com/wp-content/uploads/2013/09/dream-interpretation-tornado-dreams.jpg
p1113
g3
(g4
g5
(g6
(S"\x07\xe0\x05\t\r'\x13\x01\xaf\xd5"
tRp1114
S'146'
p1115
I1
ttRp1116
sVhttp://www.download-free-wallpaper.com/img70/thgevspzffjqdmiphteb.jpg
p1117
g3
(g4
g5
(g6
(S'\x07\xdf\x0c\x14\x10\x10\x10\x04/h'
tRp1118
S'127'
p1119
I2
ttRp1120
sVhttp://ziglarvault.com/wp-content/uploads/2015/09/0924-dream-730x362.jpg
p1121
g3
(g4
g5
(g6
(S'\x07\xe0\x08\x1e\x15!%\x01\x88\x03'
tRp1122
S'330'
p1123
I1
ttRp1124
sVhttp://brianameade.com/wp-content/uploads/2014/09/876a1171-a7f8-44da-bd2d-b2c0ef3a3736.jpg
p1125
g3
(g4
g5
(g6
(S'\x07\xdf\x0c\x14\x10\x10\x10\x04/\x97'
tRp1126
S'128'
p1127
I1
ttRp1128
sVhttp://cdn-media-2.lifehack.org/wp-content/files/2014/12/Go-after-your-dream-no-matter-how-unattainable-others-think-it-is.png
p1129
g3
(g4
g5
(g6
(S'\x07\xe0\x08\x1e\x15!%\x01\x888'
tRp1130
S'303'
p1131
I2
ttRp1132
sVhttps://i.ytimg.com/vi/_GND0p99KJU/maxresdefault.jpg
p1133
g3
(g4
g5
(g6
(S'\x07\xe0\t\x0c\x0b*\x14\x07\x12\xd0'
tRp1134
S'55'
p1135
I1
ttRp1136
sVhttp://trustlifetoday.com/wp-content/uploads/2015/05/Dream.jpg
p1137
g3
(g4
g5
(g6
(S'\x07\xe0\x08\x1e\x15!%\x01\x88V'
tRp1138
S'39'
p1139
I1
ttRp1140
sVhttps://rebeccameyer1.files.wordpress.com/2015/03/dreams-4.jpg
p1141
g3
(g4
g5
(g6
(S'\x07\xe0\t\x0c\x0b*\x14\x07\x13^'
tRp1142
S'83'
p1143
I1
ttRp1144
sVhttp://b-i.forbesimg.com/kathycaprino/files/2013/05/dreambig.jpg
p1145
g3
(g4
g5
(g6
(S'\x07\xe0\x08\x1e\x15!%\x01\x87\xde'
tRp1146
S'292'
p1147
I1
ttRp1148
sVhttp://moneyramblings.com/wp-content/uploads/2014/08/chase-catch-dream-big-picture-quote.jpg
p1149
g3
(g4
g5
(g6
(S'\x07\xdf\x0b\x18\x0e\x18\x01\n\x8d?'
tRp1150
S'20'
p1151
I1
ttRp1152
sVhttp://www.hotel-r.net/im/hotel/es/dream-23.jpg
p1153
g3
(g4
g5
(g6
(S'\x07\xe0\t\x0c\x0b*\x14\x07\x13{'
tRp1154
S'329'
p1155
I1
ttRp1156
sVhttp://ndl.mgccw.com/mu3/wallpaper/20140619/00/1403118547473/1220427-2560x1440-Dream-world.jpg
p1157
g3
(g4
g5
(g6
(S'\x07\xe0\x06\x18\n\x10\x16\x07\x01\x9d'
tRp1158
I-1
I1
ttRp1159
sVhttp://cdn.shopify.com/s/files/1/0099/1732/products/A-Surfers-Dream_1024x1024.jpg?v=1410302417
p1160
g3
(g4
g5
(g6
(S"\x07\xe0\x06\x14\x02' \t \x94"
tRp1161
S'193'
p1162
I1
ttRp1163
sVhttp://statemagazine.com/wp-content/uploads/2014/12/ManFormulasHC1501_L_300_C_R.jpg
p1164
g3
(g4
g5
(g6
(S'\x07\xe0\t\x0c\x0b*\x14\x07\x13 '
tRp1165
I-1
I1
ttRp1166
sVhttp://media.simogo.com/2014/07/thesailorsdream_screen_021.png
p1167
g3
(g4
g5
(g6
(S'\x07\xe0\x08\x12\x1268\x01V\xaf'
tRp1168
S'321'
p1169
I1
ttRp1170
sVhttp://www.entertaining-n-enlightening.com/wp-content/uploads/2015/08/dreams_woman.jpg
p1171
g3
(g4
g5
(g6
(S'\x07\xdf\x0c\x14\x10\x10\x10\x04.\xfe'
tRp1172
S'131'
p1173
I3
ttRp1174
sVhttp://i2.wp.com/www.jungiantherapist.net/wp-content/uploads/2014/06/Dream-Tree.jpg
p1175
g3
(g4
g5
(g6
(S'\x07\xe0\x06\x1d\x02\x16,\x02\\\xd1'
tRp1176
S'171'
p1177
I1
ttRp1178
sVhttps://awesomeideas2003.files.wordpress.com/2015/09/dreams.jpg
p1179
g3
(g4
g5
(g6
(S'\x07\xdf\x0c\n\x10\n;\x03\xd6&'
tRp1180
S'12'
p1181
I1
ttRp1182
sVhttp://e.fastcompany.net/multisite_files/fastcompany/imagecache/1280/poster/2015/07/3048941-poster-p-1-why-google-deep-dreams-of-dogs.jpg
p1183
g3
(g4
g5
(g6
(S'\x07\xdf\x0c\x14\x10\x10\x10\x04/ '
tRp1184
S'114'
p1185
I1
ttRp1186
sVhttps://i.ytimg.com/vi/pUY8uvWY9TM/maxresdefault.jpg
p1187
g3
(g4
g5
(g6
(S'\x07\xe0\x06\x18\n\x10\x16\x07\x01y'
tRp1188
S'89'
p1189
I1
ttRp1190
sVhttp://thisislifeblood.com/wp-content/uploads/2014/06/dream-big.jpg
p1191
g3
(g4
g5
(g6
(S'\x07\xe0\t\x0c\x0b*\x14\x07\x11\xa7'
tRp1192
S'2'
I1
ttRp1193
sVhttp://www.newarticleworld.com/wp-content/uploads/2015/08/Dream-1.jpg
p1194
g3
(g4
g5
(g6
(S'\x07\xdf\x0b\x18\x0e\x18\x01\n\x8dk'
tRp1195
S'13'
p1196
I1
ttRp1197
sVhttp://cdn.playbuzz.com/cdn/3d338470-52fa-4cb5-8ebf-aa388896d289/99507452-25dd-45a7-80e3-68abd0e4c519.jpg
p1198
g3
(g4
g5
(g6
(S'\x07\xdf\x0c\x06\x10\x13\x06\x0e\xe0\xe7'
tRp1199
S'71'
p1200
I1
ttRp1201
sVhttps://i.ytimg.com/vi/JCMTs56w2no/maxresdefault.jpg
p1202
g3
(g4
g5
(g6
(S'\x07\xe0\x04\x19\n\x183\x01\x84\t'
tRp1203
S'96'
p1204
I1
ttRp1205
sVhttp://www.tamiboehmer.com/wordpress/wp-content/uploads/2013/11/dream.jpg
p1206
g3
(g4
g5
(g6
(S'\x07\xe0\x08\x12\x1268\x01WN'
tRp1207
S'21'
p1208
I2
ttRp1209
sVhttp://www.micheleknight.com/wp-content/uploads/Depositphotos_8385241_M.jpg
p1210
g3
(g4
g5
(g6
(S'\x07\xe0\x08\x18\x131;\x01\x12\xb7'
tRp1211
S'272'
p1212
I1
ttRp1213
sVhttp://www.pngall.com/wp-content/uploads/2016/06/Dream-PNG.png
p1214
g3
(g4
g5
(g6
(S'\x07\xe0\x07\x07\x10\x07\x0c\x02\x05Z'
tRp1215
S'252'
p1216
I1
ttRp1217
sVhttp://metamansion.com/wp-content/uploads/images/Dream_6843.jpg
p1218
g3
(g4
g5
(g6
(S'\x07\xe0\x06\x18\n\x10\x16\x07\x01\x1f'
tRp1219
S'156'
p1220
I1
ttRp1221
sVhttp://thespiritscience.net/wp-content/uploads/2015/07/o-DREAMING-facebook.jpg
p1222
g3
(g4
g5
(g6
(S'\x07\xe0\x08\x1e\x15!%\x01\x87\xaf'
tRp1223
S'229'
p1224
I1
ttRp1225
sVhttp://www.slate.com/content/dam/slate/blogs/the_drift/2015/11/151112_DRIFT_Dream-Research.jpg.CROP.promo-xlarge2.jpg
p1226
g3
(g4
g5
(g6
(S'\x07\xe0\x08\x1c\x15\x1d\x08\x03,@'
tRp1227
S'141'
p1228
I2
ttRp1229
sVhttp://godconversations.com/wp-content/uploads/2015/04/dream.jpg
p1230
g3
(g4
g5
(g6
(S'\x07\xdf\x0c\n\x10\n;\x03\xd5\xe4'
tRp1231
S'23'
p1232
I1
ttRp1233
sVhttp://images4.fanpop.com/image/photos/23900000/live-your-dreams-my-dream-is-23986885-1280-1024.jpg
p1234
g3
(g4
g5
(g6
(S'\x07\xdf\x0c\x14\x10\x10\x10\x04.\xda'
tRp1235
I-1
I1
ttRp1236
sVhttp://design.lolrus.mediamolecule.com/homepage/dreams-pgw/bg-dreamcloud.png
p1237
g3
(g4
g5
(g6
(S'\x07\xe0\x06\x07\x16,\x17\x05\x84\x93'
tRp1238
S'230'
p1239
I1
ttRp1240
sVhttp://www.findingthegracewithin.com/wp-content/uploads/2015/03/Dream-iPad-4-wallpaper-ilikewallpaper_com.jpg
p1241
g3
(g4
g5
(g6
(S'\x07\xe0\x08\x12\x1268\x01V\xf5'
tRp1242
S'80'
p1243
I1
ttRp1244
sVhttp://e2ua.com/data/wallpapers/43/WDF_903349.jpg
p1245
g3
(g4
g5
(g6
(S'\x07\xe0\x04\x19\n\x183\x01\x83*'
tRp1246
I-1
I1
ttRp1247
sVhttps://i.ytimg.com/vi/6V6UvhVXruE/maxresdefault.jpg
p1248
g3
(g4
g5
(g6
(S'\x07\xdf\x0c\x12\x10\n\x08\x04vf'
tRp1249
S'109'
p1250
I1
ttRp1251
sVhttp://www.brainscape.com/blog/wp-content/uploads/2013/01/don__t_trash_your_dreams_by_aquasixio-d5clzyo.jpg
p1252
g3
(g4
g5
(g6
(S'\x07\xdf\x0c\x14\x10\x10\x10\x04.\xfa'
tRp1253
I-1
I1
ttRp1254
sVhttp://static1.squarespace.com/static/51ba9161e4b01669c442d1bc/t/53e7a47fe4b09ae60ef21940/1407689864200/
p1255
g3
(g4
g5
(g6
(S"\x07\xe0\x05\t\r'\x13\x01\xaf\x98"
tRp1256
S'216'
p1257
I1
ttRp1258
sVhttp://dream-scar.net/content/dsc-layout02-top-2.jpg
p1259
g3
(g4
g5
(g6
(S'\x07\xe0\t\x0c\x0b*\x14\x07\x11\xea'
tRp1260
S'281'
p1261
I1
ttRp1262
sVhttps://img1.etsystatic.com/039/0/9127327/il_fullxfull.656146429_hxla.jpg
p1263
g3
(g4
g5
(g6
(S'\x07\xdf\x0c\x14\x10\x10\x10\x04/\x03'
tRp1264
S'84'
p1265
I1
ttRp1266
sVhttp://mashupcorner.s3-ap-southeast-1.amazonaws.com/wp-content/uploads/20150929140558/211.jpg
p1267
g3
(g4
g5
(g6
(S'\x07\xe0\x05\x11\x13\x1e\x10\x05\xde\xc6'
tRp1268
S'68'
p1269
I1
ttRp1270
sVhttp://www.viralnovelty.net/wp-content/uploads/2014/10/117.jpg
p1271
g3
(g4
g5
(g6
(S'\x07\xdf\x0c\x14\x10\x10\x10\x04/\x8f'
tRp1272
S'67'
p1273
I1
ttRp1274
sVhttp://thumbs.dreamstime.com/z/holding-dream-sky-word-hand-40290706.jpg
p1275
g3
(g4
g5
(g6
(S'\x07\xe0\x04\x15\n\x102\x04\x8e\xfe'
tRp1276
S'81'
p1277
I1
ttRp1278
sVhttps://f4.bcbits.com/img/a0359889003_10.jpg
p1279
g3
(g4
g5
(g6
(S'\x07\xe0\x08\x1e\x15!%\x01\x87\xb3'
tRp1280
S'151'
p1281
I1
ttRp1282
sVhttp://orig03.deviantart.net/1c28/f/2011/272/4/6/endless_dream_by_supcowpur-d4bbmj6.jpg
p1283
g3
(g4
g5
(g6
(S'\x07\xdf\x0c\x14\x10\x10\x10\x04/6'
tRp1284
S'113'
p1285
I1
ttRp1286
sVhttp://www.pockettactics.com/assets/pockettactics/28434_sailors-dream-review-header.jpg
p1287
g3
(g4
g5
(g6
(S'\x07\xe0\x08\x12\x1268\x01V\xed'
tRp1288
S'320'
p1289
I1
ttRp1290
sVhttp://www.bluemarbledreams.org/assets/Uploads/_resampled/SetSize1154654-explore.jpg
p1291
g3
(g4
g5
(g6
(S'\x07\xe0\x05\x15\x17\x06*\x03\x14\x00'
tRp1292
I-1
I1
ttRp1293
sVhttp://gracehouse.co.za/wp-content/uploads/2015/10/a-lodier-s-dream-hd-wallpaper-332996.jpg
p1294
g3
(g4
g5
(g6
(S'\x07\xe0\x07\r\x11#.\x02\x99r'
tRp1295
S'251'
p1296
I1
ttRp1297
sVhttp://www.spiderlady.com.au/images/spiderlady-dream-analysis-02.jpg
p1298
g3
(g4
g5
(g6
(S'\x07\xe0\t\x0c\x0b*\x14\x07\x12\xec'
tRp1299
S'339'
p1300
I1
ttRp1301
sVhttp://orig14.deviantart.net/2d01/f/2013/032/e/7/owl_dream_by_qetza-d5thdxu.jpg
p1302
g3
(g4
g5
(g6
(S'\x07\xe0\x05\x03\r\x0f/\x0e\xc1\x8a'
tRp1303
S'214'
p1304
I1
ttRp1305
sVhttp://mochadad.com/app/uploads/2015/03/dream.jpg
p1306
g3
(g4
g5
(g6
(S"\x07\xe0\x05\t\r'\x13\x01\xb0M"
tRp1307
S'206'
p1308
I2
ttRp1309
sVhttp://themindunleashed.org/wp-content/uploads/2014/10/12-commonnn.gif
p1310
g3
(g4
g5
(g6
(S'\x07\xe0\t\x0c\x0b*\x14\x07\x13\x1a'
tRp1311
I-1
I1
ttRp1312
sVhttp://www.pattiamsden.org/store/images/Passion%20The%20Power%20of%20The%20Dream.jpg
p1313
g3
(g4
g5
(g6
(S'\x07\xe0\x08\x12\x1268\x01V\xc3'
tRp1314
I-1
I1
ttRp1315
sVhttps://i.ytimg.com/vi/BWu7JDETw_I/maxresdefault.jpg
p1316
g3
(g4
g5
(g6
(S'\x07\xe0\x08\x18\x131;\x01\x13\x89'
tRp1317
S'163'
p1318
I1
ttRp1319
sVhttp://meaws.com/wp-content/uploads/2015/10/do-you-have-a-dream.png
p1320
g3
(g4
g5
(g6
(S'\x07\xe0\t\x0c\x0b*\x14\x07\x11\xb4'
tRp1321
S'175'
p1322
I1
ttRp1323
sVhttp://philmckinney.com/wp/wp-content/uploads/2015/05/lucid-dreaming.jpg
p1324
g3
(g4
g5
(g6
(S'\x07\xe0\x06\x18\n\x10\x16\x07\x01\n'
tRp1325
S'166'
p1326
I1
ttRp1327
sVhttps://upload.wikimedia.org/wikipedia/commons/c/cf/DreamTheater2011.jpg
p1328
g3
(g4
g5
(g6
(S'\x07\xdf\x0c\x14\x10\x10\x10\x04/\x82'
tRp1329
I-1
I1
ttRp1330
sVhttp://az616578.vo.msecnd.net/files/2016/01/29/635896422787272319-1663804671_dream%20big.jpg
p1331
g3
(g4
g5
(g6
(S'\x07\xe0\x06\x07\x16,\x17\x05\x85Z'
tRp1332
S'248'
p1333
I1
ttRp1334
sVhttps://s-media-cache-ak0.pinimg.com/736x/1e/a8/46/1ea8461928404a7c78689e23068c7ced.jpg
p1335
g3
(g4
g5
(g6
(S'\x07\xe0\x05\x15\x17\x06*\x03\x14\xcf'
tRp1336
S'236'
p1337
I1
ttRp1338
sVhttp://i.imgur.com/qoUQhyE.gif
p1339
g3
(g4
g5
(g6
(S'\x07\xe0\x07\x07\x10\x07\x0c\x02\x05\x9a'
tRp1340
S'231'
p1341
I1
ttRp1342
sVhttp://www.cfau-pd.net/images/dream-wallpapers/dream-wallpapers-4.jpg
p1343
g3
(g4
g5
(g6
(S'\x07\xe0\x08\x12\x1268\x01W\xe0'
tRp1344
S'322'
p1345
I1
ttRp1346
sVhttp://infornicle.com/wp-content/uploads/2016/02/dreamscape.jpg
p1347
g3
(g4
g5
(g6
(S'\x07\xe0\x04\x13\x00/&\x001\xa6'
tRp1348
S'140'
p1349
I1
ttRp1350
sVhttp://totalformfitness.com/wp-content/uploads/2015/04/dare-to-dream.jpg
p1351
g3
(g4
g5
(g6
(S'\x07\xe0\x08\x06\x12,\x06\x02xt'
tRp1352
S'142'
p1353
I1
ttRp1354
sVhttp://cdn1.medicalnewstoday.com/content/images/articles/284/284378/abstract-image-of-head-and-imagination.jpg
p1355
g3
(g4
g5
(g6
(S'\x07\xe0\x08\x1e\x15!%\x01\x88n'
tRp1356
S'299'
p1357
I1
ttRp1358
sVhttp://media.trusper.net/u/2fb0eb80-136d-4afb-a316-01488e9ced87.png
p1359
g3
(g4
g5
(g6
(S'\x07\xdf\x0c\x14\x10\x10\x10\x04.\xe9'
tRp1360
S'117'
p1361
I1
ttRp1362
sVhttp://d221bowpyatdp2.cloudfront.net/catalog/product/cache/3/image/800x/9df78eab33525d08d6e5fb8d27136e95/m/r/mrwonderful_lib21a_libreta-craft_if-you-can-dream-6.jpg
p1363
g3
(g4
g5
(g6
(S'\x07\xe0\x05\x03\r\x0f/\x0e\xc0\xe9'
tRp1364
S'196'
p1365
I1
ttRp1366
sVhttp://cdn.ziglarvault.com/wp-content/uploads/2015/09/0924-dream-730x362.jpg
p1367
g3
(g4
g5
(g6
(S'\x07\xe0\x07\r\x11#.\x02\x98\xfe'
tRp1368
S'224'
p1369
I1
ttRp1370
sVhttp://7-themes.com/data_images/out/22/6842302-dream-wallpaper.jpg
p1371
g3
(g4
g5
(g6
(S'\x07\xe0\x08\x12\x1268\x01Wi'
tRp1372
I-1
I1
ttRp1373
sVhttp://esciencelog.com/data_images/wlls/16/224558-dream.jpg
p1374
g3
(g4
g5
(g6
(S'\x07\xe0\x05\x15\x17\x06*\x03\x14\x1d'
tRp1375
I-1
I1
ttRp1376
sVhttp://img01.deviantart.net/40ef/i/2013/172/7/e/wallpaper_dream__d_by_analaurasam-d6a2wvc.jpg
p1377
g3
(g4
g5
(g6
(S'\x07\xe0\x05\x03\r\x0f/\x0e\xc1&'
tRp1378
S'213'
p1379
I1
ttRp1380
sVhttp://lonemind.com/wp-content/uploads/2015/04/dream-diary.jpg
p1381
g3
(g4
g5
(g6
(S'\x07\xe0\x08\x18\x131;\x01\x13g'
tRp1382
S'61'
p1383
I1
ttRp1384
sVhttp://www.cultnoise.com/wp-content/uploads/2014/07/dream.jpg
p1385
g3
(g4
g5
(g6
(S'\x07\xdf\x0c\x14\x10\x10\x10\x04/\x13'
tRp1386
I-1
I1
ttRp1387
sVhttp://herlifesong.com/wp-content/uploads/2014/06/dreams-come-true-pt-3.jpg
p1388
g3
(g4
g5
(g6
(S'\x07\xe0\x05\x03\r\x0f/\x0e\xc1*'
tRp1389
S'219'
p1390
I2
ttRp1391
sVhttp://www.sleeps.com/pics/dream-interp.jpg
p1392
g3
(g4
g5
(g6
(S'\x07\xe0\t\x0c\x0b*\x14\x07\x11\x87'
tRp1393
S'279'
p1394
I1
ttRp1395
sVhttp://dykn.com/storage/2015/01/collective-evolution.png
p1396
g3
(g4
g5
(g6
(S'\x07\xdf\n\x1b\r0\r\x0eA\x82'
tRp1397
I-1
I1
ttRp1398
sVhttp://www.quotationof.com/images/dream-quotes-3.jpg
p1399
g3
(g4
g5
(g6
(S'\x07\xdf\x0b\x18\x0e\x18\x01\n\x8dZ'
tRp1400
S'62'
p1401
I1
ttRp1402
sVhttp://www.carnival.com/~/media/Images/Ships/DR/carnival-dream-1.ashx
p1403
g3
(g4
g5
(g6
(S'\x07\xe0\x05\x15\x17\x06*\x03\x14A'
tRp1404
S'220'
p1405
I1
ttRp1406
sVhttp://funlava.com/wp-content/uploads/2013/09/sayings-on-dream.jpg
p1407
g3
(g4
g5
(g6
(S'\x07\xdf\x0b\x13\x0e\x17"\x08\x0c\xad'
tRp1408
I-1
I1
ttRp1409
sVhttp://dreamweavebags.com/wp-content/uploads/sites/29/2016/05/dream-hand-in-sun.jpg
p1410
g3
(g4
g5
(g6
(S'\x07\xe0\x05\x15\x17\x06*\x03\x14O'
tRp1411
I-1
I1
ttRp1412
sVhttp://cdn.tinybuddha.com/wp-content/uploads/2013/10/Follow-Your-Dream.png
p1413
g3
(g4
g5
(g6
(S'\x07\xe0\t\x0c\x0b*\x14\x07\x12\xac'
tRp1414
S'43'
p1415
I1
ttRp1416
sVhttp://designoval.com/wp-content/uploads/2015/04/Dream-Quotes-3.jpg
p1417
g3
(g4
g5
(g6
(S'\x07\xe0\x07\x07\x10\x07\x0c\x02\x05\x1b'
tRp1418
S'92'
p1419
I1
ttRp1420
sVhttp://static1.squarespace.com/static/51e030c5e4b07aea08927ed5/52578393e4b066932a9a83a9/558db483e4b0cba66cbfcc0d/1435350183212/A+Quiet+Place.jpg?format=2500w
p1421
g3
(g4
g5
(g6
(S'\x07\xe0\x08\x12\x1268\x01W\x05'
tRp1422
S'267'
p1423
I2
ttRp1424
sVhttp://dreamemporium.com/title.jpg
p1425
g3
(g4
g5
(g6
(S'\x07\xe0\x07\t\x11"0\x07\x82\xc5'
tRp1426
S'285'
p1427
I1
ttRp1428
sVhttps://dreambigdreamoften.files.wordpress.com/2016/02/live-your-dreams-my-dream-is-23986887-1600-1200.jpg
p1429
g3
(g4
g5
(g6
(S'\x07\xe0\x04\x19\n\x183\x01\x83\xfd'
tRp1430
S'160'
p1431
I1
ttRp1432
sVhttps://upload.wikimedia.org/wikipedia/commons/6/68/Dream_Evil_2010.05.06.jpg
p1433
g3
(g4
g5
(g6
(S'\x07\xe0\x08\x18\x131;\x01\x13D'
tRp1434
S'165'
p1435
I1
ttRp1436
sVhttp://i.ytimg.com/vi/_GND0p99KJU/maxresdefault.jpg
p1437
g3
(g4
g5
(g6
(S'\x07\xdf\n\x1b\r0\r\x0eA\xc2'
tRp1438
S'5'
I1
ttRp1439
sVhttp://bigalmanack.com/wp-content/uploads/2015/12/entrepreneur-dream.jpg
p1440
g3
(g4
g5
(g6
(S'\x07\xe0\x06\x18\n\x10\x16\x07\x01S'
tRp1441
S'152'
p1442
I1
ttRp1443
sVhttp://nrpastors.com/wp-content/uploads/2015/10/dream.jpg
p1444
g3
(g4
g5
(g6
(S'\x07\xe0\x07\r\x11#.\x02\x99\xa4'
tRp1445
I-1
I1
ttRp1446
sVhttps://static.pexels.com/photos/2220/red-sun-purple-dream.jpg
p1447
g3
(g4
g5
(g6
(S'\x07\xe0\t\x0c\x0b*\x14\x07\x13Y'
tRp1448
I-1
I1
ttRp1449
sVhttp://ahintoflife.com/wp-content/uploads/2016/08/dream.jpg
p1450
g3
(g4
g5
(g6
(S'\x07\xe0\x08\x1e\x15!%\x01\x88I'
tRp1451
S'324'
p1452
I1
ttRp1453
sVhttp://feminspire.com/wp-content/uploads/2012/09/manic-pixie-dream-girl.jpg
p1454
g3
(g4
g5
(g6
(S'\x07\xdf\x0c\x14\x10\x10\x10\x04/\xbc'
tRp1455
I-1
I1
ttRp1456
sVhttp://kathycleaver.com/wp-content/uploads/2012/09/live-your-dreams-my-dream-is-23986887-1600-1200.jpg
p1457
g3
(g4
g5
(g6
(S'\x07\xe0\x08\x18\x131;\x01\x11\xaf'
tRp1458
S'3'
I1
ttRp1459
sVhttp://www.relatably.com/q/img/dream-quotes/dream-quotes-3.jpg
p1460
g3
(g4
g5
(g6
(S'\x07\xe0\x05\x03\r\x0f/\x0e\xc1{'
tRp1461
I-1
I1
ttRp1462
sVhttps://x1399x768wallpaper.files.wordpress.com/2012/03/dream-clouds-wallpaper3.jpg
p1463
g3
(g4
g5
(g6
(S'\x07\xdf\x0c\x14\x10\x10\x10\x04.\xf2'
tRp1464
S'110'
p1465
I1
ttRp1466
sVhttp://www.theluxuryspot.com/wp-content/uploads/2014/12/609750-86a491a8-9dae-11e3-b2ad-08c02f4f904c.jpg
p1467
g3
(g4
g5
(g6
(S'\x07\xe0\x08\x1e\x15!%\x01\x88R'
tRp1468
S'65'
p1469
I1
ttRp1470
sVhttps://lh3.googleusercontent.com/BXFpp08urNlFVlsD7MWC0AxoF2q8drwUKGTSM8DIYzKY06ABMoywgfgVuZ5DheD0Gg=h900
p1471
g3
(g4
g5
(g6
(S'\x07\xe0\x07\x07\x10\x07\x0c\x02\x04\xc1'
tRp1472
S'218'
p1473
I1
ttRp1474
sVhttps://secure.parksandresorts.wdpromedia.com/media/disneyparks/blog/wp-content/uploads/2016/02/DreamonprincessFeatured.png
p1475
g3
(g4
g5
(g6
(S'\x07\xe0\t\x0c\x0b*\x14\x07\x124'
tRp1476
S'278'
p1477
I1
ttRp1478
sVhttp://edge.alluremedia.com.au/m/l/2014/04/Dreams.jpg
p1479
g3
(g4
g5
(g6
(S'\x07\xe0\x07\x01\r:\x03\r\x19\xb0'
tRp1480
I-1
I1
ttRp1481
sVhttp://www.dreamhotels.com/d/meatpackingdistrict/mod_pukkaSimpleRooms/itemImage_301.jpg?1417821986
p1482
g3
(g4
g5
(g6
(S'\x07\xe0\x07\x07\x10\x07\x0c\x02\x04\xea'
tRp1483
S'133'
p1484
I1
ttRp1485
sVhttp://dreamchallenges.org/wordpress2/wp-content/uploads/2014/10/dream_header_dream.jpg
p1486
g3
(g4
g5
(g6
(S'\x07\xe0\x05\x15\x17\x06*\x03\x14y'
tRp1487
S'234'
p1488
I1
ttRp1489
sVhttp://motocross.transworld.net/wp-content/blogs.dir/441/files/2015/07/pipe-dream-header.png
p1490
g3
(g4
g5
(g6
(S'\x07\xe0\x08\x1e\x15!%\x01\x87\xfb'
tRp1491
I-1
I1
ttRp1492
sVhttp://www.thystars.com/wp-content/uploads/2014/06/purple_dream-1581695.jpg
p1493
g3
(g4
g5
(g6
(S'\x07\xe0\t\x0c\x0b*\x14\x07\x12\x87'
tRp1494
S'63'
p1495
I1
ttRp1496
sVhttp://orig06.deviantart.net/5408/f/2007/036/1/c/a_childhood_dream_iii_by_yusufartun.jpg
p1497
g3
(g4
g5
(g6
(S'\x07\xe0\x06\r\x16/\x1d\x08\x9e\xc3'
tRp1498
S'194'
p1499
I1
ttRp1500
sVhttp://www.lyfaces.com/wallpaper/images/images-for-gt-is-this-dream-wallpaper-drea-wallpaper-.jpg
p1501
g3
(g4
g5
(g6
(S'\x07\xdf\x0c\n\x10\n;\x03\xd6{'
tRp1502
I-1
I1
ttRp1503
sVhttp://www.dumblittleman.com/wp-content/uploads/2014/04/Pursue-Your-Dreams.jpg
p1504
g3
(g4
g5
(g6
(S'\x07\xdf\x0c\x14\x10\x10\x10\x04/}'
tRp1505
S'130'
p1506
I1
ttRp1507
sVhttp://orig15.deviantart.net/8957/f/2012/289/8/8/a_purple_cat__s_dream_by_caring201-d5hzffg.jpg
p1508
g3
(g4
g5
(g6
(S'\x07\xe0\x05\x01\r\x0e\x0e\x0b\xf9\x85'
tRp1509
S'176'
p1510
I1
ttRp1511
sVhttps://jamesvineeth.files.wordpress.com/2013/01/dream.jpg
p1512
g3
(g4
g5
(g6
(S'\x07\xe0\x08\x18\x131;\x01\x13Z'
tRp1513
S'268'
p1514
I2
ttRp1515
sVhttp://www.hdwallpapers.in/download/two_suns_dream_world-1920x1080.jpg
p1516
g3
(g4
g5
(g6
(S'\x07\xe0\x08\x12\x1268\x01W`'
tRp1517
S'271'
p1518
I2
ttRp1519
sVhttp://science-all.com/images/wallpapers/dream-images/dream-images-4.jpg
p1520
g3
(g4
g5
(g6
(S'\x07\xe0\x06\x07\x16,\x17\x05\x851'
tRp1521
S'243'
p1522
I1
ttRp1523
sVhttp://www.dreamhotels.com/d/meatpackingdistrict/media/Dream_Lobby_Exterior_Final_images/__thumbs_1600_677_crop/DreamExterior_high-res.jpg?1417793427
p1524
g3
(g4
g5
(g6
(S'\x07\xdf\x0c\x14\x10\x10\x10\x04/\x0f'
tRp1525
S'115'
p1526
I1
ttRp1527
sVhttp://www.truthinsideofyou.org/wp-content/uploads/2015/03/Dreams.jpg
p1528
g3
(g4
g5
(g6
(S'\x07\xdf\x0b\x0c\r6\x07\x00\x9f\xc1'
tRp1529
S'32'
p1530
I1
ttRp1531
sVhttp://images.huffingtonpost.com/2015-11-15-1447564509-6183409-dreams.jpg
p1532
g3
(g4
g5
(g6
(S'\x07\xdf\x0b\x18\x0e\x18\x01\n\x8d\xbf'
tRp1533
S'69'
p1534
I1
ttRp1535
sVhttp://www.sihina.info/wp-content/uploads/2016/01/dream2.jpg
p1536
g3
(g4
g5
(g6
(S'\x07\xe0\x08\x1c\x15\x1d\x08\x03,\x18'
tRp1537
I-1
I1
ttRp1538
sVhttps://d13yacurqjgara.cloudfront.net/users/463836/screenshots/1974085/gif.dream.gif
p1539
g3
(g4
g5
(g6
(S'\x07\xe0\x08\x1e\x15!%\x01\x88E'
tRp1540
S'290'
p1541
I1
ttRp1542
sVhttp://fecdn.fractalenlighten.netdna-cdn.com/wp-content/uploads/2014/10/luciddreamingimage3.jpg
p1543
g3
(g4
g5
(g6
(S'\x07\xe0\x08\x12\x1268\x01W\x9c'
tRp1544
S'311'
p1545
I1
ttRp1546
sVhttp://teocracia.files.wordpress.com/2012/03/dream-way-hd-desktop-wallpaper.jpg
p1547
g3
(g4
g5
(g6
(S'\x07\xe0\x08\x18\x131;\x01\x13\xe5'
tRp1548
S'307'
p1549
I1
ttRp1550
sVhttp://pixtream.samolinov.com/images/20111209102245_christmas_dream.jpg
p1551
g3
(g4
g5
(g6
(S'\x07\xdf\x0c\x14\x10\x10\x10\x04/.'
tRp1552
S'129'
p1553
I2
ttRp1554
sVhttp://loosemoorings.org/wp-content/uploads/2013/09/Just_a_Dream____by_enricoagostoni.jpg
p1555
g3
(g4
g5
(g6
(S'\x07\xdf\x0c\x14\x10\x10\x10\x04/\xc0'
tRp1556
S'102'
p1557
I1
ttRp1558
sVhttp://www.taracronica.com/wp-content/uploads/2013/03/what-if-this-reality-is-a-dream.jpg
p1559
g3
(g4
g5
(g6
(S'\x07\xe0\x06\x07\x16,\x17\x05\x85v'
tRp1560
S'223'
p1561
I2
ttRp1562
sVhttp://psytreasure.com/wp-content/uploads/2014/07/d-room-blue-hd-dream-abstract-animal-boat-cat-cg-clouds-sail-302036.jpg
p1563
g3
(g4
g5
(g6
(S'\x07\xe0\x08\x18\x131;\x01\x14 '
tRp1564
S'315'
p1565
I2
ttRp1566
s.