(dp1
Vhttp://www.goodnewswellnesslifestyle.com/wp-content/uploads/2014/09/faith.jpg
p2
ccopy_reg
_reconstructor
p3
(cbase.graph_fetch.fetcher
ImageSlot
p4
c__builtin__
tuple
p5
(cdatetime
datetime
p6
(S'\x07\xe0\x04\x10\x15\t/\x01\x14\xc4'
tRp7
S'294'
p8
I1
ttRp9
sVhttp://bvcchurch.com/wp-content/uploads/2015/09/Faith-logo.jpg
p10
g3
(g4
g5
(g6
(S'\x07\xe0\x07\x0e\x14\x02\x07\x0ef\xe8'
tRp11
S'347'
p12
I1
ttRp13
sVhttps://undeaduprising.net/forums/uploads/monthly_2016_03/faith-black-white.jpg.0831a0dae322badf03d4927543f7ebda.jpg
p14
g3
(g4
g5
(g6
(S'\x07\xe0\x07\x06\x10\x02\x18\x026*'
tRp15
S'415'
p16
I2
ttRp17
sVhttp://www.stmarycathedral.org/media/1/Stewardship/Faith.gif
p18
g3
(g4
g5
(g6
(S'\x07\xe0\n\x1e\x12\x12\x1b\x00\xe0\xfa'
tRp19
S'100'
p20
I1
ttRp21
sVhttp://www.faithintoactionministries.com/Faith%20Into%20Action%20Ministries%20Banner.png
p22
g3
(g4
g5
(g6
(S'\x07\xe0\x01\n\x1000\x00\x1e\x87'
tRp23
S'179'
p24
I1
ttRp25
sVhttp://static5.gamespot.com/uploads/scale_super/1490/14900166/2943673-faith.jpg
p26
g3
(g4
g5
(g6
(S'\x07\xe0\x07\x1b\x14\x0e\r\x00e\xa9'
tRp27
S'219'
p28
I1
ttRp29
sVhttps://upload.wikimedia.org/wikipedia/commons/c/c5/Paloma_Faith_2014.jpg
p30
g3
(g4
g5
(g6
(S'\x07\xe0\x08\x1d\x04%:\x08*f'
tRp31
I-1
I1
ttRp32
sVhttps://pbs.twimg.com/profile_images/659514777262161921/QJf2yJRU.jpg
p33
g3
(g4
g5
(g6
(S'\x07\xe0\x07\x1d\x14\x14\x1a\x04\xdb\xcf'
tRp34
I-1
I1
ttRp35
sVhttp://www.celebrationchurchlive.com/wp-content/uploads/2016/01/have-faith.jpg
p36
g3
(g4
g5
(g6
(S'\x07\xe0\x03\x15\x02\x1c\x05\x0e\xeeI'
tRp37
S'253'
p38
I1
ttRp39
sVhttp://firehousechurchtx.com/wp-content/uploads/2015/03/faith-to-faith_wide_t_nv.jpg
p40
g3
(g4
g5
(g6
(S'\x07\xe0\x01\x1c\x11\x005\n\xf6\xbf'
tRp41
S'218'
p42
I1
ttRp43
sVhttp://davidschristiancentre.org/wp-content/uploads/2015/02/faith-factor1.jpg
p44
g3
(g4
g5
(g6
(S'\x07\xe0\x05\x10\x10\x1c3\x00\xca\xbd'
tRp45
S'5'
I1
ttRp46
sVhttp://lifehopeandtruth.com/uploads/images/Shield-of-Faith.jpg
p47
g3
(g4
g5
(g6
(S'\x07\xe0\x08\x1d\x04%:\x08*\xa7'
tRp48
S'464'
p49
I2
ttRp50
sVhttps://pixabay.com/static/uploads/photo/2014/09/11/04/38/faith-441401_960_720.jpg
p51
g3
(g4
g5
(g6
(S'\x07\xe0\x06\n\x0f\x0e#\x05$\xe1'
tRp52
S'264'
p53
I1
ttRp54
sVhttps://www.vibrantfaith.org/wp-content/uploads/2014/01/Vibrant-Faith-Square-w-Title.png
p55
g3
(g4
g5
(g6
(S'\x07\xe0\x08\x17\x02 #\x0f\x0c\xac'
tRp56
S'439'
p57
I1
ttRp58
sVhttp://americorpsalums.files.wordpress.com/2013/07/faith-sign.jpg
p59
g3
(g4
g5
(g6
(S'\x07\xe0\x02\x15\x1149\x05\xa7;'
tRp60
S'190'
p61
I1
ttRp62
sVhttps://pbs.twimg.com/profile_images/1549689037/got-faith_t_-_Copy2.jpg
p63
g3
(g4
g5
(g6
(S'\x07\xe0\x08\x10\x16\x15\n\x08\x94\x0f'
tRp64
S'21'
p65
I1
ttRp66
sVhttps://mypreretirementmusings.files.wordpress.com/2011/01/faith-road-sign1.jpg
p67
g3
(g4
g5
(g6
(S'\x07\xe0\x06\x1a\x13+\x05\x0b\xe9\xd2'
tRp68
S'193'
p69
I1
ttRp70
sVhttp://rejuvenatingwomen.com/wp-content/uploads/2014/03/faith_stone_wallpaper_1024.jpg
p71
g3
(g4
g5
(g6
(S'\x07\xe0\x04\x1b\n\x050\x03\xd2H'
tRp72
S'290'
p73
I1
ttRp74
sVhttp://www.tattoostime.com/images/373/walk-by-faith-tattoo-design.jpg
p75
g3
(g4
g5
(g6
(S'\x07\xe0\x08\x1d\x04%:\x08*\xc0'
tRp76
S'194'
p77
I1
ttRp78
sVhttp://images.agoramedia.com/EHBlogImages/therese-borchard/2016/04/How-Faith-Helps-Depression-1440x810.jpg
p79
g3
(g4
g5
(g6
(S'\x07\xe0\x07\x06\x10\x02\x18\x026\xa8'
tRp80
S'414'
p81
I1
ttRp82
sVhttp://opentohope.s3.amazonaws.com/wp-content/uploads/2011/06/05093433/faith14.jpg
p83
g3
(g4
g5
(g6
(S'\x07\xe0\x07\x1b\x14\x0e\r\x00f\x95'
tRp84
S'435'
p85
I1
ttRp86
sVhttp://orig11.deviantart.net/2413/f/2012/335/c/2/faith_logo_design_by_nikster08-d5mp2pz.jpg
p87
g3
(g4
g5
(g6
(S'\x07\xe0\x01\x12\x105\x0b\x05\x14L'
tRp88
S'161'
p89
I1
ttRp90
sVhttp://www.wikihow.com/images/f/f1/Cope-with-Losing-Faith-in-Your-God-Step-11.jpg
p91
g3
(g4
g5
(g6
(S'\x07\xe0\t\x1c\x04,\x05\x06nX'
tRp92
I-1
I1
ttRp93
sVhttp://s3.amazonaws.com/churchplantmedia-cms/elgin_pregnancy_care_center_elgin_tx/faith.jpg
p94
g3
(g4
g5
(g6
(S'\x07\xe0\x04\x10\x15\t/\x01\x157'
tRp95
S'308'
p96
I1
ttRp97
sVhttp://th06.deviantart.net/fs70/PRE/f/2013/217/5/d/quote___transportation_is_leap_of_faith_by_rabidbribri-d6gqylk.jpg
p98
g3
(g4
g5
(g6
(S'\x07\xe0\x04\x10\x15\t/\x01\x15\x87'
tRp99
S'311'
p100
I2
ttRp101
sVhttp://ybl.org/wp-content/uploads/leap-of-faith_724_482_80.jpg
p102
g3
(g4
g5
(g6
(S'\x07\xdf\x0c\x02\x05 \x03\x073\xbe'
tRp103
S'81'
p104
I1
ttRp105
sVhttp://josephmattera.org/wp-content/uploads/2009/01/faith-trust-fall-saul-jonathan-works.jpg
p106
g3
(g4
g5
(g6
(S'\x07\xe0\x06\x1a\x13+\x05\x0b\xea\x0b'
tRp107
I-1
I1
ttRp108
sVhttp://www.karipatterson.com/site/wp-content/uploads/2015/05/Faith-closeup.jpg
p109
g3
(g4
g5
(g6
(S'\x07\xe0\x06\x16\n\x15\x19\x0c\x13n'
tRp110
S'182'
p111
I2
ttRp112
sVhttp://vyc5.org/wp-content/uploads/2015/01/Praying-Defnding-the-Christian-faith-e1349305115650.jpg
p113
g3
(g4
g5
(g6
(S'\x07\xdf\x0c\n\x10\x070\r\x84\x90'
tRp114
S'123'
p115
I1
ttRp116
sVhttps://assets.entrepreneur.com/content/3x2/822/1411573311-using-faith-walking-your-authority-man.jpg
p117
g3
(g4
g5
(g6
(S'\x07\xe0\x03\x19\t:-\x07\x90\xee'
tRp118
S'237'
p119
I1
ttRp120
sVhttp://simplereminders.com/uploads/images/blog/unknown-author-color-text-cream-paper-good-things-faith-be-positive-8u1z.jpg
p121
g3
(g4
g5
(g6
(S'\x07\xe0\x08\x1d\x04%:\x08+\x07'
tRp122
I-1
I1
ttRp123
sVhttp://fwcchurches.com/wp-content/uploads/2014/07/12-Favorite-Faith-Quotes_FWC-Blog.jpg
p124
g3
(g4
g5
(g6
(S'\x07\xe0\x04\x10\x15\t/\x01\x15\xa6'
tRp125
I-1
I1
ttRp126
sVhttp://www.hippoquotes.com/img/faith-quotes-bible/Bible-Quotes-About-Faith-And-Love-03.jpg
p127
g3
(g4
g5
(g6
(S'\x07\xe0\x05\x10\x10\x1c3\x00\xcbC'
tRp128
I-1
I1
ttRp129
sVhttps://media.licdn.com/mpr/mpr/AAEAAQAAAAAAAAMlAAAAJDUwYjBkYmUwLWVhMzgtNDAwZi1hODI0LWZkNDFjOTBmNzZlZA.jpg
p130
g3
(g4
g5
(g6
(S'\x07\xe0\x08\x10\x16\x15\n\x08\x93\xc9'
tRp131
S'261'
p132
I1
ttRp133
sVhttp://www.avalonchurch.org/wp-content/uploads/2015/10/Faith-logo.jpg
p134
g3
(g4
g5
(g6
(S'\x07\xe0\x02\x01\x11\x01%\x06\xc1\xe2'
tRp135
S'158'
p136
I1
ttRp137
sVhttp://www.costaricantimes.com/wp-content/uploads/2013/08/faith-1.jpg
p138
g3
(g4
g5
(g6
(S'\x07\xe0\x05\x10\x10\x1c3\x00\xcbG'
tRp139
I-1
I1
ttRp140
sVhttps://s-media-cache-ak0.pinimg.com/736x/fb/ae/ca/fbaecabf4b72a2ce873c084bcb82d3a2.jpg
p141
g3
(g4
g5
(g6
(S'\x07\xe0\x06\r\x0c0&\n\xf7~'
tRp142
S'131'
p143
I1
ttRp144
sVhttp://winnerschapeljhb.org/images/blog/faith14.jpg
p145
g3
(g4
g5
(g6
(S'\x07\xe0\x08\x17\x02 #\x0f\r\x1c'
tRp146
S'407'
p147
I1
ttRp148
sVhttp://www.womenoffaith.com/wp-content/uploads/2013/10/wof-logo-socialsharing-teal-bubbles.jpg
p149
g3
(g4
g5
(g6
(S'\x07\xe0\x05\x19\t,\x15\x0c\x88\x93'
tRp150
S'10'
p151
I1
ttRp152
sVhttps://christianlifemissions.org/wp-content/uploads/2015/02/Faith-Statement-Pic.jpg
p153
g3
(g4
g5
(g6
(S'\x07\xe0\t\x1e\x0431\r\x8ep'
tRp154
S'472'
p155
I1
ttRp156
sVhttp://medias.unifrance.org/medias/97/162/107105/format_page/faith-connections.jpg
p157
g3
(g4
g5
(g6
(S'\x07\xe0\x06\r\x0c0&\n\xf7\xaa'
tRp158
S'162'
p159
I1
ttRp160
sVhttp://thefools.org/wp-content/uploads/2014/05/doubt-and-faith-living-in-the-tension.jpg
p161
g3
(g4
g5
(g6
(S'\x07\xe0\x01\x18\x10:0\x02F\xc2'
tRp162
S'207'
p163
I1
ttRp164
sVhttp://d1zlh37f1ep3tj.cloudfront.net/wp/wblob/54592E651337D2/34B1/5E27BE/WWib4_DnDbED5EjsWQz1Cw/Faith-Quote-of-the-Month-July-2015.jpg
p165
g3
(g4
g5
(g6
(S'\x07\xe0\x07\x13\x0b\x119\x03\xa9/'
tRp166
S'433'
p167
I1
ttRp168
sVhttps://s-media-cache-ak0.pinimg.com/736x/00/14/48/00144882e201064f979916062151f6a9.jpg
p169
g3
(g4
g5
(g6
(S'\x07\xe0\x06\n\x0f\x0e#\x05$\xaf'
tRp170
S'168'
p171
I1
ttRp172
sVhttp://1.bp.blogspot.com/-ounlplLwP4U/VcUcELH8btI/AAAAAAAAECI/23sV9InawhE/s1600/14927733944_def42c47a4_o_d.png
p173
g3
(g4
g5
(g6
(S'\x07\xe0\x04\x1b\n\x050\x03\xd2d'
tRp174
S'302'
p175
I2
ttRp176
sVhttp://propheticlight.org/wp-content/uploads/sermons/2015/08/by-faith.jpg
p177
g3
(g4
g5
(g6
(S'\x07\xe0\x04\x1b\n\x050\x03\xd2\xe1'
tRp178
I-1
I1
ttRp179
sVhttp://41.media.tumblr.com/9729db13bc3361666fe0e879a70cd46c/tumblr_nj0k2btEIl1u7d4ato1_1280.jpg
p180
g3
(g4
g5
(g6
(S'\x07\xe0\x04\x02\x107\x14\nK)'
tRp181
S'96'
p182
I1
ttRp183
sVhttp://az616578.vo.msecnd.net/files/2016/02/15/635911573227410521-1059335216_faith.jpg
p184
g3
(g4
g5
(g6
(S'\x07\xe0\n\x1e\x12\x12\x1b\x00\xe1\x01'
tRp185
S'369'
p186
I1
ttRp187
sVhttp://image.shutterstock.com/display_pic_with_logo/1877789/386215717/stock-photo-word-faith-painted-calligraphy-word-faith-faith-modern-handwriting-386215717.jpg
p188
g3
(g4
g5
(g6
(S'\x07\xe0\x08\x10\x16\x15\n\x08\x93\x7f'
tRp189
S'350'
p190
I1
ttRp191
sVhttp://redefinedfuture.com/wp-content/uploads/2015/04/faith-image-2.jpg
p192
g3
(g4
g5
(g6
(S"\x07\xdf\x0c\x1f\x10'\x17\x02.F"
tRp193
S'46'
p194
I1
ttRp195
sVhttps://az616578.vo.msecnd.net/files/2016/03/04/635926501806500264-43103110_faith-trust-fall-saul-jonathan-works-1.jpg
p196
g3
(g4
g5
(g6
(S'\x07\xe0\x05\x16\x14\n)\x03n='
tRp197
S'334'
p198
I1
ttRp199
sVhttp://poptattoos.com/wp-content/uploads/2015/06/cool-faith-tattoo-2015.jpg
p200
g3
(g4
g5
(g6
(S'\x07\xe0\x06\r\x0c0&\n\xf7X'
tRp201
S'269'
p202
I1
ttRp203
sVhttp://i2.cdn.turner.com/cnnnext/dam/assets/150511065206-karimi-faith-super-169.jpg
p204
g3
(g4
g5
(g6
(S'\x07\xe0\x07\x13\x0b\x119\x03\xa9\x13'
tRp205
S'436'
p206
I1
ttRp207
sVhttp://static3.gamespot.com/uploads/scale_super/1490/14900166/2943673-faith.jpg
p208
g3
(g4
g5
(g6
(S'\x07\xe0\n\x06\x05\x1e5\x08w\x86'
tRp209
S'322'
p210
I1
ttRp211
sVhttps://myjustheart.com/wp-content/uploads/2016/07/faith14.jpg
p212
g3
(g4
g5
(g6
(S'\x07\xe0\x08\x06\x16\x10\x05\x08\xd4_'
tRp213
S'449'
p214
I1
ttRp215
sVhttp://www.islam.com.kw/wp-content/uploads/2013/08/faith-wallpaper.jpg
p216
g3
(g4
g5
(g6
(S'\x07\xe0\x01\n\x1000\x00\x1eY'
tRp217
S'154'
p218
I1
ttRp219
sVhttp://www.lovethispic.com/uploaded_images/24856-Faith.jpg
p220
g3
(g4
g5
(g6
(S'\x07\xdf\x0c\x02\x05 \x03\x073U'
tRp221
S'9'
I1
ttRp222
sVhttp://inspirationformoms.com/wp-content/uploads/2015/04/keep-the-faith.jpg
p223
g3
(g4
g5
(g6
(S'\x07\xdf\x0b\t\x039\x17\x05KJ'
tRp224
S'55'
p225
I1
ttRp226
sVhttp://www.faithjoplin.com/images/Faith-Logo.gif
p227
g3
(g4
g5
(g6
(S'\x07\xe0\x08\x1d\x04%:\x08*\xe4'
tRp228
S'458'
p229
I1
ttRp230
sVhttp://ptwoiministries.org/wp-content/uploads/2016/03/8F20CC7D547A452B8EFD7B0DB9E2D2AD.ashx_.jpeg
p231
g3
(g4
g5
(g6
(S'\x07\xe0\x08\x10\x16\x15\n\x08\x935'
tRp232
S'441'
p233
I1
ttRp234
sVhttp://antwerpchristianfellowship.org/wp-content/uploads/2014/02/faith17.jpg
p235
g3
(g4
g5
(g6
(S'\x07\xe0\x08\x17\x02 #\x0f\x0c\xb6'
tRp236
S'337'
p237
I1
ttRp238
sVhttp://pastlifetourist.com/wp-content/uploads/2015/08/Leap_of_Faith3.jpg
p239
g3
(g4
g5
(g6
(S'\x07\xdf\x0c\x02\x05 \x03\x073\x8e'
tRp240
S'27'
p241
I1
ttRp242
sVhttp://www.ronedmondson.com/wp-content/uploads/2013/04/faith.jpg
p243
g3
(g4
g5
(g6
(S'\x07\xdf\x0c\x02\x05 \x03\x073\x91'
tRp244
S'12'
p245
I1
ttRp246
sVhttps://ecoops.com/file/1762927;jsessionid=C51A9514FF5D0CD7D495BEEF0721D894
p247
g3
(g4
g5
(g6
(S'\x07\xe0\x03\x19\t:-\x07\x91\x13'
tRp248
S'272'
p249
I1
ttRp250
sVhttp://www.alegoo.com/images05/words/verses-4/029/verses-about-faith-15.jpg
p251
g3
(g4
g5
(g6
(S'\x07\xe0\x01\n\x1000\x00\x1e\x84'
tRp252
I-1
I2
ttRp253
sVhttps://www.avalonchurch.org/wp-content/uploads/2015/10/Faith-logo.jpg
p254
g3
(g4
g5
(g6
(S'\x07\xe0\x05\x05\x13,&\x0b\xee;'
tRp255
S'226'
p256
I1
ttRp257
sVhttp://bahaiblog.net/site/wp-content/uploads/2013/12/Station-of-Jesus-Christ-in-Bahai-Faith.jpg
p258
g3
(g4
g5
(g6
(S'\x07\xe0\n\x06\x05\x1e5\x08wi'
tRp259
S'175'
p260
I1
ttRp261
sVhttp://stjoevan.org/wp-content/uploads/2013/01/St-Joseph-Family-Faith-Form.png
p262
g3
(g4
g5
(g6
(S'\x07\xe0\x07\x13\x0b\x119\x03\xa8\xde'
tRp263
S'374'
p264
I1
ttRp265
sVhttp://provoketive.com/wp-content/uploads/2012/05/faith-interview-christian1.jpg
p266
g3
(g4
g5
(g6
(S'\x07\xe0\x07\x13\x0b\x119\x03\xa8\xcf'
tRp267
S'427'
p268
I1
ttRp269
sVhttp://rawpl.com/wp-content/uploads/2015/11/faith-quotes-for-best-collections-of-faith-quotes-2015-4.jpg
p270
g3
(g4
g5
(g6
(S'\x07\xdf\x0c\r\x10\x17\x1b\x06oP'
tRp271
I-1
I1
ttRp272
sVhttp://drdebcarlin.com/wp-content/uploads/2016/02/7711866066_9ffdaf3078_b.jpg
p273
g3
(g4
g5
(g6
(S'\x07\xe0\x04\x1b\n\x050\x03\xd2|'
tRp274
S'289'
p275
I1
ttRp276
sVhttp://jennpunzalan.com/wp-content/uploads/2013/10/faith_to_live_by_1024x1024.jpg
p277
g3
(g4
g5
(g6
(S'\x07\xe0\x07\x13\x0b\x119\x03\xa8\xff'
tRp278
S'241'
p279
I1
ttRp280
sVhttp://heartpublications.com/uploads/AmazingAudio/byfaith/by-faith.jpg
p281
g3
(g4
g5
(g6
(S'\x07\xe0\x08\x1d\x04%:\x08+\x03'
tRp282
I-1
I1
ttRp283
sVhttp://godlifechurch.me/wp-content/uploads/2016/03/Leap_of_Faith.jpg
p284
g3
(g4
g5
(g6
(S'\x07\xe0\x08\x10\x16\x15\n\x08\x93\xbf'
tRp285
S'349'
p286
I1
ttRp287
sVhttp://www.flc-s.org/Images/faith%20in%20the%20heart%205%20300dpi%20customers%20pick%20with%20color%20change.jpg
p288
g3
(g4
g5
(g6
(S'\x07\xe0\x06\r\x0c0&\n\xf7w'
tRp289
I-1
I1
ttRp290
sVhttp://az616578.vo.msecnd.net/files/2015/12/07/6358505383114254581807877391_faith.jpg
p291
g3
(g4
g5
(g6
(S'\x07\xe0\x07\x0e\x14\x02\x07\x0eg\x84'
tRp292
S'370'
p293
I1
ttRp294
sVhttp://www.benziestandrews.com/wp-content/uploads/2015/01/just_have_faith__by_brittbrittphotos-d392ali.jpg
p295
g3
(g4
g5
(g6
(S'\x07\xe0\x06\n\x0f\x0e#\x05$I'
tRp296
S'375'
p297
I1
ttRp298
sVhttp://raisingachildactor.com/wp-content/uploads/2015/06/faith.jpg
p299
g3
(g4
g5
(g6
(S'\x07\xe0\x06\r\x0c0&\n\xf7\xa2'
tRp300
S'380'
p301
I1
ttRp302
sVhttps://upload.wikimedia.org/wikipedia/commons/c/c5/Percy_Faith_1949.jpg
p303
g3
(g4
g5
(g6
(S'\x07\xe0\n\x06\x05\x1e5\x08w\xf3'
tRp304
S'133'
p305
I1
ttRp306
sVhttps://i.ytimg.com/vi/O7WP2hnijGY/maxresdefault.jpg
p307
g3
(g4
g5
(g6
(S'\x07\xe0\x02\x1b\x115\x0b\x0f\x15B'
tRp308
S'221'
p309
I1
ttRp310
sVhttps://s-media-cache-ak0.pinimg.com/736x/5b/04/92/5b04922b333a70d90cb1dfc0bde7cb5c.jpg
p311
g3
(g4
g5
(g6
(S'\x07\xe0\x07\x13\x0b\x119\x03\xa93'
tRp312
S'109'
p313
I1
ttRp314
sVhttp://thehurthealer.com/wp-content/uploads/2015/12/faith-is.jpg
p315
g3
(g4
g5
(g6
(S'\x07\xe0\x08\x17\x02 #\x0f\x0c\xc3'
tRp316
S'440'
p317
I1
ttRp318
sVhttps://s-media-cache-ak0.pinimg.com/736x/88/e8/1f/88e81f0a0bc3052d011bf4c7d9a6f9c1.jpg
p319
g3
(g4
g5
(g6
(S'\x07\xe0\x06\n\x0f\x0e#\x05$\xcb'
tRp320
S'278'
p321
I1
ttRp322
sVhttp://cdn-media-2.lifehack.org/wp-content/files/2013/12/Keep-the-faith.jpg
p323
g3
(g4
g5
(g6
(S'\x07\xe0\x08\x06\x16\x10\x05\x08\xd5\xa4'
tRp324
S'93'
p325
I1
ttRp326
sVhttp://www.christianstatements.com/prodimages/QUOTE059-G-01.jpg
p327
g3
(g4
g5
(g6
(S'\x07\xe0\n\x06\x05\x1e5\x08x\x10'
tRp328
S'486'
p329
I1
ttRp330
sVhttp://www.dhyanapeetam.org/sites/default/files/teaser_images_article/faith-intelligence.jpg?1318916376
p331
g3
(g4
g5
(g6
(S'\x07\xe0\x06\x06\r\x1b\t\x0c\xc4\xa7'
tRp332
S'358'
p333
I1
ttRp334
sVhttp://faithhealth.wpengine.netdna-cdn.com/wp-content/uploads/Spirituality-and-Health-Link.jpg
p335
g3
(g4
g5
(g6
(S'\x07\xe0\x08\x17\x02 #\x0f\x0c|'
tRp336
S'442'
p337
I1
ttRp338
sVhttp://sullivanchog.org/wp-content/uploads/2014/06/faith_blocks.jpg
p339
g3
(g4
g5
(g6
(S'\x07\xe0\x05\x19\t,\x15\x0c\x87\xd6'
tRp340
S'345'
p341
I1
ttRp342
sVhttp://www.quotessays.com/images/leap-of-faith-quotes-1.jpg
p343
g3
(g4
g5
(g6
(S'\x07\xe0\x02\x01\x11\x01%\x06\xc1y'
tRp344
I-1
I1
ttRp345
sVhttp://www.riversidechurchiowa.com/wp-content/uploads/2012/06/faith-is.jpg
p346
g3
(g4
g5
(g6
(S'\x07\xe0\x04\x1b\n\x050\x03\xd1\xe7'
tRp347
I-1
I1
ttRp348
sVhttp://thumb101.shutterstock.com/display_pic_with_logo/3024506/287787833/stock-vector-faith-word-hand-lettering-handmade-vector-calligraphy-287787833.jpg
p349
g3
(g4
g5
(g6
(S'\x07\xe0\x02\x1b\x115\x0b\x0f\x15\x18'
tRp350
I-1
I1
ttRp351
sVhttps://s-media-cache-ak0.pinimg.com/originals/82/08/7b/82087b8309769642d72cb164e27b7a72.jpg
p352
g3
(g4
g5
(g6
(S'\x07\xe0\n\x06\x05\x1e5\x08w0'
tRp353
S'482'
p354
I1
ttRp355
sVhttp://create-tattoos.com/wp-content/uploads/2015/08/faith-tattoo.jpg
p356
g3
(g4
g5
(g6
(S'\x07\xe0\x01\x12\x105\x0b\x05\x14\x81'
tRp357
S'183'
p358
I1
ttRp359
sVhttp://wallpoper.com/images/00/35/69/76/faith_00356976.png
p360
g3
(g4
g5
(g6
(S'\x07\xdf\x0c\x02\x05 \x03\x073\xd9'
tRp361
S'14'
p362
I1
ttRp363
sVhttp://2.bp.blogspot.com/-CYBA5-ejNlY/U3Iv1KPLvpI/AAAAAAAACYE/--loJ18v0oI/s1600/faith_typography.png
p364
g3
(g4
g5
(g6
(S'\x07\xe0\x02\x01\x11\x01%\x06\xc1W'
tRp365
S'213'
p366
I1
ttRp367
sVhttp://s3.amazonaws.com/bandw-gallery/large/917/Leap_of_Faith.jpg?1300965230
p368
g3
(g4
g5
(g6
(S'\x07\xe0\x04\x10\x15\t/\x01\x14\xfd'
tRp369
S'310'
p370
I1
ttRp371
sVhttp://www.hercampus.com/sites/default/files/2015/10/01/faith_1.jpg
p372
g3
(g4
g5
(g6
(S"\x07\xdf\x0c\x1f\x10'\x17\x02/g"
tRp373
S'63'
p374
I1
ttRp375
sVhttp://faithsmessenger.com/wp-content/uploads/2014/01/KeeptheFaith.jpg
p376
g3
(g4
g5
(g6
(S'\x07\xe0\x08\x1d\x04%:\x08*\xae'
tRp377
S'143'
p378
I1
ttRp379
sVhttp://www.swansea.ac.uk/faith/Alt-faith-banner.jpg
p380
g3
(g4
g5
(g6
(S'\x07\xe0\x08\x17\x02 #\x0f\x0c\xa4'
tRp381
S'445'
p382
I1
ttRp383
sVhttp://www.allcreated.com/wp-content/uploads/2015/05/sm-allcreated-Faith-printable.jpg
p384
g3
(g4
g5
(g6
(S'\x07\xe0\x01\n\x1000\x00\x1eo'
tRp385
I-1
I1
ttRp386
sVhttps://images.backstreetmerch.com/images/storeimages/PALOMA-FAITH/logo.png
p387
g3
(g4
g5
(g6
(S'\x07\xe0\x01\n\x1000\x00\x1ev'
tRp388
I-1
I1
ttRp389
sVhttp://s.isha.ws/blog/wp-content/uploads/2016/08/youth-faith-and-belief-1090x614.jpg
p390
g3
(g4
g5
(g6
(S'\x07\xe0\n\x06\x05\x1e5\x08wa'
tRp391
I-1
I1
ttRp392
sVhttp://thefaithproject.nfb.ca/wp-content/themes/faith-project/assets/img/en/faith-project-logo.png
p393
g3
(g4
g5
(g6
(S'\x07\xe0\x08\x17\x02 #\x0f\r\x0f'
tRp394
S'352'
p395
I1
ttRp396
sVhttp://www.crosswordchurch.org/wp-content/uploads/2013/11/faith-is.jpg
p397
g3
(g4
g5
(g6
(S'\x07\xe0\x01\n\x1000\x00\x1e\x8e'
tRp398
S'50'
p399
I1
ttRp400
sVhttp://lifehopeandtruth.com/uploads/images/leap-of-faith.jpg
p401
g3
(g4
g5
(g6
(S'\x07\xe0\x07\x13\x0b\x119\x03\xa8\xcb'
tRp402
S'421'
p403
I1
ttRp404
sVhttp://faithcounts.com/wp-content/uploads/what-faith-affords-3.jpg
p405
g3
(g4
g5
(g6
(S'\x07\xe0\x08\x17\x02 #\x0f\x0c\xdc'
tRp406
S'342'
p407
I1
ttRp408
sVhttps://farm8.staticflickr.com/7255/7711866066_725154364b_o_d.jpg
p409
g3
(g4
g5
(g6
(S'\x07\xe0\x02\x1b\x115\x0b\x0f\x15)'
tRp410
S'140'
p411
I1
ttRp412
sVhttp://www.hippoquotes.com/img/faith-quotes/always-believe-in-god-because-there-are-some-questions-that-even-google-cant-answer-faith-quotes.jpg
p413
g3
(g4
g5
(g6
(S'\x07\xe0\x04\n\x11\n+\x03\xbb;'
tRp414
I-1
I1
ttRp415
sVhttp://hqwallbase.pw/images/big/a_day_to_remember_faith_homesick_wallpaper-41547.jpg
p416
g3
(g4
g5
(g6
(S'\x07\xe0\x01\x18\x10:0\x02F\x9d'
tRp417
I-1
I1
ttRp418
sVhttp://wallpaperscristaos.com.br/christianwallpapers/wp-content/uploads/2012/06/faith-road-wallpaper_1366x768.jpg
p419
g3
(g4
g5
(g6
(S'\x07\xe0\x04\x1b\n\x050\x03\xd1\xed'
tRp420
S'306'
p421
I1
ttRp422
sVhttp://tatluv.com/assets/uploads/2015/09/tatluv-tattoo_5b04922b333a70d90cb1dfc0bde7cb5c.jpg
p423
g3
(g4
g5
(g6
(S'\x07\xe0\x01\x12\x105\x0b\x05\x14\xf4'
tRp424
S'180'
p425
I1
ttRp426
sVhttp://jesustoday.com/wp-content/uploads/2016/01/strong-faith.jpg
p427
g3
(g4
g5
(g6
(S'\x07\xe0\t\x1e\x0431\r\x8e\x7f'
tRp428
S'257'
p429
I1
ttRp430
sVhttp://cdn.shopify.com/s/files/1/0284/8896/products/theeverygirl_prints2_faith_1024x1024.jpg?v=1384810613
p431
g3
(g4
g5
(g6
(S'\x07\xe0\x04\x1b\n\x050\x03\xd2\xc4'
tRp432
S'122'
p433
I1
ttRp434
sVhttp://mimiandeunice.com/wp-content/uploads/2011/05/ME_366_Faith.png
p435
g3
(g4
g5
(g6
(S'\x07\xe0\x04\x1b\n\x050\x03\xd2\xe6'
tRp436
S'303'
p437
I1
ttRp438
sVhttp://cdn.hitfix.com/photos/6139010/FAITH-1_article_story_large.jpg
p439
g3
(g4
g5
(g6
(S"\x07\xe0\x05\x07\x15\x1e!\x08'\xcb"
tRp440
S'330'
p441
I1
ttRp442
sVhttp://www.westa.org/0demo/wp-content/uploads/2015/11/faith_1.jpg
p443
g3
(g4
g5
(g6
(S'\x07\xe0\x07\x06\x10\x02\x18\x027/'
tRp444
I-1
I1
ttRp445
sVhttp://inspirationboost.com/wp-content/uploads/2014/11/Keep-the-Faith-Quotes.png
p446
g3
(g4
g5
(g6
(S'\x07\xdf\x0c\t\x10\x0e\x11\x01\xbf\xc5'
tRp447
S'116'
p448
I1
ttRp449
sVhttps://s-media-cache-ak0.pinimg.com/736x/6c/c3/82/6cc3822a34eaf96104c83b391b7c9034.jpg
p450
g3
(g4
g5
(g6
(S'\x07\xe0\x06\r\x0c0&\n\xf6}'
tRp451
S'376'
p452
I1
ttRp453
sVhttps://themancalledkenny.files.wordpress.com/2015/04/faith-sunset.jpg
p454
g3
(g4
g5
(g6
(S'\x07\xe0\x05\x07\x15\x1e!\x08(w'
tRp455
S'136'
p456
I1
ttRp457
sVhttp://www.notable-quotes.com/f/faith_quote.jpg
p458
g3
(g4
g5
(g6
(S'\x07\xe0\x08\x10\x16\x15\n\x08\x93\xb4'
tRp459
I-1
I1
ttRp460
sVhttp://spiritualsage.net/wp-content/uploads/2014/07/faith.jpg
p461
g3
(g4
g5
(g6
(S'\x07\xe0\x08\x1d\x04%:\x08*S'
tRp462
S'462'
p463
I2
ttRp464
sVhttp://n.b5z.net/i/u/6145332/i/faith2.jpg
p465
g3
(g4
g5
(g6
(S"\x07\xdf\x0c\x1f\x10'\x17\x02.\xbc"
tRp466
S'119'
p467
I1
ttRp468
sVhttps://s-media-cache-ak0.pinimg.com/originals/de/71/b5/de71b5af3cfba9d18c966e9ed3d00eba.jpg
p469
g3
(g4
g5
(g6
(S'\x07\xe0\n\x06\x05\x1e5\x08w\x0e'
tRp470
S'486'
p471
I1
ttRp472
sVhttp://www.allworship.com/wp-content/uploads/2016/02/bigstock-Businessman-Looking-At-Faith-D-60690821.jpg
p473
g3
(g4
g5
(g6
(S'\x07\xe0\n\x06\x05\x1e5\x08w\xf6'
tRp474
NI1
ttRp475
sVhttp://cdn-media-1.lifehack.org/wp-content/files/2013/12/Keep-the-faith.jpg
p476
g3
(g4
g5
(g6
(S'\x07\xe0\x08\x10\x16\x15\n\x08\x92\xfe'
tRp477
S'1'
I1
ttRp478
sVhttp://www.commentsdb.com/wp-content/uploads/2015/07/Faith-is-Not-Leap-Into-the-Dark.jpg
p479
g3
(g4
g5
(g6
(S'\x07\xe0\x06\x13\x0f\x0c\x1b\x0e\xd4\xf2'
tRp480
S'328'
p481
I1
ttRp482
sVhttp://aboutislam.net/wp-content/uploads/2016/03/Faith-logo.jpg
p483
g3
(g4
g5
(g6
(S'\x07\xe0\n\x1e\x12\x12\x1b\x00\xe0\xdb'
tRp484
S'366'
p485
I1
ttRp486
sVhttps://pearlsofprofundity.files.wordpress.com/2012/04/leap-of-faith.jpg
p487
g3
(g4
g5
(g6
(S'\x07\xe0\x04\x1b\n\x050\x03\xd1\xfe'
tRp488
I-1
I1
ttRp489
sVhttp://poptattoos.com/wp-content/uploads/2015/06/faith-tattoo-idea.jpg
p490
g3
(g4
g5
(g6
(S'\x07\xe0\x06\r\x0c0&\n\xf7B'
tRp491
S'280'
p492
I1
ttRp493
sVhttp://image.shutterstock.com/z/stock-vector-faith-word-hand-lettering-handmade-vector-calligraphy-287787833.jpg
p494
g3
(g4
g5
(g6
(S'\x07\xe0\t\x1e\x0431\r\x8d\x9a'
tRp495
S'206'
p496
I1
ttRp497
sVhttp://teal-blog.s3.amazonaws.com/2015/08/faith.jpg
p498
g3
(g4
g5
(g6
(S'\x07\xe0\x03\x06\x11;:\x05\xc5J'
tRp499
S'73'
p500
I1
ttRp501
sVhttps://s-media-cache-ak0.pinimg.com/736x/7a/09/5f/7a095f79e3f354030c0f78af68ab4085.jpg
p502
g3
(g4
g5
(g6
(S'\x07\xe0\x08\x17\x02 #\x0f\x0c\xba'
tRp503
S'340'
p504
I1
ttRp505
sVhttps://s-media-cache-ak0.pinimg.com/originals/06/ff/10/06ff10ec195bff2e48bd9701ca7aa14b.jpg
p506
g3
(g4
g5
(g6
(S'\x07\xe0\n\x06\x05\x1e5\x08w]'
tRp507
S'488'
p508
I1
ttRp509
sVhttp://i274.photobucket.com/albums/jj261/Silverchex/Christian/faith_wall09085_1280.jpg
p510
g3
(g4
g5
(g6
(S'\x07\xe0\n\x06\x05\x1e5\x08w\xa3'
tRp511
S'118'
p512
I1
ttRp513
sVhttp://www.ikedaquotes.org/assets/images/backgrounds/religion-faith.jpg
p514
g3
(g4
g5
(g6
(S'\x07\xe0\x04\x1b\n\x050\x03\xd2\x81'
tRp515
S'314'
p516
I1
ttRp517
sVhttp://miamifriendschurch.com/wp-content/uploads/2014/05/strong-faith.jpg
p518
g3
(g4
g5
(g6
(S'\x07\xe0\t\x1e\x0431\r\x8e\x96'
tRp519
S'44'
p520
I1
ttRp521
sVhttp://cdn.crossmap.com/backgrounds/0/35/3530_2048x1036.jpg
p522
g3
(g4
g5
(g6
(S'\x07\xe0\x01\x18\x10:0\x02F\x85'
tRp523
S'198'
p524
I1
ttRp525
sVhttp://cdn2.hubspot.net/hubfs/474697/Faith_Logo_With_Text-1.png?t=1472064062174
p526
g3
(g4
g5
(g6
(S'\x07\xe0\x08\x1b\x03:3\x057\x02'
tRp527
S'460'
p528
I1
ttRp529
sVhttp://hinessight.blogs.com/.a/6a00d83451c0aa69e201bb08c6deed970d-600wi
p530
g3
(g4
g5
(g6
(S'\x07\xe0\x08\x17\x02 #\x0f\x0c\xe5'
tRp531
S'339'
p532
I1
ttRp533
sVhttp://mawmedia.com/COACHMethod/wp-content/uploads/2014/11/faith.jpg
p534
g3
(g4
g5
(g6
(S'\x07\xe0\x08\x17\x02 #\x0f\x0c\xe9'
tRp535
S'228'
p536
I1
ttRp537
sVhttp://www.jacobabshire.com/wp-content/uploads/2015/02/faith-header.jpg
p538
g3
(g4
g5
(g6
(S'\x07\xe0\x08\x1d\x04%:\x08+S'
tRp539
I-1
I1
ttRp540
sVhttp://aboitechurch.org/wp-content/uploads/2014/08/Living-By-Faith-Image.jpg
p541
g3
(g4
g5
(g6
(S'\x07\xe0\x08\x1d\x04%:\x08*\xff'
tRp542
S'75'
p543
I1
ttRp544
sVhttps://pbs.twimg.com/profile_images/1704410686/wof-twitter_400x400.jpg
p545
g3
(g4
g5
(g6
(S'\x07\xe0\x03\x15\x02\x1c\x05\x0e\xef\x8e'
tRp546
S'102'
p547
I1
ttRp548
sVhttps://i.ytimg.com/vi/ek4BdQ8bFMU/maxresdefault.jpg
p549
g3
(g4
g5
(g6
(S'\x07\xe0\x08\x1d\x04%:\x08+\x0c'
tRp550
S'461'
p551
I1
ttRp552
sVhttp://valiantuniverse.com/wp-content/uploads/2015/09/FAITH_001_COVER-B_SAUVAGE-640x984.jpg
p553
g3
(g4
g5
(g6
(S'\x07\xe0\n\x06\x05\x1e5\x08w\xc4'
tRp554
S'484'
p555
I1
ttRp556
sVhttp://www.eclectablog.com/wp-content/uploads/2015/12/Faith.jpg
p557
g3
(g4
g5
(g6
(S'\x07\xe0\n\x06\x05\x1e5\x08w\xc8'
tRp558
S'89'
p559
I1
ttRp560
sVhttp://az616578.vo.msecnd.net/files/2016/06/19/636019554336399951-1332470804_faith.jpg
p561
g3
(g4
g5
(g6
(S'\x07\xe0\t\x1e\x0431\r\x8e5'
tRp562
S'409'
p563
I1
ttRp564
sVhttp://morethanarealtor.me/wp-content/uploads/2015/01/Leap-1.jpg
p565
g3
(g4
g5
(g6
(S'\x07\xdf\x0c\x17\x10 $\x07\xe9%'
tRp566
S'113'
p567
I1
ttRp568
sVhttp://www.stpatricks.org/media/1/Faith%20Formation/faith.jpg
p569
g3
(g4
g5
(g6
(S'\x07\xe0\x08\x17\x02 #\x0f\r\x13'
tRp570
S'43'
p571
I1
ttRp572
sVhttp://isibooks.org/media/catalog/product/cache/1/image/9df78eab33525d08d6e5fb8d27136e95/t/h/the_triumph_of_faith_jacket_openroad_1.jpg
p573
g3
(g4
g5
(g6
(S'\x07\xe0\t\x1c\x04,\x05\x06p('
tRp574
S'212'
p575
I1
ttRp576
sVhttp://fmaonline.net/wp-content/uploads/2012/05/faith-road-sign-with-dramatic-clouds-and-sky.jpg
p577
g3
(g4
g5
(g6
(S'\x07\xe0\x07\x06\x10\x02\x18\x027\x1d'
tRp578
S'32'
p579
I1
ttRp580
sVhttps://employmentlawottawa.files.wordpress.com/2016/07/faith.jpg
p581
g3
(g4
g5
(g6
(S'\x07\xe0\x08\x17\x02 #\x0f\r-'
tRp582
S'451'
p583
I1
ttRp584
sVhttp://notsalmon.com/wp-content/uploads/2011/03/faith-sky-poster.jpg
p585
g3
(g4
g5
(g6
(S'\x07\xe0\x04\x1b\n\x050\x03\xd2\x86'
tRp586
S'313'
p587
I1
ttRp588
sVhttp://image.desiringgod.org/god-s-rehab-for-weak-weary-faith-arohepfn-en/landscape/large_god-s-rehab-for-weak-weary-faith-arohepfn.jpg?1456763898
p589
g3
(g4
g5
(g6
(S'\x07\xe0\x07\x06\x10\x02\x18\x026\xc0'
tRp590
I-1
I1
ttRp591
sVhttp://cinw.s3.amazonaws.com/wp-content/uploads/2013/01/faith-1024x576.jpg
p592
g3
(g4
g5
(g6
(S'\x07\xe0\n\x06\x05\x1e5\x08w\xfe'
tRp593
S'474'
p594
I1
ttRp595
sVhttp://www.motivelegal.com/wp-content/uploads/2010/12/LeapOfFaith.jpg
p596
g3
(g4
g5
(g6
(S'\x07\xe0\x06\x1a\x13+\x05\x0b\xea`'
tRp597
S'146'
p598
I1
ttRp599
sVhttp://www.glavoquotes.online/wp-content/uploads/2014/03/keeping-faith-in-love-quotes-883.jpg
p600
g3
(g4
g5
(g6
(S'\x07\xe0\x06\r\x0c0&\n\xf7\xde'
tRp601
S'181'
p602
I1
ttRp603
sVhttp://www.impawards.com/2015/posters/faith_of_our_fathers_xxlg.jpg
p604
g3
(g4
g5
(g6
(S'\x07\xe0\x01\x18\x10:0\x02F\xe4'
tRp605
S'200'
p606
I1
ttRp607
sVhttps://2dbdd5116ffa30a49aa8-c03f075f8191fb4e60e74b907071aee8.ssl.cf1.rackcdn.com/3028205_1428757042.0631_funddescription.jpg
p608
g3
(g4
g5
(g6
(S'\x07\xe0\n\x06\x05\x1e5\x08x\x14'
tRp609
S'281'
p610
I1
ttRp611
sVhttp://mariashriver.com/wp-content/uploads/2015/09/Faith-Cristine-Caine.jpeg
p612
g3
(g4
g5
(g6
(S'\x07\xe0\n\x06\x05\x1e5\x08wP'
tRp613
S'419'
p614
I1
ttRp615
sVhttp://cofm.info/images/COFMissionLogo.gif
p616
g3
(g4
g5
(g6
(S'\x07\xe0\x01\n\x1000\x00\x1e('
tRp617
S'160'
p618
I1
ttRp619
sVhttp://www.andersonhillsumc.org/Websites/andersonhillsumc/Images/Family%20Ministry/faith%205%20logo%20final.png
p620
g3
(g4
g5
(g6
(S'\x07\xe0\x06\r\x0c0&\n\xf7\xc0'
tRp621
S'335'
p622
I1
ttRp623
sVhttp://civilmusic.com/civilmusic/uploads/2013/06/CIV018-JONNY-FAITH-BLUE-SKY-ON-MARS-EP-FRONT-COVER-WEB-2000.png
p624
g3
(g4
g5
(g6
(S'\x07\xe0\t\x1c\x04,\x05\x06mn'
tRp625
I-1
I1
ttRp626
sVhttp://static1.squarespace.com/static/51c7fb34e4b0258246f5496d/t/53a9e36fe4b0c4070a1c5d59/1403642737620/
p627
g3
(g4
g5
(g6
(S'\x07\xdf\x0c\t\x10\x0e\x11\x01\xbfr'
tRp628
S'98'
p629
I1
ttRp630
sVhttp://www.tattoobite.com/wp-content/uploads/2013/12/faith-word-tattoo-on-wrist.jpg
p631
g3
(g4
g5
(g6
(S'\x07\xe0\x02\x01\x11\x01%\x06\xc1f'
tRp632
S'187'
p633
I1
ttRp634
sVhttps://thescriptbible.files.wordpress.com/2014/05/science-and-faith-cover.jpg
p635
g3
(g4
g5
(g6
(S'\x07\xe0\x03\x19\t:-\x07\x90\xad'
tRp636
S'137'
p637
I1
ttRp638
sVhttp://image.shutterstock.com/z/stock-photo-word-faith-painted-calligraphy-word-faith-faith-modern-handwriting-386215717.jpg
p639
g3
(g4
g5
(g6
(S'\x07\xe0\x08\x1d\x04%:\x08*\x8f'
tRp640
S'327'
p641
I1
ttRp642
sVhttp://faithcounts.com/wp-content/uploads/what-faith-affords-3-400x250.jpg
p643
g3
(g4
g5
(g6
(S'\x07\xe0\x08\x17\x02 #\x0f\x0c\xbf'
tRp644
S'383'
p645
I1
ttRp646
sVhttp://www.benziestandrews.com/wp-content/uploads/2015/01/faith-clip.jpg
p647
g3
(g4
g5
(g6
(S'\x07\xe0\x04\x1b\n\x050\x03\xd2.'
tRp648
S'94'
p649
I1
ttRp650
sVhttp://www.voilasuccess.com/wp-content/uploads/2016/02/faith-black-white.jpg
p651
g3
(g4
g5
(g6
(S'\x07\xe0\x04\x1b\n\x050\x03\xd2C'
tRp652
I-1
I1
ttRp653
sVhttp://seanetng.com/mum/wp-content/uploads/2015/07/faith-1.jpg
p654
g3
(g4
g5
(g6
(S'\x07\xe0\x02\x15\x1149\x05\xa7n'
tRp655
I-1
I1
ttRp656
sVhttp://thedailyquotes.com/wp-content/uploads/2013/07/faith-quote-pictures-sayings-life-motivation-quotes-pics.jpg
p657
g3
(g4
g5
(g6
(S'\x07\xe0\n\x06\x05\x1e5\x08w\x1c'
tRp658
S'372'
p659
I1
ttRp660
sVhttp://becomingengaged.com/wp-content/uploads/2013/01/faith.jpg
p661
g3
(g4
g5
(g6
(S'\x07\xdf\x0c\x02\x05 \x03\x073\xae'
tRp662
S'4'
I1
ttRp663
sVhttp://az616578.vo.msecnd.net/files/2016/06/19/636019580040833658425638705_strong-faith.jpg
p664
g3
(g4
g5
(g6
(S'\x07\xe0\x08\x06\x16\x10\x05\x08\xd5Q'
tRp665
S'429'
p666
I1
ttRp667
sVhttp://covpresyouth.com/wp-content/uploads/2016/02/faith_1.jpg
p668
g3
(g4
g5
(g6
(S"\x07\xe0\x05\x07\x15\x1e!\x08'\xf1"
tRp669
S'227'
p670
I1
ttRp671
sVhttp://christianlifemissions.org/wp-content/uploads/2015/02/Faith-Statement-Pic.jpg
p672
g3
(g4
g5
(g6
(S'\x07\xe0\x08\x1d\x04%:\x08*\xe8'
tRp673
S'230'
p674
I2
ttRp675
sVhttp://www.faithbaptistchurchny.org/faith-tree-wallpaper.jpg
p676
g3
(g4
g5
(g6
(S'\x07\xe0\x08\x1b\x03:3\x056\xf3'
tRp677
S'410'
p678
I1
ttRp679
sVhttps://weareblackdiamonds.files.wordpress.com/2015/06/leap-1.jpg
p680
g3
(g4
g5
(g6
(S'\x07\xe0\x04\x1b\n\x050\x03\xd2\xa2'
tRp681
S'127'
p682
I1
ttRp683
sVhttps://www.genderspectrum.org/staging/wp-content/uploads/2014/07/Faith.jpg
p684
g3
(g4
g5
(g6
(S'\x07\xe0\x05\x19\t,\x15\x0c\x88E'
tRp685
I-1
I1
ttRp686
sVhttp://www.tattooinn.com/tattoo/chinese/names/F/faith800.jpg
p687
g3
(g4
g5
(g6
(S'\x07\xe0\x07\x13\x0b\x119\x03\xa8\xfb'
tRp688
S'425'
p689
I2
ttRp690
sVhttp://rickwarren.org/images/default-source/Devotional-Images/12-30-15-daring-faith-grow-slow-and-go-in-faith_mini.jpg?sfvrsn=0
p691
g3
(g4
g5
(g6
(S'\x07\xe0\x08\x06\x16\x10\x05\x08\xd4\xcf'
tRp692
S'215'
p693
I1
ttRp694
sVhttps://ecoops.com/file/1762927;jsessionid=BF226C5938B91595F3D2BC770B7BE6D1
p695
g3
(g4
g5
(g6
(S'\x07\xe0\x03\x04\x117\x07\x00\xc0)'
tRp696
S'238'
p697
I1
ttRp698
sVhttp://averastorycenter.org/wp-content/uploads/2015/12/faith-key.jpg
p699
g3
(g4
g5
(g6
(S'\x07\xe0\x06\x1a\x13+\x05\x0b\xea\x17'
tRp700
S'260'
p701
I1
ttRp702
sVhttp://www.umschurch.com/wp-content/uploads/2016/03/faith-road-wallpaper_1920x1200.jpg
p703
g3
(g4
g5
(g6
(S'\x07\xe0\x07\x02\x0f\x05:\x0c\x1e\xc8'
tRp704
S'396'
p705
I1
ttRp706
sVhttp://www.emailguardian.net/wallpaper/gallery/six/faith800.jpg
p707
g3
(g4
g5
(g6
(S'\x07\xe0\x07\x13\x0b\x119\x03\xa9\r'
tRp708
S'265'
p709
I1
ttRp710
sVhttp://brwacademy.com/wp-content/uploads/2015/12/8F20CC7D547A452B8EFD7B0DB9E2D2AD.jpg
p711
g3
(g4
g5
(g6
(S'\x07\xe0\n\x06\x05\x1e5\x08w\xde'
tRp712
NI1
ttRp713
sVhttp://www.jordanburroughs.com/static/sitefiles/blog/faith.jpg
p714
g3
(g4
g5
(g6
(S'\x07\xe0\x04\x1b\n\x050\x03\xd2\x9d'
tRp715
S'288'
p716
I1
ttRp717
sVhttps://pbs.twimg.com/profile_images/468951791199981568/GUehM7De.jpeg
p718
g3
(g4
g5
(g6
(S'\x07\xe0\n\x06\x05\x1e5\x08w\xbc'
tRp719
S'112'
p720
I1
ttRp721
sVhttp://beginningandend.com/wp-content/uploads/2012/10/Praying-Defnding-the-Christian-faith-e1349305115650.jpg
p722
g3
(g4
g5
(g6
(S'\x07\xe0\x08\x17\x02 #\x0f\r '
tRp723
S'72'
p724
I1
ttRp725
sVhttps://victoryoutreachwhittier.files.wordpress.com/2011/04/increaseourfaith.jpg
p726
g3
(g4
g5
(g6
(S'\x07\xe0\x04\x1b\n\x050\x03\xd2\xba'
tRp727
S'323'
p728
I1
ttRp729
sVhttp://s3-ap-southeast-2.amazonaws.com/resources.farm1.mycms.me/uckg-co-nz/Resources/EventImages/Bishop%20Macedo%20MESSAGES/faith%20is%20banner.jpg
p730
g3
(g4
g5
(g6
(S'\x07\xe0\x04\x1b\n\x050\x03\xd2\xef'
tRp731
S'114'
p732
I1
ttRp733
sVhttp://cdn.mos.musicradar.com/images/acoustic-expo/Booth%20logos/Faith-cropped-460-100-90-75.jpg
p734
g3
(g4
g5
(g6
(S'\x07\xe0\x08\x1d\x04%:\x08*\xbb'
tRp735
S'457'
p736
I1
ttRp737
sVhttp://faith-matters.org/images/stories/fm-news/faith%20matters%20logo.png
p738
g3
(g4
g5
(g6
(S'\x07\xe0\x06\x1a\x13+\x05\x0b\xe9k'
tRp739
I-1
I1
ttRp740
sVhttp://www.faith.govoffice.com/vertical/Sites/%7B82CF93EB-8114-4339-BA63-9F3CA9289D9B%7D/uploads/faith_sign10.jpg
p741
g3
(g4
g5
(g6
(S'\x07\xe0\t\x1e\x0431\r\x8d\x04'
tRp742
S'130'
p743
I1
ttRp744
sVhttp://www.3dartistonline.com/users/5625/thm1024/1359659264_Faith.jpg
p745
g3
(g4
g5
(g6
(S'\x07\xe0\x04\x10\x15\t/\x01\x14\xe1'
tRp746
S'287'
p747
I1
ttRp748
sVhttp://eb-blog-education.s3.amazonaws.com/wp-content/uploads/2014/04/Faith-Religious.jpg
p749
g3
(g4
g5
(g6
(S'\x07\xe0\x01\x12\x105\x0b\x05\x14='
tRp750
I-1
I1
ttRp751
sVhttp://www.atacrossroads.net/wp-content/uploads/2015/07/faith-trust-fall-saul-jonathan-works.jpg
p752
g3
(g4
g5
(g6
(S'\x07\xe0\x03\x04\x117\x07\x00\xbf\xea'
tRp753
S'3'
I1
ttRp754
sVhttp://cubsindia.com/wp-content/uploads/2013/11/believe1.jpg
p755
g3
(g4
g5
(g6
(S'\x07\xe0\x07\x06\x10\x02\x18\x026\xc9'
tRp756
I-1
I1
ttRp757
sVhttp://hudabeauty.com/wp-content/uploads/2013/04/Have-Faith.jpg
p758
g3
(g4
g5
(g6
(S'\x07\xdf\x0c\x02\x05 \x03\x073G'
tRp759
S'6'
I1
ttRp760
sVhttp://www.ronedmondson.com/wp-content/uploads/2012/04/faith.jpg
p761
g3
(g4
g5
(g6
(S'\x07\xdf\x0b\x15\x04\x08$\x01@\xc1'
tRp762
S'69'
p763
I1
ttRp764
sVhttp://www.the-faith.com/wp-content/uploads/2010/12/faith-wallpaper.jpg
p765
g3
(g4
g5
(g6
(S"\x07\xe0\x05\x07\x15\x1e!\x08'\xa4"
tRp766
S'153'
p767
I1
ttRp768
sVhttp://static4.gamespot.com/uploads/scale_super/1490/14900166/2943673-faith.jpg
p769
g3
(g4
g5
(g6
(S'\x07\xe0\x08\x10\x16\x15\n\x08\x93\x1e'
tRp770
S'324'
p771
I1
ttRp772
sVhttp://az616578.vo.msecnd.net/files/2016/04/16/6359642430476297821509075226_Aspects-of-Faith.jpg
p773
g3
(g4
g5
(g6
(S'\x07\xe0\x06\x1a\x13+\x05\x0b\xe9\x8f'
tRp774
S'403'
p775
I1
ttRp776
sVhttp://www.asparkstarts.com/wp-content/uploads/2011/03/faith1.jpg
p777
g3
(g4
g5
(g6
(S'\x07\xe0\x08\x17\x02 #\x0f\x0c\x8a'
tRp778
S'85'
p779
I1
ttRp780
sVhttp://static1.gamespot.com/uploads/scale_super/1490/14900166/2943673-faith.jpg
p781
g3
(g4
g5
(g6
(S'\x07\xe0\x03\x19\t:-\x07\x90\xc0'
tRp782
S'259'
p783
I1
ttRp784
sVhttp://www.faithunitedchurch.org/wp-content/uploads/2014/12/slider_image_1.png
p785
g3
(g4
g5
(g6
(S'\x07\xe0\x07\x06\x10\x02\x18\x026\xbb'
tRp786
S'242'
p787
I1
ttRp788
sVhttps://s-media-cache-ak0.pinimg.com/736x/9a/e0/c1/9ae0c10d279bc103106599d4f67b2931.jpg
p789
g3
(g4
g5
(g6
(S'\x07\xe0\x07\x13\x0b\x119\x03\xa8\x9e'
tRp790
S'434'
p791
I1
ttRp792
sVhttp://kkrewbs.com/wp-content/uploads/2015/09/faith.jpeg
p793
g3
(g4
g5
(g6
(S'\x07\xdf\x0c\x02\x05 \x03\x073w'
tRp794
S'84'
p795
I1
ttRp796
sVhttp://static1.squarespace.com/static/536934b6e4b0c3ef16a97e35/t/53d578e5e4b0343b426ac5ae/1406499086586/
p797
g3
(g4
g5
(g6
(S'\x07\xe0\x07\x13\x0b\x119\x03\xa8\xa7'
tRp798
S'156'
p799
I1
ttRp800
sVhttps://i.ytimg.com/vi/P0eBd7blggs/maxresdefault.jpg
p801
g3
(g4
g5
(g6
(S'\x07\xe0\x08\x1d\x04%:\x08*\x97'
tRp802
S'201'
p803
I1
ttRp804
sVhttp://www.happynewyearhdwallpaper.com/wp-content/uploads/2015/11/Faith-Quotes-3.jpg
p805
g3
(g4
g5
(g6
(S"\x07\xe0\x01\x08\x10'9\n\xa4$"
tRp806
S'121'
p807
I1
ttRp808
sVhttp://faithcounts.com/wp-content/uploads/Faith-Counts-logo-yellow.png
p809
g3
(g4
g5
(g6
(S'\x07\xe0\n\x1e\x12\x12\x1b\x00\xe0\xec'
tRp810
S'420'
p811
I2
ttRp812
sVhttp://www.flcms.org/wp-content/uploads/2015/11/Faith-Come-and-See.jpg
p813
g3
(g4
g5
(g6
(S'\x07\xe0\n\x06\x05\x1e5\x08wm'
tRp814
I-1
I1
ttRp815
sVhttps://faithrxd.org/wp-content/uploads/2014/11/Banner-New.jpg
p816
g3
(g4
g5
(g6
(S'\x07\xe0\x08\x17\x02 #\x0f\x0c\xd4'
tRp817
S'454'
p818
I1
ttRp819
sVhttp://faithsalie.com/wp-content/uploads/2013/01/Faith-Salie-Author-Photo.jpg
p820
g3
(g4
g5
(g6
(S'\x07\xe0\t\x1c\x04,\x05\x06o\xab'
tRp821
S'392'
p822
I1
ttRp823
sVhttp://mariashriver.com/wp-content/uploads/2013/11/Faith-855x1024.jpg?5ab626
p824
g3
(g4
g5
(g6
(S'\x07\xdf\x0b\x18\x04\x0c\x1e\t\x91\x99'
tRp825
S'35'
p826
I1
ttRp827
sVhttp://peterteixeira.files.wordpress.com/2012/06/benjamin-franklin-faith-and-reason-wallpaper1.jpg
p828
g3
(g4
g5
(g6
(S'\x07\xe0\x01\x18\x10:0\x02Fx'
tRp829
S'217'
p830
I2
ttRp831
sVhttp://www.successpraxis.com/wp-content/uploads/2016/01/I-live-by-faith.jpg
p832
g3
(g4
g5
(g6
(S'\x07\xe0\x03\x15\x02\x1c\x05\x0e\xee\x1c'
tRp833
S'249'
p834
I1
ttRp835
sVhttp://rickwarren.org/images/default-source/Devotional-Images/04-05-16-the-daniel-plan-godly-goals-require-faith.jpg?sfvrsn=0
p836
g3
(g4
g5
(g6
(S'\x07\xe0\x07\x1b\x14\x0e\r\x00e\xc4'
tRp837
S'325'
p838
I1
ttRp839
sVhttp://usercontent1.hubimg.com/8453170_f520.jpg
p840
g3
(g4
g5
(g6
(S'\x07\xdf\x0b\x15\x04\x08$\x01@\xf2'
tRp841
S'49'
p842
I1
ttRp843
sVhttp://agapecoc.com/wp-content/uploads/2015/01/faith.jpg
p844
g3
(g4
g5
(g6
(S'\x07\xe0\x08\x17\x02 #\x0f\x0c\xf6'
tRp845
S'54'
p846
I1
ttRp847
sVhttp://link2power.org/wordpress/wp-content/uploads/2015/06/Lifestyle-of-Faith.jpg
p848
g3
(g4
g5
(g6
(S'\x07\xe0\x03\x06\x11;:\x05\xc5\x1b'
tRp849
S'166'
p850
I1
ttRp851
sVhttp://prophetgraybeal.com/wp-content/uploads/2015/11/strong-faith.jpg
p852
g3
(g4
g5
(g6
(S'\x07\xe0\x05\x05\x13,&\x0b\xee\x88'
tRp853
S'203'
p854
I1
ttRp855
sVhttp://www.cathnewsusa.com/wp-content/uploads/2014/08/maxresdefault.jpg
p856
g3
(g4
g5
(g6
(S'\x07\xe0\x01\x18\x10:0\x02F\xae'
tRp857
S'185'
p858
I2
ttRp859
sVhttp://www.davidsoncounselinggroup.com/wp-content/uploads/2015/09/Faith-Hope-Love-sign.jpg
p860
g3
(g4
g5
(g6
(S'\x07\xe0\x03\x06\x11;:\x05\xc5\x08'
tRp861
S'29'
p862
I1
ttRp863
sVhttp://www.thequotepedia.com/images/13/faith-is-being-sure-of-what-we-hope-for-certain-of-what-we-do-not-see-faith-quotes.jpg
p864
g3
(g4
g5
(g6
(S'\x07\xe0\x04\x02\x107\x14\nJ\xb2'
tRp865
S'271'
p866
I1
ttRp867
sVhttp://www.onbeing.org/sites/default/files/styles/width668/public/evolving-faith.jpg?itok=KeF6IJ7W
p868
g3
(g4
g5
(g6
(S'\x07\xe0\x08\x17\x02 #\x0f\r%'
tRp869
S'365'
p870
I1
ttRp871
sVhttp://img12.deviantart.net/7723/i/2012/079/7/1/where_is_the_faith__by_irvinggfm-d3bws0d.jpg
p872
g3
(g4
g5
(g6
(S'\x07\xe0\x04\x1b\n\x050\x03\xd2\xc9'
tRp873
S'40'
p874
I1
ttRp875
sVhttp://www.awyken.com/wp-content/uploads/2014/08/faith.jpg
p876
g3
(g4
g5
(g6
(S'\x07\xe0\t\x1c\x04,\x05\x06oE'
tRp877
S'386'
p878
I1
ttRp879
sVhttps://joonni.files.wordpress.com/2012/11/faith-fanart-17.jpg
p880
g3
(g4
g5
(g6
(S'\x07\xe0\x05\x19\t,\x15\x0c\x88\xb7'
tRp881
S'367'
p882
I1
ttRp883
sVhttp://www.faithandhealthconnection.org/wp-content/uploads/Spirituality-and-Health-Link.jpg
p884
g3
(g4
g5
(g6
(S'\x07\xe0\x08\x06\x16\x10\x05\x08\xd5\x97'
tRp885
I-1
I1
ttRp886
sVhttps://s-media-cache-ak0.pinimg.com/736x/29/1d/9b/291d9bc74281b18327a97be695e41b91.jpg
p887
g3
(g4
g5
(g6
(S'\x07\xe0\x01\n\x1000\x00\x1e\xf5'
tRp888
S'174'
p889
I1
ttRp890
sVhttp://pastorrick.com/images/default-source/Devotional-Images/04-05-16-the-daniel-plan-godly-goals-require-faith.jpg?sfvrsn=0
p891
g3
(g4
g5
(g6
(S'\x07\xe0\n\x06\x05\x1e5\x08x\x03'
tRp892
S'478'
p893
I1
ttRp894
sVhttp://static1.squarespace.com/static/51dbe649e4b09506a9c7266f/55dd217de4b087b7fd18cc80/55dd23e6e4b0a550d4a2308c/1440556006626/Faith+a.jpg
p895
g3
(g4
g5
(g6
(S'\x07\xe0\x03\x06\x11;:\x05\xc5C'
tRp896
I-1
I1
ttRp897
sVhttp://feralsapient.com/wp-content/uploads/2014/04/mirrors-edge-leap-of-faith1.png
p898
g3
(g4
g5
(g6
(S'\x07\xe0\x03\x19\t:-\x07\x91\x0e'
tRp899
I-1
I1
ttRp900
sVhttp://mariashriver.com/wp-content/uploads/2015/09/Faith-Cristine-Caine.jpeg?bd3f04
p901
g3
(g4
g5
(g6
(S'\x07\xe0\x06\x13\x0f\x0c\x1b\x0e\xd4\xe3'
tRp902
S'263'
p903
I1
ttRp904
sVhttp://tahieramoniquebrown.com/tahiera-content/uploads/2014/01/faith.jpg
p905
g3
(g4
g5
(g6
(S'\x07\xe0\t\x1c\x04,\x05\x06m\x8d'
tRp906
I-1
I1
ttRp907
sVhttp://wordwillsave.com/wp-content/uploads/2014/04/iStock_FaithSmall.jpg
p908
g3
(g4
g5
(g6
(S'\x07\xdf\x0b\x18\x04\x0c\x1e\t\x91B'
tRp909
I-1
I1
ttRp910
sVhttp://betrulywealthy.com/wp-content/uploads/2016/02/faith-road-wallpaper_1920x1200.jpg
p911
g3
(g4
g5
(g6
(S'\x07\xe0\x03\x19\t:-\x07\x90\x94'
tRp912
S'223'
p913
I1
ttRp914
sVhttp://www.mercyseat.cc/wp-content/uploads/2016/06/faith-road-wallpaper_1920x1200.jpg
p915
g3
(g4
g5
(g6
(S'\x07\xe0\t\x1e\x0431\r\x8d\x83'
tRp916
S'448'
p917
I1
ttRp918
sVhttp://www.joaoleitao.com/tattoo-name/images/tattoo-design-female-name-faith%20(16).png
p919
g3
(g4
g5
(g6
(S'\x07\xe0\x01\x18\x10:0\x02FH'
tRp920
S'202'
p921
I1
ttRp922
sVhttp://www.oakchurch.org.au/site/assets/files/1019/god-faith-and-love-god-31725465-737-438.jpg
p923
g3
(g4
g5
(g6
(S'\x07\xdf\x0c\x02\x05 \x03\x074\x1a'
tRp924
S'31'
p925
I1
ttRp926
sVhttp://cdn.shopify.com/s/files/1/0263/4853/products/FAITH_Hat_Grey.png?v=1462808966
p927
g3
(g4
g5
(g6
(S'\x07\xe0\x06\x1a\x13+\x05\x0b\xe9\xbd'
tRp928
S'402'
p929
I1
ttRp930
sVhttp://static2.gamespot.com/uploads/scale_super/1490/14900166/2943673-faith.jpg
p931
g3
(g4
g5
(g6
(S'\x07\xe0\t\x1e\x0431\r\x8e\xca'
tRp932
S'471'
p933
I1
ttRp934
sVhttp://cucparamus.com/news/wp-content/uploads/Faith-1.jpg
p935
g3
(g4
g5
(g6
(S'\x07\xdf\x0c\x02\x05 \x03\x073\x9d'
tRp936
S'88'
p937
I1
ttRp938
sVhttps://pbs.twimg.com/profile_images/506386546245644288/BrqYuv7r.jpeg
p939
g3
(g4
g5
(g6
(S'\x07\xe0\x06\x1a\x13+\x05\x0b\xe9z'
tRp940
S'387'
p941
I1
ttRp942
sVhttp://cdn.wallpapersafari.com/14/20/0dpyZT.jpg
p943
g3
(g4
g5
(g6
(S'\x07\xe0\x08\x1d\x04%:\x08*\xed'
tRp944
I-1
I1
ttRp945
sVhttp://www.promenademusic.co.uk/image/cache/data/faith_logo-875x875.jpg
p946
g3
(g4
g5
(g6
(S'\x07\xe0\n\x06\x05\x1e5\x08w\xb6'
tRp947
I-1
I1
ttRp948
sVhttp://commentsmeme.com/wp-content/uploads/2014/03/Faith-Quotes-86.jpg
p949
g3
(g4
g5
(g6
(S'\x07\xe0\x01\x12\x105\x0b\x05\x15\x0c'
tRp950
I-1
I1
ttRp951
sVhttp://christian-daily.org/wp-content/uploads/2015/05/faith3.jpg
p952
g3
(g4
g5
(g6
(S'\x07\xdf\x0c\x02\x05 \x03\x073\xce'
tRp953
S'82'
p954
I1
ttRp955
sVhttps://fromthedeskofmardrag.files.wordpress.com/2013/10/faith-2.jpg
p956
g3
(g4
g5
(g6
(S'\x07\xe0\x06\x06\r\x1b\t\x0c\xc4T'
tRp957
S'132'
p958
I1
ttRp959
sVhttp://www.cvltnation.com/wp-content/uploads/2014/02/faith_no_more_logo.jpg
p960
g3
(g4
g5
(g6
(S'\x07\xe0\x01\n\x1000\x00\x1eD'
tRp961
S'176'
p962
I1
ttRp963
sVhttp://busheybaptist.org.uk/cgi-bin/files/images/featured/our%20faith.jpg
p964
g3
(g4
g5
(g6
(S'\x07\xe0\x08\x17\x02 #\x0f\x0c\x80'
tRp965
S'362'
p966
I1
ttRp967
sVhttp://coachjamesjustin.com/wp-content/uploads/2015/10/Faith-2.jpg
p968
g3
(g4
g5
(g6
(S'\x07\xe0\x04\x10\x15\t/\x01\x15\xbb'
tRp969
S'57'
p970
I1
ttRp971
sVhttp://media.salon.com/2015/06/shutterstock_210984577.jpg
p972
g3
(g4
g5
(g6
(S'\x07\xe0\n\x06\x05\x1e5\x08w\xee'
tRp973
S'99'
p974
I1
ttRp975
sVhttp://www.stceciliastanwood.org/media/1/Our%20Parish/2014_0104_071a.jpg
p976
g3
(g4
g5
(g6
(S'\x07\xe0\x08\x1d\x04%:\x08+['
tRp977
S'398'
p978
I1
ttRp979
sVhttp://static.independent.co.uk/s3fs-public/thumbnails/image/2015/02/25/17/Paloma_Faith_Brit_Awards.jpg
p980
g3
(g4
g5
(g6
(S'\x07\xe0\x01\x18\x10:0\x02F\xd5'
tRp981
S'142'
p982
I1
ttRp983
sVhttp://www.beliefnet.com/~/media/8F20CC7D547A452B8EFD7B0DB9E2D2AD.ashx
p984
g3
(g4
g5
(g6
(S'\x07\xe0\x05\x16\x14\n)\x03n\xde'
tRp985
S'354'
p986
I1
ttRp987
sVhttp://ekklesiaministries.co.za/wp-content/uploads/Faith-Test_t.jpg
p988
g3
(g4
g5
(g6
(S'\x07\xe0\x04\x1b\n\x050\x03\xd2\xd3'
tRp989
S'320'
p990
I1
ttRp991
sVhttps://mindbodyspiritualawareness.com/wp-content/uploads/2015/10/faith.jpg
p992
g3
(g4
g5
(g6
(S'\x07\xe0\x03\x04\x117\x07\x00\xbf\xa6'
tRp993
S'234'
p994
I1
ttRp995
sVhttps://breadhere.files.wordpress.com/2013/07/i-have-learned-that-faith-means-trusting-in-advance.gif
p996
g3
(g4
g5
(g6
(S'\x07\xdf\x0c\x02\x05 \x03\x074\x12'
tRp997
S'24'
p998
I1
ttRp999
sVhttps://s-media-cache-ak0.pinimg.com/736x/eb/4e/29/eb4e29fdf237ba6043d4a26e84bad373.jpg
p1000
g3
(g4
g5
(g6
(S'\x07\xe0\x01\n\x1000\x00\x1e\xfc'
tRp1001
S'172'
p1002
I1
ttRp1003
sVhttp://mariashriver.com/wp-content/uploads/2015/09/Kim-Forrester-Faith-.jpeg
p1004
g3
(g4
g5
(g6
(S'\x07\xe0\n\x06\x05\x1e5\x08w\xfa'
tRp1005
S'418'
p1006
I1
ttRp1007
sVhttp://ai201507.99streets.netdna-cdn.com/wp-content/uploads/2015/06/wordfaitherrors.jpg
p1008
g3
(g4
g5
(g6
(S'\x07\xe0\x08\x17\x02 #\x0f\rO'
tRp1009
I-1
I1
ttRp1010
sVhttps://princessofthelight.files.wordpress.com/2015/01/faith.jpg
p1011
g3
(g4
g5
(g6
(S'\x07\xe0\x06\r\x0c0&\n\xf6S'
tRp1012
S'159'
p1013
I1
ttRp1014
sVhttp://www.drdebcarlin.com/wp-content/uploads/2016/02/7711866066_9ffdaf3078_b.jpg
p1015
g3
(g4
g5
(g6
(S'\x07\xe0\x04\n\x11\n+\x03\xbb)'
tRp1016
S'246'
p1017
I1
ttRp1018
sVhttps://cdn.theatlantic.com/assets/media/img/mt/2015/06/Evolution_1/lead_960.jpg?1434728676
p1019
g3
(g4
g5
(g6
(S'\x07\xe0\t\x1e\x0431\r\x8dI'
tRp1020
S'479'
p1021
I1
ttRp1022
sVhttps://pixabay.com/static/uploads/photo/2015/07/31/11/28/virgin-868970_960_720.jpg
p1023
g3
(g4
g5
(g6
(S'\x07\xe0\x06\r\x0c0&\n\xf6k'
tRp1024
S'378'
p1025
I1
ttRp1026
sVhttp://www.lovethispic.com/uploaded_images/206799-Have-Faith-In-What-Will-Be.jpg
p1027
g3
(g4
g5
(g6
(S'\x07\xe0\x08\x17\x02 #\x0f\x0c\x84'
tRp1028
S'456'
p1029
I1
ttRp1030
sVhttps://theblackcordelias.files.wordpress.com/2010/02/forward-in-faith-light.jpg
p1031
g3
(g4
g5
(g6
(S'\x07\xe0\x02\x1b\x115\x0b\x0f\x14\xaa'
tRp1032
S'149'
p1033
I2
ttRp1034
sVhttps://endtimebibleprophecy.files.wordpress.com/2013/11/live-by-faith-copy.jpg
p1035
g3
(g4
g5
(g6
(S'\x07\xe0\t\x1c\x04,\x05\x06n\x9b'
tRp1036
S'151'
p1037
I1
ttRp1038
sVhttps://s-media-cache-ak0.pinimg.com/736x/de/71/b5/de71b5af3cfba9d18c966e9ed3d00eba.jpg
p1039
g3
(g4
g5
(g6
(S'\x07\xe0\n\x06\x05\x1e5\x08w4'
tRp1040
S'431'
p1041
I1
ttRp1042
sVhttp://www.theultimatequotes.com/wp-content/uploads/Foprward-In-Faith.jpg
p1043
g3
(g4
g5
(g6
(S'\x07\xe0\x01\x18\x10:0\x02F\xb8'
tRp1044
S'192'
p1045
I1
ttRp1046
sVhttp://www.beliefnet.com/columnists/everydayinspiration/files/2013/08/have-faith.jpg
p1047
g3
(g4
g5
(g6
(S'\x07\xdf\x0c\x02\x05 \x03\x073\xf9'
tRp1048
I-1
I1
ttRp1049
sVhttps://agingcapriciously.files.wordpress.com/2015/03/awesomepoweroffaith2_t.jpg
p1050
g3
(g4
g5
(g6
(S'\x07\xe0\x04\x1b\n\x050\x03\xd2$'
tRp1051
S'64'
p1052
I2
ttRp1053
sVhttp://keithburnettministries.com/wp-content/uploads/2016/01/faith-light-and-dark.jpg
p1054
g3
(g4
g5
(g6
(S'\x07\xe0\x05\x19\t,\x15\x0c\x884'
tRp1055
S'239'
p1056
I1
ttRp1057
sVhttps://fortunedotcom.files.wordpress.com/2015/12/faith.png?w=1000
p1058
g3
(g4
g5
(g6
(S'\x07\xe0\n\x06\x05\x1e5\x08w\xa8'
tRp1059
S'382'
p1060
I1
ttRp1061
sVhttp://www.taramullarkey.com/wp-content/uploads/2013/05/faith-vs-fear.jpg
p1062
g3
(g4
g5
(g6
(S'\x07\xe0\x04\x10\x15\t/\x01\x150'
tRp1063
S'292'
p1064
I1
ttRp1065
sVhttp://newhorizonfellowship.com/wp-content/uploads/2016/05/faith-for-blog.jpg
p1066
g3
(g4
g5
(g6
(S'\x07\xe0\x07\x06\x10\x02\x18\x026\xc5'
tRp1067
I-1
I1
ttRp1068
sVhttps://i.ytimg.com/vi/ETdL79jxYK8/maxresdefault.jpg
p1069
g3
(g4
g5
(g6
(S'\x07\xe0\x08\x1d\x04%:\x08*s'
tRp1070
S'216'
p1071
I1
ttRp1072
sVhttp://lfcf.net/wp-content/uploads/2015/07/Living-Faith-Logo-COLOR.png
p1073
g3
(g4
g5
(g6
(S'\x07\xe0\t\x1c\x04,\x05\x06o\x9d'
tRp1074
S'404'
p1075
I1
ttRp1076
sVhttp://api.ning.com/files/s5*jJqkbiBN8Ht3Ju9-II9Cw4YMMye*zdh5u1P8AMoONtPuXYbuAQZL5rsJcvceGZpqWzklbwi1Qape3iOpy9QA2oKzgCsHT/Faith_is_Fear.png
p1077
g3
(g4
g5
(g6
(S'\x07\xe0\x02\x15\x1149\x05\xa7\x82'
tRp1078
S'188'
p1079
I1
ttRp1080
sVhttp://www.faithandentertainment.com/wp-content/uploads/2013/06/Seriously_6.jpg
p1081
g3
(g4
g5
(g6
(S'\x07\xe0\x08\x1b\x03:3\x057\x1f'
tRp1082
S'204'
p1083
I1
ttRp1084
sVhttp://thinkwelllivewellnow.hosterize.com/wp-content/uploads/2012/01/386-STEPPING-OUT-IN-FAITH.jpg
p1085
g3
(g4
g5
(g6
(S'\x07\xe0\x08\x1d\x04%:\x08+\x15'
tRp1086
I-1
I1
ttRp1087
sVhttp://image.shutterstock.com/z/stock-vector-faith-hope-love-320776442.jpg
p1088
g3
(g4
g5
(g6
(S'\x07\xe0\x08\x1d\x04%:\x08+\x1d'
tRp1089
S'393'
p1090
I1
ttRp1091
sVhttp://weneedfun.com/wp-content/uploads/2016/08/Faith-Quotes-2.png
p1092
g3
(g4
g5
(g6
(S'\x07\xe0\t\x1c\x04,\x05\x06op'
tRp1093
S'467'
p1094
I1
ttRp1095
sVhttps://www.colourbox.com/preview/6615712-person-showing-faith-in-lord-by-holding-holy-cross-vector-graphic.jpg
p1096
g3
(g4
g5
(g6
(S'\x07\xe0\t\x1e\x0431\r\x8e\x8e'
tRp1097
S'477'
p1098
I1
ttRp1099
sVhttp://www.benziestandrews.com/wp-content/uploads/2015/01/Faith3.jpg
p1100
g3
(g4
g5
(g6
(S'\x07\xe0\x06\x06\r\x1b\t\x0c\xc4t'
tRp1101
I-1
I1
ttRp1102
sVhttp://www.greenleafvineyard.com/wp-content/uploads/2015/02/Leap_of_Faith.jpg
p1103
g3
(g4
g5
(g6
(S'\x07\xe0\x05\x19\t,\x15\x0c\x88c'
tRp1104
S'346'
p1105
I1
ttRp1106
sVhttp://shannahatfield.files.wordpress.com/2013/01/faith.jpg
p1107
g3
(g4
g5
(g6
(S'\x07\xe0\x02\x1b\x115\x0b\x0f\x15\x1c'
tRp1108
S'148'
p1109
I1
ttRp1110
sVhttp://media.saddlebackfamily.com/e8d7a163-bcc4-4c78-93f9-51b5824996db.aspx?z=Pwi0Ecc8rQnySIJTk43vTm+NROlITI61AxDKWjJIytU1i3ZnGvBfUQjG/qDYF+WuBIa9ueI2V4yqKJradpPKJoe05pnZQ/g+q+RGZPjBfG8LsT2KEGhbAQ==
p1111
g3
(g4
g5
(g6
(S'\x07\xe0\x01\x1c\x11\x005\n\xf7q'
tRp1112
S'214'
p1113
I1
ttRp1114
sVhttp://media-cache-ec0.pinimg.com/originals/3c/c7/98/3cc7980b7cbd18ee64417e2201624e51.jpg
p1115
g3
(g4
g5
(g6
(S"\x07\xe0\x01\x08\x10'9\n\xa4\xa6"
tRp1116
S'58'
p1117
I1
ttRp1118
sVhttp://www.wthu.org/wp-content/uploads/2015/06/Living-faith-logo.jpg
p1119
g3
(g4
g5
(g6
(S'\x07\xe0\x05\x05\x13,&\x0b\xef\x0b'
tRp1120
S'286'
p1121
I1
ttRp1122
sVhttp://www.benziestandrews.com/wp-content/uploads/2015/01/Faith-Book.jpg
p1123
g3
(g4
g5
(g6
(S'\x07\xe0\x05\x19\t,\x15\x0c\x88y'
tRp1124
S'67'
p1125
I1
ttRp1126
sVhttps://s3.amazonaws.com/assets.dischord.com/images.d/release/image/446944/172_250.jpg
p1127
g3
(g4
g5
(g6
(S'\x07\xe0\n\x06\x05\x1e5\x08w\x05'
tRp1128
S'164'
p1129
I1
ttRp1130
sVhttp://ffwatertown.com/church/wp-content/uploads/2015/01/another.png
p1131
g3
(g4
g5
(g6
(S'\x07\xe0\n\x06\x05\x1e5\x08wt'
tRp1132
I-1
I1
ttRp1133
sVhttp://az616578.vo.msecnd.net/files/2016/06/18/636018622516705215492689983_faith_1.jpg
p1134
g3
(g4
g5
(g6
(S'\x07\xe0\x08\x17\x02 #\x0f\x0cs'
tRp1135
S'432'
p1136
I1
ttRp1137
sVhttp://az616578.vo.msecnd.net/files/2016/03/04/635926501806500264-43103110_faith-trust-fall-saul-jonathan-works-1.jpg
p1138
g3
(g4
g5
(g6
(S'\x07\xe0\x08\x17\x02 #\x0f\x0cw'
tRp1139
S'256'
p1140
I1
ttRp1141
sVhttps://s-media-cache-ak0.pinimg.com/736x/df/8a/d8/df8ad8508a1ab0eb6d6499be42cdff70.jpg
p1142
g3
(g4
g5
(g6
(S'\x07\xe0\x03\x1d\n-4\x07\x81\x9d'
tRp1143
S'262'
p1144
I1
ttRp1145
sVhttp://www.designgab.com/wp-content/uploads/2015/08/Faith-Quotes.jpg
p1146
g3
(g4
g5
(g6
(S'\x07\xe0\x01\n\x1000\x00\x1eU'
tRp1147
I-1
I1
ttRp1148
sVhttp://www.christianfamilynashville.com/wp-content/uploads/2016/03/Faith-@-Work-questioning-God.jpg
p1149
g3
(g4
g5
(g6
(S'\x07\xe0\t\x1c\x04,\x05\x06ni'
tRp1150
I-1
I1
ttRp1151
sVhttp://eb-blog-blog.s3.amazonaws.com/wp-content/uploads/2014/04/Faith-Religious.jpg
p1152
g3
(g4
g5
(g6
(S'\x07\xe0\x02\x1b\x115\x0b\x0f\x14\xba'
tRp1153
S'210'
p1154
I1
ttRp1155
sVhttp://wp.production.patheos.com/blogs/christiancrier/files/2015/11/For-we-walk-by-faith-not.jpg
p1156
g3
(g4
g5
(g6
(S'\x07\xe0\x07\x0e\x14\x02\x07\x0eg\x1d'
tRp1157
S'424'
p1158
I1
ttRp1159
sVhttp://commentsmeme.com/wp-content/uploads/2014/03/Faith-Quotes-43.jpg
p1160
g3
(g4
g5
(g6
(S'\x07\xe0\n\x06\x05\x1e5\x08wG'
tRp1161
S'177'
p1162
I1
ttRp1163
sVhttp://www.derekleman.com/wp-content/uploads/2015/03/faithPrayer.jpg
p1164
g3
(g4
g5
(g6
(S'\x07\xe0\x08\x17\x02 #\x0f\x0c_'
tRp1165
I-1
I1
ttRp1166
sVhttps://s3.amazonaws.com/static.customizedgirl.com/images/storefront/avatar_10575.png
p1167
g3
(g4
g5
(g6
(S'\x07\xe0\n\x1e\x12\x12\x1b\x00\xe0\xd4'
tRp1168
S'371'
p1169
I1
ttRp1170
sVhttp://geniusquotes.org/wp-content/uploads/2014/02/Faith-Quotes_leap-of-faith-quote-1.png
p1171
g3
(g4
g5
(g6
(S'\x07\xe0\x08\x1d\x04%:\x08*\xa3'
tRp1172
I-1
I1
ttRp1173
sVhttp://valiantuniverse.com/wp-content/uploads/2015/09/FAITH_001_VARIANT_KANO-640x984.jpg
p1174
g3
(g4
g5
(g6
(S'\x07\xe0\n\x06\x05\x1e5\x08wU'
tRp1175
S'270'
p1176
I1
ttRp1177
sVhttp://fafcakron.com/media/1/Church_back.jpg
p1178
g3
(g4
g5
(g6
(S'\x07\xe0\x02\x1b\x115\x0b\x0f\x14m'
tRp1179
I-1
I1
ttRp1180
sVhttp://s.isha.ws/blog/wp-content/uploads/2016/03/creating-the-right-conditions-for-faith.jpg
p1181
g3
(g4
g5
(g6
(S'\x07\xe0\x07\x13\x0b\x119\x03\xa9N'
tRp1182
I-1
I1
ttRp1183
sVhttp://cdn.alleywatch.com/wp-content/uploads/2014/04/Leap-of-Faith.jpg
p1184
g3
(g4
g5
(g6
(S'\x07\xe0\x06\n\x0f\x0e#\x05$b'
tRp1185
S'381'
p1186
I1
ttRp1187
sVhttps://armstrongbiblechapelbc.files.wordpress.com/2013/02/by-faith.jpg
p1188
g3
(g4
g5
(g6
(S'\x07\xe0\x04\x1b\n\x050\x03\xd2V'
tRp1189
S'296'
p1190
I1
ttRp1191
sVhttp://img.picturequotes.com/2/3/2252/sometimes-you-have-to-take-a-leap-of-faith-quote-1.jpg
p1192
g3
(g4
g5
(g6
(S'\x07\xe0\x03\x06\x11;:\x05\xc4\xce'
tRp1193
S'245'
p1194
I1
ttRp1195
sVhttps://www.fccga.com/images/fcc_bg_sized_3.jpg
p1196
g3
(g4
g5
(g6
(S'\x07\xe0\x02\x15\x1149\x05\xa7Z'
tRp1197
S'56'
p1198
I1
ttRp1199
sVhttp://img04.deviantart.net/1ba5/i/2008/259/7/1/faith_visual_poem_by_meljoy68.jpg
p1200
g3
(g4
g5
(g6
(S'\x07\xe0\x06\n\x0f\x0e#\x05$C'
tRp1201
S'413'
p1202
I1
ttRp1203
sVhttps://yahwehssong.files.wordpress.com/2013/02/sharing-faith.jpg
p1204
g3
(g4
g5
(g6
(S'\x07\xe0\x06\x16\n\x15\x19\x0c\x13L'
tRp1205
S'401'
p1206
I1
ttRp1207
sVhttp://cdn.shopify.com/s/files/1/0263/4853/products/Active_Faith_Music_Staff_3D_Final.png?v=1424765915
p1208
g3
(g4
g5
(g6
(S'\x07\xe0\x01\x18\x10:0\x02F\x7f'
tRp1209
S'209'
p1210
I1
ttRp1211
sVhttps://s-media-cache-ak0.pinimg.com/736x/f9/e8/0e/f9e80e5e70fb56a338441642ed604c72.jpg
p1212
g3
(g4
g5
(g6
(S'\x07\xe0\x01\n\x1000\x00\x1e\xa0'
tRp1213
S'169'
p1214
I1
ttRp1215
sVhttps://agingcapriciously.files.wordpress.com/2015/03/faith-and-flying.jpg
p1216
g3
(g4
g5
(g6
(S'\x07\xe0\x04\x1b\n\x050\x03\xd2_'
tRp1217
S'19'
p1218
I1
ttRp1219
sVhttp://www.hippoquotes.com/img/faith-quotes-from-the-bible/Bible-Verses-On-Faith-Isaiah-40-31-River-Scripture-HD-Wallpaper.jpg
p1220
g3
(g4
g5
(g6
(S'\x07\xe0\t\x1e\x0431\r\x8e\x00'
tRp1221
I-1
I1
ttRp1222
sVhttps://i.ytimg.com/vi/P8PLBQrzWQ8/maxresdefault.jpg
p1223
g3
(g4
g5
(g6
(S'\x07\xe0\x04\x10\x15\t/\x01\x15\x8b'
tRp1224
S'319'
p1225
I1
ttRp1226
sVhttp://jp.notforsalecampaign.org/wp-content/uploads/2009/02/Banner_Faith-942x250.jpg
p1227
g3
(g4
g5
(g6
(S'\x07\xe0\x05\x19\t,\x15\x0c\x88m'
tRp1228
I-1
I1
ttRp1229
sVhttps://s-media-cache-ak0.pinimg.com/736x/70/0a/56/700a56063bbd8d1f98df46409e9af8ef.jpg
p1230
g3
(g4
g5
(g6
(S'\x07\xe0\x05\x19\t,\x15\x0c\x88\xb2'
tRp1231
S'353'
p1232
I1
ttRp1233
sVhttp://www.seedsoffaithdesigns.com/wp-content/uploads/2015/10/SOF-In-Oceans-Deep-My-Faith-Will-Stand_web.jpg
p1234
g3
(g4
g5
(g6
(S'\x07\xe0\n\x06\x05\x1e5\x08w\xd1'
tRp1235
S'483'
p1236
I1
ttRp1237
sVhttp://www.flavorpaper.com/images/uploads/patterns/main/Leap-of-Faith-for-Web.jpg
p1238
g3
(g4
g5
(g6
(S'\x07\xe0\x04\x1b\n\x050\x03\xd2\x94'
tRp1239
S'304'
p1240
I1
ttRp1241
sVhttps://cassie274.files.wordpress.com/2015/01/513-1-awesomepoweroffaith2_t.jpg
p1242
g3
(g4
g5
(g6
(S'\x07\xdf\n\x19\x031&\x0c\xb0\x0c'
tRp1243
S'37'
p1244
I1
ttRp1245
sVhttp://www.uckg.co.nz/Resources/EventImages/Bishop%20Macedo%20MESSAGES/faith%20is%20banner.jpg
p1246
g3
(g4
g5
(g6
(S'\x07\xe0\x03\x04\x117\x07\x00\xc02'
tRp1247
S'251'
p1248
I1
ttRp1249
sVhttp://www.bibleversesaboutlife.com/wp-content/uploads/2014/10/faith-bible-verses.jpg
p1250
g3
(g4
g5
(g6
(S'\x07\xe0\x02\x01\x11\x01%\x06\xc1\xe9'
tRp1251
S'199'
p1252
I1
ttRp1253
sVhttp://newcreeations.org/wp-content/uploads/2015/11/RaisedHands.jpg
p1254
g3
(g4
g5
(g6
(S'\x07\xe0\x04\x10\x15\t/\x01\x15\xd6'
tRp1255
I-1
I1
ttRp1256
sVhttps://faithfilm.files.wordpress.com/2012/07/faith-film1.jpg
p1257
g3
(g4
g5
(g6
(S'\x07\xe0\t\x1c\x04,\x05\x06mw'
tRp1258
S'399'
p1259
I1
ttRp1260
sVhttp://blindfaithlive.com/wp-content/uploads/2013/08/BlindFaithLive_Logo-FNL-1400pix.jpg
p1261
g3
(g4
g5
(g6
(S'\x07\xe0\t\x1c\x04,\x05\x06oS'
tRp1262
S'390'
p1263
I2
ttRp1264
sVhttp://ilovebeingchristian.com/wp-content/uploads/it-s-time-to-have-bold-faith-faith-quote.jpg
p1265
g3
(g4
g5
(g6
(S'\x07\xe0\x04\x1b\n\x050\x03\xd2\xf4'
tRp1266
S'298'
p1267
I1
ttRp1268
sVhttp://lifetreecounseling.com/wp-content/uploads/2015/01/strong-faith.jpg
p1269
g3
(g4
g5
(g6
(S'\x07\xe0\x01\x14\x109\x00\x03+\xf7'
tRp1270
I-1
I1
ttRp1271
sVhttp://s3.amazonaws.com/ligonier-public-media/blog/blog-post-images/Faith-Alone_620.jpg
p1272
g3
(g4
g5
(g6
(S'\x07\xe0\x05\x19\t,\x15\x0c\x87\xcb'
tRp1273
S'36'
p1274
I1
ttRp1275
sVhttp://alfonsoderose.com/wp-content/uploads/2014/02/believe.jpg
p1276
g3
(g4
g5
(g6
(S'\x07\xe0\x01\n\x1000\x00\x1eI'
tRp1277
S'48'
p1278
I1
ttRp1279
sVhttp://ultimateclassicrock.com/files/2016/03/blind.jpg?w=630&h=420&zc=2&cc=000000&a=t
p1280
g3
(g4
g5
(g6
(S'\x07\xe0\x08\x10\x16\x15\n\x08\x93\x16'
tRp1281
S'455'
p1282
I1
ttRp1283
sVhttps://www.ou.org/life/files/Faith.jpg
p1284
g3
(g4
g5
(g6
(S'\x07\xdf\x0b\x0e\x04\x05;\x05f\xf3'
tRp1285
S'61'
p1286
I1
ttRp1287
sVhttps://lh6.ggpht.com/I7wwuQWDu_FU74kQDzYov3G7vburbT1pLPA9SpGIRNLP6dfzPGRkIM7_p9x2Afk3Hq8=h900
p1288
g3
(g4
g5
(g6
(S'\x07\xe0\x04\x1b\n\x050\x03\xd2\x0c'
tRp1289
S'316'
p1290
I1
ttRp1291
sVhttps://stream.org/wp-content/uploads/Blind-Leap-of-Faith-900.jpg
p1292
g3
(g4
g5
(g6
(S'\x07\xe0\x08\x10\x16\x15\n\x08\x93*'
tRp1293
S'443'
p1294
I1
ttRp1295
sVhttp://www.morethanasundayfaith.com/wp-content/uploads/2013/10/genuine-faith.jpg
p1296
g3
(g4
g5
(g6
(S'\x07\xe0\x02\x1b\x115\x0b\x0f\x14\xa6'
tRp1297
S'147'
p1298
I1
ttRp1299
sVhttp://pastorrick.com/images/default-source/Devotional-Images/12-27-15-daring-faith-your-faith-can-move-mountains_mini.jpg?sfvrsn=0
p1300
g3
(g4
g5
(g6
(S'\x07\xe0\n\x06\x05\x1e5\x08w8'
tRp1301
S'480'
p1302
I1
ttRp1303
sVhttp://lifehopeandtruth.com/uploads/images/faith-of-abraham.jpg
p1304
g3
(g4
g5
(g6
(S'\x07\xe0\x08\x17\x02 #\x0f\x0c\x93'
tRp1305
S'108'
p1306
I1
ttRp1307
sVhttp://www.onbeing.org/sites/default/files/null/evolving-faith_lead.jpg
p1308
g3
(g4
g5
(g6
(S'\x07\xdf\n\x19\x031&\x0c\xaf\x9f'
tRp1309
S'16'
p1310
I1
ttRp1311
sVhttp://media.salemwebnetwork.com/cms/CW/Inspirations/28242-faith-makes-miracles.1200w.tn.jpg
p1312
g3
(g4
g5
(g6
(S'\x07\xe0\x07\x06\x10\x02\x18\x026Z'
tRp1313
S'240'
p1314
I1
ttRp1315
sVhttp://mariashriver.com/wp-content/uploads/2015/09/Kim-Forrester-Faith-.jpeg?bd3f04
p1316
g3
(g4
g5
(g6
(S'\x07\xe0\x06\r\x0c0&\n\xf6\xd8'
tRp1317
S'329'
p1318
I1
ttRp1319
sVhttps://cruxnow.com/wp-content/uploads/2016/03/Faith.jpg
p1320
g3
(g4
g5
(g6
(S'\x07\xe0\x08\x10\x16\x15\n\x08\x93\xa9'
tRp1321
S'453'
p1322
I1
ttRp1323
sVhttp://pre00.deviantart.net/4950/th/pre/i/2012/079/7/1/where_is_the_faith__by_irvinggfm-d3bws0d.jpg
p1324
g3
(g4
g5
(g6
(S'\x07\xe0\x04\x1b\n\x050\x03\xd2['
tRp1325
S'65'
p1326
I1
ttRp1327
sVhttp://image.shutterstock.com/z/stock-photo-faith-modern-cursive-word-faith-handwritten-printable-faith-background-386709298.jpg
p1328
g3
(g4
g5
(g6
(S'\x07\xe0\t\x1c\x04,\x05\x06n<'
tRp1329
S'389'
p1330
I1
ttRp1331
sVhttp://www.mediaatvictory.com/images/series/FaithLikeAbraham.jpg
p1332
g3
(g4
g5
(g6
(S'\x07\xe0\x06\x13\x0f\x0c\x1b\x0e\xd5Q'
tRp1333
S'394'
p1334
I1
ttRp1335
sVhttp://faithchurch.com/wp-content/uploads/2014/11/ecity2.jpg
p1336
g3
(g4
g5
(g6
(S'\x07\xe0\x01\x18\x10:0\x02F|'
tRp1337
I-1
I1
ttRp1338
sVhttp://www.joyquint.com/wp-content/uploads/2015/04/faith-1.jpg
p1339
g3
(g4
g5
(g6
(S'\x07\xdf\x0c\x02\x05 \x03\x073\xaa'
tRp1340
S'42'
p1341
I1
ttRp1342
sVhttp://gabrielsreport.com/wp-content/uploads/2013/08/faith-sky-poster.jpg
p1343
g3
(g4
g5
(g6
(S'\x07\xe0\x04\x0e\x11\x0c2\x0b\xc5\xa2'
tRp1344
S'299'
p1345
I1
ttRp1346
sVhttps://faithbibleministries.files.wordpress.com/2014/06/faith-oswald-chambers-550x320.jpg
p1347
g3
(g4
g5
(g6
(S'\x07\xdf\x0c\x02\x05 \x03\x073\xca'
tRp1348
S'59'
p1349
I1
ttRp1350
sVhttps://pbs.twimg.com/profile_images/1616922022/FAITH_master_with_PJE.jpg
p1351
g3
(g4
g5
(g6
(S'\x07\xe0\x03\x19\t:-\x07\x90\xaa'
tRp1352
S'97'
p1353
I1
ttRp1354
sVhttp://www.bibleverseimages.com/faith-bible-verse-3l.jpg
p1355
g3
(g4
g5
(g6
(S'\x07\xe0\n\x06\x05\x1e5\x08w\xb1'
tRp1356
S'428'
p1357
I1
ttRp1358
sVhttp://www.kristenrafajko.com/wp-content/uploads/2013/01/cus1035faith.jpg
p1359
g3
(g4
g5
(g6
(S'\x07\xe0\x04\x1b\n\x050\x03\xd2\xb6'
tRp1360
S'87'
p1361
I1
ttRp1362
sVhttp://www.onbeing.org/sites/default/files/styles/width668/public/evolving-faith.jpg?itok=p9RClL16
p1363
g3
(g4
g5
(g6
(S'\x07\xe0\x05\x05\x13,&\x0b\xed\xc9'
tRp1364
S'258'
p1365
I1
ttRp1366
sVhttp://www.benziestandrews.com/wp-content/uploads/2015/01/faith11.jpg
p1367
g3
(g4
g5
(g6
(S"\x07\xdf\x0c\x1f\x10'\x17\x020\x90"
tRp1368
I-1
I1
ttRp1369
sVhttps://wheelchairjunkie.files.wordpress.com/2016/08/fath.jpg
p1370
g3
(g4
g5
(g6
(S'\x07\xe0\n\x06\x05\x1e5\x08w\xe1'
tRp1371
S'485'
p1372
I1
ttRp1373
sVhttps://shannahatfield.files.wordpress.com/2013/01/faith.jpg
p1374
g3
(g4
g5
(g6
(S'\x07\xe0\x08\x1d\x04%:\x08+"'
tRp1375
S'465'
p1376
I1
ttRp1377
sVhttp://www.guardianquest.com/blog/wp-content/uploads/2014/02/got-faith_t.jpg
p1378
g3
(g4
g5
(g6
(S'\x07\xe0\x04\x1b\n\x050\x03\xd2\xac'
tRp1379
S'134'
p1380
I1
ttRp1381
sVhttps://s-media-cache-ak0.pinimg.com/564x/7b/ed/0d/7bed0d95462f61a11793aafc63b9563c.jpg
p1382
g3
(g4
g5
(g6
(S'\x07\xe0\x08\x17\x02 #\x0f\r1'
tRp1383
S'452'
p1384
I1
ttRp1385
sVhttp://www.livinghopega.com/wp-content/uploads/2014/01/blocks-faith.jpg
p1386
g3
(g4
g5
(g6
(S'\x07\xe0\x04\x1b\n\x050\x03\xd2\xce'
tRp1387
S'125'
p1388
I1
ttRp1389
sVhttp://faithrxd.org/wp-content/uploads/2014/11/Banner-New.jpg
p1390
g3
(g4
g5
(g6
(S'\x07\xe0\x08\x06\x16\x10\x05\x08\xd5\x84'
tRp1391
S'231'
p1392
I1
ttRp1393
sVhttps://pixabay.com/static/uploads/photo/2014/12/23/00/43/faith-577874_960_720.jpg
p1394
g3
(g4
g5
(g6
(S'\x07\xe0\x06\r\x0c0&\n\xf7\xc7'
tRp1395
S'282'
p1396
I1
ttRp1397
sVhttp://www.livingwellspendingless.com/wp-content/uploads/2014/07/Leap-of-Faith-Square-1024x1024.jpg
p1398
g3
(g4
g5
(g6
(S'\x07\xe0\x04\x10\x15\t/\x01\x16\x02'
tRp1399
S'318'
p1400
I1
ttRp1401
sVhttps://7321-presscdn-0-57-pagely.netdna-ssl.com/wp-content/uploads/2015/11/faith-valiant.jpg
p1402
g3
(g4
g5
(g6
(S'\x07\xe0\x05\x10\x10\x1c3\x00\xcb\x91'
tRp1403
I-1
I1
ttRp1404
sVhttp://bloximages.chicago2.vip.townnews.com/missoulian.com/content/tncms/assets/v3/editorial/9/99/999b46a3-49e0-5a54-a96a-ad4157d261b5/56bd2b8dad414.image.jpg
p1405
g3
(g4
g5
(g6
(S'\x07\xe0\x07\x1d\x14\x14\x1a\x04\xdc0'
tRp1406
S'326'
p1407
I1
ttRp1408
sVhttp://www.womenoffaith.com/wp-content/themes/wof/img/loved-logo.png
p1409
g3
(g4
g5
(g6
(S'\x07\xe0\x03\x19\t:-\x07\x91;'
tRp1410
S'255'
p1411
I1
ttRp1412
sVhttps://upload.wikimedia.org/wikipedia/commons/e/ea/Triumph_of_Faith_over_Idolatry_Theodon.jpg
p1413
g3
(g4
g5
(g6
(S'\x07\xe0\t\x1c\x04,\x05\x06m5'
tRp1414
S'150'
p1415
I2
ttRp1416
sVhttp://www.beliefnet.com/columnists/everydayinspiration/files/2015/01/faith.png
p1417
g3
(g4
g5
(g6
(S'\x07\xe0\x06\x06\r\x1b\t\x0c\xc3\xa0'
tRp1418
S'34'
p1419
I1
ttRp1420
sVhttp://www.illustratedfaith.com/wp-content/uploads/2014/10/favicon1.jpg
p1421
g3
(g4
g5
(g6
(S'\x07\xe0\x01\x14\x109\x00\x03+\xfc'
tRp1422
S'186'
p1423
I1
ttRp1424
sVhttp://i2.cdn.turner.com/cnnnext/dam/assets/150511065206-karimi-faith-full-169.jpg
p1425
g3
(g4
g5
(g6
(S'\x07\xe0\x04\x1b\n\x050\x03\xd2n'
tRp1426
S'305'
p1427
I1
ttRp1428
sVhttp://www.quotesoftheday.org/wp-content/uploads/2012/06/faith-quotes1.jpg
p1429
g3
(g4
g5
(g6
(S'\x07\xe0\x08\x1d\x04%:\x08+&'
tRp1430
S'463'
p1431
I1
ttRp1432
sVhttp://www.karipenner.com/wp-content/uploads/2013/12/choos-faith.jpg
p1433
g3
(g4
g5
(g6
(S'\x07\xe0\x08\x1d\x04%:\x08*\x83'
tRp1434
I-1
I1
ttRp1435
sVhttp://trem.org/home/wp-content/uploads/2015/02/faith-1.jpg
p1436
g3
(g4
g5
(g6
(S'\x07\xe0\x01\n\x1000\x00\x1e\\'
tRp1437
S'26'
p1438
I1
ttRp1439
sVhttp://rack.2.mshcdn.com/media/ZgkyMDE1LzExLzEyL2VkL0ZBSVRIMDAyX0NvLjFmZjZjLmpwZwpwCXRodW1iCTk1MHg1MzQjCmUJanBn/320489f3/8e8/FAITH002_CoverA.jpg
p1440
g3
(g4
g5
(g6
(S'\x07\xe0\x05\x10\x10\x1c3\x00\xca\xcb'
tRp1441
S'359'
p1442
I2
ttRp1443
sVhttps://www.lastresortrecovery.com/wp-content/uploads/2015/08/faith-based-recovery.jpg
p1444
g3
(g4
g5
(g6
(S'\x07\xdf\x0b\x0e\x04\x05;\x05g\x06'
tRp1445
I-1
I1
ttRp1446
sVhttp://www.oasisthevenue.co.uk/wp-content/uploads/faith.jpg
p1447
g3
(g4
g5
(g6
(S'\x07\xdf\n\x19\x031&\x0c\xb0S'
tRp1448
I-1
I1
ttRp1449
sVhttp://www.bibleversesaboutlife.com/wp-content/uploads/2014/11/leap-of-faith-quote.png
p1450
g3
(g4
g5
(g6
(S'\x07\xe0\t\x1e\x0431\r\x8d\x8b'
tRp1451
S'51'
p1452
I1
ttRp1453
sVhttp://faithbellairemain.files.wordpress.com/2014/06/men-of-faith-graphic.jpg
p1454
g3
(g4
g5
(g6
(S'\x07\xe0\x03\x06\x11;:\x05\xc4\xac'
tRp1455
S'248'
p1456
I1
ttRp1457
sVhttp://www.lovethispic.com/uploaded_images/17872-Have-Faith.jpg
p1458
g3
(g4
g5
(g6
(S'\x07\xe0\n\x06\x05\x1e5\x08w\x18'
tRp1459
S'90'
p1460
I1
ttRp1461
sVhttps://medicalministrytrips.org/wp-content/uploads/2014/12/Faith-closeup.jpg
p1462
g3
(g4
g5
(g6
(S'\x07\xe0\x08\x1d\x04%:\x08*j'
tRp1463
I-1
I1
ttRp1464
sVhttp://media.salemwebnetwork.com/cms/CW/faith/13248-high-bar-jump-silhouette-athletes.1200w.tn.jpg
p1465
g3
(g4
g5
(g6
(S'\x07\xe0\n\x06\x05\x1e5\x08w@'
tRp1466
NI1
ttRp1467
sVhttp://cdn.shopify.com/s/files/1/0090/5122/products/faith_to_live_by_1024x1024.jpg?v=1344019293
p1468
g3
(g4
g5
(g6
(S'\x07\xe0\x03\x19\t:-\x07\x90\x7f'
tRp1469
S'110'
p1470
I2
ttRp1471
sVhttp://wp.production.patheos.com/blogs/friendlyatheist/files/2016/02/YourFaithCover.jpg
p1472
g3
(g4
g5
(g6
(S'\x07\xe0\n\x06\x05\x1e5\x08w$'
tRp1473
S'267'
p1474
I1
ttRp1475
sVhttp://www.thegatheringtulsa.com/images/Bible%20Statement%20of%20Faith.001.jpg
p1476
g3
(g4
g5
(g6
(S'\x07\xe0\x02\x1b\x115\x0b\x0f\x15\t'
tRp1477
S'70'
p1478
I2
ttRp1479
sVhttp://cdn.quotesgram.com/img/17/66/1202986140-leap-of-faith-quote.png
p1480
g3
(g4
g5
(g6
(S'\x07\xe0\x06\x13\x0f\x0c\x1b\x0e\xd5v'
tRp1481
I-1
I1
ttRp1482
sVhttp://believers4ever.com/wp-content/uploads/2016/04/faith-can-move-mountains.png
p1483
g3
(g4
g5
(g6
(S'\x07\xe0\x06\x16\n\x15\x19\x0c\x13\x0f'
tRp1484
S'405'
p1485
I1
ttRp1486
sVhttp://thestatelessman.com/wp-content/uploads/2013/03/Faith.jpg
p1487
g3
(g4
g5
(g6
(S'\x07\xe0\t\x1c\x04,\x05\x06p6'
tRp1488
S'39'
p1489
I1
ttRp1490
sVhttp://buildingontheword.org/wp-content/uploads/2015/07/faith.jpg
p1491
g3
(g4
g5
(g6
(S'\x07\xe0\x02\x15\x1149\x05\xa7\xc4'
tRp1492
S'20'
p1493
I1
ttRp1494
sVhttp://img.shoppingnexus.com/products/faith-is-the-substance-of-things-hoped-for-black-vinyl-wall-art.jpg
p1495
g3
(g4
g5
(g6
(S'\x07\xe0\x06\x06\r\x1b\t\x0c\xc4}'
tRp1496
S'343'
p1497
I1
ttRp1498
sVhttp://lghttp.31936.nexcesscdn.net/80E4B6/images/media/catalog/product/cache/1/image/750x/040ec09b1e35df139433887a97daa66f/f/a/faith-bigger-than-fear-wood-print.jpg
p1499
g3
(g4
g5
(g6
(S'\x07\xe0\x06\n\x0f\x0e#\x05$\xb9'
tRp1500
S'332'
p1501
I1
ttRp1502
sVhttp://armstrongbiblechapelbc.files.wordpress.com/2013/02/by-faith.jpg
p1503
g3
(g4
g5
(g6
(S'\x07\xdf\x0c\n\x10\x070\r\x84\xe9'
tRp1504
S'128'
p1505
I1
ttRp1506
sVhttp://www.clarksburgcc.org/wp-content/uploads/2014/01/Aspects-of-Faith.jpg
p1507
g3
(g4
g5
(g6
(S'\x07\xe0\t\x1c\x04,\x05\x06p\xb4'
tRp1508
S'229'
p1509
I1
ttRp1510
sVhttp://forwardministries.org/wp-content/uploads/2014/12/faith.jpg
p1511
g3
(g4
g5
(g6
(S'\x07\xe0\x05\x19\t,\x15\x0c\x88J'
tRp1512
S'356'
p1513
I1
ttRp1514
sVhttp://biblemesh.com/blog/wp-content/uploads/2013/11/faith2.jpg
p1515
g3
(g4
g5
(g6
(S'\x07\xdf\n\x19\x031&\x0c\xb0j'
tRp1516
S'45'
p1517
I1
ttRp1518
sVhttp://imagecache5d.allposters.com/watermarker/14-1432-BCER000Z.jpg?ch=775&cw=775
p1519
g3
(g4
g5
(g6
(S'\x07\xe0\t\x1e\x0431\r\x8e\xba'
tRp1520
S'476'
p1521
I1
ttRp1522
sVhttp://media.salemwebnetwork.com/cms/CROSSCARDS/18209-faith-bigger-800x600.jpg
p1523
g3
(g4
g5
(g6
(S'\x07\xe0\n\x06\x05\x1e5\x08v\xbe'
tRp1524
S'220'
p1525
I1
ttRp1526
sVhttps://consequenceofsound.files.wordpress.com/2015/04/faith-no-more-angel-dust.jpg?w=807
p1527
g3
(g4
g5
(g6
(S'\x07\xe0\x01\n\x1000\x00\x1e\xce'
tRp1528
S'167'
p1529
I1
ttRp1530
sVhttp://www.themadchatter.com/wp-content/uploads/2016/03/faith.jpg
p1531
g3
(g4
g5
(g6
(S'\x07\xe0\x04\x1b\n\x050\x03\xd1\xdd'
tRp1532
S'279'
p1533
I1
ttRp1534
sVhttp://joycelayman.com/wp-content/uploads/2013/05/faith_wallpaper-normal.jpg
p1535
g3
(g4
g5
(g6
(S'\x07\xe0\x03\x06\x11;:\x05\xc4\x8d'
tRp1536
S'47'
p1537
I1
ttRp1538
sVhttp://www.benziestandrews.com/wp-content/uploads/2015/01/faith14.jpg
p1539
g3
(g4
g5
(g6
(S'\x07\xe0\x06\x06\r\x1b\t\x0c\xc3\xa5'
tRp1540
S'144'
p1541
I1
ttRp1542
sVhttps://faithus.org/wp-content/uploads/2015/04/Faith-Final-WhiteUp-SWITCHLINES.png
p1543
g3
(g4
g5
(g6
(S'\x07\xe0\x04\x1b\n\x050\x03\xd2\x07'
tRp1544
S'293'
p1545
I1
ttRp1546
sVhttp://keithburnettministries.com/wp-content/uploads/2016/01/faith-Hebrews-11-1.jpg
p1547
g3
(g4
g5
(g6
(S'\x07\xe0\x04\x1b\n\x050\x03\xd2)'
tRp1548
S'309'
p1549
I1
ttRp1550
sVhttp://www.graphics20.com/wp-content/uploads/2013/06/Faith-Quotes-22.jpg
p1551
g3
(g4
g5
(g6
(S'\x07\xe0\n\x06\x05\x1e5\x08w<'
tRp1552
S'377'
p1553
I1
ttRp1554
sVhttp://www.ou.org/life/files/Faith.jpg
p1555
g3
(g4
g5
(g6
(S'\x07\xe0\x08\x17\x02 #\x0f\x0c\x97'
tRp1556
S'79'
p1557
I1
ttRp1558
sVhttp://www.commentsdb.com/wp-content/uploads/2015/07/Foprward-In-Faith.jpg
p1559
g3
(g4
g5
(g6
(S'\x07\xe0\x06\x1a\x13+\x05\x0b\xe9\xa0'
tRp1560
S'400'
p1561
I2
ttRp1562
sVhttp://thejesuschick.com/wp-content/uploads/2014/05/faith-road-wallpaper_1920x1200.jpg
p1563
g3
(g4
g5
(g6
(S"\x07\xdf\x0c\x1f\x10'\x17\x02/\x16"
tRp1564
S'86'
p1565
I1
ttRp1566
sVhttps://c1.staticflickr.com/9/8366/8451220565_cc94050bf1_b.jpg
p1567
g3
(g4
g5
(g6
(S'\x07\xe0\n\x1e\x12\x12\x1b\x00\xe0\xb5'
tRp1568
S'363'
p1569
I1
ttRp1570
sVhttp://thumb101.shutterstock.com/display_pic_with_logo/1877789/398470657/stock-vector-faith-hope-love-handwritten-faith-hope-and-love-calligraphy-words-vector-lettering-398470657.jpg
p1571
g3
(g4
g5
(g6
(S'\x07\xe0\x08\x17\x02 #\x0f\r>'
tRp1572
S'333'
p1573
I1
ttRp1574
sVhttp://breadhere.files.wordpress.com/2013/07/i-have-learned-that-faith-means-trusting-in-advance.gif
p1575
g3
(g4
g5
(g6
(S'\x07\xdf\n\x19\x031&\x0c\xafx'
tRp1576
S'53'
p1577
I1
ttRp1578
sVhttp://wp.production.patheos.com/blogs/christiancrier/files/2016/01/Now-faith-is-the-1.jpg
p1579
g3
(g4
g5
(g6
(S'\x07\xe0\x05\x19\t,\x15\x0c\x88\xbb'
tRp1580
S'247'
p1581
I1
ttRp1582
sVhttps://media.licdn.com/mpr/mpr/p/8/005/06f/350/2777a91.jpg
p1583
g3
(g4
g5
(g6
(S'\x07\xe0\n\x06\x05\x1e5\x08x\x0c'
tRp1584
S'107'
p1585
I1
ttRp1586
sVhttp://kqinnerview.com/wp-content/uploads/2009/05/faith.jpg
p1587
g3
(g4
g5
(g6
(S'\x07\xe0\x01\n\x1000\x00\x1e\x99'
tRp1588
S'173'
p1589
I1
ttRp1590
sVhttp://i3.mirror.co.uk/incoming/article4289771.ece/ALTERNATES/s615b/Paloma-Faith.jpg
p1591
g3
(g4
g5
(g6
(S'\x07\xe0\x01\n\x1000\x00\x1eM'
tRp1592
I-1
I1
ttRp1593
sVhttp://www.faithbythesea.com/wp-content/uploads/2014/08/god-faith-and-love-god.jpg
p1594
g3
(g4
g5
(g6
(S'\x07\xdf\x0c\x02\x05 \x03\x073\xa2'
tRp1595
S'17'
p1596
I1
ttRp1597
sVhttp://firstbaptistgv.com/~firstgv/cms-assets/images/964837.daring-faith--page-001.jpg
p1598
g3
(g4
g5
(g6
(S'\x07\xe0\x03\x06\x11;:\x05\xc4\xe2'
tRp1599
S'92'
p1600
I1
ttRp1601
sVhttp://www.brokenbreadclub.com/wp-content/uploads/2015/03/Faith-2.png
p1602
g3
(g4
g5
(g6
(S'\x07\xe0\x04\x1b\n\x050\x03\xd2s'
tRp1603
S'297'
p1604
I1
ttRp1605
sVhttp://reasontostand.org/wp-content/uploads/2010/10/Faith1.jpg
p1606
g3
(g4
g5
(g6
(S'\x07\xe0\x08\x06\x16\x10\x05\x08\xd4\x97'
tRp1607
I-1
I1
ttRp1608
sVhttps://pbs.twimg.com/profile_images/559312026267549696/E5lZOGwi.jpeg
p1609
g3
(g4
g5
(g6
(S'\x07\xe0\x07\x1b\x14\x0e\r\x00ff'
tRp1610
S'444'
p1611
I1
ttRp1612
sVhttp://pastorrick.com/images/default-source/Devotional-Images/12-30-15-daring-faith-grow-slow-and-go-in-faith_mini.jpg?sfvrsn=0
p1613
g3
(g4
g5
(g6
(S'\x07\xe0\n\x1e\x12\x12\x1b\x00\xe0\xf3'
tRp1614
S'470'
p1615
I1
ttRp1616
sVhttps://www.ouranchorholds.com/wp-content/uploads/2015/06/the-eyes-of-faith.jpg
p1617
g3
(g4
g5
(g6
(S'\x07\xe0\x06\x16\n\x15\x19\x0c\x13\x18'
tRp1618
I-1
I1
ttRp1619
sVhttp://divotstudios.com/wp-content/uploads/2013/05/Have-Faith.jpg
p1620
g3
(g4
g5
(g6
(S'\x07\xe0\x08\x1d\x04%:\x08+E'
tRp1621
S'145'
p1622
I2
ttRp1623
sVhttp://www.fggam.org/wp-content/uploads/2014/05/faith-road-wallpaper_1920x1200.jpg
p1624
g3
(g4
g5
(g6
(S'\x07\xe0\x07\x1d\x14\x14\x1a\x04\xdc\x02'
tRp1625
S'7'
I1
ttRp1626
sVhttps://curbsideaudio.files.wordpress.com/2012/02/the-script-science-faith-2600x2600.jpg
p1627
g3
(g4
g5
(g6
(S'\x07\xe0\x01\x18\x10:0\x02F\xd9'
tRp1628
S'184'
p1629
I1
ttRp1630
sVhttp://faith-alliance.org/wp-content/uploads/2015/02/for-we-walk-by-faith.png
p1631
g3
(g4
g5
(g6
(S'\x07\xe0\x08\x17\x02 #\x0f\r:'
tRp1632
I-1
I1
ttRp1633
sVhttp://www.ctkomaha.org/images/stories/parish/0705-tlh-faith.jpg
p1634
g3
(g4
g5
(g6
(S'\x07\xe0\x08\x17\x02 #\x0f\x0c\xfa'
tRp1635
I-1
I1
ttRp1636
sVhttps://d197n5kam3wa4q.cloudfront.net/files/2016/05/01-770x468.jpg
p1637
g3
(g4
g5
(g6
(S'\x07\xe0\x08\x17\x02 #\x0f\x0c\xfe'
tRp1638
S'446'
p1639
I1
ttRp1640
sVhttp://www.eclectablog.com/wp-content/uploads/2015/12/Faith.jpg?19ba4a
p1641
g3
(g4
g5
(g6
(S'\x07\xe0\x04\n\x11\n+\x03\xbb\xcc'
tRp1642
S'268'
p1643
I1
ttRp1644
sVhttps://1.bp.blogspot.com/-rZetrEtwWjY/V62ht029V8I/AAAAAAAAEu8/qF1LpHQaanMb5zMAxyO7eollspyu2CrLgCLcB/s1600/dsk03988_lzn3.jpg
p1645
g3
(g4
g5
(g6
(S'\x07\xe0\n\x06\x05\x1e5\x08v\xd1'
tRp1646
S'488'
p1647
I1
ttRp1648
sVhttp://www.bethanyplace.com/wp-content/uploads/2015/06/faith.jpeg
p1649
g3
(g4
g5
(g6
(S'\x07\xe0\x01\n\x1000\x00\x1e`'
tRp1650
S'41'
p1651
I1
ttRp1652
sVhttps://www.unityontheavenue.org/sites/unityontheavenue.org/files/Faith.jpg
p1653
g3
(g4
g5
(g6
(S'\x07\xe0\x06\n\x0f\x0e#\x05$#'
tRp1654
S'373'
p1655
I1
ttRp1656
sVhttp://dc95wa4w5yhv.cloudfront.net/image-cache/leap-of-faith_724_482_80.jpg
p1657
g3
(g4
g5
(g6
(S'\x07\xe0\x08\x17\x02 #\x0f\x0cd'
tRp1658
S'447'
p1659
I1
ttRp1660
sVhttp://cdn1.theodysseyonline.com/files/2015/12/07/6358505383114254581807877391_faith.jpg
p1661
g3
(g4
g5
(g6
(S'\x07\xdf\x0c\n\x10\x070\r\x83\xd7'
tRp1662
S'126'
p1663
I1
ttRp1664
sVhttp://dy00k1db5oznd.cloudfront.net/wp-content/uploads/2012/01/Wisdom-of-Faith.jpeg
p1665
g3
(g4
g5
(g6
(S'\x07\xe0\n\x06\x05\x1e5\x08w-'
tRp1666
S'408'
p1667
I1
ttRp1668
sVhttp://image.shutterstock.com/z/stock-photo-faith-word-with-shadow-background-with-text-129407426.jpg
p1669
g3
(g4
g5
(g6
(S'\x07\xe0\x04\x1b\n\x050\x03\xd1\xf9'
tRp1670
I-1
I1
ttRp1671
sVhttp://www.the-faith.com/wp-content/uploads/2013/05/Ascending-the-Stairs-of-Faith-Part-11.jpg
p1672
g3
(g4
g5
(g6
(S'\x07\xe0\x08\x1d\x04%:\x08*z'
tRp1673
S'2'
I1
ttRp1674
sVhttp://www.oztorah.com/wp-content/uploads/2012/05/Faith.jpg
p1675
g3
(g4
g5
(g6
(S'\x07\xe0\x04\x1b\n\x050\x03\xd2\x11'
tRp1676
S'33'
p1677
I1
ttRp1678
sVhttps://faithbellairemain.files.wordpress.com/2014/06/men-of-faith-graphic.jpg
p1679
g3
(g4
g5
(g6
(S'\x07\xe0\n\x1e\x12\x12\x1b\x00\xe0\x90'
tRp1680
S'135'
p1681
I1
ttRp1682
sVhttp://refe99.com/wp-content/uploads/2014/08/Have-faith-in-what-will-be.jpg
p1683
g3
(g4
g5
(g6
(S'\x07\xe0\x06\x06\r\x1b\t\x0c\xc3\xe1'
tRp1684
S'344'
p1685
I1
ttRp1686
sVhttps://az616578.vo.msecnd.net/files/2016/02/15/635911573227410521-1059335216_faith.jpg
p1687
g3
(g4
g5
(g6
(S'\x07\xe0\x05\x16\x14\n)\x03ng'
tRp1688
S'355'
p1689
I1
ttRp1690
sVhttps://quitday.org/wp-content/uploads/2015/06/faith-and-addiction.jpg
p1691
g3
(g4
g5
(g6
(S'\x07\xe0\n\x1e\x12\x12\x1b\x00\xe0\xc7'
tRp1692
I-1
I1
ttRp1693
sVhttp://hogonline.org/wp-content/uploads/2015/03/faith-bible-verses.jpg
p1694
g3
(g4
g5
(g6
(S'\x07\xe0\t\x1c\x04,\x05\x06m\xed'
tRp1695
S'466'
p1696
I1
ttRp1697
sVhttp://www.fccga.com/images/fcc_bg_sized_3.jpg
p1698
g3
(g4
g5
(g6
(S'\x07\xe0\x01\x14\x109\x00\x03,]'
tRp1699
S'195'
p1700
I1
ttRp1701
sVhttps://www.jacobabshire.com/wp-content/uploads/2015/02/faith-header.jpg
p1702
g3
(g4
g5
(g6
(S'\x07\xe0\x02\x1b\x115\x0b\x0f\x14\xfc'
tRp1703
I-1
I1
ttRp1704
sVhttp://www.ladiesliveandlearn.com/wp-content/uploads/2014/10/faithIttillYoumakeitfinal.jpg
p1705
g3
(g4
g5
(g6
(S'\x07\xe0\x08\x1d\x04%:\x08*\xe0'
tRp1706
S'411'
p1707
I1
ttRp1708
sVhttp://blog.evastarr.com/wp-content/uploads/2016/04/faith-is.jpg
p1709
g3
(g4
g5
(g6
(S'\x07\xe0\x07\x06\x10\x02\x18\x027\x18'
tRp1710
S'422'
p1711
I1
ttRp1712
sVhttp://www.fondef.com/Faith%20of%20Christ.jpg
p1713
g3
(g4
g5
(g6
(S'\x07\xdf\x0b\x15\x04\x08$\x01A%'
tRp1714
S'76'
p1715
I1
ttRp1716
sVhttp://amusicblogyea.com/wp-content/uploads/2014/03/Faith-logo.jpg
p1717
g3
(g4
g5
(g6
(S"\x07\xdf\x0c\x1f\x10'\x17\x020\x13"
tRp1718
S'28'
p1719
I1
ttRp1720
sVhttp://criticallychristian.com/wp-content/uploads/2015/03/faith-road-wallpaper_1920x1200.jpg
p1721
g3
(g4
g5
(g6
(S'\x07\xe0\x02\x01\x11\x01%\x06\xc2\x03'
tRp1722
S'157'
p1723
I1
ttRp1724
sVhttp://www.lovethispic.com/uploaded_images/78185-Faith-.jpg
p1725
g3
(g4
g5
(g6
(S'\x07\xe0\x08\x17\x02 #\x0f\x0c\xc7'
tRp1726
S'111'
p1727
I1
ttRp1728
sVhttp://mariashriver.com/wp-content/uploads/2013/11/Faith-855x1024.jpg?bd3f04
p1729
g3
(g4
g5
(g6
(S'\x07\xe0\x04\x1b\n\x050\x03\xd2\x8f'
tRp1730
S'83'
p1731
I1
ttRp1732
sVhttp://www.benziestandrews.com/wp-content/uploads/2015/01/faith-road-sign-with-dramatic-clouds-and-sky.jpg
p1733
g3
(g4
g5
(g6
(S'\x07\xdf\x0c\x02\x05 \x03\x073\xe5'
tRp1734
S'80'
p1735
I1
ttRp1736
sVhttp://image.shutterstock.com/display_pic_with_logo/1877789/398470657/stock-vector-faith-hope-love-handwritten-faith-hope-and-love-calligraphy-words-vector-lettering-398470657.jpg
p1737
g3
(g4
g5
(g6
(S'\x07\xe0\x08\x17\x02 #\x0f\x0c\xf2'
tRp1738
S'450'
p1739
I1
ttRp1740
sVhttp://media.salemwebnetwork.com/cms/CROSSCARDS/24473-faith-iphone-4-640-960.jpg
p1741
g3
(g4
g5
(g6
(S'\x07\xe0\t\x1e\x0431\r\x8ew'
tRp1742
S'430'
p1743
I1
ttRp1744
sVhttp://kimbooth.com/wp-content/uploads/2013/12/Mandy7txt.jpg
p1745
g3
(g4
g5
(g6
(S'\x07\xe0\x06\x13\x0f\x0c\x1b\x0e\xd5\x9b'
tRp1746
S'124'
p1747
I1
ttRp1748
sVhttp://media.salemwebnetwork.com/cms/CW/faith/14210-rainbow-horizon-sky-clouds-wide.1200w.tn.jpg
p1749
g3
(g4
g5
(g6
(S'\x07\xe0\x06\n\x0f\x0e#\x05$\xb4'
tRp1750
S'284'
p1751
I1
ttRp1752
sVhttp://rickwarren.org/images/default-source/Devotional-Images/05-11-15-gods-dream-for-your-life-faith-is-not-denying-reality_mini.jpg?sfvrsn=0
p1753
g3
(g4
g5
(g6
(S'\x07\xe0\x01\n\x1000\x00\x1e\xea'
tRp1754
I-1
I1
ttRp1755
sVhttps://cdn.thewatershed.com/wp-content/uploads/2013/07/KEEP-CALM-AND-HAVE-FAITH-07-08-2013.jpg
p1756
g3
(g4
g5
(g6
(S'\x07\xe0\x04\x1b\n\x050\x03\xd2\xd7'
tRp1757
S'15'
p1758
I1
ttRp1759
sVhttps://saddleback.com/downloadshareable?url=http%3A%2F%2Fs3-us-west-1.amazonaws.com%2Fsb-web%2Fsaddleback.com%2Fshareables%2Fdaring-faith%2Fwallpaper%2FDesktop.jpg
p1760
g3
(g4
g5
(g6
(S'\x07\xe0\t\x1c\x04,\x05\x06p\xcf'
tRp1761
S'139'
p1762
I1
ttRp1763
sVhttp://az616578.vo.msecnd.net/files/2016/05/25/6359981145545653421668612543_faith-header.jpg
p1764
g3
(g4
g5
(g6
(S'\x07\xe0\t\x1e\x0431\r\x8e\xac'
tRp1765
S'468'
p1766
I1
ttRp1767
sVhttps://i.ytimg.com/vi/4DiFEkUqFNM/maxresdefault.jpg
p1768
g3
(g4
g5
(g6
(S'\x07\xe0\x04\x1b\n\x050\x03\xd2\xea'
tRp1769
S'301'
p1770
I1
ttRp1771
sVhttp://marshallan.org/wp-content/uploads/2015/06/faith.jpg
p1772
g3
(g4
g5
(g6
(S'\x07\xe0\x03\x19\t:-\x07\x918'
tRp1773
S'232'
p1774
I1
ttRp1775
sVhttp://faithtofaithless.com/wp-content/uploads/2015/12/Logo-skinny-01.png
p1776
g3
(g4
g5
(g6
(S'\x07\xe0\x06\x06\r\x1b\t\x0c\xc4\xa2'
tRp1777
S'254'
p1778
I1
ttRp1779
sVhttp://media.salemwebnetwork.com/cms/CW/faith/12029-pray-candles-dark.1200w.tn.jpg
p1780
g3
(g4
g5
(g6
(S'\x07\xe0\x04\n\x11\n+\x03\xbbL'
tRp1781
S'275'
p1782
I1
ttRp1783
sVhttp://www.youngandcatholicng.com/wp-content/uploads/2015/10/quotes-faith-2.jpg
p1784
g3
(g4
g5
(g6
(S'\x07\xe0\x05\x19\t,\x15\x0c\x88\x07'
tRp1785
S'338'
p1786
I1
ttRp1787
sVhttps://s-media-cache-ak0.pinimg.com/736x/a2/c3/83/a2c3839c4105cad26b7dcbb51695f791.jpg
p1788
g3
(g4
g5
(g6
(S'\x07\xe0\n\x06\x05\x1e5\x08v\xc9'
tRp1789
NI1
ttRp1790
sVhttp://i.huffpost.com/gen/2674070/images/o-LEAP-OF-FAITH-facebook.jpg
p1791
g3
(g4
g5
(g6
(S'\x07\xe0\t\x1c\x04,\x05\x06nI'
tRp1792
S'412'
p1793
I1
ttRp1794
sVhttp://www.t411.com/wp-content/uploads/2012/12/faith-cover.jpg
p1795
g3
(g4
g5
(g6
(S'\x07\xe0\x04\x1b\n\x050\x03\xd2\x8b'
tRp1796
S'300'
p1797
I1
ttRp1798
sVhttp://uscenergyclub.com/wp-content/uploads/2015/12/faith-clip-art.jpg
p1799
g3
(g4
g5
(g6
(S'\x07\xe0\x01\x18\x10:0\x02F\x13'
tRp1800
I-1
I1
ttRp1801
sVhttp://www.stjoevan.org/wp-content/uploads/2013/01/St-Joseph-Family-Faith-Form.png
p1802
g3
(g4
g5
(g6
(S'\x07\xe0\n\x06\x05\x1e5\x08w\x13'
tRp1803
S'487'
p1804
I1
ttRp1805
sVhttp://www.relatably.com/q/img/best-bible-verses-faith/bible-verses-about-faith-07.jpg
p1806
g3
(g4
g5
(g6
(S'\x07\xe0\x05\x10\x10\x1c3\x00\xca\xc6'
tRp1807
I-1
I1
ttRp1808
sVhttp://www.fccwa.org/uploads/2/5/2/6/25263998/805150_orig.jpg
p1809
g3
(g4
g5
(g6
(S'\x07\xe0\x07\x1d\x14\x14\x1a\x04\xdb\x8b'
tRp1810
S'25'
p1811
I1
ttRp1812
sVhttp://az616578.vo.msecnd.net/files/2016/01/10/635879847192532785295859107_Bible%20Statement%20of%20Faith.001.jpg
p1813
g3
(g4
g5
(g6
(S'\x07\xe0\x08\x1d\x04%:\x08*\xc4'
tRp1814
S'395'
p1815
I1
ttRp1816
sVhttps://bobbymcpeel.files.wordpress.com/2012/12/you-gotta-have-faith.jpg?w=917
p1817
g3
(g4
g5
(g6
(S'\x07\xe0\n\x06\x05\x1e5\x08wq'
tRp1818
S'155'
p1819
I1
ttRp1820
sVhttp://www.ecumenicon.org/wp-content/uploads/2015/07/faith.jpg
p1821
g3
(g4
g5
(g6
(S'\x07\xe0\x04\x1b\n\x050\x03\xd2i'
tRp1822
S'244'
p1823
I1
ttRp1824
sVhttps://revcathie.files.wordpress.com/2016/04/faith_1.jpg
p1825
g3
(g4
g5
(g6
(S"\x07\xe0\x06\x06\r\x1b\t\x0c\xc4'"
tRp1826
S'331'
p1827
I1
ttRp1828
sVhttp://www.sarahfrench.org/wp-content/uploads/2014/07/faith-poster-2.jpg
p1829
g3
(g4
g5
(g6
(S'\x07\xe0\t\x1e\x0431\r\x8dT'
tRp1830
S'368'
p1831
I1
ttRp1832
sVhttps://agingcapriciously.files.wordpress.com/2015/03/faith_hope_love.jpg
p1833
g3
(g4
g5
(g6
(S'\x07\xe0\x04\x1b\n\x050\x03\xd2w'
tRp1834
S'11'
p1835
I1
ttRp1836
sVhttp://www.therightsideofnormal.com/wp-content/uploads/2013/02/leap-of-faith.jpg
p1837
g3
(g4
g5
(g6
(S'\x07\xe0\x06\n\x0f\x0e#\x05$_'
tRp1838
I-1
I1
ttRp1839
sVhttps://lanilea.files.wordpress.com/2015/08/faith.jpg
p1840
g3
(g4
g5
(g6
(S'\x07\xe0\x01\x14\x109\x00\x03,\xbb'
tRp1841
S'23'
p1842
I1
ttRp1843
sVhttp://www.theultimatequotes.com/wp-content/uploads/Stand-In-Faith.jpg
p1844
g3
(g4
g5
(g6
(S'\x07\xdf\x0c\x02\x05 \x03\x073\xd5'
tRp1845
I-1
I1
ttRp1846
sVhttp://www.faithringgold.com/ringgold/images/faith_1993.jpg
p1847
g3
(g4
g5
(g6
(S'\x07\xe0\x06\x16\n\x15\x19\x0c\x13~'
tRp1848
S'208'
p1849
I1
ttRp1850
sVhttp://fresh-tattoos.com/wp-content/uploads/images/faith-wrist-tattoo-design-2.jpg
p1851
g3
(g4
g5
(g6
(S'\x07\xe0\n\x06\x05\x1e5\x08w\xda'
tRp1852
I-1
I1
ttRp1853
sVhttp://images.brits.co.uk/images/Paloma%20Faith_Thumbnail_576_16911_id16911__ar16x9__thumb_940_528.jpg
p1854
g3
(g4
g5
(g6
(S'\x07\xe0\n\x06\x05\x1e5\x08w '
tRp1855
S'426'
p1856
I1
ttRp1857
sVhttp://media.salemwebnetwork.com/cms/CW/30094-candles.1200w.tn.jpg
p1858
g3
(g4
g5
(g6
(S'\x07\xe0\x07\x13\x0b\x119\x03\xa9)'
tRp1859
S'437'
p1860
I2
ttRp1861
sVhttps://s-media-cache-ak0.pinimg.com/736x/27/8d/bd/278dbda8d6e65e6525bfb4800bd57d09.jpg
p1862
g3
(g4
g5
(g6
(S'\x07\xe0\x06\x06\r\x1b\t\x0c\xc4\x99'
tRp1863
S'341'
p1864
I1
ttRp1865
sVhttp://img08.deviantart.net/4443/i/2013/061/4/2/faith_is_by_kevron2001-d5wqkyt.jpg
p1866
g3
(g4
g5
(g6
(S'\x07\xe0\x06\r\x0c0&\n\xf7\xb1'
tRp1867
S'91'
p1868
I1
ttRp1869
sVhttp://media.beliefnet.com/~/media/photos-with-attribution/faith/001/faithbackgroundcrossjpg.jpg
p1870
g3
(g4
g5
(g6
(S'\x07\xe0\n\x1e\x12\x12\x1b\x00\xe0\xe1'
tRp1871
S'471'
p1872
I1
ttRp1873
sVhttp://cdn.paper4pc.com/images/faith-typography-a-day-to-remember-wallpaper-1.jpg
p1874
g3
(g4
g5
(g6
(S'\x07\xe0\x02\x1b\x115\x0b\x0f\x15N'
tRp1875
S'222'
p1876
I1
ttRp1877
sVhttp://www.cruxnow.com/wp-content/uploads/2016/03/Faith.jpg
p1878
g3
(g4
g5
(g6
(S'\x07\xe0\x06\x06\r\x1b\t\x0c\xc4Y'
tRp1879
S'357'
p1880
I1
ttRp1881
sVhttp://www.quotesvalley.com/images/66/faith-does-not-make-things-easy.jpg
p1882
g3
(g4
g5
(g6
(S'\x07\xe0\x03\x06\x11;:\x05\xc4\xd8'
tRp1883
S'74'
p1884
I2
ttRp1885
sVhttps://s-media-cache-ak0.pinimg.com/736x/7b/ed/0d/7bed0d95462f61a11793aafc63b9563c.jpg
p1886
g3
(g4
g5
(g6
(S'\x07\xe0\x06\x13\x0f\x0c\x1b\x0e\xd5o'
tRp1887
S'165'
p1888
I1
ttRp1889
sVhttps://needencouragement.com/wp-content/uploads/2016/02/Bible-Verses-On-Faith-Isaiah-40-31.jpg
p1890
g3
(g4
g5
(g6
(S'\x07\xe0\x06\n\x0f\x0e#\x05$\xdc'
tRp1891
S'397'
p1892
I1
ttRp1893
sVhttps://pbs.twimg.com/profile_images/572744710532243456/13TNVAZa.jpeg
p1894
g3
(g4
g5
(g6
(S'\x07\xe0\n\x06\x05\x1e5\x08v\x95'
tRp1895
S'103'
p1896
I1
ttRp1897
sVhttp://cdn.theatlantic.com/assets/media/img/mt/2015/06/Evolution_1/lead_960.jpg?1434728676
p1898
g3
(g4
g5
(g6
(S'\x07\xe0\x04\n\x11\n+\x03\xba\xe0'
tRp1899
S'105'
p1900
I1
ttRp1901
sVhttp://www.beliefnet.com/~/media/8F20CC7D547A452B8EFD7B0DB9E2D2AD.ashx?db=master&20150805T1401265443
p1902
g3
(g4
g5
(g6
(S"\x07\xe0\x05\x07\x15\x1e!\x08'\x84"
tRp1903
S'18'
p1904
I1
ttRp1905
sVhttp://az616578.vo.msecnd.net/files/2016/04/28/6359747720990757411223660402_Leap.jpg
p1906
g3
(g4
g5
(g6
(S'\x07\xe0\x07\x06\x10\x02\x18\x026\x1e'
tRp1907
S'417'
p1908
I1
ttRp1909
sVhttp://thumbs.dreamstime.com/z/faith-word-inside-love-cloud-blue-sky-heart-shape-background-46715153.jpg
p1910
g3
(g4
g5
(g6
(S'\x07\xe0\x04\x1b\n\x050\x03\xd1\xe2'
tRp1911
S'307'
p1912
I1
ttRp1913
sVhttp://blogs.swa-jkt.com/swa/11221/files/2014/03/faith-1.jpg
p1914
g3
(g4
g5
(g6
(S'\x07\xdf\x0b\x15\x04\x08$\x01@\xb5'
tRp1915
I-1
I1
ttRp1916
sVhttps://s-media-cache-ak0.pinimg.com/736x/9d/fe/7d/9dfe7d35b99aa0123220fdac629a43d3.jpg
p1917
g3
(g4
g5
(g6
(S'\x07\xe0\x07\x13\x0b\x119\x03\xa9:'
tRp1918
S'285'
p1919
I1
ttRp1920
sVhttps://faithgift.files.wordpress.com/2014/12/faith2.jpg
p1921
g3
(g4
g5
(g6
(S'\x07\xdf\x0b\x18\x04\x0c\x1e\t\x91\xc6'
tRp1922
S'60'
p1923
I1
ttRp1924
sVhttp://www.thequotepedia.com/images/13/always-believe-in-god-because-there-are-some-questions-that-even-google-cant-answer-faith-quotes.jpg
p1925
g3
(g4
g5
(g6
(S'\x07\xe0\x06\r\x0c0&\n\xf6\x8b'
tRp1926
S'379'
p1927
I1
ttRp1928
sVhttps://i.ytimg.com/vi/_rBn4wI7w20/maxresdefault.jpg
p1929
g3
(g4
g5
(g6
(S'\x07\xe0\x04\x1b\n\x050\x03\xd2\x1a'
tRp1930
S'295'
p1931
I1
ttRp1932
sVhttp://faith.burning-games.com/wp-content/uploads/2014/12/faith-rpg-playing-cards-smart-clothes-x1.jpg
p1933
g3
(g4
g5
(g6
(S'\x07\xe0\n\x06\x05\x1e5\x08w\xd5'
tRp1934
S'475'
p1935
I1
ttRp1936
sVhttp://www.brainyquote.com/photos/s/saintaugustine121380.jpg
p1937
g3
(g4
g5
(g6
(S'\x07\xe0\x08\x10\x16\x15\n\x08\x93V'
tRp1938
I-1
I1
ttRp1939
sVhttp://i.huffpost.com/gen/2674070/images/n-LEAP-OF-FAITH-628x314.jpg
p1940
g3
(g4
g5
(g6
(S'\x07\xe0\x08\x10\x16\x15\n\x08\x92\xe2'
tRp1941
S'364'
p1942
I1
ttRp1943
sVhttp://www.fccga.com/images/bg_FCC_VisionSunday.jpg
p1944
g3
(g4
g5
(g6
(S'\x07\xe0\x02\x15\x1149\x05\xa77'
tRp1945
S'138'
p1946
I1
ttRp1947
sVhttp://rickwarren.org/images/default-source/Devotional-Images/12-27-15-daring-faith-your-faith-can-move-mountains_mini.jpg?sfvrsn=0
p1948
g3
(g4
g5
(g6
(S'\x07\xe0\x07\x1b\x14\x0e\r\x00e\xd0'
tRp1949
S'243'
p1950
I1
ttRp1951
sVhttp://www.ten2two.org/wp-content/uploads/2015/10/leap_of_faith.jpg
p1952
g3
(g4
g5
(g6
(S'\x07\xe0\x02\x15\x1149\x05\xa7 '
tRp1953
I-1
I1
ttRp1954
sVhttp://media.beliefnet.com/~/media/photos-with-attribution/faith/001/faithbackgroundcrossjpg.jpg?h=318
p1955
g3
(g4
g5
(g6
(S'\x07\xe0\x08\x17\x02 #\x0f\x0c\xd0'
tRp1956
S'416'
p1957
I1
ttRp1958
sVhttp://www.2catsandchloe.com/wp-content/uploads/2015/04/SMS-you-of-little-faith.jpg
p1959
g3
(g4
g5
(g6
(S'\x07\xe0\x08\x1d\x04%:\x08*\xb7'
tRp1960
S'459'
p1961
I1
ttRp1962
sVhttp://thumb101.shutterstock.com/display_pic_with_logo/1877789/386215717/stock-photo-word-faith-painted-calligraphy-word-faith-faith-modern-handwriting-386215717.jpg
p1963
g3
(g4
g5
(g6
(S'\x07\xe0\x08\x17\x02 #\x0f\x0cj'
tRp1964
S'361'
p1965
I1
ttRp1966
sVhttps://crazyicecube.files.wordpress.com/2012/11/faith-road-sign1.jpg
p1967
g3
(g4
g5
(g6
(S'\x07\xe0\x08\x1d\x04%:\x08*\xcc'
tRp1968
S'196'
p1969
I1
ttRp1970
sVhttps://s-media-cache-ak0.pinimg.com/564x/de/71/b5/de71b5af3cfba9d18c966e9ed3d00eba.jpg
p1971
g3
(g4
g5
(g6
(S'\x07\xe0\t\x1e\x0431\r\x8d\xdd'
tRp1972
S'473'
p1973
I1
ttRp1974
sVhttp://cdn.mos.musicradar.com/images/acoustic-expo/Booth%20logos/Faith-cropped-460-100-970-80.jpg
p1975
g3
(g4
g5
(g6
(S'\x07\xe0\x06\x1a\x13+\x05\x0b\xea+'
tRp1976
S'438'
p1977
I1
ttRp1978
sVhttp://www.faithbythesea.com/wp-content/uploads/2014/08/faith.jpg
p1979
g3
(g4
g5
(g6
(S'\x07\xe0\x03\x04\x117\x07\x00\xc0\x13'
tRp1980
S'235'
p1981
I1
ttRp1982
sVhttp://az616578.vo.msecnd.net/files/2016/07/29/636054230143946177-1988805999_7bed0d95462f61a11793aafc63b9563c.jpg
p1983
g3
(g4
g5
(g6
(S'\x07\xe0\n\x06\x05\x1e5\x08w\xac'
tRp1984
S'469'
p1985
I1
ttRp1986
sVhttp://www.feastoftheheart.org/wp-content/uploads/2013/10/1920x1440-faith-desktop-wallpaper.jpg
p1987
g3
(g4
g5
(g6
(S'\x07\xe0\x01\x18\x10:0\x02F '
tRp1988
S'211'
p1989
I1
ttRp1990
sVhttps://s-media-cache-ak0.pinimg.com/736x/bc/52/ad/bc52ad237f8b77a162c6ed511e13afbf.jpg
p1991
g3
(g4
g5
(g6
(S'\x07\xe0\x04\n\x11\n+\x03\xbbe'
tRp1992
S'266'
p1993
I1
ttRp1994
sVhttps://s-media-cache-ak0.pinimg.com/736x/bb/c8/a0/bbc8a09f15f55e89444cd08873bcb78c.jpg
p1995
g3
(g4
g5
(g6
(S'\x07\xe0\x04\n\x11\n+\x03\xbbr'
tRp1996
S'106'
p1997
I1
ttRp1998
sVhttp://thehealingandrestingplace.org/wp-content/uploads/2016/01/the-eyes-of-faith.jpg
p1999
g3
(g4
g5
(g6
(S'\x07\xe0\x03\x15\x02\x1c\x05\x0e\xef$'
tRp2000
I-1
I1
ttRp2001
sVhttps://s-media-cache-ak0.pinimg.com/736x/61/f0/20/61f020f8546a6d2abc5d9b615d8f0e4a.jpg
p2002
g3
(g4
g5
(g6
(S'\x07\xe0\x01\n\x1000\x00\x1e\xc2'
tRp2003
S'101'
p2004
I1
ttRp2005
sVhttp://valiantuniverse.com/wp-content/uploads/2015/09/FAITH_001_COVER-A_DJURDJEVIC-640x984.jpg
p2006
g3
(g4
g5
(g6
(S'\x07\xe0\n\x06\x05\x1e5\x08w\xe5'
tRp2007
S'273'
p2008
I2
ttRp2009
sVhttp://static1.squarespace.com/static/52926f9ce4b07e0dd5b7c5a7/t/5334149fe4b09fffc70ce69e/1395922081728/Faith
p2010
g3
(g4
g5
(g6
(S'\x07\xe0\x07\x13\x0b\x119\x03\xa9\x10'
tRp2011
S'163'
p2012
I1
ttRp2013
sVhttp://www.entrepreneurs-are-online.com/availablehelp/images/62093/Pastor-Steves-Blog_Got-Faith.jpg
p2014
g3
(g4
g5
(g6
(S'\x07\xe0\x08\x1d\x04%:\x08+4'
tRp2015
S'385'
p2016
I1
ttRp2017
sVhttps://sevencitys.files.wordpress.com/2011/07/good-faith.jpg
p2018
g3
(g4
g5
(g6
(S'\x07\xe0\x08\x1d\x04%:\x08+<'
tRp2019
S'225'
p2020
I1
ttRp2021
sVhttp://www.ldssmile.com/wp-content/uploads/2013/12/faith2.jpg
p2022
g3
(g4
g5
(g6
(S'\x07\xe0\x07\x1d\x14\x14\x1a\x04\xdc"'
tRp2023
I-1
I1
ttRp2024
sVhttp://livingonloveandcents.com/wp-content/uploads/when-faith-is-not-easy1.jpg1_.jpg
p2025
g3
(g4
g5
(g6
(S'\x07\xe0\x08\x1d\x04%:\x08*\xfa'
tRp2026
S'391'
p2027
I1
ttRp2028
sVhttps://s-media-cache-ak0.pinimg.com/736x/b4/b9/7f/b4b97fdb401d94f18d7fba6a35e8f96f.jpg
p2029
g3
(g4
g5
(g6
(S'\x07\xe0\x06\n\x0f\x0e#\x05#\xf8'
tRp2030
S'274'
p2031
I1
ttRp2032
sVhttp://smartandrelentless.com/wp-content/uploads/2015/12/Red-Sea.jpg
p2033
g3
(g4
g5
(g6
(S'\x07\xe0\x04\x1b\n\x050\x03\xd2\x02'
tRp2034
I-1
I1
ttRp2035
sVhttp://authorjodiwoody.com/wp-content/uploads/2015/01/58061-Stand-In-Faith1.jpg
p2036
g3
(g4
g5
(g6
(S'\x07\xdf\x0b\t\x039\x17\x05K\xd5'
tRp2037
S'30'
p2038
I1
ttRp2039
sVhttps://pixabay.com/static/uploads/photo/2015/06/12/09/24/clouds-806639_960_720.jpg
p2040
g3
(g4
g5
(g6
(S'\x07\xe0\t\x1e\x0431\r\x8d{'
tRp2041
S'236'
p2042
I1
ttRp2043
sVhttp://www.carolinabaptist.org/wp-content/uploads/2014/02/Christian-Faith_t_ws.jpg
p2044
g3
(g4
g5
(g6
(S'\x07\xe0\x01\x18\x10:0\x02F='
tRp2045
S'197'
p2046
I1
ttRp2047
sVhttp://ontheroadtohealing.org.uk/wp-content/uploads/2013/08/Faith-in-God.jpg
p2048
g3
(g4
g5
(g6
(S'\x07\xe0\x06\x06\r\x1b\t\x0c\xc4y'
tRp2049
I-1
I1
ttRp2050
sVhttps://pixabay.com/static/uploads/photo/2014/09/11/04/38/faith-441401_640.jpg
p2051
g3
(g4
g5
(g6
(S'\x07\xe0\x08\x17\x02 #\x0f\x0cP'
tRp2052
S'77'
p2053
I1
ttRp2054
sVhttp://cdn.oxwordsblog.wpfuel.co.uk/wpcms/wp-content/uploads/Leap-of-faith.jpg
p2055
g3
(g4
g5
(g6
(S'\x07\xdf\x0c\x02\x05 \x03\x073\x8a'
tRp2056
S'13'
p2057
I1
ttRp2058
sVhttp://images6.fanpop.com/image/photos/34100000/Faith-Breathe-faith-hill-34117881-3032-3028.jpg
p2059
g3
(g4
g5
(g6
(S'\x07\xe0\x01\x18\x10:0\x02FZ'
tRp2060
I-1
I1
ttRp2061
sVhttp://cdn.shopify.com/s/files/1/0000/7796/products/dark_faith_frontcvra_1024x1024.jpg?v=1262187683
p2062
g3
(g4
g5
(g6
(S'\x07\xe0\x04\n\x11\n+\x03\xbb%'
tRp2063
S'276'
p2064
I1
ttRp2065
sVhttps://pbs.twimg.com/profile_images/1215166812/faith.jpg
p2066
g3
(g4
g5
(g6
(S'\x07\xe0\x05\x19\t,\x15\x0c\x88A'
tRp2067
S'8'
I1
ttRp2068
sVhttp://www.lavendermagazine.com/wp-content/uploads/2011/10/faith.jpg
p2069
g3
(g4
g5
(g6
(S'\x07\xe0\x08\x17\x02 #\x0f\x0c\x9b'
tRp2070
I-1
I1
ttRp2071
sVhttp://fwcchurches.com/wp-content/uploads/2012/09/Pastor-Steves-Blog_Got-Faith.jpg
p2072
g3
(g4
g5
(g6
(S'\x07\xe0\x04\x02\x107\x14\nJ\xc6'
tRp2073
S'129'
p2074
I1
ttRp2075
sVhttp://www.trbimg.com/img-555552f2/turbine/la-ca-ms-faith-no-more-bottum-gould-20150517
p2076
g3
(g4
g5
(g6
(S'\x07\xe0\x04\x10\x15\t/\x01\x15\xaa'
tRp2077
S'321'
p2078
I1
ttRp2079
sVhttp://previews.123rf.com/images/feverpitched/feverpitched1007/feverpitched100700069/7374838-Faith-Hope-and-Love-Green-Road-Sign-with-Dramatic-Clouds-Sun-Rays-and-Sky--Stock-Photo.jpg
p2080
g3
(g4
g5
(g6
(S'\x07\xe0\x04\x10\x15\t/\x01\x154'
tRp2081
S'317'
p2082
I1
ttRp2083
sVhttp://www.mikechurch.com/wp-content/uploads/2016/01/Faith-script.jpg
p2084
g3
(g4
g5
(g6
(S'\x07\xe0\x08\x10\x16\x15\n\x08\x94\x1f'
tRp2085
S'351'
p2086
I1
ttRp2087
sVhttp://upload2.evocdn.co.uk/faith/uploads/home_header/3_50_h.jpg
p2088
g3
(g4
g5
(g6
(S'\x07\xe0\n\x06\x05\x1e5\x08w\xc0'
tRp2089
S'423'
p2090
I1
ttRp2091
sVhttps://s-media-cache-ak0.pinimg.com/736x/cf/6f/52/cf6f52ea4ddd753192899dcdfbdc9864.jpg
p2092
g3
(g4
g5
(g6
(S'\x07\xe0\x06\n\x0f\x0e#\x05$x'
tRp2093
S'283'
p2094
I1
ttRp2095
sVhttp://dailyfreedom.com/wp-content/uploads/2012/01/fear-or-faith.jpg
p2096
g3
(g4
g5
(g6
(S'\x07\xe0\x05\x19\t,\x15\x0c\x88~'
tRp2097
S'336'
p2098
I1
ttRp2099
sVhttps://consequenceofsound.files.wordpress.com/2015/01/unnamed-5.jpg
p2100
g3
(g4
g5
(g6
(S'\x07\xe0\x01\x18\x10:0\x02E\xfc'
tRp2101
S'191'
p2102
I1
ttRp2103
sVhttps://encourageandteach.files.wordpress.com/2015/06/father-and-son.jpg
p2104
g3
(g4
g5
(g6
(S'\x07\xe0\t\x1c\x04,\x05\x06p\x19'
tRp2105
S'388'
p2106
I1
ttRp2107
sVhttps://d13yacurqjgara.cloudfront.net/users/334869/screenshots/1190858/have-faith.jpg
p2108
g3
(g4
g5
(g6
(S'\x07\xe0\t\x1e\x0431\r\x8eK'
tRp2109
S'117'
p2110
I1
ttRp2111
sVhttp://bendcitychurch.org/wp-content/uploads/2013/04/by-faith.jpg
p2112
g3
(g4
g5
(g6
(S'\x07\xe0\x01\n\x1000\x00\x1e\x96'
tRp2113
S'71'
p2114
I1
ttRp2115
sVhttps://walklikejesus.files.wordpress.com/2015/02/have-faith1.jpg
p2116
g3
(g4
g5
(g6
(S'\x07\xe0\x01\x14\x109\x00\x03,\x82'
tRp2117
S'152'
p2118
I1
ttRp2119
sVhttps://s-media-cache-ak0.pinimg.com/736x/56/de/9f/56de9fa6d71b924a4cf9d6726d332fe0.jpg
p2120
g3
(g4
g5
(g6
(S'\x07\xe0\x07\x13\x0b\x119\x03\xa9\t'
tRp2121
S'348'
p2122
I1
ttRp2123
sVhttp://1.bp.blogspot.com/-MWMo05O8SeA/UPAeOHQ-rnI/AAAAAAAAA-8/6aCjKa5D1Io/s1600/header.png
p2124
g3
(g4
g5
(g6
(S'\x07\xe0\n\x06\x05\x1e5\x08w\xea'
tRp2125
S'120'
p2126
I1
ttRp2127
sVhttp://image.desiringgod.org/our-eyes-are-a-parable-about-faith-en/landscape/large_our-eyes-are-a-parable-about-faith.jpg?1452810375
p2128
g3
(g4
g5
(g6
(S'\x07\xe0\x07\x02\x0f\x05:\x0c\x1fr'
tRp2129
I-1
I1
ttRp2130
sVhttp://www.rileypippen.org/wp-content/uploads/2016/01/leap-of-faith-quote.png
p2131
g3
(g4
g5
(g6
(S'\x07\xe0\x04\x02\x107\x14\nK\x06'
tRp2132
S'224'
p2133
I1
ttRp2134
sVhttp://media.salemwebnetwork.com/ecards/quotes/faith-oswald-chambers-550x320.jpg
p2135
g3
(g4
g5
(g6
(S'\x07\xdf\n\x19\x031&\x0c\xae\xfa'
tRp2136
S'52'
p2137
I1
ttRp2138
sVhttp://quotesideas.com/wp-content/uploads/2015/01/faith-quote-on-wallpaper-hd.jpg
p2139
g3
(g4
g5
(g6
(S'\x07\xe0\x07\x06\x10\x02\x18\x026\x8b'
tRp2140
I-1
I1
ttRp2141
sVhttp://www.beliefnet.com/~/media/E663E43DF5D34F9EA6EDEB3FEF0EDFB3.ashx
p2142
g3
(g4
g5
(g6
(S'\x07\xe0\x05\x05\x13,&\x0b\xee\xd4'
tRp2143
S'277'
p2144
I1
ttRp2145
sVhttp://www.gtopaoc.org/wp-content/uploads/2016/06/Wirhout-Faith.jpg
p2146
g3
(g4
g5
(g6
(S'\x07\xe0\t\x1e\x0431\r\x8e\x87'
tRp2147
S'406'
p2148
I1
ttRp2149
sVhttp://brotherword.org/wp-content/uploads/2014/03/BrotherWord-Motivational-Monday1.jpg
p2150
g3
(g4
g5
(g6
(S'\x07\xe0\x08\x17\x02 #\x0f\x0c\xed'
tRp2151
S'252'
p2152
I2
ttRp2153
sVhttp://cdn1.theodysseyonline.com/files/2016/02/15/635911573227410521-1059335216_faith.jpg
p2154
g3
(g4
g5
(g6
(S'\x07\xe0\x03\x06\x11;:\x05\xc4\xfc'
tRp2155
S'233'
p2156
I1
ttRp2157
s.