(dp1
Vhttp://www.goodnewswellnesslifestyle.com/wp-content/uploads/2014/09/faith.jpg
p2
ccopy_reg
_reconstructor
p3
(cbase.graph_fetch.fetcher
ImageSlot
p4
c__builtin__
tuple
p5
(cdatetime
datetime
p6
(S'\x07\xe0\x04\x10\x15\t/\x01\x14\xc4'
tRp7
S'294'
p8
I1
ttRp9
sVhttp://bvcchurch.com/wp-content/uploads/2015/09/Faith-logo.jpg
p10
g3
(g4
g5
(g6
(S'\x07\xe0\x07\x0e\x14\x02\x07\x0ef\xe8'
tRp11
S'347'
p12
I1
ttRp13
sVhttps://undeaduprising.net/forums/uploads/monthly_2016_03/faith-black-white.jpg.0831a0dae322badf03d4927543f7ebda.jpg
p14
g3
(g4
g5
(g6
(S'\x07\xe0\x07\x06\x10\x02\x18\x026*'
tRp15
S'415'
p16
I2
ttRp17
sVhttp://www.stmarycathedral.org/media/1/Stewardship/Faith.gif
p18
g3
(g4
g5
(g6
(S'\x07\xe0\n\x06\x05\x1e5\x08wD'
tRp19
S'100'
p20
I1
ttRp21
sVhttp://www.faithintoactionministries.com/Faith%20Into%20Action%20Ministries%20Banner.png
p22
g3
(g4
g5
(g6
(S'\x07\xe0\x01\n\x1000\x00\x1e\x87'
tRp23
S'179'
p24
I1
ttRp25
sVhttp://static5.gamespot.com/uploads/scale_super/1490/14900166/2943673-faith.jpg
p26
g3
(g4
g5
(g6
(S'\x07\xe0\x07\x1b\x14\x0e\r\x00e\xa9'
tRp27
S'219'
p28
I1
ttRp29
sVhttps://upload.wikimedia.org/wikipedia/commons/c/c5/Paloma_Faith_2014.jpg
p30
g3
(g4
g5
(g6
(S'\x07\xe0\x08\x1d\x04%:\x08*f'
tRp31
I-1
I1
ttRp32
sVhttps://pbs.twimg.com/profile_images/659514777262161921/QJf2yJRU.jpg
p33
g3
(g4
g5
(g6
(S'\x07\xe0\x07\x1d\x14\x14\x1a\x04\xdb\xcf'
tRp34
I-1
I1
ttRp35
sVhttp://www.celebrationchurchlive.com/wp-content/uploads/2016/01/have-faith.jpg
p36
g3
(g4
g5
(g6
(S'\x07\xe0\x03\x15\x02\x1c\x05\x0e\xeeI'
tRp37
S'253'
p38
I1
ttRp39
sVhttp://firehousechurchtx.com/wp-content/uploads/2015/03/faith-to-faith_wide_t_nv.jpg
p40
g3
(g4
g5
(g6
(S'\x07\xe0\x01\x1c\x11\x005\n\xf6\xbf'
tRp41
S'218'
p42
I1
ttRp43
sVhttp://davidschristiancentre.org/wp-content/uploads/2015/02/faith-factor1.jpg
p44
g3
(g4
g5
(g6
(S'\x07\xe0\x05\x10\x10\x1c3\x00\xca\xbd'
tRp45
S'5'
I1
ttRp46
sVhttp://lifehopeandtruth.com/uploads/images/Shield-of-Faith.jpg
p47
g3
(g4
g5
(g6
(S'\x07\xe0\x08\x1d\x04%:\x08*\xa7'
tRp48
S'464'
p49
I2
ttRp50
sVhttps://pixabay.com/static/uploads/photo/2014/09/11/04/38/faith-441401_960_720.jpg
p51
g3
(g4
g5
(g6
(S'\x07\xe0\x06\n\x0f\x0e#\x05$\xe1'
tRp52
S'264'
p53
I1
ttRp54
sVhttps://www.vibrantfaith.org/wp-content/uploads/2014/01/Vibrant-Faith-Square-w-Title.png
p55
g3
(g4
g5
(g6
(S'\x07\xe0\x08\x17\x02 #\x0f\x0c\xac'
tRp56
S'439'
p57
I1
ttRp58
sVhttp://americorpsalums.files.wordpress.com/2013/07/faith-sign.jpg
p59
g3
(g4
g5
(g6
(S'\x07\xe0\x02\x15\x1149\x05\xa7;'
tRp60
S'190'
p61
I1
ttRp62
sVhttps://pbs.twimg.com/profile_images/1549689037/got-faith_t_-_Copy2.jpg
p63
g3
(g4
g5
(g6
(S'\x07\xe0\x08\x10\x16\x15\n\x08\x94\x0f'
tRp64
S'21'
p65
I1
ttRp66
sVhttps://mypreretirementmusings.files.wordpress.com/2011/01/faith-road-sign1.jpg
p67
g3
(g4
g5
(g6
(S'\x07\xe0\x06\x1a\x13+\x05\x0b\xe9\xd2'
tRp68
S'193'
p69
I1
ttRp70
sVhttp://rejuvenatingwomen.com/wp-content/uploads/2014/03/faith_stone_wallpaper_1024.jpg
p71
g3
(g4
g5
(g6
(S'\x07\xe0\x04\x1b\n\x050\x03\xd2H'
tRp72
S'290'
p73
I1
ttRp74
sVhttp://www.tattoostime.com/images/373/walk-by-faith-tattoo-design.jpg
p75
g3
(g4
g5
(g6
(S'\x07\xe0\x08\x1d\x04%:\x08*\xc0'
tRp76
S'194'
p77
I1
ttRp78
sVhttp://images.agoramedia.com/EHBlogImages/therese-borchard/2016/04/How-Faith-Helps-Depression-1440x810.jpg
p79
g3
(g4
g5
(g6
(S'\x07\xe0\x07\x06\x10\x02\x18\x026\xa8'
tRp80
S'414'
p81
I1
ttRp82
sVhttp://opentohope.s3.amazonaws.com/wp-content/uploads/2011/06/05093433/faith14.jpg
p83
g3
(g4
g5
(g6
(S'\x07\xe0\x07\x1b\x14\x0e\r\x00f\x95'
tRp84
S'435'
p85
I1
ttRp86
sVhttp://orig11.deviantart.net/2413/f/2012/335/c/2/faith_logo_design_by_nikster08-d5mp2pz.jpg
p87
g3
(g4
g5
(g6
(S'\x07\xe0\x01\x12\x105\x0b\x05\x14L'
tRp88
S'161'
p89
I1
ttRp90
sVhttp://www.wikihow.com/images/f/f1/Cope-with-Losing-Faith-in-Your-God-Step-11.jpg
p91
g3
(g4
g5
(g6
(S'\x07\xe0\t\x1c\x04,\x05\x06nX'
tRp92
I-1
I1
ttRp93
sVhttp://s3.amazonaws.com/churchplantmedia-cms/elgin_pregnancy_care_center_elgin_tx/faith.jpg
p94
g3
(g4
g5
(g6
(S'\x07\xe0\x04\x10\x15\t/\x01\x157'
tRp95
S'308'
p96
I1
ttRp97
sVhttp://th06.deviantart.net/fs70/PRE/f/2013/217/5/d/quote___transportation_is_leap_of_faith_by_rabidbribri-d6gqylk.jpg
p98
g3
(g4
g5
(g6
(S'\x07\xe0\x04\x10\x15\t/\x01\x15\x87'
tRp99
S'311'
p100
I2
ttRp101
sVhttp://ybl.org/wp-content/uploads/leap-of-faith_724_482_80.jpg
p102
g3
(g4
g5
(g6
(S'\x07\xdf\x0c\x02\x05 \x03\x073\xbe'
tRp103
S'81'
p104
I1
ttRp105
sVhttp://josephmattera.org/wp-content/uploads/2009/01/faith-trust-fall-saul-jonathan-works.jpg
p106
g3
(g4
g5
(g6
(S'\x07\xe0\x06\x1a\x13+\x05\x0b\xea\x0b'
tRp107
I-1
I1
ttRp108
sVhttp://www.karipatterson.com/site/wp-content/uploads/2015/05/Faith-closeup.jpg
p109
g3
(g4
g5
(g6
(S'\x07\xe0\x06\x16\n\x15\x19\x0c\x13n'
tRp110
S'182'
p111
I2
ttRp112
sVhttp://vyc5.org/wp-content/uploads/2015/01/Praying-Defnding-the-Christian-faith-e1349305115650.jpg
p113
g3
(g4
g5
(g6
(S'\x07\xdf\x0c\n\x10\x070\r\x84\x90'
tRp114
S'123'
p115
I1
ttRp116
sVhttps://assets.entrepreneur.com/content/3x2/822/1411573311-using-faith-walking-your-authority-man.jpg
p117
g3
(g4
g5
(g6
(S'\x07\xe0\x03\x19\t:-\x07\x90\xee'
tRp118
S'237'
p119
I1
ttRp120
sVhttp://simplereminders.com/uploads/images/blog/unknown-author-color-text-cream-paper-good-things-faith-be-positive-8u1z.jpg
p121
g3
(g4
g5
(g6
(S'\x07\xe0\x08\x1d\x04%:\x08+\x07'
tRp122
I-1
I1
ttRp123
sVhttp://fwcchurches.com/wp-content/uploads/2014/07/12-Favorite-Faith-Quotes_FWC-Blog.jpg
p124
g3
(g4
g5
(g6
(S'\x07\xe0\x04\x10\x15\t/\x01\x15\xa6'
tRp125
S'315'
p126
I1
ttRp127
sVhttp://www.hippoquotes.com/img/faith-quotes-bible/Bible-Quotes-About-Faith-And-Love-03.jpg
p128
g3
(g4
g5
(g6
(S'\x07\xe0\x05\x10\x10\x1c3\x00\xcbC'
tRp129
I-1
I1
ttRp130
sVhttps://media.licdn.com/mpr/mpr/AAEAAQAAAAAAAAMlAAAAJDUwYjBkYmUwLWVhMzgtNDAwZi1hODI0LWZkNDFjOTBmNzZlZA.jpg
p131
g3
(g4
g5
(g6
(S'\x07\xe0\x08\x10\x16\x15\n\x08\x93\xc9'
tRp132
S'261'
p133
I1
ttRp134
sVhttp://www.avalonchurch.org/wp-content/uploads/2015/10/Faith-logo.jpg
p135
g3
(g4
g5
(g6
(S'\x07\xe0\x02\x01\x11\x01%\x06\xc1\xe2'
tRp136
S'158'
p137
I1
ttRp138
sVhttp://www.costaricantimes.com/wp-content/uploads/2013/08/faith-1.jpg
p139
g3
(g4
g5
(g6
(S'\x07\xe0\x05\x10\x10\x1c3\x00\xcbG'
tRp140
I-1
I1
ttRp141
sVhttps://s-media-cache-ak0.pinimg.com/736x/fb/ae/ca/fbaecabf4b72a2ce873c084bcb82d3a2.jpg
p142
g3
(g4
g5
(g6
(S'\x07\xe0\x06\r\x0c0&\n\xf7~'
tRp143
S'131'
p144
I1
ttRp145
sVhttp://winnerschapeljhb.org/images/blog/faith14.jpg
p146
g3
(g4
g5
(g6
(S'\x07\xe0\x08\x17\x02 #\x0f\r\x1c'
tRp147
S'407'
p148
I1
ttRp149
sVhttp://www.womenoffaith.com/wp-content/uploads/2013/10/wof-logo-socialsharing-teal-bubbles.jpg
p150
g3
(g4
g5
(g6
(S'\x07\xe0\x05\x19\t,\x15\x0c\x88\x93'
tRp151
S'10'
p152
I1
ttRp153
sVhttps://christianlifemissions.org/wp-content/uploads/2015/02/Faith-Statement-Pic.jpg
p154
g3
(g4
g5
(g6
(S'\x07\xe0\t\x1e\x0431\r\x8ep'
tRp155
S'472'
p156
I1
ttRp157
sVhttp://medias.unifrance.org/medias/97/162/107105/format_page/faith-connections.jpg
p158
g3
(g4
g5
(g6
(S'\x07\xe0\x06\r\x0c0&\n\xf7\xaa'
tRp159
S'162'
p160
I1
ttRp161
sVhttp://thefools.org/wp-content/uploads/2014/05/doubt-and-faith-living-in-the-tension.jpg
p162
g3
(g4
g5
(g6
(S'\x07\xe0\x01\x18\x10:0\x02F\xc2'
tRp163
S'207'
p164
I1
ttRp165
sVhttp://d1zlh37f1ep3tj.cloudfront.net/wp/wblob/54592E651337D2/34B1/5E27BE/WWib4_DnDbED5EjsWQz1Cw/Faith-Quote-of-the-Month-July-2015.jpg
p166
g3
(g4
g5
(g6
(S'\x07\xe0\x07\x13\x0b\x119\x03\xa9/'
tRp167
S'433'
p168
I1
ttRp169
sVhttps://s-media-cache-ak0.pinimg.com/736x/00/14/48/00144882e201064f979916062151f6a9.jpg
p170
g3
(g4
g5
(g6
(S'\x07\xe0\x06\n\x0f\x0e#\x05$\xaf'
tRp171
S'168'
p172
I1
ttRp173
sVhttps://s-media-cache-ak0.pinimg.com/736x/de/71/b5/de71b5af3cfba9d18c966e9ed3d00eba.jpg
p174
g3
(g4
g5
(g6
(S'\x07\xe0\n\x06\x05\x1e5\x08w4'
tRp175
S'431'
p176
I1
ttRp177
sVhttp://1.bp.blogspot.com/-ounlplLwP4U/VcUcELH8btI/AAAAAAAAECI/23sV9InawhE/s1600/14927733944_def42c47a4_o_d.png
p178
g3
(g4
g5
(g6
(S'\x07\xe0\x04\x1b\n\x050\x03\xd2d'
tRp179
S'302'
p180
I2
ttRp181
sVhttp://propheticlight.org/wp-content/uploads/sermons/2015/08/by-faith.jpg
p182
g3
(g4
g5
(g6
(S'\x07\xe0\x04\x1b\n\x050\x03\xd2\xe1'
tRp183
I-1
I1
ttRp184
sVhttp://41.media.tumblr.com/9729db13bc3361666fe0e879a70cd46c/tumblr_nj0k2btEIl1u7d4ato1_1280.jpg
p185
g3
(g4
g5
(g6
(S'\x07\xe0\x04\x02\x107\x14\nK)'
tRp186
S'96'
p187
I1
ttRp188
sVhttp://az616578.vo.msecnd.net/files/2016/02/15/635911573227410521-1059335216_faith.jpg
p189
g3
(g4
g5
(g6
(S'\x07\xe0\n\x06\x05\x1e5\x08x\x07'
tRp190
S'369'
p191
I1
ttRp192
sVhttp://image.shutterstock.com/display_pic_with_logo/1877789/386215717/stock-photo-word-faith-painted-calligraphy-word-faith-faith-modern-handwriting-386215717.jpg
p193
g3
(g4
g5
(g6
(S'\x07\xe0\x08\x10\x16\x15\n\x08\x93\x7f'
tRp194
S'350'
p195
I1
ttRp196
sVhttp://redefinedfuture.com/wp-content/uploads/2015/04/faith-image-2.jpg
p197
g3
(g4
g5
(g6
(S"\x07\xdf\x0c\x1f\x10'\x17\x02.F"
tRp198
S'46'
p199
I1
ttRp200
sVhttps://az616578.vo.msecnd.net/files/2016/03/04/635926501806500264-43103110_faith-trust-fall-saul-jonathan-works-1.jpg
p201
g3
(g4
g5
(g6
(S'\x07\xe0\x05\x16\x14\n)\x03n='
tRp202
S'334'
p203
I1
ttRp204
sVhttp://poptattoos.com/wp-content/uploads/2015/06/cool-faith-tattoo-2015.jpg
p205
g3
(g4
g5
(g6
(S'\x07\xe0\x06\r\x0c0&\n\xf7X'
tRp206
S'269'
p207
I1
ttRp208
sVhttp://i2.cdn.turner.com/cnnnext/dam/assets/150511065206-karimi-faith-super-169.jpg
p209
g3
(g4
g5
(g6
(S'\x07\xe0\x07\x13\x0b\x119\x03\xa9\x13'
tRp210
S'436'
p211
I1
ttRp212
sVhttp://static3.gamespot.com/uploads/scale_super/1490/14900166/2943673-faith.jpg
p213
g3
(g4
g5
(g6
(S'\x07\xe0\n\x06\x05\x1e5\x08w\x86'
tRp214
S'322'
p215
I1
ttRp216
sVhttps://myjustheart.com/wp-content/uploads/2016/07/faith14.jpg
p217
g3
(g4
g5
(g6
(S'\x07\xe0\x08\x06\x16\x10\x05\x08\xd4_'
tRp218
S'449'
p219
I1
ttRp220
sVhttp://www.islam.com.kw/wp-content/uploads/2013/08/faith-wallpaper.jpg
p221
g3
(g4
g5
(g6
(S'\x07\xe0\x01\n\x1000\x00\x1eY'
tRp222
S'154'
p223
I1
ttRp224
sVhttp://www.lovethispic.com/uploaded_images/24856-Faith.jpg
p225
g3
(g4
g5
(g6
(S'\x07\xdf\x0c\x02\x05 \x03\x073U'
tRp226
S'9'
I1
ttRp227
sVhttp://inspirationformoms.com/wp-content/uploads/2015/04/keep-the-faith.jpg
p228
g3
(g4
g5
(g6
(S'\x07\xdf\x0b\t\x039\x17\x05KJ'
tRp229
S'55'
p230
I1
ttRp231
sVhttp://www.faithjoplin.com/images/Faith-Logo.gif
p232
g3
(g4
g5
(g6
(S'\x07\xe0\x08\x1d\x04%:\x08*\xe4'
tRp233
S'458'
p234
I1
ttRp235
sVhttp://ptwoiministries.org/wp-content/uploads/2016/03/8F20CC7D547A452B8EFD7B0DB9E2D2AD.ashx_.jpeg
p236
g3
(g4
g5
(g6
(S'\x07\xe0\x08\x10\x16\x15\n\x08\x935'
tRp237
S'441'
p238
I1
ttRp239
sVhttp://antwerpchristianfellowship.org/wp-content/uploads/2014/02/faith17.jpg
p240
g3
(g4
g5
(g6
(S'\x07\xe0\x08\x17\x02 #\x0f\x0c\xb6'
tRp241
S'337'
p242
I1
ttRp243
sVhttp://pastlifetourist.com/wp-content/uploads/2015/08/Leap_of_Faith3.jpg
p244
g3
(g4
g5
(g6
(S'\x07\xdf\x0c\x02\x05 \x03\x073\x8e'
tRp245
S'27'
p246
I1
ttRp247
sVhttp://www.ronedmondson.com/wp-content/uploads/2013/04/faith.jpg
p248
g3
(g4
g5
(g6
(S'\x07\xdf\x0c\x02\x05 \x03\x073\x91'
tRp249
S'12'
p250
I1
ttRp251
sVhttps://ecoops.com/file/1762927;jsessionid=C51A9514FF5D0CD7D495BEEF0721D894
p252
g3
(g4
g5
(g6
(S'\x07\xe0\x03\x19\t:-\x07\x91\x13'
tRp253
S'272'
p254
I1
ttRp255
sVhttp://www.alegoo.com/images05/words/verses-4/029/verses-about-faith-15.jpg
p256
g3
(g4
g5
(g6
(S'\x07\xe0\x01\n\x1000\x00\x1e\x84'
tRp257
S'170'
p258
I2
ttRp259
sVhttps://www.avalonchurch.org/wp-content/uploads/2015/10/Faith-logo.jpg
p260
g3
(g4
g5
(g6
(S'\x07\xe0\x05\x05\x13,&\x0b\xee;'
tRp261
S'226'
p262
I1
ttRp263
sVhttp://bahaiblog.net/site/wp-content/uploads/2013/12/Station-of-Jesus-Christ-in-Bahai-Faith.jpg
p264
g3
(g4
g5
(g6
(S'\x07\xe0\n\x06\x05\x1e5\x08wi'
tRp265
S'175'
p266
I1
ttRp267
sVhttp://stjoevan.org/wp-content/uploads/2013/01/St-Joseph-Family-Faith-Form.png
p268
g3
(g4
g5
(g6
(S'\x07\xe0\x07\x13\x0b\x119\x03\xa8\xde'
tRp269
S'374'
p270
I1
ttRp271
sVhttp://provoketive.com/wp-content/uploads/2012/05/faith-interview-christian1.jpg
p272
g3
(g4
g5
(g6
(S'\x07\xe0\x07\x13\x0b\x119\x03\xa8\xcf'
tRp273
S'427'
p274
I1
ttRp275
sVhttp://rawpl.com/wp-content/uploads/2015/11/faith-quotes-for-best-collections-of-faith-quotes-2015-4.jpg
p276
g3
(g4
g5
(g6
(S'\x07\xdf\x0c\r\x10\x17\x1b\x06oP'
tRp277
I-1
I1
ttRp278
sVhttp://drdebcarlin.com/wp-content/uploads/2016/02/7711866066_9ffdaf3078_b.jpg
p279
g3
(g4
g5
(g6
(S'\x07\xe0\x04\x1b\n\x050\x03\xd2|'
tRp280
S'289'
p281
I1
ttRp282
sVhttp://jennpunzalan.com/wp-content/uploads/2013/10/faith_to_live_by_1024x1024.jpg
p283
g3
(g4
g5
(g6
(S'\x07\xe0\x07\x13\x0b\x119\x03\xa8\xff'
tRp284
S'241'
p285
I1
ttRp286
sVhttp://heartpublications.com/uploads/AmazingAudio/byfaith/by-faith.jpg
p287
g3
(g4
g5
(g6
(S'\x07\xe0\x08\x1d\x04%:\x08+\x03'
tRp288
I-1
I1
ttRp289
sVhttp://godlifechurch.me/wp-content/uploads/2016/03/Leap_of_Faith.jpg
p290
g3
(g4
g5
(g6
(S'\x07\xe0\x08\x10\x16\x15\n\x08\x93\xbf'
tRp291
S'349'
p292
I1
ttRp293
sVhttp://www.flc-s.org/Images/faith%20in%20the%20heart%205%20300dpi%20customers%20pick%20with%20color%20change.jpg
p294
g3
(g4
g5
(g6
(S'\x07\xe0\x06\r\x0c0&\n\xf7w'
tRp295
I-1
I1
ttRp296
sVhttp://az616578.vo.msecnd.net/files/2015/12/07/6358505383114254581807877391_faith.jpg
p297
g3
(g4
g5
(g6
(S'\x07\xe0\x07\x0e\x14\x02\x07\x0eg\x84'
tRp298
S'370'
p299
I1
ttRp300
sVhttp://www.benziestandrews.com/wp-content/uploads/2015/01/just_have_faith__by_brittbrittphotos-d392ali.jpg
p301
g3
(g4
g5
(g6
(S'\x07\xe0\x06\n\x0f\x0e#\x05$I'
tRp302
S'375'
p303
I1
ttRp304
sVhttp://raisingachildactor.com/wp-content/uploads/2015/06/faith.jpg
p305
g3
(g4
g5
(g6
(S'\x07\xe0\x06\r\x0c0&\n\xf7\xa2'
tRp306
S'380'
p307
I1
ttRp308
sVhttps://upload.wikimedia.org/wikipedia/commons/c/c5/Percy_Faith_1949.jpg
p309
g3
(g4
g5
(g6
(S'\x07\xe0\n\x06\x05\x1e5\x08w\xf3'
tRp310
S'133'
p311
I1
ttRp312
sVhttps://i.ytimg.com/vi/O7WP2hnijGY/maxresdefault.jpg
p313
g3
(g4
g5
(g6
(S'\x07\xe0\x02\x1b\x115\x0b\x0f\x15B'
tRp314
S'221'
p315
I1
ttRp316
sVhttp://pastorrick.com/images/default-source/Devotional-Images/04-05-16-the-daniel-plan-godly-goals-require-faith.jpg?sfvrsn=0
p317
g3
(g4
g5
(g6
(S'\x07\xe0\n\x06\x05\x1e5\x08x\x03'
tRp318
S'478'
p319
I1
ttRp320
sVhttps://s-media-cache-ak0.pinimg.com/736x/5b/04/92/5b04922b333a70d90cb1dfc0bde7cb5c.jpg
p321
g3
(g4
g5
(g6
(S'\x07\xe0\x07\x13\x0b\x119\x03\xa93'
tRp322
S'109'
p323
I1
ttRp324
sVhttp://thehurthealer.com/wp-content/uploads/2015/12/faith-is.jpg
p325
g3
(g4
g5
(g6
(S'\x07\xe0\x08\x17\x02 #\x0f\x0c\xc3'
tRp326
S'440'
p327
I1
ttRp328
sVhttps://s-media-cache-ak0.pinimg.com/736x/88/e8/1f/88e81f0a0bc3052d011bf4c7d9a6f9c1.jpg
p329
g3
(g4
g5
(g6
(S'\x07\xe0\x06\n\x0f\x0e#\x05$\xcb'
tRp330
S'278'
p331
I1
ttRp332
sVhttp://cdn-media-2.lifehack.org/wp-content/files/2013/12/Keep-the-faith.jpg
p333
g3
(g4
g5
(g6
(S'\x07\xe0\x08\x06\x16\x10\x05\x08\xd5\xa4'
tRp334
S'93'
p335
I1
ttRp336
sVhttp://www.christianstatements.com/prodimages/QUOTE059-G-01.jpg
p337
g3
(g4
g5
(g6
(S'\x07\xe0\n\x06\x05\x1e5\x08x\x10'
tRp338
NI1
ttRp339
sVhttp://www.dhyanapeetam.org/sites/default/files/teaser_images_article/faith-intelligence.jpg?1318916376
p340
g3
(g4
g5
(g6
(S'\x07\xe0\x06\x06\r\x1b\t\x0c\xc4\xa7'
tRp341
S'358'
p342
I1
ttRp343
sVhttp://faithhealth.wpengine.netdna-cdn.com/wp-content/uploads/Spirituality-and-Health-Link.jpg
p344
g3
(g4
g5
(g6
(S'\x07\xe0\x08\x17\x02 #\x0f\x0c|'
tRp345
S'442'
p346
I1
ttRp347
sVhttp://sullivanchog.org/wp-content/uploads/2014/06/faith_blocks.jpg
p348
g3
(g4
g5
(g6
(S'\x07\xe0\x05\x19\t,\x15\x0c\x87\xd6'
tRp349
S'345'
p350
I1
ttRp351
sVhttp://www.quotessays.com/images/leap-of-faith-quotes-1.jpg
p352
g3
(g4
g5
(g6
(S'\x07\xe0\x02\x01\x11\x01%\x06\xc1y'
tRp353
I-1
I1
ttRp354
sVhttp://www.riversidechurchiowa.com/wp-content/uploads/2012/06/faith-is.jpg
p355
g3
(g4
g5
(g6
(S'\x07\xe0\x04\x1b\n\x050\x03\xd1\xe7'
tRp356
I-1
I1
ttRp357
sVhttp://thumb101.shutterstock.com/display_pic_with_logo/3024506/287787833/stock-vector-faith-word-hand-lettering-handmade-vector-calligraphy-287787833.jpg
p358
g3
(g4
g5
(g6
(S'\x07\xe0\x02\x1b\x115\x0b\x0f\x15\x18'
tRp359
I-1
I1
ttRp360
sVhttps://s-media-cache-ak0.pinimg.com/originals/82/08/7b/82087b8309769642d72cb164e27b7a72.jpg
p361
g3
(g4
g5
(g6
(S'\x07\xe0\n\x06\x05\x1e5\x08w0'
tRp362
S'482'
p363
I1
ttRp364
sVhttp://create-tattoos.com/wp-content/uploads/2015/08/faith-tattoo.jpg
p365
g3
(g4
g5
(g6
(S'\x07\xe0\x01\x12\x105\x0b\x05\x14\x81'
tRp366
S'183'
p367
I1
ttRp368
sVhttp://wallpoper.com/images/00/35/69/76/faith_00356976.png
p369
g3
(g4
g5
(g6
(S'\x07\xdf\x0c\x02\x05 \x03\x073\xd9'
tRp370
S'14'
p371
I1
ttRp372
sVhttp://2.bp.blogspot.com/-CYBA5-ejNlY/U3Iv1KPLvpI/AAAAAAAACYE/--loJ18v0oI/s1600/faith_typography.png
p373
g3
(g4
g5
(g6
(S'\x07\xe0\x02\x01\x11\x01%\x06\xc1W'
tRp374
S'213'
p375
I1
ttRp376
sVhttp://s3.amazonaws.com/bandw-gallery/large/917/Leap_of_Faith.jpg?1300965230
p377
g3
(g4
g5
(g6
(S'\x07\xe0\x04\x10\x15\t/\x01\x14\xfd'
tRp378
S'310'
p379
I1
ttRp380
sVhttp://www.hercampus.com/sites/default/files/2015/10/01/faith_1.jpg
p381
g3
(g4
g5
(g6
(S"\x07\xdf\x0c\x1f\x10'\x17\x02/g"
tRp382
S'63'
p383
I1
ttRp384
sVhttp://faithsmessenger.com/wp-content/uploads/2014/01/KeeptheFaith.jpg
p385
g3
(g4
g5
(g6
(S'\x07\xe0\x08\x1d\x04%:\x08*\xae'
tRp386
S'143'
p387
I1
ttRp388
sVhttp://www.swansea.ac.uk/faith/Alt-faith-banner.jpg
p389
g3
(g4
g5
(g6
(S'\x07\xe0\x08\x17\x02 #\x0f\x0c\xa4'
tRp390
S'445'
p391
I1
ttRp392
sVhttp://www.allcreated.com/wp-content/uploads/2015/05/sm-allcreated-Faith-printable.jpg
p393
g3
(g4
g5
(g6
(S'\x07\xe0\x01\n\x1000\x00\x1eo'
tRp394
I-1
I1
ttRp395
sVhttps://images.backstreetmerch.com/images/storeimages/PALOMA-FAITH/logo.png
p396
g3
(g4
g5
(g6
(S'\x07\xe0\x01\n\x1000\x00\x1ev'
tRp397
I-1
I1
ttRp398
sVhttp://s.isha.ws/blog/wp-content/uploads/2016/08/youth-faith-and-belief-1090x614.jpg
p399
g3
(g4
g5
(g6
(S'\x07\xe0\n\x06\x05\x1e5\x08wa'
tRp400
I-1
I1
ttRp401
sVhttp://www.crosswordchurch.org/wp-content/uploads/2013/11/faith-is.jpg
p402
g3
(g4
g5
(g6
(S'\x07\xe0\x01\n\x1000\x00\x1e\x8e'
tRp403
S'50'
p404
I1
ttRp405
sVhttp://lifehopeandtruth.com/uploads/images/leap-of-faith.jpg
p406
g3
(g4
g5
(g6
(S'\x07\xe0\x07\x13\x0b\x119\x03\xa8\xcb'
tRp407
S'421'
p408
I1
ttRp409
sVhttp://faithcounts.com/wp-content/uploads/what-faith-affords-3.jpg
p410
g3
(g4
g5
(g6
(S'\x07\xe0\x08\x17\x02 #\x0f\x0c\xdc'
tRp411
S'342'
p412
I1
ttRp413
sVhttps://farm8.staticflickr.com/7255/7711866066_725154364b_o_d.jpg
p414
g3
(g4
g5
(g6
(S'\x07\xe0\x02\x1b\x115\x0b\x0f\x15)'
tRp415
S'140'
p416
I1
ttRp417
sVhttp://www.hippoquotes.com/img/faith-quotes/always-believe-in-god-because-there-are-some-questions-that-even-google-cant-answer-faith-quotes.jpg
p418
g3
(g4
g5
(g6
(S'\x07\xe0\x04\n\x11\n+\x03\xbb;'
tRp419
I-1
I1
ttRp420
sVhttp://hqwallbase.pw/images/big/a_day_to_remember_faith_homesick_wallpaper-41547.jpg
p421
g3
(g4
g5
(g6
(S'\x07\xe0\x01\x18\x10:0\x02F\x9d'
tRp422
I-1
I1
ttRp423
sVhttp://wallpaperscristaos.com.br/christianwallpapers/wp-content/uploads/2012/06/faith-road-wallpaper_1366x768.jpg
p424
g3
(g4
g5
(g6
(S'\x07\xe0\x04\x1b\n\x050\x03\xd1\xed'
tRp425
S'306'
p426
I1
ttRp427
sVhttp://tatluv.com/assets/uploads/2015/09/tatluv-tattoo_5b04922b333a70d90cb1dfc0bde7cb5c.jpg
p428
g3
(g4
g5
(g6
(S'\x07\xe0\x01\x12\x105\x0b\x05\x14\xf4'
tRp429
S'180'
p430
I1
ttRp431
sVhttp://jesustoday.com/wp-content/uploads/2016/01/strong-faith.jpg
p432
g3
(g4
g5
(g6
(S'\x07\xe0\t\x1e\x0431\r\x8e\x7f'
tRp433
S'257'
p434
I1
ttRp435
sVhttp://cdn.shopify.com/s/files/1/0284/8896/products/theeverygirl_prints2_faith_1024x1024.jpg?v=1384810613
p436
g3
(g4
g5
(g6
(S'\x07\xe0\x04\x1b\n\x050\x03\xd2\xc4'
tRp437
S'122'
p438
I1
ttRp439
sVhttp://mimiandeunice.com/wp-content/uploads/2011/05/ME_366_Faith.png
p440
g3
(g4
g5
(g6
(S'\x07\xe0\x04\x1b\n\x050\x03\xd2\xe6'
tRp441
S'303'
p442
I1
ttRp443
sVhttp://cdn.hitfix.com/photos/6139010/FAITH-1_article_story_large.jpg
p444
g3
(g4
g5
(g6
(S"\x07\xe0\x05\x07\x15\x1e!\x08'\xcb"
tRp445
S'330'
p446
I1
ttRp447
sVhttp://www.westa.org/0demo/wp-content/uploads/2015/11/faith_1.jpg
p448
g3
(g4
g5
(g6
(S'\x07\xe0\x07\x06\x10\x02\x18\x027/'
tRp449
I-1
I1
ttRp450
sVhttp://inspirationboost.com/wp-content/uploads/2014/11/Keep-the-Faith-Quotes.png
p451
g3
(g4
g5
(g6
(S'\x07\xdf\x0c\t\x10\x0e\x11\x01\xbf\xc5'
tRp452
S'116'
p453
I1
ttRp454
sVhttps://s-media-cache-ak0.pinimg.com/736x/6c/c3/82/6cc3822a34eaf96104c83b391b7c9034.jpg
p455
g3
(g4
g5
(g6
(S'\x07\xe0\x06\r\x0c0&\n\xf6}'
tRp456
S'376'
p457
I1
ttRp458
sVhttps://themancalledkenny.files.wordpress.com/2015/04/faith-sunset.jpg
p459
g3
(g4
g5
(g6
(S'\x07\xe0\x05\x07\x15\x1e!\x08(w'
tRp460
S'136'
p461
I1
ttRp462
sVhttp://www.notable-quotes.com/f/faith_quote.jpg
p463
g3
(g4
g5
(g6
(S'\x07\xe0\x08\x10\x16\x15\n\x08\x93\xb4'
tRp464
I-1
I1
ttRp465
sVhttp://spiritualsage.net/wp-content/uploads/2014/07/faith.jpg
p466
g3
(g4
g5
(g6
(S'\x07\xe0\x08\x1d\x04%:\x08*S'
tRp467
S'462'
p468
I2
ttRp469
sVhttp://n.b5z.net/i/u/6145332/i/faith2.jpg
p470
g3
(g4
g5
(g6
(S"\x07\xdf\x0c\x1f\x10'\x17\x02.\xbc"
tRp471
S'119'
p472
I1
ttRp473
sVhttps://s-media-cache-ak0.pinimg.com/originals/de/71/b5/de71b5af3cfba9d18c966e9ed3d00eba.jpg
p474
g3
(g4
g5
(g6
(S'\x07\xe0\n\x06\x05\x1e5\x08w\x0e'
tRp475
S'486'
p476
I1
ttRp477
sVhttp://www.allworship.com/wp-content/uploads/2016/02/bigstock-Businessman-Looking-At-Faith-D-60690821.jpg
p478
g3
(g4
g5
(g6
(S'\x07\xe0\n\x06\x05\x1e5\x08w\xf6'
tRp479
NI1
ttRp480
sVhttp://cdn-media-1.lifehack.org/wp-content/files/2013/12/Keep-the-faith.jpg
p481
g3
(g4
g5
(g6
(S'\x07\xe0\x08\x10\x16\x15\n\x08\x92\xfe'
tRp482
S'1'
I1
ttRp483
sVhttp://www.commentsdb.com/wp-content/uploads/2015/07/Faith-is-Not-Leap-Into-the-Dark.jpg
p484
g3
(g4
g5
(g6
(S'\x07\xe0\x06\x13\x0f\x0c\x1b\x0e\xd4\xf2'
tRp485
S'328'
p486
I1
ttRp487
sVhttp://aboutislam.net/wp-content/uploads/2016/03/Faith-logo.jpg
p488
g3
(g4
g5
(g6
(S'\x07\xe0\n\x06\x05\x1e5\x08w)'
tRp489
S'366'
p490
I1
ttRp491
sVhttps://pearlsofprofundity.files.wordpress.com/2012/04/leap-of-faith.jpg
p492
g3
(g4
g5
(g6
(S'\x07\xe0\x04\x1b\n\x050\x03\xd1\xfe'
tRp493
I-1
I1
ttRp494
sVhttp://poptattoos.com/wp-content/uploads/2015/06/faith-tattoo-idea.jpg
p495
g3
(g4
g5
(g6
(S'\x07\xe0\x06\r\x0c0&\n\xf7B'
tRp496
S'280'
p497
I1
ttRp498
sVhttp://image.shutterstock.com/z/stock-vector-faith-word-hand-lettering-handmade-vector-calligraphy-287787833.jpg
p499
g3
(g4
g5
(g6
(S'\x07\xe0\t\x1e\x0431\r\x8d\x9a'
tRp500
S'206'
p501
I1
ttRp502
sVhttp://teal-blog.s3.amazonaws.com/2015/08/faith.jpg
p503
g3
(g4
g5
(g6
(S'\x07\xe0\x03\x06\x11;:\x05\xc5J'
tRp504
S'73'
p505
I1
ttRp506
sVhttps://s-media-cache-ak0.pinimg.com/736x/7a/09/5f/7a095f79e3f354030c0f78af68ab4085.jpg
p507
g3
(g4
g5
(g6
(S'\x07\xe0\x08\x17\x02 #\x0f\x0c\xba'
tRp508
S'340'
p509
I1
ttRp510
sVhttps://s-media-cache-ak0.pinimg.com/originals/06/ff/10/06ff10ec195bff2e48bd9701ca7aa14b.jpg
p511
g3
(g4
g5
(g6
(S'\x07\xe0\n\x06\x05\x1e5\x08w]'
tRp512
NI1
ttRp513
sVhttp://i274.photobucket.com/albums/jj261/Silverchex/Christian/faith_wall09085_1280.jpg
p514
g3
(g4
g5
(g6
(S'\x07\xe0\n\x06\x05\x1e5\x08w\xa3'
tRp515
S'118'
p516
I1
ttRp517
sVhttp://www.ikedaquotes.org/assets/images/backgrounds/religion-faith.jpg
p518
g3
(g4
g5
(g6
(S'\x07\xe0\x04\x1b\n\x050\x03\xd2\x81'
tRp519
S'314'
p520
I1
ttRp521
sVhttp://miamifriendschurch.com/wp-content/uploads/2014/05/strong-faith.jpg
p522
g3
(g4
g5
(g6
(S'\x07\xe0\t\x1e\x0431\r\x8e\x96'
tRp523
S'44'
p524
I1
ttRp525
sVhttp://cdn.crossmap.com/backgrounds/0/35/3530_2048x1036.jpg
p526
g3
(g4
g5
(g6
(S'\x07\xe0\x01\x18\x10:0\x02F\x85'
tRp527
S'198'
p528
I1
ttRp529
sVhttp://cdn2.hubspot.net/hubfs/474697/Faith_Logo_With_Text-1.png?t=1472064062174
p530
g3
(g4
g5
(g6
(S'\x07\xe0\x08\x1b\x03:3\x057\x02'
tRp531
S'460'
p532
I1
ttRp533
sVhttp://hinessight.blogs.com/.a/6a00d83451c0aa69e201bb08c6deed970d-600wi
p534
g3
(g4
g5
(g6
(S'\x07\xe0\x08\x17\x02 #\x0f\x0c\xe5'
tRp535
S'339'
p536
I1
ttRp537
sVhttp://mawmedia.com/COACHMethod/wp-content/uploads/2014/11/faith.jpg
p538
g3
(g4
g5
(g6
(S'\x07\xe0\x08\x17\x02 #\x0f\x0c\xe9'
tRp539
S'228'
p540
I1
ttRp541
sVhttp://www.jacobabshire.com/wp-content/uploads/2015/02/faith-header.jpg
p542
g3
(g4
g5
(g6
(S'\x07\xe0\x08\x1d\x04%:\x08+S'
tRp543
I-1
I1
ttRp544
sVhttp://aboitechurch.org/wp-content/uploads/2014/08/Living-By-Faith-Image.jpg
p545
g3
(g4
g5
(g6
(S'\x07\xe0\x08\x1d\x04%:\x08*\xff'
tRp546
S'75'
p547
I1
ttRp548
sVhttp://criticallychristian.com/wp-content/uploads/2015/03/faith-road-wallpaper_1920x1200.jpg
p549
g3
(g4
g5
(g6
(S'\x07\xe0\x02\x01\x11\x01%\x06\xc2\x03'
tRp550
S'157'
p551
I1
ttRp552
sVhttps://i.ytimg.com/vi/ek4BdQ8bFMU/maxresdefault.jpg
p553
g3
(g4
g5
(g6
(S'\x07\xe0\x08\x1d\x04%:\x08+\x0c'
tRp554
S'461'
p555
I1
ttRp556
sVhttp://valiantuniverse.com/wp-content/uploads/2015/09/FAITH_001_COVER-B_SAUVAGE-640x984.jpg
p557
g3
(g4
g5
(g6
(S'\x07\xe0\n\x06\x05\x1e5\x08w\xc4'
tRp558
S'484'
p559
I1
ttRp560
sVhttp://www.eclectablog.com/wp-content/uploads/2015/12/Faith.jpg
p561
g3
(g4
g5
(g6
(S'\x07\xe0\n\x06\x05\x1e5\x08w\xc8'
tRp562
S'89'
p563
I1
ttRp564
sVhttp://az616578.vo.msecnd.net/files/2016/06/19/636019554336399951-1332470804_faith.jpg
p565
g3
(g4
g5
(g6
(S'\x07\xe0\t\x1e\x0431\r\x8e5'
tRp566
S'409'
p567
I1
ttRp568
sVhttp://morethanarealtor.me/wp-content/uploads/2015/01/Leap-1.jpg
p569
g3
(g4
g5
(g6
(S'\x07\xdf\x0c\x17\x10 $\x07\xe9%'
tRp570
S'113'
p571
I1
ttRp572
sVhttp://www.stpatricks.org/media/1/Faith%20Formation/faith.jpg
p573
g3
(g4
g5
(g6
(S'\x07\xe0\x08\x17\x02 #\x0f\r\x13'
tRp574
S'43'
p575
I1
ttRp576
sVhttp://isibooks.org/media/catalog/product/cache/1/image/9df78eab33525d08d6e5fb8d27136e95/t/h/the_triumph_of_faith_jacket_openroad_1.jpg
p577
g3
(g4
g5
(g6
(S'\x07\xe0\t\x1c\x04,\x05\x06p('
tRp578
S'212'
p579
I1
ttRp580
sVhttp://fmaonline.net/wp-content/uploads/2012/05/faith-road-sign-with-dramatic-clouds-and-sky.jpg
p581
g3
(g4
g5
(g6
(S'\x07\xe0\x07\x06\x10\x02\x18\x027\x1d'
tRp582
S'32'
p583
I1
ttRp584
sVhttps://employmentlawottawa.files.wordpress.com/2016/07/faith.jpg
p585
g3
(g4
g5
(g6
(S'\x07\xe0\x08\x17\x02 #\x0f\r-'
tRp586
S'451'
p587
I1
ttRp588
sVhttp://notsalmon.com/wp-content/uploads/2011/03/faith-sky-poster.jpg
p589
g3
(g4
g5
(g6
(S'\x07\xe0\x04\x1b\n\x050\x03\xd2\x86'
tRp590
S'313'
p591
I1
ttRp592
sVhttp://image.desiringgod.org/god-s-rehab-for-weak-weary-faith-arohepfn-en/landscape/large_god-s-rehab-for-weak-weary-faith-arohepfn.jpg?1456763898
p593
g3
(g4
g5
(g6
(S'\x07\xe0\x07\x06\x10\x02\x18\x026\xc0'
tRp594
I-1
I1
ttRp595
sVhttp://cinw.s3.amazonaws.com/wp-content/uploads/2013/01/faith-1024x576.jpg
p596
g3
(g4
g5
(g6
(S'\x07\xe0\n\x06\x05\x1e5\x08w\xfe'
tRp597
S'474'
p598
I1
ttRp599
sVhttp://www.motivelegal.com/wp-content/uploads/2010/12/LeapOfFaith.jpg
p600
g3
(g4
g5
(g6
(S'\x07\xe0\x06\x1a\x13+\x05\x0b\xea`'
tRp601
S'146'
p602
I1
ttRp603
sVhttp://www.glavoquotes.online/wp-content/uploads/2014/03/keeping-faith-in-love-quotes-883.jpg
p604
g3
(g4
g5
(g6
(S'\x07\xe0\x06\r\x0c0&\n\xf7\xde'
tRp605
S'181'
p606
I1
ttRp607
sVhttp://www.impawards.com/2015/posters/faith_of_our_fathers_xxlg.jpg
p608
g3
(g4
g5
(g6
(S'\x07\xe0\x01\x18\x10:0\x02F\xe4'
tRp609
S'200'
p610
I1
ttRp611
sVhttps://2dbdd5116ffa30a49aa8-c03f075f8191fb4e60e74b907071aee8.ssl.cf1.rackcdn.com/3028205_1428757042.0631_funddescription.jpg
p612
g3
(g4
g5
(g6
(S'\x07\xe0\n\x06\x05\x1e5\x08x\x14'
tRp613
S'281'
p614
I1
ttRp615
sVhttp://mariashriver.com/wp-content/uploads/2015/09/Faith-Cristine-Caine.jpeg
p616
g3
(g4
g5
(g6
(S'\x07\xe0\n\x06\x05\x1e5\x08wP'
tRp617
S'419'
p618
I1
ttRp619
sVhttp://cofm.info/images/COFMissionLogo.gif
p620
g3
(g4
g5
(g6
(S'\x07\xe0\x01\n\x1000\x00\x1e('
tRp621
S'160'
p622
I1
ttRp623
sVhttp://www.andersonhillsumc.org/Websites/andersonhillsumc/Images/Family%20Ministry/faith%205%20logo%20final.png
p624
g3
(g4
g5
(g6
(S'\x07\xe0\x06\r\x0c0&\n\xf7\xc0'
tRp625
S'335'
p626
I1
ttRp627
sVhttp://civilmusic.com/civilmusic/uploads/2013/06/CIV018-JONNY-FAITH-BLUE-SKY-ON-MARS-EP-FRONT-COVER-WEB-2000.png
p628
g3
(g4
g5
(g6
(S'\x07\xe0\t\x1c\x04,\x05\x06mn'
tRp629
I-1
I1
ttRp630
sVhttp://static1.squarespace.com/static/51c7fb34e4b0258246f5496d/t/53a9e36fe4b0c4070a1c5d59/1403642737620/
p631
g3
(g4
g5
(g6
(S'\x07\xdf\x0c\t\x10\x0e\x11\x01\xbfr'
tRp632
S'98'
p633
I1
ttRp634
sVhttp://www.tattoobite.com/wp-content/uploads/2013/12/faith-word-tattoo-on-wrist.jpg
p635
g3
(g4
g5
(g6
(S'\x07\xe0\x02\x01\x11\x01%\x06\xc1f'
tRp636
S'187'
p637
I1
ttRp638
sVhttps://thescriptbible.files.wordpress.com/2014/05/science-and-faith-cover.jpg
p639
g3
(g4
g5
(g6
(S'\x07\xe0\x03\x19\t:-\x07\x90\xad'
tRp640
S'137'
p641
I1
ttRp642
sVhttp://image.shutterstock.com/z/stock-photo-word-faith-painted-calligraphy-word-faith-faith-modern-handwriting-386215717.jpg
p643
g3
(g4
g5
(g6
(S'\x07\xe0\x08\x1d\x04%:\x08*\x8f'
tRp644
S'327'
p645
I1
ttRp646
sVhttp://faithcounts.com/wp-content/uploads/what-faith-affords-3-400x250.jpg
p647
g3
(g4
g5
(g6
(S'\x07\xe0\x08\x17\x02 #\x0f\x0c\xbf'
tRp648
S'383'
p649
I1
ttRp650
sVhttp://www.benziestandrews.com/wp-content/uploads/2015/01/faith-clip.jpg
p651
g3
(g4
g5
(g6
(S'\x07\xe0\x04\x1b\n\x050\x03\xd2.'
tRp652
S'94'
p653
I1
ttRp654
sVhttp://www.voilasuccess.com/wp-content/uploads/2016/02/faith-black-white.jpg
p655
g3
(g4
g5
(g6
(S'\x07\xe0\x04\x1b\n\x050\x03\xd2C'
tRp656
S'250'
p657
I1
ttRp658
sVhttp://seanetng.com/mum/wp-content/uploads/2015/07/faith-1.jpg
p659
g3
(g4
g5
(g6
(S'\x07\xe0\x02\x15\x1149\x05\xa7n'
tRp660
I-1
I1
ttRp661
sVhttp://thedailyquotes.com/wp-content/uploads/2013/07/faith-quote-pictures-sayings-life-motivation-quotes-pics.jpg
p662
g3
(g4
g5
(g6
(S'\x07\xe0\n\x06\x05\x1e5\x08w\x1c'
tRp663
S'372'
p664
I1
ttRp665
sVhttp://becomingengaged.com/wp-content/uploads/2013/01/faith.jpg
p666
g3
(g4
g5
(g6
(S'\x07\xdf\x0c\x02\x05 \x03\x073\xae'
tRp667
S'4'
I1
ttRp668
sVhttp://az616578.vo.msecnd.net/files/2016/06/19/636019580040833658425638705_strong-faith.jpg
p669
g3
(g4
g5
(g6
(S'\x07\xe0\x08\x06\x16\x10\x05\x08\xd5Q'
tRp670
S'429'
p671
I1
ttRp672
sVhttp://images.brits.co.uk/images/Paloma%20Faith_Thumbnail_576_16911_id16911__ar16x9__thumb_940_528.jpg
p673
g3
(g4
g5
(g6
(S'\x07\xe0\n\x06\x05\x1e5\x08w '
tRp674
S'426'
p675
I1
ttRp676
sVhttp://covpresyouth.com/wp-content/uploads/2016/02/faith_1.jpg
p677
g3
(g4
g5
(g6
(S"\x07\xe0\x05\x07\x15\x1e!\x08'\xf1"
tRp678
S'227'
p679
I1
ttRp680
sVhttp://christianlifemissions.org/wp-content/uploads/2015/02/Faith-Statement-Pic.jpg
p681
g3
(g4
g5
(g6
(S'\x07\xe0\x08\x1d\x04%:\x08*\xe8'
tRp682
S'230'
p683
I2
ttRp684
sVhttp://www.faithbaptistchurchny.org/faith-tree-wallpaper.jpg
p685
g3
(g4
g5
(g6
(S'\x07\xe0\x08\x1b\x03:3\x056\xf3'
tRp686
S'410'
p687
I1
ttRp688
sVhttps://weareblackdiamonds.files.wordpress.com/2015/06/leap-1.jpg
p689
g3
(g4
g5
(g6
(S'\x07\xe0\x04\x1b\n\x050\x03\xd2\xa2'
tRp690
S'127'
p691
I1
ttRp692
sVhttps://www.genderspectrum.org/staging/wp-content/uploads/2014/07/Faith.jpg
p693
g3
(g4
g5
(g6
(S'\x07\xe0\x05\x19\t,\x15\x0c\x88E'
tRp694
I-1
I1
ttRp695
sVhttp://www.tattooinn.com/tattoo/chinese/names/F/faith800.jpg
p696
g3
(g4
g5
(g6
(S'\x07\xe0\x07\x13\x0b\x119\x03\xa8\xfb'
tRp697
S'425'
p698
I2
ttRp699
sVhttp://rickwarren.org/images/default-source/Devotional-Images/12-30-15-daring-faith-grow-slow-and-go-in-faith_mini.jpg?sfvrsn=0
p700
g3
(g4
g5
(g6
(S'\x07\xe0\x08\x06\x16\x10\x05\x08\xd4\xcf'
tRp701
S'215'
p702
I1
ttRp703
sVhttps://ecoops.com/file/1762927;jsessionid=BF226C5938B91595F3D2BC770B7BE6D1
p704
g3
(g4
g5
(g6
(S'\x07\xe0\x03\x04\x117\x07\x00\xc0)'
tRp705
S'238'
p706
I1
ttRp707
sVhttp://averastorycenter.org/wp-content/uploads/2015/12/faith-key.jpg
p708
g3
(g4
g5
(g6
(S'\x07\xe0\x06\x1a\x13+\x05\x0b\xea\x17'
tRp709
S'260'
p710
I1
ttRp711
sVhttp://www.umschurch.com/wp-content/uploads/2016/03/faith-road-wallpaper_1920x1200.jpg
p712
g3
(g4
g5
(g6
(S'\x07\xe0\x07\x02\x0f\x05:\x0c\x1e\xc8'
tRp713
S'396'
p714
I1
ttRp715
sVhttp://www.emailguardian.net/wallpaper/gallery/six/faith800.jpg
p716
g3
(g4
g5
(g6
(S'\x07\xe0\x07\x13\x0b\x119\x03\xa9\r'
tRp717
S'265'
p718
I1
ttRp719
sVhttp://brwacademy.com/wp-content/uploads/2015/12/8F20CC7D547A452B8EFD7B0DB9E2D2AD.jpg
p720
g3
(g4
g5
(g6
(S'\x07\xe0\n\x06\x05\x1e5\x08w\xde'
tRp721
NI1
ttRp722
sVhttp://www.jordanburroughs.com/static/sitefiles/blog/faith.jpg
p723
g3
(g4
g5
(g6
(S'\x07\xe0\x04\x1b\n\x050\x03\xd2\x9d'
tRp724
S'288'
p725
I1
ttRp726
sVhttps://pbs.twimg.com/profile_images/468951791199981568/GUehM7De.jpeg
p727
g3
(g4
g5
(g6
(S'\x07\xe0\n\x06\x05\x1e5\x08w\xbc'
tRp728
S'112'
p729
I1
ttRp730
sVhttp://beginningandend.com/wp-content/uploads/2012/10/Praying-Defnding-the-Christian-faith-e1349305115650.jpg
p731
g3
(g4
g5
(g6
(S'\x07\xe0\x08\x17\x02 #\x0f\r '
tRp732
S'72'
p733
I1
ttRp734
sVhttps://victoryoutreachwhittier.files.wordpress.com/2011/04/increaseourfaith.jpg
p735
g3
(g4
g5
(g6
(S'\x07\xe0\x04\x1b\n\x050\x03\xd2\xba'
tRp736
S'323'
p737
I1
ttRp738
sVhttp://s3-ap-southeast-2.amazonaws.com/resources.farm1.mycms.me/uckg-co-nz/Resources/EventImages/Bishop%20Macedo%20MESSAGES/faith%20is%20banner.jpg
p739
g3
(g4
g5
(g6
(S'\x07\xe0\x04\x1b\n\x050\x03\xd2\xef'
tRp740
S'114'
p741
I1
ttRp742
sVhttp://cdn.mos.musicradar.com/images/acoustic-expo/Booth%20logos/Faith-cropped-460-100-90-75.jpg
p743
g3
(g4
g5
(g6
(S'\x07\xe0\x08\x1d\x04%:\x08*\xbb'
tRp744
S'457'
p745
I1
ttRp746
sVhttp://faith-matters.org/images/stories/fm-news/faith%20matters%20logo.png
p747
g3
(g4
g5
(g6
(S'\x07\xe0\x06\x1a\x13+\x05\x0b\xe9k'
tRp748
I-1
I1
ttRp749
sVhttp://www.faith.govoffice.com/vertical/Sites/%7B82CF93EB-8114-4339-BA63-9F3CA9289D9B%7D/uploads/faith_sign10.jpg
p750
g3
(g4
g5
(g6
(S'\x07\xe0\t\x1e\x0431\r\x8d\x04'
tRp751
S'130'
p752
I1
ttRp753
sVhttp://www.3dartistonline.com/users/5625/thm1024/1359659264_Faith.jpg
p754
g3
(g4
g5
(g6
(S'\x07\xe0\x04\x10\x15\t/\x01\x14\xe1'
tRp755
S'287'
p756
I1
ttRp757
sVhttp://eb-blog-education.s3.amazonaws.com/wp-content/uploads/2014/04/Faith-Religious.jpg
p758
g3
(g4
g5
(g6
(S'\x07\xe0\x01\x12\x105\x0b\x05\x14='
tRp759
S'78'
p760
I1
ttRp761
sVhttp://www.atacrossroads.net/wp-content/uploads/2015/07/faith-trust-fall-saul-jonathan-works.jpg
p762
g3
(g4
g5
(g6
(S'\x07\xe0\x03\x04\x117\x07\x00\xbf\xea'
tRp763
S'3'
I1
ttRp764
sVhttp://cubsindia.com/wp-content/uploads/2013/11/believe1.jpg
p765
g3
(g4
g5
(g6
(S'\x07\xe0\x07\x06\x10\x02\x18\x026\xc9'
tRp766
I-1
I1
ttRp767
sVhttp://hudabeauty.com/wp-content/uploads/2013/04/Have-Faith.jpg
p768
g3
(g4
g5
(g6
(S'\x07\xdf\x0c\x02\x05 \x03\x073G'
tRp769
S'6'
I1
ttRp770
sVhttp://www.ronedmondson.com/wp-content/uploads/2012/04/faith.jpg
p771
g3
(g4
g5
(g6
(S'\x07\xdf\x0b\x15\x04\x08$\x01@\xc1'
tRp772
S'69'
p773
I1
ttRp774
sVhttp://www.the-faith.com/wp-content/uploads/2010/12/faith-wallpaper.jpg
p775
g3
(g4
g5
(g6
(S"\x07\xe0\x05\x07\x15\x1e!\x08'\xa4"
tRp776
S'153'
p777
I1
ttRp778
sVhttp://static4.gamespot.com/uploads/scale_super/1490/14900166/2943673-faith.jpg
p779
g3
(g4
g5
(g6
(S'\x07\xe0\x08\x10\x16\x15\n\x08\x93\x1e'
tRp780
S'324'
p781
I1
ttRp782
sVhttp://az616578.vo.msecnd.net/files/2016/04/16/6359642430476297821509075226_Aspects-of-Faith.jpg
p783
g3
(g4
g5
(g6
(S'\x07\xe0\x06\x1a\x13+\x05\x0b\xe9\x8f'
tRp784
S'403'
p785
I1
ttRp786
sVhttp://www.asparkstarts.com/wp-content/uploads/2011/03/faith1.jpg
p787
g3
(g4
g5
(g6
(S'\x07\xe0\x08\x17\x02 #\x0f\x0c\x8a'
tRp788
S'85'
p789
I1
ttRp790
sVhttp://static1.gamespot.com/uploads/scale_super/1490/14900166/2943673-faith.jpg
p791
g3
(g4
g5
(g6
(S'\x07\xe0\x03\x19\t:-\x07\x90\xc0'
tRp792
S'259'
p793
I1
ttRp794
sVhttp://www.lavendermagazine.com/wp-content/uploads/2011/10/faith.jpg
p795
g3
(g4
g5
(g6
(S'\x07\xe0\x08\x17\x02 #\x0f\x0c\x9b'
tRp796
I-1
I1
ttRp797
sVhttps://s-media-cache-ak0.pinimg.com/736x/9a/e0/c1/9ae0c10d279bc103106599d4f67b2931.jpg
p798
g3
(g4
g5
(g6
(S'\x07\xe0\x07\x13\x0b\x119\x03\xa8\x9e'
tRp799
S'434'
p800
I1
ttRp801
sVhttp://kkrewbs.com/wp-content/uploads/2015/09/faith.jpeg
p802
g3
(g4
g5
(g6
(S'\x07\xdf\x0c\x02\x05 \x03\x073w'
tRp803
S'84'
p804
I1
ttRp805
sVhttp://static1.squarespace.com/static/536934b6e4b0c3ef16a97e35/t/53d578e5e4b0343b426ac5ae/1406499086586/
p806
g3
(g4
g5
(g6
(S'\x07\xe0\x07\x13\x0b\x119\x03\xa8\xa7'
tRp807
S'156'
p808
I1
ttRp809
sVhttps://i.ytimg.com/vi/P0eBd7blggs/maxresdefault.jpg
p810
g3
(g4
g5
(g6
(S'\x07\xe0\x08\x1d\x04%:\x08*\x97'
tRp811
S'201'
p812
I1
ttRp813
sVhttp://www.happynewyearhdwallpaper.com/wp-content/uploads/2015/11/Faith-Quotes-3.jpg
p814
g3
(g4
g5
(g6
(S"\x07\xe0\x01\x08\x10'9\n\xa4$"
tRp815
S'121'
p816
I1
ttRp817
sVhttp://faithcounts.com/wp-content/uploads/Faith-Counts-logo-yellow.png
p818
g3
(g4
g5
(g6
(S'\x07\xe0\n\x06\x05\x1e5\x08we'
tRp819
S'420'
p820
I2
ttRp821
sVhttp://www.flcms.org/wp-content/uploads/2015/11/Faith-Come-and-See.jpg
p822
g3
(g4
g5
(g6
(S'\x07\xe0\n\x06\x05\x1e5\x08wm'
tRp823
I-1
I1
ttRp824
sVhttps://faithrxd.org/wp-content/uploads/2014/11/Banner-New.jpg
p825
g3
(g4
g5
(g6
(S'\x07\xe0\x08\x17\x02 #\x0f\x0c\xd4'
tRp826
S'454'
p827
I1
ttRp828
sVhttp://faithsalie.com/wp-content/uploads/2013/01/Faith-Salie-Author-Photo.jpg
p829
g3
(g4
g5
(g6
(S'\x07\xe0\t\x1c\x04,\x05\x06o\xab'
tRp830
S'392'
p831
I1
ttRp832
sVhttp://mariashriver.com/wp-content/uploads/2013/11/Faith-855x1024.jpg?5ab626
p833
g3
(g4
g5
(g6
(S'\x07\xdf\x0b\x18\x04\x0c\x1e\t\x91\x99'
tRp834
S'35'
p835
I1
ttRp836
sVhttp://peterteixeira.files.wordpress.com/2012/06/benjamin-franklin-faith-and-reason-wallpaper1.jpg
p837
g3
(g4
g5
(g6
(S'\x07\xe0\x01\x18\x10:0\x02Fx'
tRp838
S'217'
p839
I2
ttRp840
sVhttp://www.successpraxis.com/wp-content/uploads/2016/01/I-live-by-faith.jpg
p841
g3
(g4
g5
(g6
(S'\x07\xe0\x03\x15\x02\x1c\x05\x0e\xee\x1c'
tRp842
S'249'
p843
I1
ttRp844
sVhttp://rickwarren.org/images/default-source/Devotional-Images/04-05-16-the-daniel-plan-godly-goals-require-faith.jpg?sfvrsn=0
p845
g3
(g4
g5
(g6
(S'\x07\xe0\x07\x1b\x14\x0e\r\x00e\xc4'
tRp846
S'325'
p847
I1
ttRp848
sVhttp://usercontent1.hubimg.com/8453170_f520.jpg
p849
g3
(g4
g5
(g6
(S'\x07\xdf\x0b\x15\x04\x08$\x01@\xf2'
tRp850
S'49'
p851
I1
ttRp852
sVhttp://agapecoc.com/wp-content/uploads/2015/01/faith.jpg
p853
g3
(g4
g5
(g6
(S'\x07\xe0\x08\x17\x02 #\x0f\x0c\xf6'
tRp854
S'54'
p855
I1
ttRp856
sVhttp://link2power.org/wordpress/wp-content/uploads/2015/06/Lifestyle-of-Faith.jpg
p857
g3
(g4
g5
(g6
(S'\x07\xe0\x03\x06\x11;:\x05\xc5\x1b'
tRp858
S'166'
p859
I1
ttRp860
sVhttp://prophetgraybeal.com/wp-content/uploads/2015/11/strong-faith.jpg
p861
g3
(g4
g5
(g6
(S'\x07\xe0\x05\x05\x13,&\x0b\xee\x88'
tRp862
S'203'
p863
I1
ttRp864
sVhttp://www.cathnewsusa.com/wp-content/uploads/2014/08/maxresdefault.jpg
p865
g3
(g4
g5
(g6
(S'\x07\xe0\x01\x18\x10:0\x02F\xae'
tRp866
S'185'
p867
I2
ttRp868
sVhttp://www.davidsoncounselinggroup.com/wp-content/uploads/2015/09/Faith-Hope-Love-sign.jpg
p869
g3
(g4
g5
(g6
(S'\x07\xe0\x03\x06\x11;:\x05\xc5\x08'
tRp870
S'29'
p871
I1
ttRp872
sVhttp://www.thequotepedia.com/images/13/faith-is-being-sure-of-what-we-hope-for-certain-of-what-we-do-not-see-faith-quotes.jpg
p873
g3
(g4
g5
(g6
(S'\x07\xe0\x04\x02\x107\x14\nJ\xb2'
tRp874
S'271'
p875
I1
ttRp876
sVhttp://www.onbeing.org/sites/default/files/styles/width668/public/evolving-faith.jpg?itok=KeF6IJ7W
p877
g3
(g4
g5
(g6
(S'\x07\xe0\x08\x17\x02 #\x0f\r%'
tRp878
S'365'
p879
I1
ttRp880
sVhttp://img12.deviantart.net/7723/i/2012/079/7/1/where_is_the_faith__by_irvinggfm-d3bws0d.jpg
p881
g3
(g4
g5
(g6
(S'\x07\xe0\x04\x1b\n\x050\x03\xd2\xc9'
tRp882
S'40'
p883
I1
ttRp884
sVhttp://www.awyken.com/wp-content/uploads/2014/08/faith.jpg
p885
g3
(g4
g5
(g6
(S'\x07\xe0\t\x1c\x04,\x05\x06oE'
tRp886
S'386'
p887
I1
ttRp888
sVhttps://joonni.files.wordpress.com/2012/11/faith-fanart-17.jpg
p889
g3
(g4
g5
(g6
(S'\x07\xe0\x05\x19\t,\x15\x0c\x88\xb7'
tRp890
S'367'
p891
I1
ttRp892
sVhttp://www.faithandhealthconnection.org/wp-content/uploads/Spirituality-and-Health-Link.jpg
p893
g3
(g4
g5
(g6
(S'\x07\xe0\x08\x06\x16\x10\x05\x08\xd5\x97'
tRp894
I-1
I1
ttRp895
sVhttps://s-media-cache-ak0.pinimg.com/736x/29/1d/9b/291d9bc74281b18327a97be695e41b91.jpg
p896
g3
(g4
g5
(g6
(S'\x07\xe0\x01\n\x1000\x00\x1e\xf5'
tRp897
S'174'
p898
I1
ttRp899
sVhttps://pbs.twimg.com/profile_images/1704410686/wof-twitter_400x400.jpg
p900
g3
(g4
g5
(g6
(S'\x07\xe0\x03\x15\x02\x1c\x05\x0e\xef\x8e'
tRp901
S'102'
p902
I1
ttRp903
sVhttp://static1.squarespace.com/static/51dbe649e4b09506a9c7266f/55dd217de4b087b7fd18cc80/55dd23e6e4b0a550d4a2308c/1440556006626/Faith+a.jpg
p904
g3
(g4
g5
(g6
(S'\x07\xe0\x03\x06\x11;:\x05\xc5C'
tRp905
S'104'
p906
I1
ttRp907
sVhttp://feralsapient.com/wp-content/uploads/2014/04/mirrors-edge-leap-of-faith1.png
p908
g3
(g4
g5
(g6
(S'\x07\xe0\x03\x19\t:-\x07\x91\x0e'
tRp909
I-1
I1
ttRp910
sVhttp://mariashriver.com/wp-content/uploads/2015/09/Faith-Cristine-Caine.jpeg?bd3f04
p911
g3
(g4
g5
(g6
(S'\x07\xe0\x06\x13\x0f\x0c\x1b\x0e\xd4\xe3'
tRp912
S'263'
p913
I1
ttRp914
sVhttp://tahieramoniquebrown.com/tahiera-content/uploads/2014/01/faith.jpg
p915
g3
(g4
g5
(g6
(S'\x07\xe0\t\x1c\x04,\x05\x06m\x8d'
tRp916
I-1
I1
ttRp917
sVhttp://wordwillsave.com/wp-content/uploads/2014/04/iStock_FaithSmall.jpg
p918
g3
(g4
g5
(g6
(S'\x07\xdf\x0b\x18\x04\x0c\x1e\t\x91B'
tRp919
I-1
I1
ttRp920
sVhttp://betrulywealthy.com/wp-content/uploads/2016/02/faith-road-wallpaper_1920x1200.jpg
p921
g3
(g4
g5
(g6
(S'\x07\xe0\x03\x19\t:-\x07\x90\x94'
tRp922
S'223'
p923
I1
ttRp924
sVhttp://www.mercyseat.cc/wp-content/uploads/2016/06/faith-road-wallpaper_1920x1200.jpg
p925
g3
(g4
g5
(g6
(S'\x07\xe0\t\x1e\x0431\r\x8d\x83'
tRp926
S'448'
p927
I1
ttRp928
sVhttp://www.joaoleitao.com/tattoo-name/images/tattoo-design-female-name-faith%20(16).png
p929
g3
(g4
g5
(g6
(S'\x07\xe0\x01\x18\x10:0\x02FH'
tRp930
S'202'
p931
I1
ttRp932
sVhttp://www.oakchurch.org.au/site/assets/files/1019/god-faith-and-love-god-31725465-737-438.jpg
p933
g3
(g4
g5
(g6
(S'\x07\xdf\x0c\x02\x05 \x03\x074\x1a'
tRp934
S'31'
p935
I1
ttRp936
sVhttp://cdn.shopify.com/s/files/1/0263/4853/products/FAITH_Hat_Grey.png?v=1462808966
p937
g3
(g4
g5
(g6
(S'\x07\xe0\x06\x1a\x13+\x05\x0b\xe9\xbd'
tRp938
S'402'
p939
I1
ttRp940
sVhttp://static2.gamespot.com/uploads/scale_super/1490/14900166/2943673-faith.jpg
p941
g3
(g4
g5
(g6
(S'\x07\xe0\t\x1e\x0431\r\x8e\xca'
tRp942
S'471'
p943
I1
ttRp944
sVhttp://cucparamus.com/news/wp-content/uploads/Faith-1.jpg
p945
g3
(g4
g5
(g6
(S'\x07\xdf\x0c\x02\x05 \x03\x073\x9d'
tRp946
S'88'
p947
I1
ttRp948
sVhttps://pbs.twimg.com/profile_images/506386546245644288/BrqYuv7r.jpeg
p949
g3
(g4
g5
(g6
(S'\x07\xe0\x06\x1a\x13+\x05\x0b\xe9z'
tRp950
S'387'
p951
I1
ttRp952
sVhttp://cdn.wallpapersafari.com/14/20/0dpyZT.jpg
p953
g3
(g4
g5
(g6
(S'\x07\xe0\x08\x1d\x04%:\x08*\xed'
tRp954
I-1
I1
ttRp955
sVhttp://www.promenademusic.co.uk/image/cache/data/faith_logo-875x875.jpg
p956
g3
(g4
g5
(g6
(S'\x07\xe0\n\x06\x05\x1e5\x08w\xb6'
tRp957
I-1
I1
ttRp958
sVhttp://commentsmeme.com/wp-content/uploads/2014/03/Faith-Quotes-86.jpg
p959
g3
(g4
g5
(g6
(S'\x07\xe0\x01\x12\x105\x0b\x05\x15\x0c'
tRp960
S'95'
p961
I1
ttRp962
sVhttp://christian-daily.org/wp-content/uploads/2015/05/faith3.jpg
p963
g3
(g4
g5
(g6
(S'\x07\xdf\x0c\x02\x05 \x03\x073\xce'
tRp964
S'82'
p965
I1
ttRp966
sVhttps://fromthedeskofmardrag.files.wordpress.com/2013/10/faith-2.jpg
p967
g3
(g4
g5
(g6
(S'\x07\xe0\x06\x06\r\x1b\t\x0c\xc4T'
tRp968
S'132'
p969
I1
ttRp970
sVhttp://www.cvltnation.com/wp-content/uploads/2014/02/faith_no_more_logo.jpg
p971
g3
(g4
g5
(g6
(S'\x07\xe0\x01\n\x1000\x00\x1eD'
tRp972
S'176'
p973
I1
ttRp974
sVhttp://busheybaptist.org.uk/cgi-bin/files/images/featured/our%20faith.jpg
p975
g3
(g4
g5
(g6
(S'\x07\xe0\x08\x17\x02 #\x0f\x0c\x80'
tRp976
S'362'
p977
I1
ttRp978
sVhttp://coachjamesjustin.com/wp-content/uploads/2015/10/Faith-2.jpg
p979
g3
(g4
g5
(g6
(S'\x07\xe0\x04\x10\x15\t/\x01\x15\xbb'
tRp980
S'57'
p981
I1
ttRp982
sVhttp://media.salon.com/2015/06/shutterstock_210984577.jpg
p983
g3
(g4
g5
(g6
(S'\x07\xe0\n\x06\x05\x1e5\x08w\xee'
tRp984
S'99'
p985
I1
ttRp986
sVhttp://www.stceciliastanwood.org/media/1/Our%20Parish/2014_0104_071a.jpg
p987
g3
(g4
g5
(g6
(S'\x07\xe0\x08\x1d\x04%:\x08+['
tRp988
S'398'
p989
I1
ttRp990
sVhttp://static.independent.co.uk/s3fs-public/thumbnails/image/2015/02/25/17/Paloma_Faith_Brit_Awards.jpg
p991
g3
(g4
g5
(g6
(S'\x07\xe0\x01\x18\x10:0\x02F\xd5'
tRp992
S'142'
p993
I1
ttRp994
sVhttp://www.beliefnet.com/~/media/8F20CC7D547A452B8EFD7B0DB9E2D2AD.ashx
p995
g3
(g4
g5
(g6
(S'\x07\xe0\x05\x16\x14\n)\x03n\xde'
tRp996
S'354'
p997
I1
ttRp998
sVhttp://ekklesiaministries.co.za/wp-content/uploads/Faith-Test_t.jpg
p999
g3
(g4
g5
(g6
(S'\x07\xe0\x04\x1b\n\x050\x03\xd2\xd3'
tRp1000
S'320'
p1001
I1
ttRp1002
sVhttps://mindbodyspiritualawareness.com/wp-content/uploads/2015/10/faith.jpg
p1003
g3
(g4
g5
(g6
(S'\x07\xe0\x03\x04\x117\x07\x00\xbf\xa6'
tRp1004
S'234'
p1005
I1
ttRp1006
sVhttps://breadhere.files.wordpress.com/2013/07/i-have-learned-that-faith-means-trusting-in-advance.gif
p1007
g3
(g4
g5
(g6
(S'\x07\xdf\x0c\x02\x05 \x03\x074\x12'
tRp1008
S'24'
p1009
I1
ttRp1010
sVhttps://s-media-cache-ak0.pinimg.com/736x/eb/4e/29/eb4e29fdf237ba6043d4a26e84bad373.jpg
p1011
g3
(g4
g5
(g6
(S'\x07\xe0\x01\n\x1000\x00\x1e\xfc'
tRp1012
S'172'
p1013
I1
ttRp1014
sVhttp://mariashriver.com/wp-content/uploads/2015/09/Kim-Forrester-Faith-.jpeg
p1015
g3
(g4
g5
(g6
(S'\x07\xe0\n\x06\x05\x1e5\x08w\xfa'
tRp1016
S'418'
p1017
I1
ttRp1018
sVhttp://ai201507.99streets.netdna-cdn.com/wp-content/uploads/2015/06/wordfaitherrors.jpg
p1019
g3
(g4
g5
(g6
(S'\x07\xe0\x08\x17\x02 #\x0f\rO'
tRp1020
I-1
I1
ttRp1021
sVhttps://princessofthelight.files.wordpress.com/2015/01/faith.jpg
p1022
g3
(g4
g5
(g6
(S'\x07\xe0\x06\r\x0c0&\n\xf6S'
tRp1023
S'159'
p1024
I1
ttRp1025
sVhttp://www.drdebcarlin.com/wp-content/uploads/2016/02/7711866066_9ffdaf3078_b.jpg
p1026
g3
(g4
g5
(g6
(S'\x07\xe0\x04\n\x11\n+\x03\xbb)'
tRp1027
S'246'
p1028
I1
ttRp1029
sVhttps://cdn.theatlantic.com/assets/media/img/mt/2015/06/Evolution_1/lead_960.jpg?1434728676
p1030
g3
(g4
g5
(g6
(S'\x07\xe0\t\x1e\x0431\r\x8dI'
tRp1031
S'479'
p1032
I1
ttRp1033
sVhttps://pixabay.com/static/uploads/photo/2015/07/31/11/28/virgin-868970_960_720.jpg
p1034
g3
(g4
g5
(g6
(S'\x07\xe0\x06\r\x0c0&\n\xf6k'
tRp1035
S'378'
p1036
I1
ttRp1037
sVhttp://www.lovethispic.com/uploaded_images/206799-Have-Faith-In-What-Will-Be.jpg
p1038
g3
(g4
g5
(g6
(S'\x07\xe0\x08\x17\x02 #\x0f\x0c\x84'
tRp1039
S'456'
p1040
I1
ttRp1041
sVhttps://theblackcordelias.files.wordpress.com/2010/02/forward-in-faith-light.jpg
p1042
g3
(g4
g5
(g6
(S'\x07\xe0\x02\x1b\x115\x0b\x0f\x14\xaa'
tRp1043
S'149'
p1044
I2
ttRp1045
sVhttps://endtimebibleprophecy.files.wordpress.com/2013/11/live-by-faith-copy.jpg
p1046
g3
(g4
g5
(g6
(S'\x07\xe0\t\x1c\x04,\x05\x06n\x9b'
tRp1047
S'151'
p1048
I1
ttRp1049
sVhttp://reasontostand.org/wp-content/uploads/2010/10/Faith1.jpg
p1050
g3
(g4
g5
(g6
(S'\x07\xe0\x08\x06\x16\x10\x05\x08\xd4\x97'
tRp1051
I-1
I1
ttRp1052
sVhttp://www.theultimatequotes.com/wp-content/uploads/Foprward-In-Faith.jpg
p1053
g3
(g4
g5
(g6
(S'\x07\xe0\x01\x18\x10:0\x02F\xb8'
tRp1054
S'192'
p1055
I1
ttRp1056
sVhttp://wp.production.patheos.com/blogs/christiancrier/files/2015/11/For-we-walk-by-faith-not.jpg
p1057
g3
(g4
g5
(g6
(S'\x07\xe0\x07\x0e\x14\x02\x07\x0eg\x1d'
tRp1058
S'424'
p1059
I1
ttRp1060
sVhttps://agingcapriciously.files.wordpress.com/2015/03/awesomepoweroffaith2_t.jpg
p1061
g3
(g4
g5
(g6
(S'\x07\xe0\x04\x1b\n\x050\x03\xd2$'
tRp1062
S'64'
p1063
I2
ttRp1064
sVhttp://keithburnettministries.com/wp-content/uploads/2016/01/faith-light-and-dark.jpg
p1065
g3
(g4
g5
(g6
(S'\x07\xe0\x05\x19\t,\x15\x0c\x884'
tRp1066
S'239'
p1067
I1
ttRp1068
sVhttps://fortunedotcom.files.wordpress.com/2015/12/faith.png?w=1000
p1069
g3
(g4
g5
(g6
(S'\x07\xe0\n\x06\x05\x1e5\x08w\xa8'
tRp1070
S'382'
p1071
I1
ttRp1072
sVhttp://www.taramullarkey.com/wp-content/uploads/2013/05/faith-vs-fear.jpg
p1073
g3
(g4
g5
(g6
(S'\x07\xe0\x04\x10\x15\t/\x01\x150'
tRp1074
S'292'
p1075
I1
ttRp1076
sVhttp://newhorizonfellowship.com/wp-content/uploads/2016/05/faith-for-blog.jpg
p1077
g3
(g4
g5
(g6
(S'\x07\xe0\x07\x06\x10\x02\x18\x026\xc5'
tRp1078
I-1
I1
ttRp1079
sVhttps://i.ytimg.com/vi/ETdL79jxYK8/maxresdefault.jpg
p1080
g3
(g4
g5
(g6
(S'\x07\xe0\x08\x1d\x04%:\x08*s'
tRp1081
S'216'
p1082
I1
ttRp1083
sVhttp://lfcf.net/wp-content/uploads/2015/07/Living-Faith-Logo-COLOR.png
p1084
g3
(g4
g5
(g6
(S'\x07\xe0\t\x1c\x04,\x05\x06o\x9d'
tRp1085
S'404'
p1086
I1
ttRp1087
sVhttp://api.ning.com/files/s5*jJqkbiBN8Ht3Ju9-II9Cw4YMMye*zdh5u1P8AMoONtPuXYbuAQZL5rsJcvceGZpqWzklbwi1Qape3iOpy9QA2oKzgCsHT/Faith_is_Fear.png
p1088
g3
(g4
g5
(g6
(S'\x07\xe0\x02\x15\x1149\x05\xa7\x82'
tRp1089
S'188'
p1090
I1
ttRp1091
sVhttp://www.faithandentertainment.com/wp-content/uploads/2013/06/Seriously_6.jpg
p1092
g3
(g4
g5
(g6
(S'\x07\xe0\x08\x1b\x03:3\x057\x1f'
tRp1093
S'204'
p1094
I1
ttRp1095
sVhttp://thinkwelllivewellnow.hosterize.com/wp-content/uploads/2012/01/386-STEPPING-OUT-IN-FAITH.jpg
p1096
g3
(g4
g5
(g6
(S'\x07\xe0\x08\x1d\x04%:\x08+\x15'
tRp1097
I-1
I1
ttRp1098
sVhttp://image.shutterstock.com/z/stock-vector-faith-hope-love-320776442.jpg
p1099
g3
(g4
g5
(g6
(S'\x07\xe0\x08\x1d\x04%:\x08+\x1d'
tRp1100
S'393'
p1101
I1
ttRp1102
sVhttp://weneedfun.com/wp-content/uploads/2016/08/Faith-Quotes-2.png
p1103
g3
(g4
g5
(g6
(S'\x07\xe0\t\x1c\x04,\x05\x06op'
tRp1104
S'467'
p1105
I1
ttRp1106
sVhttp://www.beliefnet.com/columnists/everydayinspiration/files/2013/08/have-faith.jpg
p1107
g3
(g4
g5
(g6
(S'\x07\xdf\x0c\x02\x05 \x03\x073\xf9'
tRp1108
I-1
I1
ttRp1109
sVhttps://www.colourbox.com/preview/6615712-person-showing-faith-in-lord-by-holding-holy-cross-vector-graphic.jpg
p1110
g3
(g4
g5
(g6
(S'\x07\xe0\t\x1e\x0431\r\x8e\x8e'
tRp1111
S'477'
p1112
I1
ttRp1113
sVhttp://www.benziestandrews.com/wp-content/uploads/2015/01/Faith3.jpg
p1114
g3
(g4
g5
(g6
(S'\x07\xe0\x06\x06\r\x1b\t\x0c\xc4t'
tRp1115
S'22'
p1116
I1
ttRp1117
sVhttp://www.greenleafvineyard.com/wp-content/uploads/2015/02/Leap_of_Faith.jpg
p1118
g3
(g4
g5
(g6
(S'\x07\xe0\x05\x19\t,\x15\x0c\x88c'
tRp1119
S'346'
p1120
I1
ttRp1121
sVhttp://shannahatfield.files.wordpress.com/2013/01/faith.jpg
p1122
g3
(g4
g5
(g6
(S'\x07\xe0\x02\x1b\x115\x0b\x0f\x15\x1c'
tRp1123
S'148'
p1124
I1
ttRp1125
sVhttp://media.saddlebackfamily.com/e8d7a163-bcc4-4c78-93f9-51b5824996db.aspx?z=Pwi0Ecc8rQnySIJTk43vTm+NROlITI61AxDKWjJIytU1i3ZnGvBfUQjG/qDYF+WuBIa9ueI2V4yqKJradpPKJoe05pnZQ/g+q+RGZPjBfG8LsT2KEGhbAQ==
p1126
g3
(g4
g5
(g6
(S'\x07\xe0\x01\x1c\x11\x005\n\xf7q'
tRp1127
S'214'
p1128
I1
ttRp1129
sVhttp://media-cache-ec0.pinimg.com/originals/3c/c7/98/3cc7980b7cbd18ee64417e2201624e51.jpg
p1130
g3
(g4
g5
(g6
(S"\x07\xe0\x01\x08\x10'9\n\xa4\xa6"
tRp1131
S'58'
p1132
I1
ttRp1133
sVhttp://www.wthu.org/wp-content/uploads/2015/06/Living-faith-logo.jpg
p1134
g3
(g4
g5
(g6
(S'\x07\xe0\x05\x05\x13,&\x0b\xef\x0b'
tRp1135
S'286'
p1136
I1
ttRp1137
sVhttp://www.benziestandrews.com/wp-content/uploads/2015/01/Faith-Book.jpg
p1138
g3
(g4
g5
(g6
(S'\x07\xe0\x05\x19\t,\x15\x0c\x88y'
tRp1139
S'67'
p1140
I1
ttRp1141
sVhttps://s3.amazonaws.com/assets.dischord.com/images.d/release/image/446944/172_250.jpg
p1142
g3
(g4
g5
(g6
(S'\x07\xe0\n\x06\x05\x1e5\x08w\x05'
tRp1143
S'164'
p1144
I1
ttRp1145
sVhttp://ffwatertown.com/church/wp-content/uploads/2015/01/another.png
p1146
g3
(g4
g5
(g6
(S'\x07\xe0\n\x06\x05\x1e5\x08wt'
tRp1147
I-1
I1
ttRp1148
sVhttp://az616578.vo.msecnd.net/files/2016/06/18/636018622516705215492689983_faith_1.jpg
p1149
g3
(g4
g5
(g6
(S'\x07\xe0\x08\x17\x02 #\x0f\x0cs'
tRp1150
S'432'
p1151
I1
ttRp1152
sVhttp://az616578.vo.msecnd.net/files/2016/03/04/635926501806500264-43103110_faith-trust-fall-saul-jonathan-works-1.jpg
p1153
g3
(g4
g5
(g6
(S'\x07\xe0\x08\x17\x02 #\x0f\x0cw'
tRp1154
S'256'
p1155
I1
ttRp1156
sVhttps://s-media-cache-ak0.pinimg.com/736x/df/8a/d8/df8ad8508a1ab0eb6d6499be42cdff70.jpg
p1157
g3
(g4
g5
(g6
(S'\x07\xe0\x03\x1d\n-4\x07\x81\x9d'
tRp1158
S'262'
p1159
I1
ttRp1160
sVhttp://www.designgab.com/wp-content/uploads/2015/08/Faith-Quotes.jpg
p1161
g3
(g4
g5
(g6
(S'\x07\xe0\x01\n\x1000\x00\x1eU'
tRp1162
S'171'
p1163
I1
ttRp1164
sVhttp://www.christianfamilynashville.com/wp-content/uploads/2016/03/Faith-@-Work-questioning-God.jpg
p1165
g3
(g4
g5
(g6
(S'\x07\xe0\t\x1c\x04,\x05\x06ni'
tRp1166
I-1
I1
ttRp1167
sVhttp://eb-blog-blog.s3.amazonaws.com/wp-content/uploads/2014/04/Faith-Religious.jpg
p1168
g3
(g4
g5
(g6
(S'\x07\xe0\x02\x1b\x115\x0b\x0f\x14\xba'
tRp1169
S'210'
p1170
I1
ttRp1171
sVhttp://commentsmeme.com/wp-content/uploads/2014/03/Faith-Quotes-43.jpg
p1172
g3
(g4
g5
(g6
(S'\x07\xe0\n\x06\x05\x1e5\x08wG'
tRp1173
S'177'
p1174
I1
ttRp1175
sVhttp://www.derekleman.com/wp-content/uploads/2015/03/faithPrayer.jpg
p1176
g3
(g4
g5
(g6
(S'\x07\xe0\x08\x17\x02 #\x0f\x0c_'
tRp1177
I-1
I1
ttRp1178
sVhttps://s3.amazonaws.com/static.customizedgirl.com/images/storefront/avatar_10575.png
p1179
g3
(g4
g5
(g6
(S'\x07\xe0\t\x1e\x0431\r\x8d\xaf'
tRp1180
S'371'
p1181
I1
ttRp1182
sVhttp://geniusquotes.org/wp-content/uploads/2014/02/Faith-Quotes_leap-of-faith-quote-1.png
p1183
g3
(g4
g5
(g6
(S'\x07\xe0\x08\x1d\x04%:\x08*\xa3'
tRp1184
I-1
I1
ttRp1185
sVhttp://valiantuniverse.com/wp-content/uploads/2015/09/FAITH_001_VARIANT_KANO-640x984.jpg
p1186
g3
(g4
g5
(g6
(S'\x07\xe0\n\x06\x05\x1e5\x08wU'
tRp1187
S'270'
p1188
I1
ttRp1189
sVhttp://fafcakron.com/media/1/Church_back.jpg
p1190
g3
(g4
g5
(g6
(S'\x07\xe0\x02\x1b\x115\x0b\x0f\x14m'
tRp1191
I-1
I1
ttRp1192
sVhttp://s.isha.ws/blog/wp-content/uploads/2016/03/creating-the-right-conditions-for-faith.jpg
p1193
g3
(g4
g5
(g6
(S'\x07\xe0\x07\x13\x0b\x119\x03\xa9N'
tRp1194
I-1
I1
ttRp1195
sVhttp://cdn.alleywatch.com/wp-content/uploads/2014/04/Leap-of-Faith.jpg
p1196
g3
(g4
g5
(g6
(S'\x07\xe0\x06\n\x0f\x0e#\x05$b'
tRp1197
S'381'
p1198
I1
ttRp1199
sVhttps://armstrongbiblechapelbc.files.wordpress.com/2013/02/by-faith.jpg
p1200
g3
(g4
g5
(g6
(S'\x07\xe0\x04\x1b\n\x050\x03\xd2V'
tRp1201
S'296'
p1202
I1
ttRp1203
sVhttp://img.picturequotes.com/2/3/2252/sometimes-you-have-to-take-a-leap-of-faith-quote-1.jpg
p1204
g3
(g4
g5
(g6
(S'\x07\xe0\x03\x06\x11;:\x05\xc4\xce'
tRp1205
S'245'
p1206
I1
ttRp1207
sVhttps://www.fccga.com/images/fcc_bg_sized_3.jpg
p1208
g3
(g4
g5
(g6
(S'\x07\xe0\x02\x15\x1149\x05\xa7Z'
tRp1209
S'56'
p1210
I1
ttRp1211
sVhttp://img04.deviantart.net/1ba5/i/2008/259/7/1/faith_visual_poem_by_meljoy68.jpg
p1212
g3
(g4
g5
(g6
(S'\x07\xe0\x06\n\x0f\x0e#\x05$C'
tRp1213
S'413'
p1214
I1
ttRp1215
sVhttps://yahwehssong.files.wordpress.com/2013/02/sharing-faith.jpg
p1216
g3
(g4
g5
(g6
(S'\x07\xe0\x06\x16\n\x15\x19\x0c\x13L'
tRp1217
S'401'
p1218
I1
ttRp1219
sVhttp://cdn.shopify.com/s/files/1/0263/4853/products/Active_Faith_Music_Staff_3D_Final.png?v=1424765915
p1220
g3
(g4
g5
(g6
(S'\x07\xe0\x01\x18\x10:0\x02F\x7f'
tRp1221
S'209'
p1222
I1
ttRp1223
sVhttps://s-media-cache-ak0.pinimg.com/736x/f9/e8/0e/f9e80e5e70fb56a338441642ed604c72.jpg
p1224
g3
(g4
g5
(g6
(S'\x07\xe0\x01\n\x1000\x00\x1e\xa0'
tRp1225
S'169'
p1226
I1
ttRp1227
sVhttps://agingcapriciously.files.wordpress.com/2015/03/faith-and-flying.jpg
p1228
g3
(g4
g5
(g6
(S'\x07\xe0\x04\x1b\n\x050\x03\xd2_'
tRp1229
S'19'
p1230
I1
ttRp1231
sVhttp://www.hippoquotes.com/img/faith-quotes-from-the-bible/Bible-Verses-On-Faith-Isaiah-40-31-River-Scripture-HD-Wallpaper.jpg
p1232
g3
(g4
g5
(g6
(S'\x07\xe0\t\x1e\x0431\r\x8e\x00'
tRp1233
I-1
I1
ttRp1234
sVhttps://i.ytimg.com/vi/P8PLBQrzWQ8/maxresdefault.jpg
p1235
g3
(g4
g5
(g6
(S'\x07\xe0\x04\x10\x15\t/\x01\x15\x8b'
tRp1236
S'319'
p1237
I1
ttRp1238
sVhttp://jp.notforsalecampaign.org/wp-content/uploads/2009/02/Banner_Faith-942x250.jpg
p1239
g3
(g4
g5
(g6
(S'\x07\xe0\x05\x19\t,\x15\x0c\x88m'
tRp1240
S'360'
p1241
I1
ttRp1242
sVhttps://s-media-cache-ak0.pinimg.com/736x/70/0a/56/700a56063bbd8d1f98df46409e9af8ef.jpg
p1243
g3
(g4
g5
(g6
(S'\x07\xe0\x05\x19\t,\x15\x0c\x88\xb2'
tRp1244
S'353'
p1245
I1
ttRp1246
sVhttp://www.seedsoffaithdesigns.com/wp-content/uploads/2015/10/SOF-In-Oceans-Deep-My-Faith-Will-Stand_web.jpg
p1247
g3
(g4
g5
(g6
(S'\x07\xe0\n\x06\x05\x1e5\x08w\xd1'
tRp1248
S'483'
p1249
I1
ttRp1250
sVhttp://www.flavorpaper.com/images/uploads/patterns/main/Leap-of-Faith-for-Web.jpg
p1251
g3
(g4
g5
(g6
(S'\x07\xe0\x04\x1b\n\x050\x03\xd2\x94'
tRp1252
S'304'
p1253
I1
ttRp1254
sVhttps://cassie274.files.wordpress.com/2015/01/513-1-awesomepoweroffaith2_t.jpg
p1255
g3
(g4
g5
(g6
(S'\x07\xdf\n\x19\x031&\x0c\xb0\x0c'
tRp1256
S'37'
p1257
I1
ttRp1258
sVhttp://www.uckg.co.nz/Resources/EventImages/Bishop%20Macedo%20MESSAGES/faith%20is%20banner.jpg
p1259
g3
(g4
g5
(g6
(S'\x07\xe0\x03\x04\x117\x07\x00\xc02'
tRp1260
S'251'
p1261
I1
ttRp1262
sVhttp://www.bibleversesaboutlife.com/wp-content/uploads/2014/10/faith-bible-verses.jpg
p1263
g3
(g4
g5
(g6
(S'\x07\xe0\x02\x01\x11\x01%\x06\xc1\xe9'
tRp1264
S'199'
p1265
I1
ttRp1266
sVhttp://newcreeations.org/wp-content/uploads/2015/11/RaisedHands.jpg
p1267
g3
(g4
g5
(g6
(S'\x07\xe0\x04\x10\x15\t/\x01\x15\xd6'
tRp1268
I-1
I1
ttRp1269
sVhttps://faithfilm.files.wordpress.com/2012/07/faith-film1.jpg
p1270
g3
(g4
g5
(g6
(S'\x07\xe0\t\x1c\x04,\x05\x06mw'
tRp1271
S'399'
p1272
I1
ttRp1273
sVhttp://blindfaithlive.com/wp-content/uploads/2013/08/BlindFaithLive_Logo-FNL-1400pix.jpg
p1274
g3
(g4
g5
(g6
(S'\x07\xe0\t\x1c\x04,\x05\x06oS'
tRp1275
S'390'
p1276
I2
ttRp1277
sVhttp://ilovebeingchristian.com/wp-content/uploads/it-s-time-to-have-bold-faith-faith-quote.jpg
p1278
g3
(g4
g5
(g6
(S'\x07\xe0\x04\x1b\n\x050\x03\xd2\xf4'
tRp1279
S'298'
p1280
I1
ttRp1281
sVhttp://lifetreecounseling.com/wp-content/uploads/2015/01/strong-faith.jpg
p1282
g3
(g4
g5
(g6
(S'\x07\xe0\x01\x14\x109\x00\x03+\xf7'
tRp1283
I-1
I1
ttRp1284
sVhttp://s3.amazonaws.com/ligonier-public-media/blog/blog-post-images/Faith-Alone_620.jpg
p1285
g3
(g4
g5
(g6
(S'\x07\xe0\x05\x19\t,\x15\x0c\x87\xcb'
tRp1286
S'36'
p1287
I1
ttRp1288
sVhttp://alfonsoderose.com/wp-content/uploads/2014/02/believe.jpg
p1289
g3
(g4
g5
(g6
(S'\x07\xe0\x01\n\x1000\x00\x1eI'
tRp1290
S'48'
p1291
I1
ttRp1292
sVhttp://ultimateclassicrock.com/files/2016/03/blind.jpg?w=630&h=420&zc=2&cc=000000&a=t
p1293
g3
(g4
g5
(g6
(S'\x07\xe0\x08\x10\x16\x15\n\x08\x93\x16'
tRp1294
S'455'
p1295
I1
ttRp1296
sVhttps://www.ou.org/life/files/Faith.jpg
p1297
g3
(g4
g5
(g6
(S'\x07\xdf\x0b\x0e\x04\x05;\x05f\xf3'
tRp1298
S'61'
p1299
I1
ttRp1300
sVhttps://lh6.ggpht.com/I7wwuQWDu_FU74kQDzYov3G7vburbT1pLPA9SpGIRNLP6dfzPGRkIM7_p9x2Afk3Hq8=h900
p1301
g3
(g4
g5
(g6
(S'\x07\xe0\x04\x1b\n\x050\x03\xd2\x0c'
tRp1302
S'316'
p1303
I1
ttRp1304
sVhttps://stream.org/wp-content/uploads/Blind-Leap-of-Faith-900.jpg
p1305
g3
(g4
g5
(g6
(S'\x07\xe0\x08\x10\x16\x15\n\x08\x93*'
tRp1306
S'443'
p1307
I1
ttRp1308
sVhttp://www.morethanasundayfaith.com/wp-content/uploads/2013/10/genuine-faith.jpg
p1309
g3
(g4
g5
(g6
(S'\x07\xe0\x02\x1b\x115\x0b\x0f\x14\xa6'
tRp1310
S'147'
p1311
I1
ttRp1312
sVhttp://pastorrick.com/images/default-source/Devotional-Images/12-27-15-daring-faith-your-faith-can-move-mountains_mini.jpg?sfvrsn=0
p1313
g3
(g4
g5
(g6
(S'\x07\xe0\n\x06\x05\x1e5\x08w8'
tRp1314
S'480'
p1315
I1
ttRp1316
sVhttp://lifehopeandtruth.com/uploads/images/faith-of-abraham.jpg
p1317
g3
(g4
g5
(g6
(S'\x07\xe0\x08\x17\x02 #\x0f\x0c\x93'
tRp1318
S'108'
p1319
I1
ttRp1320
sVhttp://www.onbeing.org/sites/default/files/null/evolving-faith_lead.jpg
p1321
g3
(g4
g5
(g6
(S'\x07\xdf\n\x19\x031&\x0c\xaf\x9f'
tRp1322
S'16'
p1323
I1
ttRp1324
sVhttp://media.salemwebnetwork.com/cms/CW/Inspirations/28242-faith-makes-miracles.1200w.tn.jpg
p1325
g3
(g4
g5
(g6
(S'\x07\xe0\x07\x06\x10\x02\x18\x026Z'
tRp1326
S'240'
p1327
I1
ttRp1328
sVhttp://mariashriver.com/wp-content/uploads/2015/09/Kim-Forrester-Faith-.jpeg?bd3f04
p1329
g3
(g4
g5
(g6
(S'\x07\xe0\x06\r\x0c0&\n\xf6\xd8'
tRp1330
S'329'
p1331
I1
ttRp1332
sVhttps://cruxnow.com/wp-content/uploads/2016/03/Faith.jpg
p1333
g3
(g4
g5
(g6
(S'\x07\xe0\x08\x10\x16\x15\n\x08\x93\xa9'
tRp1334
S'453'
p1335
I1
ttRp1336
sVhttp://pre00.deviantart.net/4950/th/pre/i/2012/079/7/1/where_is_the_faith__by_irvinggfm-d3bws0d.jpg
p1337
g3
(g4
g5
(g6
(S'\x07\xe0\x04\x1b\n\x050\x03\xd2['
tRp1338
S'65'
p1339
I1
ttRp1340
sVhttp://image.shutterstock.com/z/stock-photo-faith-modern-cursive-word-faith-handwritten-printable-faith-background-386709298.jpg
p1341
g3
(g4
g5
(g6
(S'\x07\xe0\t\x1c\x04,\x05\x06n<'
tRp1342
S'389'
p1343
I1
ttRp1344
sVhttp://www.mediaatvictory.com/images/series/FaithLikeAbraham.jpg
p1345
g3
(g4
g5
(g6
(S'\x07\xe0\x06\x13\x0f\x0c\x1b\x0e\xd5Q'
tRp1346
S'394'
p1347
I1
ttRp1348
sVhttp://faithchurch.com/wp-content/uploads/2014/11/ecity2.jpg
p1349
g3
(g4
g5
(g6
(S'\x07\xe0\x01\x18\x10:0\x02F|'
tRp1350
I-1
I1
ttRp1351
sVhttp://www.joyquint.com/wp-content/uploads/2015/04/faith-1.jpg
p1352
g3
(g4
g5
(g6
(S'\x07\xdf\x0c\x02\x05 \x03\x073\xaa'
tRp1353
S'42'
p1354
I1
ttRp1355
sVhttp://gabrielsreport.com/wp-content/uploads/2013/08/faith-sky-poster.jpg
p1356
g3
(g4
g5
(g6
(S'\x07\xe0\x04\x0e\x11\x0c2\x0b\xc5\xa2'
tRp1357
S'299'
p1358
I1
ttRp1359
sVhttps://faithbibleministries.files.wordpress.com/2014/06/faith-oswald-chambers-550x320.jpg
p1360
g3
(g4
g5
(g6
(S'\x07\xdf\x0c\x02\x05 \x03\x073\xca'
tRp1361
S'59'
p1362
I1
ttRp1363
sVhttps://pbs.twimg.com/profile_images/1616922022/FAITH_master_with_PJE.jpg
p1364
g3
(g4
g5
(g6
(S'\x07\xe0\x03\x19\t:-\x07\x90\xaa'
tRp1365
S'97'
p1366
I1
ttRp1367
sVhttp://www.bibleverseimages.com/faith-bible-verse-3l.jpg
p1368
g3
(g4
g5
(g6
(S'\x07\xe0\n\x06\x05\x1e5\x08w\xb1'
tRp1369
S'428'
p1370
I1
ttRp1371
sVhttp://www.kristenrafajko.com/wp-content/uploads/2013/01/cus1035faith.jpg
p1372
g3
(g4
g5
(g6
(S'\x07\xe0\x04\x1b\n\x050\x03\xd2\xb6'
tRp1373
S'87'
p1374
I1
ttRp1375
sVhttp://www.onbeing.org/sites/default/files/styles/width668/public/evolving-faith.jpg?itok=p9RClL16
p1376
g3
(g4
g5
(g6
(S'\x07\xe0\x05\x05\x13,&\x0b\xed\xc9'
tRp1377
S'258'
p1378
I1
ttRp1379
sVhttp://www.benziestandrews.com/wp-content/uploads/2015/01/faith11.jpg
p1380
g3
(g4
g5
(g6
(S"\x07\xdf\x0c\x1f\x10'\x17\x020\x90"
tRp1381
S'66'
p1382
I1
ttRp1383
sVhttps://wheelchairjunkie.files.wordpress.com/2016/08/fath.jpg
p1384
g3
(g4
g5
(g6
(S'\x07\xe0\n\x06\x05\x1e5\x08w\xe1'
tRp1385
S'485'
p1386
I1
ttRp1387
sVhttps://shannahatfield.files.wordpress.com/2013/01/faith.jpg
p1388
g3
(g4
g5
(g6
(S'\x07\xe0\x08\x1d\x04%:\x08+"'
tRp1389
S'465'
p1390
I1
ttRp1391
sVhttp://www.guardianquest.com/blog/wp-content/uploads/2014/02/got-faith_t.jpg
p1392
g3
(g4
g5
(g6
(S'\x07\xe0\x04\x1b\n\x050\x03\xd2\xac'
tRp1393
S'134'
p1394
I1
ttRp1395
sVhttps://s-media-cache-ak0.pinimg.com/564x/7b/ed/0d/7bed0d95462f61a11793aafc63b9563c.jpg
p1396
g3
(g4
g5
(g6
(S'\x07\xe0\x08\x17\x02 #\x0f\r1'
tRp1397
S'452'
p1398
I1
ttRp1399
sVhttp://www.livinghopega.com/wp-content/uploads/2014/01/blocks-faith.jpg
p1400
g3
(g4
g5
(g6
(S'\x07\xe0\x04\x1b\n\x050\x03\xd2\xce'
tRp1401
S'125'
p1402
I1
ttRp1403
sVhttp://faithrxd.org/wp-content/uploads/2014/11/Banner-New.jpg
p1404
g3
(g4
g5
(g6
(S'\x07\xe0\x08\x06\x16\x10\x05\x08\xd5\x84'
tRp1405
S'231'
p1406
I1
ttRp1407
sVhttps://pixabay.com/static/uploads/photo/2014/12/23/00/43/faith-577874_960_720.jpg
p1408
g3
(g4
g5
(g6
(S'\x07\xe0\x06\r\x0c0&\n\xf7\xc7'
tRp1409
S'282'
p1410
I1
ttRp1411
sVhttp://www.livingwellspendingless.com/wp-content/uploads/2014/07/Leap-of-Faith-Square-1024x1024.jpg
p1412
g3
(g4
g5
(g6
(S'\x07\xe0\x04\x10\x15\t/\x01\x16\x02'
tRp1413
S'318'
p1414
I1
ttRp1415
sVhttps://7321-presscdn-0-57-pagely.netdna-ssl.com/wp-content/uploads/2015/11/faith-valiant.jpg
p1416
g3
(g4
g5
(g6
(S'\x07\xe0\x05\x10\x10\x1c3\x00\xcb\x91'
tRp1417
I-1
I1
ttRp1418
sVhttp://bloximages.chicago2.vip.townnews.com/missoulian.com/content/tncms/assets/v3/editorial/9/99/999b46a3-49e0-5a54-a96a-ad4157d261b5/56bd2b8dad414.image.jpg
p1419
g3
(g4
g5
(g6
(S'\x07\xe0\x07\x1d\x14\x14\x1a\x04\xdc0'
tRp1420
S'326'
p1421
I1
ttRp1422
sVhttp://www.womenoffaith.com/wp-content/themes/wof/img/loved-logo.png
p1423
g3
(g4
g5
(g6
(S'\x07\xe0\x03\x19\t:-\x07\x91;'
tRp1424
S'255'
p1425
I1
ttRp1426
sVhttps://upload.wikimedia.org/wikipedia/commons/e/ea/Triumph_of_Faith_over_Idolatry_Theodon.jpg
p1427
g3
(g4
g5
(g6
(S'\x07\xe0\t\x1c\x04,\x05\x06m5'
tRp1428
S'150'
p1429
I2
ttRp1430
sVhttp://www.beliefnet.com/columnists/everydayinspiration/files/2015/01/faith.png
p1431
g3
(g4
g5
(g6
(S'\x07\xe0\x06\x06\r\x1b\t\x0c\xc3\xa0'
tRp1432
S'34'
p1433
I1
ttRp1434
sVhttp://www.illustratedfaith.com/wp-content/uploads/2014/10/favicon1.jpg
p1435
g3
(g4
g5
(g6
(S'\x07\xe0\x01\x14\x109\x00\x03+\xfc'
tRp1436
S'186'
p1437
I1
ttRp1438
sVhttp://i2.cdn.turner.com/cnnnext/dam/assets/150511065206-karimi-faith-full-169.jpg
p1439
g3
(g4
g5
(g6
(S'\x07\xe0\x04\x1b\n\x050\x03\xd2n'
tRp1440
S'305'
p1441
I1
ttRp1442
sVhttp://www.quotesoftheday.org/wp-content/uploads/2012/06/faith-quotes1.jpg
p1443
g3
(g4
g5
(g6
(S'\x07\xe0\x08\x1d\x04%:\x08+&'
tRp1444
S'463'
p1445
I1
ttRp1446
sVhttp://www.karipenner.com/wp-content/uploads/2013/12/choos-faith.jpg
p1447
g3
(g4
g5
(g6
(S'\x07\xe0\x08\x1d\x04%:\x08*\x83'
tRp1448
I-1
I1
ttRp1449
sVhttp://trem.org/home/wp-content/uploads/2015/02/faith-1.jpg
p1450
g3
(g4
g5
(g6
(S'\x07\xe0\x01\n\x1000\x00\x1e\\'
tRp1451
S'26'
p1452
I1
ttRp1453
sVhttp://rack.2.mshcdn.com/media/ZgkyMDE1LzExLzEyL2VkL0ZBSVRIMDAyX0NvLjFmZjZjLmpwZwpwCXRodW1iCTk1MHg1MzQjCmUJanBn/320489f3/8e8/FAITH002_CoverA.jpg
p1454
g3
(g4
g5
(g6
(S'\x07\xe0\x05\x10\x10\x1c3\x00\xca\xcb'
tRp1455
S'359'
p1456
I2
ttRp1457
sVhttps://www.lastresortrecovery.com/wp-content/uploads/2015/08/faith-based-recovery.jpg
p1458
g3
(g4
g5
(g6
(S'\x07\xdf\x0b\x0e\x04\x05;\x05g\x06'
tRp1459
I-1
I1
ttRp1460
sVhttp://www.oasisthevenue.co.uk/wp-content/uploads/faith.jpg
p1461
g3
(g4
g5
(g6
(S'\x07\xdf\n\x19\x031&\x0c\xb0S'
tRp1462
I-1
I1
ttRp1463
sVhttp://www.bibleversesaboutlife.com/wp-content/uploads/2014/11/leap-of-faith-quote.png
p1464
g3
(g4
g5
(g6
(S'\x07\xe0\t\x1e\x0431\r\x8d\x8b'
tRp1465
S'51'
p1466
I1
ttRp1467
sVhttp://faithbellairemain.files.wordpress.com/2014/06/men-of-faith-graphic.jpg
p1468
g3
(g4
g5
(g6
(S'\x07\xe0\x03\x06\x11;:\x05\xc4\xac'
tRp1469
S'248'
p1470
I1
ttRp1471
sVhttp://www.lovethispic.com/uploaded_images/17872-Have-Faith.jpg
p1472
g3
(g4
g5
(g6
(S'\x07\xe0\n\x06\x05\x1e5\x08w\x18'
tRp1473
S'90'
p1474
I1
ttRp1475
sVhttps://medicalministrytrips.org/wp-content/uploads/2014/12/Faith-closeup.jpg
p1476
g3
(g4
g5
(g6
(S'\x07\xe0\x08\x1d\x04%:\x08*j'
tRp1477
I-1
I1
ttRp1478
sVhttp://media.salemwebnetwork.com/cms/CW/faith/13248-high-bar-jump-silhouette-athletes.1200w.tn.jpg
p1479
g3
(g4
g5
(g6
(S'\x07\xe0\n\x06\x05\x1e5\x08w@'
tRp1480
NI1
ttRp1481
sVhttp://cdn.shopify.com/s/files/1/0090/5122/products/faith_to_live_by_1024x1024.jpg?v=1344019293
p1482
g3
(g4
g5
(g6
(S'\x07\xe0\x03\x19\t:-\x07\x90\x7f'
tRp1483
S'110'
p1484
I2
ttRp1485
sVhttp://wp.production.patheos.com/blogs/friendlyatheist/files/2016/02/YourFaithCover.jpg
p1486
g3
(g4
g5
(g6
(S'\x07\xe0\n\x06\x05\x1e5\x08w$'
tRp1487
S'267'
p1488
I1
ttRp1489
sVhttp://www.thegatheringtulsa.com/images/Bible%20Statement%20of%20Faith.001.jpg
p1490
g3
(g4
g5
(g6
(S'\x07\xe0\x02\x1b\x115\x0b\x0f\x15\t'
tRp1491
S'70'
p1492
I2
ttRp1493
sVhttp://cdn.quotesgram.com/img/17/66/1202986140-leap-of-faith-quote.png
p1494
g3
(g4
g5
(g6
(S'\x07\xe0\x06\x13\x0f\x0c\x1b\x0e\xd5v'
tRp1495
I-1
I1
ttRp1496
sVhttp://believers4ever.com/wp-content/uploads/2016/04/faith-can-move-mountains.png
p1497
g3
(g4
g5
(g6
(S'\x07\xe0\x06\x16\n\x15\x19\x0c\x13\x0f'
tRp1498
S'405'
p1499
I1
ttRp1500
sVhttp://thestatelessman.com/wp-content/uploads/2013/03/Faith.jpg
p1501
g3
(g4
g5
(g6
(S'\x07\xe0\t\x1c\x04,\x05\x06p6'
tRp1502
S'39'
p1503
I1
ttRp1504
sVhttp://buildingontheword.org/wp-content/uploads/2015/07/faith.jpg
p1505
g3
(g4
g5
(g6
(S'\x07\xe0\x02\x15\x1149\x05\xa7\xc4'
tRp1506
S'20'
p1507
I1
ttRp1508
sVhttp://img.shoppingnexus.com/products/faith-is-the-substance-of-things-hoped-for-black-vinyl-wall-art.jpg
p1509
g3
(g4
g5
(g6
(S'\x07\xe0\x06\x06\r\x1b\t\x0c\xc4}'
tRp1510
S'343'
p1511
I1
ttRp1512
sVhttp://lghttp.31936.nexcesscdn.net/80E4B6/images/media/catalog/product/cache/1/image/750x/040ec09b1e35df139433887a97daa66f/f/a/faith-bigger-than-fear-wood-print.jpg
p1513
g3
(g4
g5
(g6
(S'\x07\xe0\x06\n\x0f\x0e#\x05$\xb9'
tRp1514
S'332'
p1515
I1
ttRp1516
sVhttp://armstrongbiblechapelbc.files.wordpress.com/2013/02/by-faith.jpg
p1517
g3
(g4
g5
(g6
(S'\x07\xdf\x0c\n\x10\x070\r\x84\xe9'
tRp1518
S'128'
p1519
I1
ttRp1520
sVhttp://www.clarksburgcc.org/wp-content/uploads/2014/01/Aspects-of-Faith.jpg
p1521
g3
(g4
g5
(g6
(S'\x07\xe0\t\x1c\x04,\x05\x06p\xb4'
tRp1522
S'229'
p1523
I1
ttRp1524
sVhttp://forwardministries.org/wp-content/uploads/2014/12/faith.jpg
p1525
g3
(g4
g5
(g6
(S'\x07\xe0\x05\x19\t,\x15\x0c\x88J'
tRp1526
S'356'
p1527
I1
ttRp1528
sVhttp://biblemesh.com/blog/wp-content/uploads/2013/11/faith2.jpg
p1529
g3
(g4
g5
(g6
(S'\x07\xdf\n\x19\x031&\x0c\xb0j'
tRp1530
S'45'
p1531
I1
ttRp1532
sVhttp://imagecache5d.allposters.com/watermarker/14-1432-BCER000Z.jpg?ch=775&cw=775
p1533
g3
(g4
g5
(g6
(S'\x07\xe0\t\x1e\x0431\r\x8e\xba'
tRp1534
S'476'
p1535
I1
ttRp1536
sVhttp://media.salemwebnetwork.com/cms/CROSSCARDS/18209-faith-bigger-800x600.jpg
p1537
g3
(g4
g5
(g6
(S'\x07\xe0\n\x06\x05\x1e5\x08v\xbe'
tRp1538
S'220'
p1539
I1
ttRp1540
sVhttps://consequenceofsound.files.wordpress.com/2015/04/faith-no-more-angel-dust.jpg?w=807
p1541
g3
(g4
g5
(g6
(S'\x07\xe0\x01\n\x1000\x00\x1e\xce'
tRp1542
S'167'
p1543
I1
ttRp1544
sVhttp://www.themadchatter.com/wp-content/uploads/2016/03/faith.jpg
p1545
g3
(g4
g5
(g6
(S'\x07\xe0\x04\x1b\n\x050\x03\xd1\xdd'
tRp1546
S'279'
p1547
I1
ttRp1548
sVhttp://joycelayman.com/wp-content/uploads/2013/05/faith_wallpaper-normal.jpg
p1549
g3
(g4
g5
(g6
(S'\x07\xe0\x03\x06\x11;:\x05\xc4\x8d'
tRp1550
S'47'
p1551
I1
ttRp1552
sVhttp://www.benziestandrews.com/wp-content/uploads/2015/01/faith14.jpg
p1553
g3
(g4
g5
(g6
(S'\x07\xe0\x06\x06\r\x1b\t\x0c\xc3\xa5'
tRp1554
S'144'
p1555
I1
ttRp1556
sVhttps://faithus.org/wp-content/uploads/2015/04/Faith-Final-WhiteUp-SWITCHLINES.png
p1557
g3
(g4
g5
(g6
(S'\x07\xe0\x04\x1b\n\x050\x03\xd2\x07'
tRp1558
S'293'
p1559
I1
ttRp1560
sVhttp://keithburnettministries.com/wp-content/uploads/2016/01/faith-Hebrews-11-1.jpg
p1561
g3
(g4
g5
(g6
(S'\x07\xe0\x04\x1b\n\x050\x03\xd2)'
tRp1562
S'309'
p1563
I1
ttRp1564
sVhttp://www.graphics20.com/wp-content/uploads/2013/06/Faith-Quotes-22.jpg
p1565
g3
(g4
g5
(g6
(S'\x07\xe0\n\x06\x05\x1e5\x08w<'
tRp1566
S'377'
p1567
I1
ttRp1568
sVhttp://www.ou.org/life/files/Faith.jpg
p1569
g3
(g4
g5
(g6
(S'\x07\xe0\x08\x17\x02 #\x0f\x0c\x97'
tRp1570
S'79'
p1571
I1
ttRp1572
sVhttp://www.commentsdb.com/wp-content/uploads/2015/07/Foprward-In-Faith.jpg
p1573
g3
(g4
g5
(g6
(S'\x07\xe0\x06\x1a\x13+\x05\x0b\xe9\xa0'
tRp1574
S'400'
p1575
I2
ttRp1576
sVhttp://thejesuschick.com/wp-content/uploads/2014/05/faith-road-wallpaper_1920x1200.jpg
p1577
g3
(g4
g5
(g6
(S"\x07\xdf\x0c\x1f\x10'\x17\x02/\x16"
tRp1578
S'86'
p1579
I1
ttRp1580
sVhttps://c1.staticflickr.com/9/8366/8451220565_cc94050bf1_b.jpg
p1581
g3
(g4
g5
(g6
(S'\x07\xe0\n\x06\x05\x1e5\x08w\x9f'
tRp1582
S'363'
p1583
I1
ttRp1584
sVhttp://thumb101.shutterstock.com/display_pic_with_logo/1877789/398470657/stock-vector-faith-hope-love-handwritten-faith-hope-and-love-calligraphy-words-vector-lettering-398470657.jpg
p1585
g3
(g4
g5
(g6
(S'\x07\xe0\x08\x17\x02 #\x0f\r>'
tRp1586
S'333'
p1587
I1
ttRp1588
sVhttp://breadhere.files.wordpress.com/2013/07/i-have-learned-that-faith-means-trusting-in-advance.gif
p1589
g3
(g4
g5
(g6
(S'\x07\xdf\n\x19\x031&\x0c\xafx'
tRp1590
S'53'
p1591
I1
ttRp1592
sVhttp://wp.production.patheos.com/blogs/christiancrier/files/2016/01/Now-faith-is-the-1.jpg
p1593
g3
(g4
g5
(g6
(S'\x07\xe0\x05\x19\t,\x15\x0c\x88\xbb'
tRp1594
S'247'
p1595
I1
ttRp1596
sVhttps://media.licdn.com/mpr/mpr/p/8/005/06f/350/2777a91.jpg
p1597
g3
(g4
g5
(g6
(S'\x07\xe0\n\x06\x05\x1e5\x08x\x0c'
tRp1598
S'107'
p1599
I1
ttRp1600
sVhttp://kqinnerview.com/wp-content/uploads/2009/05/faith.jpg
p1601
g3
(g4
g5
(g6
(S'\x07\xe0\x01\n\x1000\x00\x1e\x99'
tRp1602
S'173'
p1603
I1
ttRp1604
sVhttp://i3.mirror.co.uk/incoming/article4289771.ece/ALTERNATES/s615b/Paloma-Faith.jpg
p1605
g3
(g4
g5
(g6
(S'\x07\xe0\x01\n\x1000\x00\x1eM'
tRp1606
I-1
I1
ttRp1607
sVhttp://www.faithbythesea.com/wp-content/uploads/2014/08/god-faith-and-love-god.jpg
p1608
g3
(g4
g5
(g6
(S'\x07\xdf\x0c\x02\x05 \x03\x073\xa2'
tRp1609
S'17'
p1610
I1
ttRp1611
sVhttp://firstbaptistgv.com/~firstgv/cms-assets/images/964837.daring-faith--page-001.jpg
p1612
g3
(g4
g5
(g6
(S'\x07\xe0\x03\x06\x11;:\x05\xc4\xe2'
tRp1613
S'92'
p1614
I1
ttRp1615
sVhttp://www.brokenbreadclub.com/wp-content/uploads/2015/03/Faith-2.png
p1616
g3
(g4
g5
(g6
(S'\x07\xe0\x04\x1b\n\x050\x03\xd2s'
tRp1617
S'297'
p1618
I1
ttRp1619
sVhttps://pbs.twimg.com/profile_images/559312026267549696/E5lZOGwi.jpeg
p1620
g3
(g4
g5
(g6
(S'\x07\xe0\x07\x1b\x14\x0e\r\x00ff'
tRp1621
S'444'
p1622
I1
ttRp1623
sVhttp://pastorrick.com/images/default-source/Devotional-Images/12-30-15-daring-faith-grow-slow-and-go-in-faith_mini.jpg?sfvrsn=0
p1624
g3
(g4
g5
(g6
(S'\x07\xe0\n\x06\x05\x1e5\x08w\xcd'
tRp1625
S'470'
p1626
I1
ttRp1627
sVhttps://www.ouranchorholds.com/wp-content/uploads/2015/06/the-eyes-of-faith.jpg
p1628
g3
(g4
g5
(g6
(S'\x07\xe0\x06\x16\n\x15\x19\x0c\x13\x18'
tRp1629
I-1
I1
ttRp1630
sVhttp://divotstudios.com/wp-content/uploads/2013/05/Have-Faith.jpg
p1631
g3
(g4
g5
(g6
(S'\x07\xe0\x08\x1d\x04%:\x08+E'
tRp1632
S'145'
p1633
I2
ttRp1634
sVhttp://www.fggam.org/wp-content/uploads/2014/05/faith-road-wallpaper_1920x1200.jpg
p1635
g3
(g4
g5
(g6
(S'\x07\xe0\x07\x1d\x14\x14\x1a\x04\xdc\x02'
tRp1636
S'7'
I1
ttRp1637
sVhttps://curbsideaudio.files.wordpress.com/2012/02/the-script-science-faith-2600x2600.jpg
p1638
g3
(g4
g5
(g6
(S'\x07\xe0\x01\x18\x10:0\x02F\xd9'
tRp1639
S'184'
p1640
I1
ttRp1641
sVhttp://faith-alliance.org/wp-content/uploads/2015/02/for-we-walk-by-faith.png
p1642
g3
(g4
g5
(g6
(S'\x07\xe0\x08\x17\x02 #\x0f\r:'
tRp1643
I-1
I1
ttRp1644
sVhttp://www.ctkomaha.org/images/stories/parish/0705-tlh-faith.jpg
p1645
g3
(g4
g5
(g6
(S'\x07\xe0\x08\x17\x02 #\x0f\x0c\xfa'
tRp1646
I-1
I1
ttRp1647
sVhttps://d197n5kam3wa4q.cloudfront.net/files/2016/05/01-770x468.jpg
p1648
g3
(g4
g5
(g6
(S'\x07\xe0\x08\x17\x02 #\x0f\x0c\xfe'
tRp1649
S'446'
p1650
I1
ttRp1651
sVhttp://www.eclectablog.com/wp-content/uploads/2015/12/Faith.jpg?19ba4a
p1652
g3
(g4
g5
(g6
(S'\x07\xe0\x04\n\x11\n+\x03\xbb\xcc'
tRp1653
S'268'
p1654
I1
ttRp1655
sVhttps://1.bp.blogspot.com/-rZetrEtwWjY/V62ht029V8I/AAAAAAAAEu8/qF1LpHQaanMb5zMAxyO7eollspyu2CrLgCLcB/s1600/dsk03988_lzn3.jpg
p1656
g3
(g4
g5
(g6
(S'\x07\xe0\n\x06\x05\x1e5\x08v\xd1'
tRp1657
S'488'
p1658
I1
ttRp1659
sVhttp://www.bethanyplace.com/wp-content/uploads/2015/06/faith.jpeg
p1660
g3
(g4
g5
(g6
(S'\x07\xe0\x01\n\x1000\x00\x1e`'
tRp1661
S'41'
p1662
I1
ttRp1663
sVhttps://www.unityontheavenue.org/sites/unityontheavenue.org/files/Faith.jpg
p1664
g3
(g4
g5
(g6
(S'\x07\xe0\x06\n\x0f\x0e#\x05$#'
tRp1665
S'373'
p1666
I1
ttRp1667
sVhttp://dc95wa4w5yhv.cloudfront.net/image-cache/leap-of-faith_724_482_80.jpg
p1668
g3
(g4
g5
(g6
(S'\x07\xe0\x08\x17\x02 #\x0f\x0cd'
tRp1669
S'447'
p1670
I1
ttRp1671
sVhttp://cdn1.theodysseyonline.com/files/2015/12/07/6358505383114254581807877391_faith.jpg
p1672
g3
(g4
g5
(g6
(S'\x07\xdf\x0c\n\x10\x070\r\x83\xd7'
tRp1673
S'126'
p1674
I1
ttRp1675
sVhttp://dy00k1db5oznd.cloudfront.net/wp-content/uploads/2012/01/Wisdom-of-Faith.jpeg
p1676
g3
(g4
g5
(g6
(S'\x07\xe0\n\x06\x05\x1e5\x08w-'
tRp1677
S'408'
p1678
I1
ttRp1679
sVhttp://image.shutterstock.com/z/stock-photo-faith-word-with-shadow-background-with-text-129407426.jpg
p1680
g3
(g4
g5
(g6
(S'\x07\xe0\x04\x1b\n\x050\x03\xd1\xf9'
tRp1681
I-1
I1
ttRp1682
sVhttp://www.the-faith.com/wp-content/uploads/2013/05/Ascending-the-Stairs-of-Faith-Part-11.jpg
p1683
g3
(g4
g5
(g6
(S'\x07\xe0\x08\x1d\x04%:\x08*z'
tRp1684
S'2'
I1
ttRp1685
sVhttp://www.oztorah.com/wp-content/uploads/2012/05/Faith.jpg
p1686
g3
(g4
g5
(g6
(S'\x07\xe0\x04\x1b\n\x050\x03\xd2\x11'
tRp1687
S'33'
p1688
I1
ttRp1689
sVhttps://faithbellairemain.files.wordpress.com/2014/06/men-of-faith-graphic.jpg
p1690
g3
(g4
g5
(g6
(S'\x07\xe0\n\x06\x05\x1e5\x08wY'
tRp1691
S'135'
p1692
I1
ttRp1693
sVhttp://refe99.com/wp-content/uploads/2014/08/Have-faith-in-what-will-be.jpg
p1694
g3
(g4
g5
(g6
(S'\x07\xe0\x06\x06\r\x1b\t\x0c\xc3\xe1'
tRp1695
S'344'
p1696
I1
ttRp1697
sVhttps://az616578.vo.msecnd.net/files/2016/02/15/635911573227410521-1059335216_faith.jpg
p1698
g3
(g4
g5
(g6
(S'\x07\xe0\x05\x16\x14\n)\x03ng'
tRp1699
S'355'
p1700
I1
ttRp1701
sVhttps://quitday.org/wp-content/uploads/2015/06/faith-and-addiction.jpg
p1702
g3
(g4
g5
(g6
(S'\x07\xe0\n\x06\x05\x1e5\x08wK'
tRp1703
I-1
I1
ttRp1704
sVhttp://hogonline.org/wp-content/uploads/2015/03/faith-bible-verses.jpg
p1705
g3
(g4
g5
(g6
(S'\x07\xe0\t\x1c\x04,\x05\x06m\xed'
tRp1706
S'466'
p1707
I1
ttRp1708
sVhttp://www.fccga.com/images/fcc_bg_sized_3.jpg
p1709
g3
(g4
g5
(g6
(S'\x07\xe0\x01\x14\x109\x00\x03,]'
tRp1710
S'195'
p1711
I1
ttRp1712
sVhttps://www.jacobabshire.com/wp-content/uploads/2015/02/faith-header.jpg
p1713
g3
(g4
g5
(g6
(S'\x07\xe0\x02\x1b\x115\x0b\x0f\x14\xfc'
tRp1714
I-1
I1
ttRp1715
sVhttp://www.ladiesliveandlearn.com/wp-content/uploads/2014/10/faithIttillYoumakeitfinal.jpg
p1716
g3
(g4
g5
(g6
(S'\x07\xe0\x08\x1d\x04%:\x08*\xe0'
tRp1717
S'411'
p1718
I1
ttRp1719
sVhttp://blog.evastarr.com/wp-content/uploads/2016/04/faith-is.jpg
p1720
g3
(g4
g5
(g6
(S'\x07\xe0\x07\x06\x10\x02\x18\x027\x18'
tRp1721
S'422'
p1722
I1
ttRp1723
sVhttp://www.fondef.com/Faith%20of%20Christ.jpg
p1724
g3
(g4
g5
(g6
(S'\x07\xdf\x0b\x15\x04\x08$\x01A%'
tRp1725
S'76'
p1726
I1
ttRp1727
sVhttp://amusicblogyea.com/wp-content/uploads/2014/03/Faith-logo.jpg
p1728
g3
(g4
g5
(g6
(S"\x07\xdf\x0c\x1f\x10'\x17\x020\x13"
tRp1729
S'28'
p1730
I1
ttRp1731
sVhttp://www.lovethispic.com/uploaded_images/78185-Faith-.jpg
p1732
g3
(g4
g5
(g6
(S'\x07\xe0\x08\x17\x02 #\x0f\x0c\xc7'
tRp1733
S'111'
p1734
I1
ttRp1735
sVhttp://mariashriver.com/wp-content/uploads/2013/11/Faith-855x1024.jpg?bd3f04
p1736
g3
(g4
g5
(g6
(S'\x07\xe0\x04\x1b\n\x050\x03\xd2\x8f'
tRp1737
S'83'
p1738
I1
ttRp1739
sVhttp://www.benziestandrews.com/wp-content/uploads/2015/01/faith-road-sign-with-dramatic-clouds-and-sky.jpg
p1740
g3
(g4
g5
(g6
(S'\x07\xdf\x0c\x02\x05 \x03\x073\xe5'
tRp1741
S'80'
p1742
I1
ttRp1743
sVhttp://image.shutterstock.com/display_pic_with_logo/1877789/398470657/stock-vector-faith-hope-love-handwritten-faith-hope-and-love-calligraphy-words-vector-lettering-398470657.jpg
p1744
g3
(g4
g5
(g6
(S'\x07\xe0\x08\x17\x02 #\x0f\x0c\xf2'
tRp1745
S'450'
p1746
I1
ttRp1747
sVhttp://media.salemwebnetwork.com/cms/CROSSCARDS/24473-faith-iphone-4-640-960.jpg
p1748
g3
(g4
g5
(g6
(S'\x07\xe0\t\x1e\x0431\r\x8ew'
tRp1749
S'430'
p1750
I1
ttRp1751
sVhttp://kimbooth.com/wp-content/uploads/2013/12/Mandy7txt.jpg
p1752
g3
(g4
g5
(g6
(S'\x07\xe0\x06\x13\x0f\x0c\x1b\x0e\xd5\x9b'
tRp1753
S'124'
p1754
I1
ttRp1755
sVhttp://media.salemwebnetwork.com/cms/CW/faith/14210-rainbow-horizon-sky-clouds-wide.1200w.tn.jpg
p1756
g3
(g4
g5
(g6
(S'\x07\xe0\x06\n\x0f\x0e#\x05$\xb4'
tRp1757
S'284'
p1758
I1
ttRp1759
sVhttp://rickwarren.org/images/default-source/Devotional-Images/05-11-15-gods-dream-for-your-life-faith-is-not-denying-reality_mini.jpg?sfvrsn=0
p1760
g3
(g4
g5
(g6
(S'\x07\xe0\x01\n\x1000\x00\x1e\xea'
tRp1761
I-1
I1
ttRp1762
sVhttps://cdn.thewatershed.com/wp-content/uploads/2013/07/KEEP-CALM-AND-HAVE-FAITH-07-08-2013.jpg
p1763
g3
(g4
g5
(g6
(S'\x07\xe0\x04\x1b\n\x050\x03\xd2\xd7'
tRp1764
S'15'
p1765
I1
ttRp1766
sVhttps://saddleback.com/downloadshareable?url=http%3A%2F%2Fs3-us-west-1.amazonaws.com%2Fsb-web%2Fsaddleback.com%2Fshareables%2Fdaring-faith%2Fwallpaper%2FDesktop.jpg
p1767
g3
(g4
g5
(g6
(S'\x07\xe0\t\x1c\x04,\x05\x06p\xcf'
tRp1768
S'139'
p1769
I1
ttRp1770
sVhttp://az616578.vo.msecnd.net/files/2016/05/25/6359981145545653421668612543_faith-header.jpg
p1771
g3
(g4
g5
(g6
(S'\x07\xe0\t\x1e\x0431\r\x8e\xac'
tRp1772
S'468'
p1773
I1
ttRp1774
sVhttps://i.ytimg.com/vi/4DiFEkUqFNM/maxresdefault.jpg
p1775
g3
(g4
g5
(g6
(S'\x07\xe0\x04\x1b\n\x050\x03\xd2\xea'
tRp1776
S'301'
p1777
I1
ttRp1778
sVhttp://marshallan.org/wp-content/uploads/2015/06/faith.jpg
p1779
g3
(g4
g5
(g6
(S'\x07\xe0\x03\x19\t:-\x07\x918'
tRp1780
S'232'
p1781
I1
ttRp1782
sVhttp://faithtofaithless.com/wp-content/uploads/2015/12/Logo-skinny-01.png
p1783
g3
(g4
g5
(g6
(S'\x07\xe0\x06\x06\r\x1b\t\x0c\xc4\xa2'
tRp1784
S'254'
p1785
I1
ttRp1786
sVhttp://media.salemwebnetwork.com/cms/CW/faith/12029-pray-candles-dark.1200w.tn.jpg
p1787
g3
(g4
g5
(g6
(S'\x07\xe0\x04\n\x11\n+\x03\xbbL'
tRp1788
S'275'
p1789
I1
ttRp1790
sVhttp://www.youngandcatholicng.com/wp-content/uploads/2015/10/quotes-faith-2.jpg
p1791
g3
(g4
g5
(g6
(S'\x07\xe0\x05\x19\t,\x15\x0c\x88\x07'
tRp1792
S'338'
p1793
I1
ttRp1794
sVhttps://s-media-cache-ak0.pinimg.com/736x/a2/c3/83/a2c3839c4105cad26b7dcbb51695f791.jpg
p1795
g3
(g4
g5
(g6
(S'\x07\xe0\n\x06\x05\x1e5\x08v\xc9'
tRp1796
NI1
ttRp1797
sVhttp://i.huffpost.com/gen/2674070/images/o-LEAP-OF-FAITH-facebook.jpg
p1798
g3
(g4
g5
(g6
(S'\x07\xe0\t\x1c\x04,\x05\x06nI'
tRp1799
S'412'
p1800
I1
ttRp1801
sVhttp://www.t411.com/wp-content/uploads/2012/12/faith-cover.jpg
p1802
g3
(g4
g5
(g6
(S'\x07\xe0\x04\x1b\n\x050\x03\xd2\x8b'
tRp1803
S'300'
p1804
I1
ttRp1805
sVhttp://uscenergyclub.com/wp-content/uploads/2015/12/faith-clip-art.jpg
p1806
g3
(g4
g5
(g6
(S'\x07\xe0\x01\x18\x10:0\x02F\x13'
tRp1807
S'189'
p1808
I1
ttRp1809
sVhttp://www.stjoevan.org/wp-content/uploads/2013/01/St-Joseph-Family-Faith-Form.png
p1810
g3
(g4
g5
(g6
(S'\x07\xe0\n\x06\x05\x1e5\x08w\x13'
tRp1811
NI1
ttRp1812
sVhttp://www.relatably.com/q/img/best-bible-verses-faith/bible-verses-about-faith-07.jpg
p1813
g3
(g4
g5
(g6
(S'\x07\xe0\x05\x10\x10\x1c3\x00\xca\xc6'
tRp1814
I-1
I1
ttRp1815
sVhttp://www.fccwa.org/uploads/2/5/2/6/25263998/805150_orig.jpg
p1816
g3
(g4
g5
(g6
(S'\x07\xe0\x07\x1d\x14\x14\x1a\x04\xdb\x8b'
tRp1817
S'25'
p1818
I1
ttRp1819
sVhttp://az616578.vo.msecnd.net/files/2016/01/10/635879847192532785295859107_Bible%20Statement%20of%20Faith.001.jpg
p1820
g3
(g4
g5
(g6
(S'\x07\xe0\x08\x1d\x04%:\x08*\xc4'
tRp1821
S'395'
p1822
I1
ttRp1823
sVhttps://bobbymcpeel.files.wordpress.com/2012/12/you-gotta-have-faith.jpg?w=917
p1824
g3
(g4
g5
(g6
(S'\x07\xe0\n\x06\x05\x1e5\x08wq'
tRp1825
S'155'
p1826
I1
ttRp1827
sVhttp://www.ecumenicon.org/wp-content/uploads/2015/07/faith.jpg
p1828
g3
(g4
g5
(g6
(S'\x07\xe0\x04\x1b\n\x050\x03\xd2i'
tRp1829
S'244'
p1830
I1
ttRp1831
sVhttps://revcathie.files.wordpress.com/2016/04/faith_1.jpg
p1832
g3
(g4
g5
(g6
(S"\x07\xe0\x06\x06\r\x1b\t\x0c\xc4'"
tRp1833
S'331'
p1834
I1
ttRp1835
sVhttp://www.sarahfrench.org/wp-content/uploads/2014/07/faith-poster-2.jpg
p1836
g3
(g4
g5
(g6
(S'\x07\xe0\t\x1e\x0431\r\x8dT'
tRp1837
S'368'
p1838
I1
ttRp1839
sVhttps://agingcapriciously.files.wordpress.com/2015/03/faith_hope_love.jpg
p1840
g3
(g4
g5
(g6
(S'\x07\xe0\x04\x1b\n\x050\x03\xd2w'
tRp1841
S'11'
p1842
I1
ttRp1843
sVhttp://www.therightsideofnormal.com/wp-content/uploads/2013/02/leap-of-faith.jpg
p1844
g3
(g4
g5
(g6
(S'\x07\xe0\x06\n\x0f\x0e#\x05$_'
tRp1845
I-1
I1
ttRp1846
sVhttps://lanilea.files.wordpress.com/2015/08/faith.jpg
p1847
g3
(g4
g5
(g6
(S'\x07\xe0\x01\x14\x109\x00\x03,\xbb'
tRp1848
S'23'
p1849
I1
ttRp1850
sVhttp://www.theultimatequotes.com/wp-content/uploads/Stand-In-Faith.jpg
p1851
g3
(g4
g5
(g6
(S'\x07\xdf\x0c\x02\x05 \x03\x073\xd5'
tRp1852
I-1
I1
ttRp1853
sVhttp://www.faithringgold.com/ringgold/images/faith_1993.jpg
p1854
g3
(g4
g5
(g6
(S'\x07\xe0\x06\x16\n\x15\x19\x0c\x13~'
tRp1855
S'208'
p1856
I1
ttRp1857
sVhttp://fresh-tattoos.com/wp-content/uploads/images/faith-wrist-tattoo-design-2.jpg
p1858
g3
(g4
g5
(g6
(S'\x07\xe0\n\x06\x05\x1e5\x08w\xda'
tRp1859
I-1
I1
ttRp1860
sVhttp://thefaithproject.nfb.ca/wp-content/themes/faith-project/assets/img/en/faith-project-logo.png
p1861
g3
(g4
g5
(g6
(S'\x07\xe0\x08\x17\x02 #\x0f\r\x0f'
tRp1862
S'352'
p1863
I1
ttRp1864
sVhttp://media.salemwebnetwork.com/cms/CW/30094-candles.1200w.tn.jpg
p1865
g3
(g4
g5
(g6
(S'\x07\xe0\x07\x13\x0b\x119\x03\xa9)'
tRp1866
S'437'
p1867
I2
ttRp1868
sVhttps://s-media-cache-ak0.pinimg.com/736x/27/8d/bd/278dbda8d6e65e6525bfb4800bd57d09.jpg
p1869
g3
(g4
g5
(g6
(S'\x07\xe0\x06\x06\r\x1b\t\x0c\xc4\x99'
tRp1870
S'341'
p1871
I1
ttRp1872
sVhttp://img08.deviantart.net/4443/i/2013/061/4/2/faith_is_by_kevron2001-d5wqkyt.jpg
p1873
g3
(g4
g5
(g6
(S'\x07\xe0\x06\r\x0c0&\n\xf7\xb1'
tRp1874
S'91'
p1875
I1
ttRp1876
sVhttp://cdn.paper4pc.com/images/faith-typography-a-day-to-remember-wallpaper-1.jpg
p1877
g3
(g4
g5
(g6
(S'\x07\xe0\x02\x1b\x115\x0b\x0f\x15N'
tRp1878
S'222'
p1879
I1
ttRp1880
sVhttp://www.cruxnow.com/wp-content/uploads/2016/03/Faith.jpg
p1881
g3
(g4
g5
(g6
(S'\x07\xe0\x06\x06\r\x1b\t\x0c\xc4Y'
tRp1882
S'357'
p1883
I1
ttRp1884
sVhttp://www.quotesvalley.com/images/66/faith-does-not-make-things-easy.jpg
p1885
g3
(g4
g5
(g6
(S'\x07\xe0\x03\x06\x11;:\x05\xc4\xd8'
tRp1886
S'74'
p1887
I2
ttRp1888
sVhttps://s-media-cache-ak0.pinimg.com/736x/7b/ed/0d/7bed0d95462f61a11793aafc63b9563c.jpg
p1889
g3
(g4
g5
(g6
(S'\x07\xe0\x06\x13\x0f\x0c\x1b\x0e\xd5o'
tRp1890
S'165'
p1891
I1
ttRp1892
sVhttps://needencouragement.com/wp-content/uploads/2016/02/Bible-Verses-On-Faith-Isaiah-40-31.jpg
p1893
g3
(g4
g5
(g6
(S'\x07\xe0\x06\n\x0f\x0e#\x05$\xdc'
tRp1894
S'397'
p1895
I1
ttRp1896
sVhttps://pbs.twimg.com/profile_images/572744710532243456/13TNVAZa.jpeg
p1897
g3
(g4
g5
(g6
(S'\x07\xe0\n\x06\x05\x1e5\x08v\x95'
tRp1898
S'103'
p1899
I1
ttRp1900
sVhttp://cdn.theatlantic.com/assets/media/img/mt/2015/06/Evolution_1/lead_960.jpg?1434728676
p1901
g3
(g4
g5
(g6
(S'\x07\xe0\x04\n\x11\n+\x03\xba\xe0'
tRp1902
S'105'
p1903
I1
ttRp1904
sVhttp://www.beliefnet.com/~/media/8F20CC7D547A452B8EFD7B0DB9E2D2AD.ashx?db=master&20150805T1401265443
p1905
g3
(g4
g5
(g6
(S"\x07\xe0\x05\x07\x15\x1e!\x08'\x84"
tRp1906
S'18'
p1907
I1
ttRp1908
sVhttp://az616578.vo.msecnd.net/files/2016/04/28/6359747720990757411223660402_Leap.jpg
p1909
g3
(g4
g5
(g6
(S'\x07\xe0\x07\x06\x10\x02\x18\x026\x1e'
tRp1910
S'417'
p1911
I1
ttRp1912
sVhttp://thumbs.dreamstime.com/z/faith-word-inside-love-cloud-blue-sky-heart-shape-background-46715153.jpg
p1913
g3
(g4
g5
(g6
(S'\x07\xe0\x04\x1b\n\x050\x03\xd1\xe2'
tRp1914
S'307'
p1915
I1
ttRp1916
sVhttp://blogs.swa-jkt.com/swa/11221/files/2014/03/faith-1.jpg
p1917
g3
(g4
g5
(g6
(S'\x07\xdf\x0b\x15\x04\x08$\x01@\xb5'
tRp1918
S'62'
p1919
I1
ttRp1920
sVhttps://s-media-cache-ak0.pinimg.com/736x/9d/fe/7d/9dfe7d35b99aa0123220fdac629a43d3.jpg
p1921
g3
(g4
g5
(g6
(S'\x07\xe0\x07\x13\x0b\x119\x03\xa9:'
tRp1922
S'285'
p1923
I1
ttRp1924
sVhttps://faithgift.files.wordpress.com/2014/12/faith2.jpg
p1925
g3
(g4
g5
(g6
(S'\x07\xdf\x0b\x18\x04\x0c\x1e\t\x91\xc6'
tRp1926
S'60'
p1927
I1
ttRp1928
sVhttp://www.thequotepedia.com/images/13/always-believe-in-god-because-there-are-some-questions-that-even-google-cant-answer-faith-quotes.jpg
p1929
g3
(g4
g5
(g6
(S'\x07\xe0\x06\r\x0c0&\n\xf6\x8b'
tRp1930
S'379'
p1931
I1
ttRp1932
sVhttps://i.ytimg.com/vi/_rBn4wI7w20/maxresdefault.jpg
p1933
g3
(g4
g5
(g6
(S'\x07\xe0\x04\x1b\n\x050\x03\xd2\x1a'
tRp1934
S'295'
p1935
I1
ttRp1936
sVhttp://faith.burning-games.com/wp-content/uploads/2014/12/faith-rpg-playing-cards-smart-clothes-x1.jpg
p1937
g3
(g4
g5
(g6
(S'\x07\xe0\n\x06\x05\x1e5\x08w\xd5'
tRp1938
S'475'
p1939
I1
ttRp1940
sVhttp://www.brainyquote.com/photos/s/saintaugustine121380.jpg
p1941
g3
(g4
g5
(g6
(S'\x07\xe0\x08\x10\x16\x15\n\x08\x93V'
tRp1942
I-1
I1
ttRp1943
sVhttp://i.huffpost.com/gen/2674070/images/n-LEAP-OF-FAITH-628x314.jpg
p1944
g3
(g4
g5
(g6
(S'\x07\xe0\x08\x10\x16\x15\n\x08\x92\xe2'
tRp1945
S'364'
p1946
I1
ttRp1947
sVhttp://www.fccga.com/images/bg_FCC_VisionSunday.jpg
p1948
g3
(g4
g5
(g6
(S'\x07\xe0\x02\x15\x1149\x05\xa77'
tRp1949
S'138'
p1950
I1
ttRp1951
sVhttp://rickwarren.org/images/default-source/Devotional-Images/12-27-15-daring-faith-your-faith-can-move-mountains_mini.jpg?sfvrsn=0
p1952
g3
(g4
g5
(g6
(S'\x07\xe0\x07\x1b\x14\x0e\r\x00e\xd0'
tRp1953
S'243'
p1954
I1
ttRp1955
sVhttp://www.ten2two.org/wp-content/uploads/2015/10/leap_of_faith.jpg
p1956
g3
(g4
g5
(g6
(S'\x07\xe0\x02\x15\x1149\x05\xa7 '
tRp1957
I-1
I1
ttRp1958
sVhttp://media.beliefnet.com/~/media/photos-with-attribution/faith/001/faithbackgroundcrossjpg.jpg?h=318
p1959
g3
(g4
g5
(g6
(S'\x07\xe0\x08\x17\x02 #\x0f\x0c\xd0'
tRp1960
S'416'
p1961
I1
ttRp1962
sVhttp://www.2catsandchloe.com/wp-content/uploads/2015/04/SMS-you-of-little-faith.jpg
p1963
g3
(g4
g5
(g6
(S'\x07\xe0\x08\x1d\x04%:\x08*\xb7'
tRp1964
S'459'
p1965
I1
ttRp1966
sVhttp://thumb101.shutterstock.com/display_pic_with_logo/1877789/386215717/stock-photo-word-faith-painted-calligraphy-word-faith-faith-modern-handwriting-386215717.jpg
p1967
g3
(g4
g5
(g6
(S'\x07\xe0\x08\x17\x02 #\x0f\x0cj'
tRp1968
S'361'
p1969
I1
ttRp1970
sVhttps://crazyicecube.files.wordpress.com/2012/11/faith-road-sign1.jpg
p1971
g3
(g4
g5
(g6
(S'\x07\xe0\x08\x1d\x04%:\x08*\xcc'
tRp1972
S'196'
p1973
I1
ttRp1974
sVhttps://s-media-cache-ak0.pinimg.com/564x/de/71/b5/de71b5af3cfba9d18c966e9ed3d00eba.jpg
p1975
g3
(g4
g5
(g6
(S'\x07\xe0\t\x1e\x0431\r\x8d\xdd'
tRp1976
S'473'
p1977
I1
ttRp1978
sVhttp://cdn.mos.musicradar.com/images/acoustic-expo/Booth%20logos/Faith-cropped-460-100-970-80.jpg
p1979
g3
(g4
g5
(g6
(S'\x07\xe0\x06\x1a\x13+\x05\x0b\xea+'
tRp1980
S'438'
p1981
I1
ttRp1982
sVhttp://www.faithbythesea.com/wp-content/uploads/2014/08/faith.jpg
p1983
g3
(g4
g5
(g6
(S'\x07\xe0\x03\x04\x117\x07\x00\xc0\x13'
tRp1984
S'235'
p1985
I1
ttRp1986
sVhttp://az616578.vo.msecnd.net/files/2016/07/29/636054230143946177-1988805999_7bed0d95462f61a11793aafc63b9563c.jpg
p1987
g3
(g4
g5
(g6
(S'\x07\xe0\n\x06\x05\x1e5\x08w\xac'
tRp1988
S'469'
p1989
I1
ttRp1990
sVhttp://www.feastoftheheart.org/wp-content/uploads/2013/10/1920x1440-faith-desktop-wallpaper.jpg
p1991
g3
(g4
g5
(g6
(S'\x07\xe0\x01\x18\x10:0\x02F '
tRp1992
S'211'
p1993
I1
ttRp1994
sVhttps://s-media-cache-ak0.pinimg.com/736x/bc/52/ad/bc52ad237f8b77a162c6ed511e13afbf.jpg
p1995
g3
(g4
g5
(g6
(S'\x07\xe0\x04\n\x11\n+\x03\xbbe'
tRp1996
S'266'
p1997
I1
ttRp1998
sVhttps://s-media-cache-ak0.pinimg.com/736x/bb/c8/a0/bbc8a09f15f55e89444cd08873bcb78c.jpg
p1999
g3
(g4
g5
(g6
(S'\x07\xe0\x04\n\x11\n+\x03\xbbr'
tRp2000
S'106'
p2001
I1
ttRp2002
sVhttp://thehealingandrestingplace.org/wp-content/uploads/2016/01/the-eyes-of-faith.jpg
p2003
g3
(g4
g5
(g6
(S'\x07\xe0\x03\x15\x02\x1c\x05\x0e\xef$'
tRp2004
I-1
I1
ttRp2005
sVhttps://s-media-cache-ak0.pinimg.com/736x/61/f0/20/61f020f8546a6d2abc5d9b615d8f0e4a.jpg
p2006
g3
(g4
g5
(g6
(S'\x07\xe0\x01\n\x1000\x00\x1e\xc2'
tRp2007
S'101'
p2008
I1
ttRp2009
sVhttp://valiantuniverse.com/wp-content/uploads/2015/09/FAITH_001_COVER-A_DJURDJEVIC-640x984.jpg
p2010
g3
(g4
g5
(g6
(S'\x07\xe0\n\x06\x05\x1e5\x08w\xe5'
tRp2011
S'273'
p2012
I2
ttRp2013
sVhttp://static1.squarespace.com/static/52926f9ce4b07e0dd5b7c5a7/t/5334149fe4b09fffc70ce69e/1395922081728/Faith
p2014
g3
(g4
g5
(g6
(S'\x07\xe0\x07\x13\x0b\x119\x03\xa9\x10'
tRp2015
S'163'
p2016
I1
ttRp2017
sVhttp://www.entrepreneurs-are-online.com/availablehelp/images/62093/Pastor-Steves-Blog_Got-Faith.jpg
p2018
g3
(g4
g5
(g6
(S'\x07\xe0\x08\x1d\x04%:\x08+4'
tRp2019
S'385'
p2020
I1
ttRp2021
sVhttps://sevencitys.files.wordpress.com/2011/07/good-faith.jpg
p2022
g3
(g4
g5
(g6
(S'\x07\xe0\x08\x1d\x04%:\x08+<'
tRp2023
S'225'
p2024
I1
ttRp2025
sVhttp://www.ldssmile.com/wp-content/uploads/2013/12/faith2.jpg
p2026
g3
(g4
g5
(g6
(S'\x07\xe0\x07\x1d\x14\x14\x1a\x04\xdc"'
tRp2027
I-1
I1
ttRp2028
sVhttp://livingonloveandcents.com/wp-content/uploads/when-faith-is-not-easy1.jpg1_.jpg
p2029
g3
(g4
g5
(g6
(S'\x07\xe0\x08\x1d\x04%:\x08*\xfa'
tRp2030
S'391'
p2031
I1
ttRp2032
sVhttps://s-media-cache-ak0.pinimg.com/736x/b4/b9/7f/b4b97fdb401d94f18d7fba6a35e8f96f.jpg
p2033
g3
(g4
g5
(g6
(S'\x07\xe0\x06\n\x0f\x0e#\x05#\xf8'
tRp2034
S'274'
p2035
I1
ttRp2036
sVhttp://smartandrelentless.com/wp-content/uploads/2015/12/Red-Sea.jpg
p2037
g3
(g4
g5
(g6
(S'\x07\xe0\x04\x1b\n\x050\x03\xd2\x02'
tRp2038
S'291'
p2039
I1
ttRp2040
sVhttp://authorjodiwoody.com/wp-content/uploads/2015/01/58061-Stand-In-Faith1.jpg
p2041
g3
(g4
g5
(g6
(S'\x07\xdf\x0b\t\x039\x17\x05K\xd5'
tRp2042
S'30'
p2043
I1
ttRp2044
sVhttps://pixabay.com/static/uploads/photo/2015/06/12/09/24/clouds-806639_960_720.jpg
p2045
g3
(g4
g5
(g6
(S'\x07\xe0\t\x1e\x0431\r\x8d{'
tRp2046
S'236'
p2047
I1
ttRp2048
sVhttp://www.carolinabaptist.org/wp-content/uploads/2014/02/Christian-Faith_t_ws.jpg
p2049
g3
(g4
g5
(g6
(S'\x07\xe0\x01\x18\x10:0\x02F='
tRp2050
S'197'
p2051
I1
ttRp2052
sVhttp://ontheroadtohealing.org.uk/wp-content/uploads/2013/08/Faith-in-God.jpg
p2053
g3
(g4
g5
(g6
(S'\x07\xe0\x06\x06\r\x1b\t\x0c\xc4y'
tRp2054
I-1
I1
ttRp2055
sVhttps://pixabay.com/static/uploads/photo/2014/09/11/04/38/faith-441401_640.jpg
p2056
g3
(g4
g5
(g6
(S'\x07\xe0\x08\x17\x02 #\x0f\x0cP'
tRp2057
S'77'
p2058
I1
ttRp2059
sVhttp://cdn.oxwordsblog.wpfuel.co.uk/wpcms/wp-content/uploads/Leap-of-faith.jpg
p2060
g3
(g4
g5
(g6
(S'\x07\xdf\x0c\x02\x05 \x03\x073\x8a'
tRp2061
S'13'
p2062
I1
ttRp2063
sVhttp://images6.fanpop.com/image/photos/34100000/Faith-Breathe-faith-hill-34117881-3032-3028.jpg
p2064
g3
(g4
g5
(g6
(S'\x07\xe0\x01\x18\x10:0\x02FZ'
tRp2065
I-1
I1
ttRp2066
sVhttp://cdn.shopify.com/s/files/1/0000/7796/products/dark_faith_frontcvra_1024x1024.jpg?v=1262187683
p2067
g3
(g4
g5
(g6
(S'\x07\xe0\x04\n\x11\n+\x03\xbb%'
tRp2068
S'276'
p2069
I1
ttRp2070
sVhttps://pbs.twimg.com/profile_images/1215166812/faith.jpg
p2071
g3
(g4
g5
(g6
(S'\x07\xe0\x05\x19\t,\x15\x0c\x88A'
tRp2072
S'8'
I1
ttRp2073
sVhttp://www.faithunitedchurch.org/wp-content/uploads/2014/12/slider_image_1.png
p2074
g3
(g4
g5
(g6
(S'\x07\xe0\x07\x06\x10\x02\x18\x026\xbb'
tRp2075
S'242'
p2076
I1
ttRp2077
sVhttp://fwcchurches.com/wp-content/uploads/2012/09/Pastor-Steves-Blog_Got-Faith.jpg
p2078
g3
(g4
g5
(g6
(S'\x07\xe0\x04\x02\x107\x14\nJ\xc6'
tRp2079
S'129'
p2080
I1
ttRp2081
sVhttp://www.trbimg.com/img-555552f2/turbine/la-ca-ms-faith-no-more-bottum-gould-20150517
p2082
g3
(g4
g5
(g6
(S'\x07\xe0\x04\x10\x15\t/\x01\x15\xaa'
tRp2083
S'321'
p2084
I1
ttRp2085
sVhttp://previews.123rf.com/images/feverpitched/feverpitched1007/feverpitched100700069/7374838-Faith-Hope-and-Love-Green-Road-Sign-with-Dramatic-Clouds-Sun-Rays-and-Sky--Stock-Photo.jpg
p2086
g3
(g4
g5
(g6
(S'\x07\xe0\x04\x10\x15\t/\x01\x154'
tRp2087
S'317'
p2088
I1
ttRp2089
sVhttp://www.mikechurch.com/wp-content/uploads/2016/01/Faith-script.jpg
p2090
g3
(g4
g5
(g6
(S'\x07\xe0\x08\x10\x16\x15\n\x08\x94\x1f'
tRp2091
S'351'
p2092
I1
ttRp2093
sVhttp://upload2.evocdn.co.uk/faith/uploads/home_header/3_50_h.jpg
p2094
g3
(g4
g5
(g6
(S'\x07\xe0\n\x06\x05\x1e5\x08w\xc0'
tRp2095
S'423'
p2096
I1
ttRp2097
sVhttps://s-media-cache-ak0.pinimg.com/736x/cf/6f/52/cf6f52ea4ddd753192899dcdfbdc9864.jpg
p2098
g3
(g4
g5
(g6
(S'\x07\xe0\x06\n\x0f\x0e#\x05$x'
tRp2099
S'283'
p2100
I1
ttRp2101
sVhttp://dailyfreedom.com/wp-content/uploads/2012/01/fear-or-faith.jpg
p2102
g3
(g4
g5
(g6
(S'\x07\xe0\x05\x19\t,\x15\x0c\x88~'
tRp2103
S'336'
p2104
I1
ttRp2105
sVhttps://consequenceofsound.files.wordpress.com/2015/01/unnamed-5.jpg
p2106
g3
(g4
g5
(g6
(S'\x07\xe0\x01\x18\x10:0\x02E\xfc'
tRp2107
S'191'
p2108
I1
ttRp2109
sVhttps://encourageandteach.files.wordpress.com/2015/06/father-and-son.jpg
p2110
g3
(g4
g5
(g6
(S'\x07\xe0\t\x1c\x04,\x05\x06p\x19'
tRp2111
S'388'
p2112
I1
ttRp2113
sVhttps://d13yacurqjgara.cloudfront.net/users/334869/screenshots/1190858/have-faith.jpg
p2114
g3
(g4
g5
(g6
(S'\x07\xe0\t\x1e\x0431\r\x8eK'
tRp2115
S'117'
p2116
I1
ttRp2117
sVhttp://bendcitychurch.org/wp-content/uploads/2013/04/by-faith.jpg
p2118
g3
(g4
g5
(g6
(S'\x07\xe0\x01\n\x1000\x00\x1e\x96'
tRp2119
S'71'
p2120
I1
ttRp2121
sVhttps://walklikejesus.files.wordpress.com/2015/02/have-faith1.jpg
p2122
g3
(g4
g5
(g6
(S'\x07\xe0\x01\x14\x109\x00\x03,\x82'
tRp2123
S'152'
p2124
I1
ttRp2125
sVhttps://s-media-cache-ak0.pinimg.com/736x/56/de/9f/56de9fa6d71b924a4cf9d6726d332fe0.jpg
p2126
g3
(g4
g5
(g6
(S'\x07\xe0\x07\x13\x0b\x119\x03\xa9\t'
tRp2127
S'348'
p2128
I1
ttRp2129
sVhttp://1.bp.blogspot.com/-MWMo05O8SeA/UPAeOHQ-rnI/AAAAAAAAA-8/6aCjKa5D1Io/s1600/header.png
p2130
g3
(g4
g5
(g6
(S'\x07\xe0\n\x06\x05\x1e5\x08w\xea'
tRp2131
S'120'
p2132
I1
ttRp2133
sVhttp://image.desiringgod.org/our-eyes-are-a-parable-about-faith-en/landscape/large_our-eyes-are-a-parable-about-faith.jpg?1452810375
p2134
g3
(g4
g5
(g6
(S'\x07\xe0\x07\x02\x0f\x05:\x0c\x1fr'
tRp2135
I-1
I1
ttRp2136
sVhttp://www.rileypippen.org/wp-content/uploads/2016/01/leap-of-faith-quote.png
p2137
g3
(g4
g5
(g6
(S'\x07\xe0\x04\x02\x107\x14\nK\x06'
tRp2138
S'224'
p2139
I1
ttRp2140
sVhttp://media.salemwebnetwork.com/ecards/quotes/faith-oswald-chambers-550x320.jpg
p2141
g3
(g4
g5
(g6
(S'\x07\xdf\n\x19\x031&\x0c\xae\xfa'
tRp2142
S'52'
p2143
I1
ttRp2144
sVhttp://quotesideas.com/wp-content/uploads/2015/01/faith-quote-on-wallpaper-hd.jpg
p2145
g3
(g4
g5
(g6
(S'\x07\xe0\x07\x06\x10\x02\x18\x026\x8b'
tRp2146
I-1
I1
ttRp2147
sVhttp://www.beliefnet.com/~/media/E663E43DF5D34F9EA6EDEB3FEF0EDFB3.ashx
p2148
g3
(g4
g5
(g6
(S'\x07\xe0\x05\x05\x13,&\x0b\xee\xd4'
tRp2149
S'277'
p2150
I1
ttRp2151
sVhttp://www.gtopaoc.org/wp-content/uploads/2016/06/Wirhout-Faith.jpg
p2152
g3
(g4
g5
(g6
(S'\x07\xe0\t\x1e\x0431\r\x8e\x87'
tRp2153
S'406'
p2154
I1
ttRp2155
sVhttp://brotherword.org/wp-content/uploads/2014/03/BrotherWord-Motivational-Monday1.jpg
p2156
g3
(g4
g5
(g6
(S'\x07\xe0\x08\x17\x02 #\x0f\x0c\xed'
tRp2157
S'252'
p2158
I2
ttRp2159
sVhttp://cdn1.theodysseyonline.com/files/2016/02/15/635911573227410521-1059335216_faith.jpg
p2160
g3
(g4
g5
(g6
(S'\x07\xe0\x03\x06\x11;:\x05\xc4\xfc'
tRp2161
S'233'
p2162
I1
ttRp2163
s.