(dp1
Vhttps://hbr.org/resources/images/article_assets/2015/10/OCT15_01_71580112_a.jpg
p2
ccopy_reg
_reconstructor
p3
(cbase.graph_fetch.fetcher
ImageSlot
p4
c__builtin__
tuple
p5
(cdatetime
datetime
p6
(S'\x07\xe0\t\x1a\n\x171\x04\xfbR'
tRp7
S'171'
p8
I2
ttRp9
sVhttp://rickwarren.org/images/default-source/Devotional-Images/12-19-15-christmas-is-for-all-people-the-spirit-of-christmas-is-generosity_mini.jpg?sfvrsn=0
p10
g3
(g4
g5
(g6
(S'\x07\xe0\x08\t\x01.3\x0c\xb9\x12'
tRp11
S'292'
p12
I2
ttRp13
sVhttp://life-balance.s3.amazonaws.com/wp-content/uploads/generosity1.jpg
p14
g3
(g4
g5
(g6
(S'\x07\xe0\x08\x19\t5\x1f\x03\x15\xb2'
tRp15
S'40'
p16
I1
ttRp17
sVhttp://1.bp.blogspot.com/-Fd_gBC5Xmz0/UmdFSpvH_nI/AAAAAAAACVQ/Sw3lsQGIyUU/s1600/Generous-Thought.jpg
p18
g3
(g4
g5
(g6
(S'\x07\xe0\x07\x15\x111\x1a\r\x02\xb5'
tRp19
S'192'
p20
I2
ttRp21
sVhttp://rgtor7kt68-flywheel.netdna-ssl.com/wp-content/uploads/SERMON-Be-Generous-03.jpg
p22
g3
(g4
g5
(g6
(S'\x07\xe0\x08\x02\x14\x10-\x07b\x97'
tRp23
S'252'
p24
I1
ttRp25
sVhttps://www.heartmath.org/assets/uploads/2015/11/generosity-hormone-emotion-index.jpg
p26
g3
(g4
g5
(g6
(S'\x07\xe0\x08\x19\t5\x1f\x03\x16i'
tRp27
S'170'
p28
I1
ttRp29
sVhttp://www.lolosthoughts.com/wp-content/uploads/2016/09/o-GENEROSITY-facebook.jpg
p30
g3
(g4
g5
(g6
(S'\x07\xe0\n\x02\n:5\x0e4\xec'
tRp31
S'324'
p32
I1
ttRp33
sVhttp://www.godfuel.org/wp-content/uploads/2015/07/generosity.jpg
p34
g3
(g4
g5
(g6
(S'\x07\xe0\x06\x0c\x00 %\x042\x01'
tRp35
I-1
I1
ttRp36
sVhttp://quotes.lifehack.org/media/quotes/quote-Pete-Seeger-being-generous-of-spirit-is-a-wonderful-142472_1.png
p37
g3
(g4
g5
(g6
(S'\x07\xe0\n\x06\x15\x03\x18\x07\x95\xb4'
tRp38
S'211'
p39
I1
ttRp40
sVhttp://clubnarwhalblog.com/wp-content/uploads/2013/08/Be-Generous-Blue-Resized.png
p41
g3
(g4
g5
(g6
(S'\x07\xe0\n\x06\x15\x03\x18\x07\x95\xbd'
tRp42
S'199'
p43
I1
ttRp44
sVhttps://qflf.files.wordpress.com/2011/03/honesty.jpg
p45
g3
(g4
g5
(g6
(S'\x07\xe0\x05\x1a\x10\x19\x08\x07\xbc\xf4'
tRp46
S'130'
p47
I1
ttRp48
sVhttp://www.jasongarwood.com/wp-content/uploads/2012/11/generous.jpg
p49
g3
(g4
g5
(g6
(S'\x07\xe0\x05\x18\x10\x177\x0c\xcd\xed'
tRp50
I-1
I1
ttRp51
sVhttps://onfaith.onfaith.co/wp-content/uploads/2015/05/generous1.jpg
p52
g3
(g4
g5
(g6
(S'\x07\xe0\t\x18\n\x0b%\x00\xff\x03'
tRp53
I-1
I1
ttRp54
sVhttp://skinnymom.com/wp-content/uploads/2011/07/generous-kids.jpg
p55
g3
(g4
g5
(g6
(S'\x07\xdf\x0b\t\x13\x19\n\x08;\xd8'
tRp56
I-1
I1
ttRp57
sVhttp://thegenerouscity.com/wp-content/uploads/2013/08/Fotolia_1788043_Subscription_Monthly_M-980x600.jpg
p58
g3
(g4
g5
(g6
(S'\x07\xe0\n\x06\x15\x03\x18\x07\x96\x0b'
tRp59
S'264'
p60
I4
ttRp61
sVhttp://static.tumblr.com/d6bb5a3674a6d7669cf6dfeaaf0d2695/ulfr32t/sU2mw775y/tumblr_static_generation_generous_pic_profile.jpg
p62
g3
(g4
g5
(g6
(S'\x07\xe0\n\x02\n:5\x0e5\n'
tRp63
S'234'
p64
I1
ttRp65
sVhttp://media.salemwebnetwork.com/cms/CW/family/children/30691-greedy-child-1200.1200w.tn.jpg
p66
g3
(g4
g5
(g6
(S'\x07\xe0\n\x02\n:5\x0e54'
tRp67
S'212'
p68
I1
ttRp69
sVhttp://startingpointchurch.ca/wp-content/uploads/2014/11/Generous-912x340.jpg
p70
g3
(g4
g5
(g6
(S'\x07\xe0\t\x18\n\x0b%\x00\xffH'
tRp71
S'146'
p72
I1
ttRp73
sVhttp://images.technewstoday.com.s3.amazonaws.com/tnt/microsoft-employees-get-generous-raise-125-million-for-nonprofits.jpg
p74
g3
(g4
g5
(g6
(S'\x07\xe0\t\x1a\n\x171\x04\xfd\x08'
tRp75
I-1
I1
ttRp76
sVhttp://i.huffpost.com/gen/2243624/images/o-MOST-GENEROUS-CELEBRITIES-facebook.jpg
p77
g3
(g4
g5
(g6
(S'\x07\xe0\x08\x02\x14\x10-\x07bT'
tRp78
S'112'
p79
I1
ttRp80
sVhttp://www.davidaustinroses.co.uk/media/catalog/product/cache/1/image/040ec09b1e35df139433887a97daa66f/T/h/The_Generous_Gardener_Clg_1_2.jpg
p81
g3
(g4
g5
(g6
(S'\x07\xe0\x08\x02\x14\x10-\x07bo'
tRp82
I-1
I1
ttRp83
sVhttp://powertochange.com/wp-content/uploads/2011/04/generous-nltr.jpg
p84
g3
(g4
g5
(g6
(S'\x07\xe0\t\x1a\n\x171\x04\xfc\x99'
tRp85
S'14'
p86
I1
ttRp87
sVhttp://forerunner.org.au/wp-content/uploads/2013/09/generosity.jpg
p88
g3
(g4
g5
(g6
(S'\x07\xe0\x06\x1e\x13-\n\x05\x1a\x05'
tRp89
I-1
I1
ttRp90
sVhttp://oneinfinitelife.com/wp-content/uploads/2016/01/ways-to-be-generous-FB.jpg
p91
g3
(g4
g5
(g6
(S'\x07\xe0\x08\t\x01.3\x0c\xbcm'
tRp92
I-1
I1
ttRp93
sVhttp://southpaloaltofoodcloset.org/wp-content/uploads/2015/11/Helping-hands-care1.jpg
p94
g3
(g4
g5
(g6
(S'\x07\xe0\x07\x15\x111\x1a\r\x02\xda'
tRp95
S'282'
p96
I1
ttRp97
sVhttp://dennissy.com/wp-content/uploads/2015/06/generosity-wk-1.jpg
p98
g3
(g4
g5
(g6
(S'\x07\xe0\x04\x18\x11\x1a\x13\x07\xff\xd1'
tRp99
S'1'
I1
ttRp100
sVhttp://www.teamgenerous.com/img/TG_World.png
p101
g3
(g4
g5
(g6
(S'\x07\xe0\x05\x1a\x10\x19\x08\x07\xbc\xa8'
tRp102
S'194'
p103
I1
ttRp104
sVhttp://idealistcareers.org/wp-content/uploads/2014/07/passion-work.jpg
p105
g3
(g4
g5
(g6
(S'\x07\xe0\n\x1c\x17\x13\x04\x03\xa7q'
tRp106
I-1
I1
ttRp107
sVhttp://www.gamingcfg.com/img/6821/Speak-to-Jaluu-the-Generous.jpg
p108
g3
(g4
g5
(g6
(S'\x07\xe0\x05\x1a\x10\x19\x08\x07\xbd1'
tRp109
I-1
I1
ttRp110
sVhttp://2.bp.blogspot.com/-LGfXEolO2PQ/T7Ec-Gmza_I/AAAAAAAAIWo/6PmLx3KvLYc/s1600/generosity.jpg
p111
g3
(g4
g5
(g6
(S'\x07\xe0\x06\x01\x10#\x1b\x03\xddH'
tRp112
S'118'
p113
I2
ttRp114
sVhttp://onfaith.faithstreet.com/wp-content/uploads/2015/05/generous1.jpg
p115
g3
(g4
g5
(g6
(S'\x07\xe0\x08\x19\t5\x1f\x03\x16('
tRp116
I-1
I1
ttRp117
sVhttp://cdn.prezly.com/e7/eb7cf09f2e11e59c6c2fef790e8e5b/GenerousJack_GenFries.jpg
p118
g3
(g4
g5
(g6
(S'\x07\xe0\t\x18\n\x0b%\x00\xfe\xa8'
tRp119
S'213'
p120
I1
ttRp121
sVhttp://bradhoffmann.com/wp-content/uploads/2015/01/generous-building.jpg
p122
g3
(g4
g5
(g6
(S'\x07\xe0\t\x1a\n\x171\x04\xfc\xf8'
tRp123
S'36'
p124
I1
ttRp125
sVhttp://pad3.whstatic.com/images/thumb/2/24/Be-Generous-Step-1.jpeg/aid21099-728px-Be-Generous-Step-1.jpeg
p126
g3
(g4
g5
(g6
(S'\x07\xe0\x08\x19\t5\x1f\x03\x16\xb4'
tRp127
S'306'
p128
I1
ttRp129
sVhttp://hiroboga.com/wp-content/uploads/2012/06/Choose-to-be-generous.jpg
p130
g3
(g4
g5
(g6
(S'\x07\xe0\x05\x04\x11\x1b&\x0b\xdb\xca'
tRp131
S'156'
p132
I1
ttRp133
sVhttp://hiroboga.com/wp-content/uploads/2013/01/dreamstime_xs_23988225-generous.jpg
p134
g3
(g4
g5
(g6
(S'\x07\xdf\x0c\x12\x10\x0b6\x0c\x90\x8f'
tRp135
S'29'
p136
I1
ttRp137
sVhttp://churchsermonseriesideas.com/wp-content/uploads/2015/01/The-Generous-Life-Sermon-Series-Idea.jpg
p138
g3
(g4
g5
(g6
(S'\x07\xe0\n\x1c\x17\x13\x04\x03\xa7H'
tRp139
I-1
I1
ttRp140
sVhttp://1.bp.blogspot.com/-xWLA49JT6_A/T2JrEWUDUwI/AAAAAAAAA1A/P-bw9dDEeEk/s1600/generous%2Blogo.jpg
p141
g3
(g4
g5
(g6
(S'\x07\xe0\x06\x1e\x13-\n\x05\x1a)'
tRp142
S'258'
p143
I1
ttRp144
sVhttp://www.chapelrva.com/wp-content/uploads/2015/10/Generous-Sermon-Series-Square.jpg
p145
g3
(g4
g5
(g6
(S'\x07\xe0\x08\x13\x0138\x02\x97\xbf'
tRp146
S'260'
p147
I1
ttRp148
sVhttp://www.brokeandhealthy.com/wp-content/uploads/2012/06/give-610x225.png
p149
g3
(g4
g5
(g6
(S'\x07\xdf\x0c\x12\x10\x0b6\x0c\x8f\xc2'
tRp150
S'22'
p151
I1
ttRp152
sVhttp://cdn-media-1.lifehack.org/wp-content/files/2015/12/08074002/generosity.jpg
p153
g3
(g4
g5
(g6
(S'\x07\xe0\x06\x1e\x13-\n\x05\x19\x18'
tRp154
S'164'
p155
I1
ttRp156
sVhttp://iwclive.com/images/demo/Generous.jpg
p157
g3
(g4
g5
(g6
(S'\x07\xe0\x08\x06\x16\x0e\x00\x05\xbdO'
tRp158
S'92'
p159
I1
ttRp160
sVhttp://www.annsullivansimpletruths.com/wp-content/uploads/2015/11/generous-heart-hands.jpg
p161
g3
(g4
g5
(g6
(S'\x07\xe0\x05\x1a\x10\x19\x08\x07\xbd-'
tRp162
I-1
I1
ttRp163
sVhttp://keepaustingenerous.org/wp-content/uploads/2014/10/GIVEMONEY2.jpg
p164
g3
(g4
g5
(g6
(S'\x07\xe0\n\x06\x15\x03\x18\x07\x95j'
tRp165
S'294'
p166
I1
ttRp167
sVhttp://assets4.bigthink.com/system/idea_thumbnails/58489/size_1024/giving_man_hand.jpg?1428244040
p168
g3
(g4
g5
(g6
(S'\x07\xe0\t\x1a\n\x171\x04\xfd\xb7'
tRp169
I-1
I1
ttRp170
sVhttp://img.picturequotes.com/2/444/443342/i-was-originally-going-to-keep-both-but-i-was-feeling-generous-quote-1.jpg
p171
g3
(g4
g5
(g6
(S'\x07\xe0\x08\t\x01.3\x0c\xba-'
tRp172
S'269'
p173
I1
ttRp174
sVhttp://www.nathanmagnuson.com/wp-content/uploads/2013/11/Generosity.jpg
p175
g3
(g4
g5
(g6
(S'\x07\xe0\t\x1a\n\x171\x04\xfc\x0f'
tRp176
S'26'
p177
I1
ttRp178
sVhttp://i.dailymail.co.uk/i/pix/2012/12/30/article-2255039-16B2A144000005DC-542_306x423.jpg
p179
g3
(g4
g5
(g6
(S'\x07\xe0\x08\x19\t5\x1f\x03\x16\x8a'
tRp180
S'47'
p181
I1
ttRp182
sVhttp://cdn-media-2.lifehack.org/wp-content/files/2015/12/08074002/generosity.jpg
p183
g3
(g4
g5
(g6
(S'\x07\xe0\x06\x1a\x13(\x12\x08{\xdb'
tRp184
S'270'
p185
I1
ttRp186
sVhttp://bethelharvestchurch.com/wp-content/uploads/2014/11/generous-hope-logo-only.png
p187
g3
(g4
g5
(g6
(S'\x07\xe0\x06\x01\x10#\x1b\x03\xdd0'
tRp188
S'19'
p189
I1
ttRp190
sVhttp://www.gracegoalsandguts.com/wp-content/uploads/2014/04/generosity.jpg
p191
g3
(g4
g5
(g6
(S'\x07\xe0\x06\x1e\x13-\n\x05\x19f'
tRp192
S'165'
p193
I1
ttRp194
sVhttp://7minutesinthemorning.com/wp-content/uploads/2013/12/generous-hands-heart.jpg
p195
g3
(g4
g5
(g6
(S'\x07\xe0\x04\x18\x11\x1a\x13\x07\xff5'
tRp196
S'3'
I1
ttRp197
sVhttp://www.zoompanningeffectslider.com/wordpressplugin_old/images/generousFixedDimensions/07_generous.jpg
p198
g3
(g4
g5
(g6
(S'\x07\xe0\x06\x1e\x13-\n\x05\x1a1'
tRp199
I-1
I1
ttRp200
sVhttp://buddhismguide.org/wp-content/uploads/2013/12/giving-hands.png
p201
g3
(g4
g5
(g6
(S'\x07\xe0\x08\x19\t5\x1f\x03\x16\n'
tRp202
S'43'
p203
I1
ttRp204
sVhttps://upload.wikimedia.org/wikipedia/commons/9/9e/Melton_Mowbray_The_Generous_Briton.JPG
p205
g3
(g4
g5
(g6
(S'\x07\xe0\x05\x1a\x10\x19\x08\x07\xbdt'
tRp206
S'95'
p207
I1
ttRp208
sVhttp://www.exclusivebottle.ch/shop/images/product_images/popup_images/Generous-Gin-mit-Gents-Tonic-Water_540.jpg
p209
g3
(g4
g5
(g6
(S'\x07\xe0\n\x06\x15\x03\x18\x07\x96\x8a'
tRp210
NI1
ttRp211
sVhttp://inspirationallifechurch.com/wp-content/uploads/2015/09/generosity.jpg
p212
g3
(g4
g5
(g6
(S'\x07\xdf\x0c\x01\x16!%\x0f!\x19'
tRp213
S'67'
p214
I1
ttRp215
sVhttp://pad2.whstatic.com/images/thumb/4/49/Be-Generous-on-a-Limited-Budget-Step-1.jpg/aid476733-728px-Be-Generous-on-a-Limited-Budget-Step-1.jpg
p216
g3
(g4
g5
(g6
(S'\x07\xe0\x08\x19\t5\x1f\x03\x16\x80'
tRp217
S'303'
p218
I1
ttRp219
sVhttp://rgtor7kt68-flywheel.netdna-ssl.com/wp-content/uploads/SERMON-Be-Generous-02.jpg
p220
g3
(g4
g5
(g6
(S'\x07\xe0\x08\x02\x14\x10-\x07b1'
tRp221
S'248'
p222
I1
ttRp223
sVhttp://robindance.me/wp-content/uploads/2008/10/Be-generous-quote-Robin-Dance.jpg
p224
g3
(g4
g5
(g6
(S'\x07\xdf\x0c\x18\x10\x11\x1e\rE\t'
tRp225
S'105'
p226
I1
ttRp227
sVhttp://livingcolourstyle.com/wp-content/uploads/2014/05/IMG_0581.jpg
p228
g3
(g4
g5
(g6
(S'\x07\xe0\x05\x1a\x10\x19\x08\x07\xbd_'
tRp229
S'127'
p230
I1
ttRp231
sVhttp://www.coloringpages.pics/wp-content/uploads/2014/09/generosity-coloring-pages-3.jpg
p232
g3
(g4
g5
(g6
(S'\x07\xdf\x0c\x18\x10\x11\x1e\rE\x1e'
tRp233
I-1
I1
ttRp234
sVhttp://www.davidaustinroses.co.uk/media/catalog/product/cache/1/image/818x/040ec09b1e35df139433887a97daa66f/t/h/the_generous_gardener_2.jpg
p235
g3
(g4
g5
(g6
(S'\x07\xe0\n\x02\n:5\x0e5k'
tRp236
I-1
I1
ttRp237
sVhttp://quickbase.intuit.com/quickbase-blog/wp-content/uploads/sites/3/2011/07/generous.jpg
p238
g3
(g4
g5
(g6
(S'\x07\xe0\x06\t\x0c\x03%\x03\x01F'
tRp239
I-1
I1
ttRp240
sVhttps://qzprod.files.wordpress.com/2014/01/who-s-the-most-generous-of-them-all-offical-development-aid-as-a-share-of-gross-national-income_chartbuilder.png?w=640
p241
g3
(g4
g5
(g6
(S"\x07\xe0\x07\t\x11'!\tK\xac"
tRp242
S'231'
p243
I1
ttRp244
sVhttp://blogs.nsb.org/jonathanalexander/files/2011/02/Generosity-1.jpg
p245
g3
(g4
g5
(g6
(S'\x07\xdf\x0c\x01\x16!%\x0f!H'
tRp246
I-1
I1
ttRp247
sVhttps://citipointearchives.files.wordpress.com/2012/08/generosity.jpg
p248
g3
(g4
g5
(g6
(S'\x07\xe0\n\x06\x15\x03\x18\x07\x956'
tRp249
S'238'
p250
I1
ttRp251
sVhttp://img05.deviantart.net/d383/i/2012/346/0/2/are_you_generous__by_sebreg-d5nu19k.jpg
p252
g3
(g4
g5
(g6
(S'\x07\xe0\n\x06\x15\x03\x18\x07\x95F'
tRp253
S'77'
p254
I2
ttRp255
sVhttps://fairhopechurch.files.wordpress.com/2012/01/eg-logo-jpg.jpg
p256
g3
(g4
g5
(g6
(S'\x07\xe0\x05\x04\x11\x1b&\x0b\xdb\xce'
tRp257
S'173'
p258
I1
ttRp259
sVhttp://everythingidid.com/wp-content/uploads/2014/03/T86-1024x1024.jpg
p260
g3
(g4
g5
(g6
(S'\x07\xe0\x06\x1e\x13-\n\x05\x195'
tRp261
I-1
I1
ttRp262
sVhttps://i.ytimg.com/vi/_cNfX3tJonw/maxresdefault.jpg
p263
g3
(g4
g5
(g6
(S'\x07\xe0\x05\x1a\x10\x19\x08\x07\xbc\xb3'
tRp264
S'107'
p265
I1
ttRp266
sVhttp://dperiod.com/yahoo_site_admin/assets/images/BeGenerous.275201956_std.jpg
p267
g3
(g4
g5
(g6
(S'\x07\xe0\n\x06\x15\x03\x18\x07\x95q'
tRp268
I-1
I1
ttRp269
sVhttp://www.marcandangel.com/images/9-generous-people.jpg
p270
g3
(g4
g5
(g6
(S'\x07\xe0\x08\x19\t5\x1f\x03\x15\xce'
tRp271
S'308'
p272
I1
ttRp273
sVhttp://www.decaedere.com/wp-content/uploads/2013/09/The-poor-people-are-often-the-most-generous.jpg
p274
g3
(g4
g5
(g6
(S'\x07\xdf\x0c\n\x10\x08\x15\r\xef\x8f'
tRp275
I-1
I1
ttRp276
sVhttp://www.stuff.co.nz/content/dam/images/1/5/x/2/k/k/image.related.StuffLandscapeSixteenByNine.620x349.1809hk.png/1447711564249.jpg
p277
g3
(g4
g5
(g6
(S'\x07\xe0\x08\x19\t5\x1f\x03\x16R'
tRp278
S'209'
p279
I1
ttRp280
sVhttps://theologicalsynergy.files.wordpress.com/2011/07/generositycopy.jpg
p281
g3
(g4
g5
(g6
(S'\x07\xdf\x0c\x16\x10\x10\x0e\n\x10)'
tRp282
S'122'
p283
I1
ttRp284
sVhttp://www.charlesstone.com/images/uploads/generosity1.jpg
p285
g3
(g4
g5
(g6
(S'\x07\xe0\x07\x01\x0f\x016\x01\xdd)'
tRp286
S'9'
I1
ttRp287
sVhttp://cdn1.cowbird.com/items/pages/2012/10/08/14/52/77154/18842_5072e8b2ad0056.29444482-big.jpg?q=20130525123703
p288
g3
(g4
g5
(g6
(S'\x07\xe0\x06\x1e\x13-\n\x05\x19\xee'
tRp289
S'177'
p290
I1
ttRp291
sVhttp://stmarkedmond.org/wp-content/uploads/2013/10/3466070-generosity-road-sign-with-dramatic-clouds-and-sky-980x798.jpg
p292
g3
(g4
g5
(g6
(S'\x07\xe0\n\x06\x15\x03\x18\x07\x95x'
tRp293
S'223'
p294
I1
ttRp295
sVhttp://www.alambic-magazine.com/wp-content/uploads/2015/06/Generous_Gin.jpg
p296
g3
(g4
g5
(g6
(S'\x07\xe0\x06\x01\x10#\x1b\x03\xddi'
tRp297
S'110'
p298
I1
ttRp299
sVhttp://www.libertimagazine.com/wp-content/uploads/2015/06/generous.jpg
p300
g3
(g4
g5
(g6
(S'\x07\xe0\n\x06\x15\x03\x18\x07\x96\x05'
tRp301
S'205'
p302
I1
ttRp303
sVhttps://fortunedotcom.files.wordpress.com/2016/06/175419408.jpg?w=1024
p304
g3
(g4
g5
(g6
(S'\x07\xe0\x08\t\x01.3\x0c\xb9\xc0'
tRp305
S'297'
p306
I1
ttRp307
sVhttp://c.fastcompany.net/multisite_files/coexist/imagecache/1280/poster/2013/05/1682092-poster-1280-most-generous.jpg
p308
g3
(g4
g5
(g6
(S'\x07\xe0\x06\x1e\x13-\n\x05\x19\xab'
tRp309
S'151'
p310
I1
ttRp311
sVhttps://generousfaith.files.wordpress.com/2015/09/agenerousfaith_logo1-2.jpg?w=800
p312
g3
(g4
g5
(g6
(S'\x07\xe0\x08\t\x01.3\x0c\xbc\x1f'
tRp313
S'273'
p314
I1
ttRp315
sVhttp://www.stuff.co.nz/content/dam/images/1/2/5/s/7/u/image.related.StuffLandscapeSixteenByNine.620x349.19k2mm.png/1461793121268.jpg
p316
g3
(g4
g5
(g6
(S'\x07\xe0\x08\x19\t5\x1f\x03\x16m'
tRp317
S'305'
p318
I1
ttRp319
sVhttp://image.slidesharecdn.com/how2bgenerous-120813130028-phpapp01/95/how-to-be-generous-2-638.jpg?cb=1423526006
p320
g3
(g4
g5
(g6
(S'\x07\xe0\x08\x19\t5\x1f\x03\x16\xb9'
tRp321
S'145'
p322
I1
ttRp323
sVhttps://upload.wikimedia.org/wikipedia/commons/thumb/3/3b/Racing_silks_of_Fahd_Salman.svg/2000px-Racing_silks_of_Fahd_Salman.svg.png
p324
g3
(g4
g5
(g6
(S'\x07\xe0\x08\x02\x14\x10-\x07b]'
tRp325
S'190'
p326
I1
ttRp327
sVhttp://thebattleofwills.com/wp-content/uploads/2013/02/RadicalGenerosity.001.jpg
p328
g3
(g4
g5
(g6
(S'\x07\xdf\x0c\x18\x10\x11\x1e\rD\xd1'
tRp329
S'113'
p330
I1
ttRp331
sVhttp://quotes.lifehack.org/media/quotes/quote-Khalil-Gibran-generosity-is-giving-more-than-you-can-104463.png
p332
g3
(g4
g5
(g6
(S'\x07\xe0\n\x06\x15\x03\x18\x07\x96S'
tRp333
S'208'
p334
I1
ttRp335
sVhttp://generous.s3.amazonaws.com/web/apple-touch-icon.png
p336
g3
(g4
g5
(g6
(S'\x07\xe0\t\x18\n\x0b%\x00\xff\x99'
tRp337
I-1
I1
ttRp338
sVhttps://www.afes.org.au/sites/default/files/styles/11_column/public/generosity_0.png?itok=rQ2Zwzcv
p339
g3
(g4
g5
(g6
(S'\x07\xe0\n\x06\x15\x03\x18\x07\x95*'
tRp340
I-1
I1
ttRp341
sVhttp://www.scecina.org/Websites/scecinastudentambassadors/images/The_paradox_of_generosity_thumb_thumb_thumb.jpg
p342
g3
(g4
g5
(g6
(S'\x07\xe0\x07\x15\x111\x1a\r\x02\x16'
tRp343
S'120'
p344
I2
ttRp345
sVhttp://www.santosha.com/assets/images/pages/generosity_banner.png
p346
g3
(g4
g5
(g6
(S'\x07\xdf\x0c\x12\x10\x0b6\x0c\x90\x97'
tRp347
S'75'
p348
I1
ttRp349
sVhttps://andyjbrown.files.wordpress.com/2012/03/generous_11.jpg
p350
g3
(g4
g5
(g6
(S'\x07\xe0\x05\x04\x11\x1b&\x0b\xdb\xfb'
tRp351
S'5'
I1
ttRp352
sVhttp://specialneedsparenting.net/wp-content/uploads/2015/12/Alix-Generous-photo2.jpg
p353
g3
(g4
g5
(g6
(S'\x07\xe0\x08\x02\x14\x10-\x07b\xc5'
tRp354
S'188'
p355
I1
ttRp356
sVhttp://www.imgnaly.com/wp-content/uploads/2015/06/It-Is-Usually-Best-To-Be-Generous-With-Praise.png
p357
g3
(g4
g5
(g6
(S'\x07\xe0\x08\x02\x14\x10-\x07a\xcd'
tRp358
S'281'
p359
I1
ttRp360
sVhttp://blog.myjobchart.com/wp-content/uploads/86546285-giving1.jpg
p361
g3
(g4
g5
(g6
(S'\x07\xdf\x0c\x01\x16!%\x0f I'
tRp362
S'16'
p363
I1
ttRp364
sVhttp://www.socialstrategies.net.au/wp-content/uploads/2013/10/Your-generosity-will-create-prosperity.jpg
p365
g3
(g4
g5
(g6
(S'\x07\xdf\x0c\x01\x16!%\x0f M'
tRp366
S'28'
p367
I1
ttRp368
sVhttp://www.thefinancialphysician.com/wp-content/uploads/2012/01/generosity.png
p369
g3
(g4
g5
(g6
(S'\x07\xdf\x0c\x12\x10\x0b6\x0c\x8f\xd3'
tRp370
I-1
I1
ttRp371
sVhttp://www.generous.eu/medias/home/biscuits_sans_gluten_445.jpg
p372
g3
(g4
g5
(g6
(S'\x07\xe0\x08\x19\t5\x1f\x03\x15\xc9'
tRp373
S'301'
p374
I1
ttRp375
sVhttps://www.stir.ac.uk/news/2015/12/mathematical-proof-you-should-be-generous-this-christmas/present%20main%20(2).jpg
p376
g3
(g4
g5
(g6
(S'\x07\xe0\x08\x19\t5\x1f\x03\x15\xbb'
tRp377
S'311'
p378
I1
ttRp379
sVhttp://www.fengshuidana.com/wp-content/uploads/2014/10/Slide11.jpg
p380
g3
(g4
g5
(g6
(S'\x07\xdf\x0c\x18\x10\x11\x1e\rD1'
tRp381
S'132'
p382
I1
ttRp383
sVhttps://i.ytimg.com/vi/yhQgR2nsIvA/maxresdefault.jpg
p384
g3
(g4
g5
(g6
(S'\x07\xe0\x06\x1e\x13-\n\x05\x19J'
tRp385
S'255'
p386
I1
ttRp387
sVhttp://cashcowcouple.com/wp-content/uploads/2013/07/generous-giving.jpg
p388
g3
(g4
g5
(g6
(S'\x07\xdf\x0c\x12\x10\x0b6\x0c\x90\x0c'
tRp389
I-1
I1
ttRp390
sVhttp://img12.deviantart.net/42c5/i/2010/046/8/c/generous_hearts_4_by_mic_ardant.jpg
p391
g3
(g4
g5
(g6
(S'\x07\xe0\n\x06\x15\x03\x18\x07\x95@'
tRp392
S'314'
p393
I1
ttRp394
sVhttp://livingcolourstyle.com/wp-content/uploads/2014/05/IMG_0573.jpg
p395
g3
(g4
g5
(g6
(S'\x07\xdf\x0c\x18\x10\x11\x1e\rE\x11'
tRp396
S'106'
p397
I1
ttRp398
sVhttp://www.gcgi.info/images/2015generosity.jpg
p399
g3
(g4
g5
(g6
(S'\x07\xdf\x0c\x01\x16!%\x0f \xb3'
tRp400
S'17'
p401
I1
ttRp402
sVhttp://www.star2.com/wp-content/uploads/2015/08/sfit_fitgenerous3008_py_1-e1440859307348-770x470.jpg
p403
g3
(g4
g5
(g6
(S'\x07\xe0\x08\x19\t5\x1f\x03\x16\x1a'
tRp404
S'300'
p405
I1
ttRp406
sVhttp://static2.businessinsider.com/image/52273c1c6bb3f7ec1131616a/generosity-pays-off-in-the-long-run.jpg
p407
g3
(g4
g5
(g6
(S'\x07\xe0\x08\x13\x0138\x02\x97\xd1'
tRp408
S'57'
p409
I1
ttRp410
sVhttp://mochagirlspitstop.com/wp-content/uploads/2014/02/SB28-1024x788.png
p411
g3
(g4
g5
(g6
(S'\x07\xe0\x06\x1e\x13-\n\x05\x1a\x13'
tRp412
S'279'
p413
I1
ttRp414
sVhttps://strativity.com/wp-content/uploads/2015/09/Be-generous.png
p415
g3
(g4
g5
(g6
(S'\x07\xe0\n\x06\x15\x03\x18\x07\x96\x1e'
tRp416
S'265'
p417
I1
ttRp418
sVhttp://www.slate.com/content/dam/slate/articles/life/the_kids/2015/12/151218_kids_charitable.jpg.CROP.promo-xlarge2.jpg
p419
g3
(g4
g5
(g6
(S'\x07\xe0\x08\x13\x0138\x02\x97\xe4'
tRp420
S'155'
p421
I3
ttRp422
sVhttps://s-media-cache-ak0.pinimg.com/736x/87/d5/4f/87d54f16a21e62adb901a7069299beb3.jpg
p423
g3
(g4
g5
(g6
(S"\x07\xe0\x07\t\x11'!\tK "
tRp424
S'263'
p425
I1
ttRp426
sVhttp://theakiba.com/images/2008/11/20081114002.jpg
p427
g3
(g4
g5
(g6
(S'\x07\xe0\x06\x1e\x13-\n\x05\x19\xd3'
tRp428
I-1
I1
ttRp429
sVhttp://www.genesisthejourney.com/images/large/sermons/be-generous.jpg
p430
g3
(g4
g5
(g6
(S'\x07\xe0\n\x02\n:5\x0e5M'
tRp431
S'8'
I1
ttRp432
sVhttp://personalexcellence.co/quotes/files/inspirational-quote-renew-humanity.jpg
p433
g3
(g4
g5
(g6
(S'\x07\xe0\x08\t\x01.3\x0c\xbc\xd2'
tRp434
S'261'
p435
I1
ttRp436
sVhttp://pastorrick.com/images/default-source/Devotional-Images/12-19-15-christmas-is-for-all-people-the-spirit-of-christmas-is-generosity_mini.jpg?sfvrsn=0
p437
g3
(g4
g5
(g6
(S'\x07\xe0\n\x06\x15\x03\x18\x07\x95\xfa'
tRp438
S'321'
p439
I1
ttRp440
sVhttp://tippingthescales.com/wp-content/uploads/2015/08/money_generic_iStock_000004.jpg
p441
g3
(g4
g5
(g6
(S'\x07\xe0\x08\x19\t5\x1f\x03\x16\xae'
tRp442
S'78'
p443
I1
ttRp444
sVhttp://static5.businessinsider.com/image/56158c78bd86ef185c8b5120-1190-625/the-20-most-generous-people-in-the-world.jpg
p445
g3
(g4
g5
(g6
(S'\x07\xe0\n\x06\x15\x03\x18\x07\x96\x98'
tRp446
S'328'
p447
I1
ttRp448
sVhttp://i.huffpost.com/gen/2210938/images/o-GENEROUS-facebook.jpg
p449
g3
(g4
g5
(g6
(S'\x07\xe0\x08\x02\x14\x10-\x07b\xcd'
tRp450
S'102'
p451
I1
ttRp452
sVhttp://www.ascensionpittsburgh.org/wp-content/uploads/2015/11/generous.jpg
p453
g3
(g4
g5
(g6
(S'\x07\xe0\x08\x13\x0138\x02\x98.'
tRp454
S'239'
p455
I1
ttRp456
sVhttps://i.ytimg.com/vi/nj42wV1bPdw/maxresdefault.jpg
p457
g3
(g4
g5
(g6
(S'\x07\xe0\x08\x06\x16\x0e\x00\x05\xbd/'
tRp458
S'186'
p459
I1
ttRp460
sVhttp://media.crossroadschurchaustin.com/2013/sermons/images/Generous_squared.jpg
p461
g3
(g4
g5
(g6
(S'\x07\xe0\n\x02\n:5\x0e4\xd4'
tRp462
S'117'
p463
I1
ttRp464
sVhttp://www.redeemingriches.com/wp-content/uploads/2010/10/generous.jpg
p465
g3
(g4
g5
(g6
(S'\x07\xe0\x08\x19\t5\x1f\x03\x15\xe0'
tRp466
S'74'
p467
I1
ttRp468
sVhttp://assets.babycenter.com/ims/2015/05/iStock_09217655_wide.jpg?width=475
p469
g3
(g4
g5
(g6
(S'\x07\xe0\x08\x19\t5\x1f\x03\x16\x9d'
tRp470
S'221'
p471
I2
ttRp472
sVhttp://www.jskogerboe.com/wp-content/uploads/2013/08/Generous_King_Main_Widescreen.jpg
p473
g3
(g4
g5
(g6
(S'\x07\xe0\x05\x1a\x10\x19\x08\x07\xbc\xb7'
tRp474
S'131'
p475
I1
ttRp476
sVhttp://site.cisternyard.com/wp-content/uploads/2012/10/DSCN0010.jpg
p477
g3
(g4
g5
(g6
(S'\x07\xe0\x07\x15\x111\x1a\r\x02\xcc'
tRp478
S'109'
p479
I1
ttRp480
sVhttp://brinkleywarren.com/wp-content/uploads/2014/04/generosity.jpg
p481
g3
(g4
g5
(g6
(S'\x07\xdf\x0c\n\x10\x08\x15\r\xef\xc6'
tRp482
S'15'
p483
I1
ttRp484
sVhttp://www.churchplanting.com/wp-content/uploads/2012/07/generous-1024x6801.jpeg
p485
g3
(g4
g5
(g6
(S'\x07\xe0\n\x1c\x17\x13\x04\x03\xa7l'
tRp486
I-1
I1
ttRp487
sVhttps://www.healthinsurance.org/assets/2015/10/do-gold-exchange-plans-offer-more-generous-coverage-than-bronze-or-silver-plans-1560x580.jpg
p488
g3
(g4
g5
(g6
(S'\x07\xe0\x06\x1e\x13-\n\x05\x19\x9e'
tRp489
S'272'
p490
I1
ttRp491
sVhttp://media.patheos.com/Images/TPC/TPC_FamilyChildrenMoneyInvestmentsConcept_fbm.jpg
p492
g3
(g4
g5
(g6
(S'\x07\xe0\t\x18\n\x0b%\x00\xff1'
tRp493
S'299'
p494
I1
ttRp495
sVhttp://keepaustingenerous.org/wp-content/uploads/2014/10/GIVEGOODS1.jpg
p496
g3
(g4
g5
(g6
(S'\x07\xe0\n\x06\x15\x03\x18\x07\x95\xaf'
tRp497
NI1
ttRp498
sVhttps://ksr-ugc.imgix.net/projects/1593307/photo-original.jpg?w=1536&h=1152&fit=crop&v=1421214326&auto=format&q=92&s=b1a570fbbc3aeca3117130e9951e410a
p499
g3
(g4
g5
(g6
(S'\x07\xe0\x04\x18\x11\x1a\x13\x07\xff0'
tRp500
S'161'
p501
I1
ttRp502
sVhttp://www.incourage.me/wp/wp-content/uploads/2016/08/A-generous-person-will-prosper-1000x614.png
p503
g3
(g4
g5
(g6
(S'\x07\xe0\n\x02\n:5\x0e5w'
tRp504
S'322'
p505
I2
ttRp506
sVhttps://s-media-cache-ak0.pinimg.com/736x/4d/cb/bd/4dcbbd7950dada094bcc65f827bbd178.jpg
p507
g3
(g4
g5
(g6
(S'\x07\xe0\x06\x1e\x13-\n\x05\x19\xce'
tRp508
S'152'
p509
I1
ttRp510
sVhttp://www.quotesvalley.com/images/23/one-of-the-sanest-surest-and-most-generous-joys-of-life-comes-from-being-happy-over-the-good-fortune-of-others-2.jpg
p511
g3
(g4
g5
(g6
(S'\x07\xe0\x08\t\x01.3\x0c\xbb\xa0'
tRp512
S'232'
p513
I2
ttRp514
sVhttp://www.formaggiokitchen.com/shop/media/catalog/product/cache/1/image/9df78eab33525d08d6e5fb8d27136e95/G/e/Generous_Speculoos_Cookies_sm-2_4.jpg
p515
g3
(g4
g5
(g6
(S'\x07\xe0\n\x02\n:5\x0e58'
tRp516
S'329'
p517
I1
ttRp518
sVhttp://i.dailymail.co.uk/i/pix/2012/12/30/article-2255039-16B2A14C000005DC-336_634x444.jpg
p519
g3
(g4
g5
(g6
(S'\x07\xe0\x08\x19\t5\x1f\x03\x15\xb7'
tRp520
S'302'
p521
I1
ttRp522
sVhttp://d1ig2tdbom83n0.cloudfront.net/wp-content/uploads/2015/07/David-and-his-generous-strength-Pocket-Fuel-Daily-Devotional-on-1-Sam-30-12-700x700.jpg
p523
g3
(g4
g5
(g6
(S'\x07\xe0\x07\x07\x10\x038\tc\xae'
tRp524
S'257'
p525
I1
ttRp526
sVhttps://quotefancy.com/media/wallpaper/3840x2160/224903-Hunter-S-Thompson-Quote-I-am-a-generous-man-by-nature-and-far-more.jpg
p527
g3
(g4
g5
(g6
(S'\x07\xe0\x08\x02\x14\x10-\x07bw'
tRp528
I-1
I1
ttRp529
sVhttp://orig12.deviantart.net/05f2/f/2012/052/e/5/generous_giving_according_to_jesus_by_hooblah2u2-d4qk0em.png
p530
g3
(g4
g5
(g6
(S'\x07\xe0\n\x06\x15\x03\x18\x07\x94\xdb'
tRp531
S'207'
p532
I3
ttRp533
sVhttps://www.bigquestionsonline.com/sites/default/files/styles/discussion-main/public/essays/templeton-generous.jpeg?itok=NH1zTZeR
p534
g3
(g4
g5
(g6
(S'\x07\xdf\x0c\x12\x10\x0b6\x0c\x8f\xc9'
tRp535
S'71'
p536
I1
ttRp537
sVhttp://i.imgur.com/0DmxiJt.jpg
p538
g3
(g4
g5
(g6
(S'\x07\xe0\x08\x13\x0138\x02\x97f'
tRp539
S'10'
p540
I1
ttRp541
sVhttp://specials-images.forbesimg.com/imageserve/03yY2aL7dF3U5/0x600.jpg?fit=scale&background=000000
p542
g3
(g4
g5
(g6
(S'\x07\xe0\x06\x16\n\x13\x04\x01\xa7X'
tRp543
S'48'
p544
I1
ttRp545
sVhttp://randalldsmith.com/wp-content/uploads/2008/07/Reaching-out-WS.jpg
p546
g3
(g4
g5
(g6
(S'\x07\xe0\x08\x02\x14\x10-\x07aF'
tRp547
S'141'
p548
I1
ttRp549
sVhttp://cdn-media-1.lifehack.org/wp-content/files/2015/07/Give-3-380x253.jpg
p550
g3
(g4
g5
(g6
(S'\x07\xe0\x07\x01\x0f\x016\x01\xdd\x00'
tRp551
S'278'
p552
I1
ttRp553
sVhttp://pastorrick.com/images/default-source/Devotional-Images/02-18-16-habits-of-happiness-happiness-habit-be-generous-on-every-occasion.jpg?sfvrsn=0
p554
g3
(g4
g5
(g6
(S'\x07\xe0\n\x02\n:5\x0e4\x9d'
tRp555
S'320'
p556
I1
ttRp557
sVhttp://tv.mycfmhub.net/wp-content/uploads/sites/2/2014/04/I-am-Generous-Slide-640x360.jpg
p558
g3
(g4
g5
(g6
(S'\x07\xdf\x0c\n\x10\x08\x15\r\xef\xa1'
tRp559
S'35'
p560
I1
ttRp561
sVhttps://cdn-media-2.lifehack.org/wp-content/files/2015/12/08074002/generosity-1024x678.jpg
p562
g3
(g4
g5
(g6
(S'\x07\xe0\n\x06\x15\x03\x18\x07\x968'
tRp563
S'315'
p564
I1
ttRp565
sVhttps://khcwomeninministry.files.wordpress.com/2014/06/raising-generous-children.jpg
p566
g3
(g4
g5
(g6
(S'\x07\xe0\x08\x13\x0138\x02\x97k'
tRp567
S'191'
p568
I1
ttRp569
sVhttp://quietgivers.org/wp-content/uploads/2012/03/generous-logo.jpg
p570
g3
(g4
g5
(g6
(S'\x07\xe0\t\x1a\n\x171\x04\xfck'
tRp571
S'160'
p572
I1
ttRp573
sVhttps://timedotcom.files.wordpress.com/2015/12/gettyimages-149285467.jpg?quality=75&strip=color&w=1100
p574
g3
(g4
g5
(g6
(S'\x07\xe0\x08\x19\t5\x1f\x03\x16\x06'
tRp575
S'143'
p576
I1
ttRp577
sVhttp://cdn2-b.examiner.com/sites/default/files/styles/image_content_width/hash/5d/52/1363281797_7585_generous.jpg?itok=uAgCf_kY
p578
g3
(g4
g5
(g6
(S'\x07\xdf\x0c\x12\x10\x0b6\x0c\x90,'
tRp579
I-1
I1
ttRp580
sVhttp://www.foresthill.org/assets/components/foresthill/media/collections/4e8df88c157d7/Generous.jpg
p581
g3
(g4
g5
(g6
(S'\x07\xdf\x0c\x12\x10\x0b6\x0c\x901'
tRp582
S'13'
p583
I1
ttRp584
sVhttp://www.chatelaine.com/wp-content/uploads/2015/11/grinch-generous.png
p585
g3
(g4
g5
(g6
(S'\x07\xe0\x08\x19\t5\x1f\x03\x16\x15'
tRp586
S'307'
p587
I1
ttRp588
sVhttps://d1ig2tdbom83n0.cloudfront.net/wp-content/uploads/2015/07/David-and-his-generous-strength-Pocket-Fuel-Daily-Devotional-on-1-Sam-30-12-700x700.jpg
p589
g3
(g4
g5
(g6
(S'\x07\xe0\n\x06\x15\x03\x18\x07\x96\x18'
tRp590
S'276'
p591
I1
ttRp592
sVhttp://09280a92bab43a2a4ef6-baf24f468a9c2769033004b1fa9667f1.r61.cf2.rackcdn.com/uploaded/g/0e4446935_1439834385_generous-living-logo-and-subtitle.jpg
p593
g3
(g4
g5
(g6
(S'\x07\xe0\x08\x02\x14\x10-\x07b '
tRp594
I-1
I1
ttRp595
sVhttp://madartlab.com/files/2012/05/TTDH2.png
p596
g3
(g4
g5
(g6
(S'\x07\xe0\x08\x13\x0138\x02\x97\xd8'
tRp597
I-1
I1
ttRp598
sVhttp://www.clipartbest.com/cliparts/xTg/ELE/xTgELEBTA.png
p599
g3
(g4
g5
(g6
(S'\x07\xdf\x0c\x18\x10\x11\x1e\rD('
tRp600
S'123'
p601
I1
ttRp602
sVhttp://d1ig2tdbom83n0.cloudfront.net/wp-content/uploads/2015/07/David-and-his-generous-strength-Pocket-Fuel-Daily-Devotional-on-1-Sam-30-12-pinterest.jpg
p603
g3
(g4
g5
(g6
(S'\x07\xe0\x07\x03\x0f-;\x05L\xf4'
tRp604
S'242'
p605
I1
ttRp606
sVhttp://www.successandfailure.net/blog/wp-content/uploads/2012/10/Generosity-H2O.jpg.opt860x1094o00s860x1094.jpg
p607
g3
(g4
g5
(g6
(S'\x07\xe0\x06\x1e\x13-\n\x05\x1a\x1a'
tRp608
I-1
I1
ttRp609
sVhttp://theinspirationroom.com/daily/commercials/2015/3/coca_cola_generous_world_alien.jpg
p610
g3
(g4
g5
(g6
(S'\x07\xdf\x0c\x18\x10\x11\x1e\rD\xc9'
tRp611
S'126'
p612
I1
ttRp613
sVhttp://d.fastcompany.net/multisite_files/fastcompany/imagecache/1280/poster/2013/05/3009323-poster-1920-extreme-giver-adam-grant-lends-us-his-advice-on-becoming-a-more-generous-lead.jpg
p614
g3
(g4
g5
(g6
(S'\x07\xe0\x06\x1e\x13-\n\x05\x19\x92'
tRp615
S'184'
p616
I1
ttRp617
sVhttps://i.ytimg.com/vi/2_cWXp1eM0U/maxresdefault.jpg
p618
g3
(g4
g5
(g6
(S'\x07\xe0\x05\x1a\x10\x19\x08\x07\xbdF'
tRp619
S'119'
p620
I1
ttRp621
sVhttp://www.fccwilmington.org/uploads/4/7/8/7/4787221/2216614_orig.jpg
p622
g3
(g4
g5
(g6
(S'\x07\xe0\x06\x0c\x00 %\x041\xd7'
tRp623
S'220'
p624
I1
ttRp625
sVhttps://www.bigquestionsonline.com/wp-content/uploads/2014/05/What-Makes-Us-Generous-990x580.jpg
p626
g3
(g4
g5
(g6
(S'\x07\xe0\n\x1c\x17\x13\x04\x03\xa7"'
tRp627
S'203'
p628
I1
ttRp629
sVhttp://static2.businessinsider.com/image/56158c6abd86ef1b008c023d/the-20-most-generous-people-in-the-world.jpg
p630
g3
(g4
g5
(g6
(S'\x07\xe0\x06\x1e\x13-\n\x05\x1a\x1e'
tRp631
S'166'
p632
I1
ttRp633
sVhttp://www.vineyardcolumbus.org/monkimage.php?mediaDirectory=mediafiles&mediaId=3428024&fileName=generouslifeslide-557-313-0-0.jpg
p634
g3
(g4
g5
(g6
(S'\x07\xe0\t\x1a\n\x171\x04\xfb\xe9'
tRp635
S'101'
p636
I1
ttRp637
sVhttps://pbs.twimg.com/media/CV-fOvCU4AAZRlO.png
p638
g3
(g4
g5
(g6
(S'\x07\xe0\t\x1a\n\x171\x04\xfc\x07'
tRp639
S'150'
p640
I1
ttRp641
sVhttps://www.idisciple.org/cloud/idm/Fotolia_36816941_Subscription_Monthly_M.png
p642
g3
(g4
g5
(g6
(S'\x07\xe0\x07\x01\x0f\x016\x01\xdd?'
tRp643
I-1
I1
ttRp644
sVhttp://www.workingmomsagainstguilt.com/wp-content/uploads/2014/12/raising-a-generous-child.jpg
p645
g3
(g4
g5
(g6
(S'\x07\xe0\n\x06\x15\x03\x18\x07\x95\x8c'
tRp646
I-1
I1
ttRp647
sVhttp://quotes.lifehack.org/media/quotes/quote-William-Arthur-Ward-the-more-generous-we-are-the-more-36194.png
p648
g3
(g4
g5
(g6
(S'\x07\xe0\x08\t\x01.3\x0c\xba['
tRp649
I-1
I1
ttRp650
sVhttp://karenheimbuch.com/wp-content/uploads/2011/12/Giving-11.jpg
p651
g3
(g4
g5
(g6
(S'\x07\xe0\t\x1a\n\x171\x04\xfc;'
tRp652
I-1
I1
ttRp653
sVhttp://i.imgur.com/k9en74h.jpg
p654
g3
(g4
g5
(g6
(S'\x07\xe0\x08\x02\x14\x10-\x07a\xbd'
tRp655
S'64'
p656
I1
ttRp657
sVhttp://incedogroup.com/wp-content/uploads/2013/06/The-Obvious-but-Understated-Fact-Generous-Leaders-are-Richer-than-Stingy-Leaders-2.jpg
p658
g3
(g4
g5
(g6
(S'\x07\xe0\x08\x02\x14\x10-\x07ap'
tRp659
S'97'
p660
I1
ttRp661
sVhttp://cdn-media-1.lifehack.org/wp-content/files/2015/07/Give-3.jpg
p662
g3
(g4
g5
(g6
(S'\x07\xe0\n\x1c\x17\x13\x04\x03\xa7W'
tRp663
S'201'
p664
I1
ttRp665
sVhttp://oodlesprintery.com/wp-content/uploads/2013/04/CoachingOOdles-Poems-Generous.jpg
p666
g3
(g4
g5
(g6
(S'\x07\xe0\n\x06\x15\x03\x18\x07\x95\xe2'
tRp667
I-1
I1
ttRp668
sVhttps://i.ytimg.com/vi/wIOWM0SdE2c/maxresdefault.jpg
p669
g3
(g4
g5
(g6
(S'\x07\xe0\x08\x02\x14\x10-\x07a\xdd'
tRp670
S'91'
p671
I1
ttRp672
sVhttp://specials-images.forbesimg.com/imageserve/03yY2aL7dF3U5/0x600.jpg
p673
g3
(g4
g5
(g6
(S'\x07\xe0\n\x1c\x17\x13\x04\x03\xa6\xfb'
tRp674
S'317'
p675
I1
ttRp676
sVhttp://prudent-assets.s3-us-west-2.amazonaws.com/wp-content/uploads/2012/10/14230027/generous2.jpeg
p677
g3
(g4
g5
(g6
(S'\x07\xe0\x08\x19\t5\x1f\x03\x15\xad'
tRp678
S'7'
I1
ttRp679
sVhttps://i.ytimg.com/vi/3sJcbxj5zGA/maxresdefault.jpg
p680
g3
(g4
g5
(g6
(S'\x07\xe0\x05\x1a\x10\x19\x08\x07\xbd\x1a'
tRp681
S'137'
p682
I1
ttRp683
sVhttps://codyhooper.files.wordpress.com/2016/02/generous.jpg
p684
g3
(g4
g5
(g6
(S'\x07\xe0\t\x18\n\x0b%\x00\xff?'
tRp685
S'245'
p686
I2
ttRp687
sVhttps://nyoobserver.files.wordpress.com/2015/10/web_cover_philanthropy_neil-webb.jpg?quality=80
p688
g3
(g4
g5
(g6
(S'\x07\xe0\n\x06\x15\x03\x18\x07\x96\x92'
tRp689
S'291'
p690
I1
ttRp691
sVhttp://assets.babycenter.com/ims/2015/04/ThinkstockPhotos-477998733_wide.jpg?width=475
p692
g3
(g4
g5
(g6
(S'\x07\xe0\t\x1a\n\x171\x04\xfd3'
tRp693
S'33'
p694
I1
ttRp695
sVhttp://www.onbeing.org/sites/default/files/styles/width668/public/5619435641_8329d4e6c5_o.jpg?itok=8UV_OVbQ
p696
g3
(g4
g5
(g6
(S'\x07\xe0\t\x1a\n\x171\x04\xfc3'
tRp697
S'183'
p698
I1
ttRp699
sVhttp://payload213.cargocollective.com/1/13/420765/6575732/web_generous_4_905.jpg
p700
g3
(g4
g5
(g6
(S'\x07\xe0\n\x06\x15\x03\x18\x07\x96L'
tRp701
NI1
ttRp702
sVhttp://www.generousjoes.com/_/rsrc/1402955866551/home/NEW_3999%20copy.jpg?height=1988&width=2376
p703
g3
(g4
g5
(g6
(S'\x07\xe0\x05\x1a\x10\x19\x08\x07\xbdR'
tRp704
S'111'
p705
I1
ttRp706
sVhttps://idisciple.blob.core.windows.net/idm/Fotolia_36816941_Subscription_Monthly_M.png
p707
g3
(g4
g5
(g6
(S'\x07\xe0\x08\x13\x0138\x02\x98\x0e'
tRp708
S'298'
p709
I1
ttRp710
sVhttp://c1940652.r52.cf0.rackcdn.com/52e80fc2b8d39a0f410021ee/BeGenerous_Desktop.jpg
p711
g3
(g4
g5
(g6
(S'\x07\xe0\x08\x02\x14\x10-\x07`\xef'
tRp712
S'135'
p713
I1
ttRp714
sVhttp://cdn.thefiscaltimes.com/sites/default/files/styles/article_hero_image/public/articles/10242011_Charitable_Deductions_article.jpg?itok=t2NcHXEs
p715
g3
(g4
g5
(g6
(S'\x07\xe0\n\x06\x15\x03\x18\x07\x96~'
tRp716
S'222'
p717
I1
ttRp718
sVhttp://nationalmortgageprofessional.com/sites/default/files/ThinkstockPhotos-482444033.jpg
p719
g3
(g4
g5
(g6
(S'\x07\xe0\n\x02\n:5\x0e5o'
tRp720
S'98'
p721
I1
ttRp722
sVhttp://abidinginthevine.net/wp-content/uploads/2014/05/generous_logo.jpg
p723
g3
(g4
g5
(g6
(S'\x07\xe0\x08\x19\t5\x1f\x03\x16\xaa'
tRp724
S'21'
p725
I1
ttRp726
sVhttp://www.pattylaurel.com/wp-content/uploads/2015/01/generosity-quotes.jpg
p727
g3
(g4
g5
(g6
(S'\x07\xdf\x0c\x12\x10\x0b6\x0c\x90\xb0'
tRp728
S'39'
p729
I1
ttRp730
sVhttp://sparktriad.com/wp-content/uploads/2014/03/Generosity-21.jpg
p731
g3
(g4
g5
(g6
(S'\x07\xdf\x0c\x01\x16!%\x0f \x1c'
tRp732
S'6'
I1
ttRp733
sVhttp://i.imgur.com/qHGt6cf.jpg
p734
g3
(g4
g5
(g6
(S'\x07\xe0\x07\x15\x111\x1a\r\x02\x06'
tRp735
S'189'
p736
I1
ttRp737
sVhttps://southernemma.files.wordpress.com/2010/04/shutterstock_28143461.jpg
p738
g3
(g4
g5
(g6
(S'\x07\xe0\x08\x02\x14\x10-\x07a5'
tRp739
S'61'
p740
I1
ttRp741
sVhttp://throwingthebowlines.com/wp-content/uploads/2014/08/giving3.jpg
p742
g3
(g4
g5
(g6
(S'\x07\xe0\n\x06\x15\x03\x18\x07\x95]'
tRp743
S'227'
p744
I1
ttRp745
sVhttp://www.thestar.com/content/dam/thestar/life/2012/10/08/teach_your_kids_how_to_be_generous/sharing.jpeg.size.xxlarge.letterbox.jpeg
p746
g3
(g4
g5
(g6
(S'\x07\xdf\x0c\n\x10\x08\x15\r\xf0&'
tRp747
S'63'
p748
I1
ttRp749
sVhttp://i.huffpost.com/gen/1477659/images/o-GENEROSITY-facebook.jpg
p750
g3
(g4
g5
(g6
(S'\x07\xe0\n\x02\n:5\x0e4\x92'
tRp751
S'139'
p752
I1
ttRp753
sVhttp://media.indiatimes.in/media/content/2015/Nov/ag1_1447219314.jpg
p754
g3
(g4
g5
(g6
(S'\x07\xe0\t\x18\n\x0b%\x00\xfe\xc3'
tRp755
S'313'
p756
I1
ttRp757
sVhttp://pastorrick.com/images/default-source/Devotional-Images/02-23-16-habits-of-happiness-happiness-habit-be-generous.jpg?sfvrsn=0
p758
g3
(g4
g5
(g6
(S'\x07\xe0\n\x02\n:5\x0e5\x05'
tRp759
S'323'
p760
I1
ttRp761
sVhttp://www.northumbriacommunity.org/wp-content/uploads/2013/07/DSCN28921.jpg
p762
g3
(g4
g5
(g6
(S'\x07\xdf\x0c\x18\x10\x11\x1e\rD\xd8'
tRp763
S'121'
p764
I1
ttRp765
sVhttp://images.hellokids.com/_uploads/_tiny_galerie/20160103/helping-hands-kzw_jfb.jpg
p766
g3
(g4
g5
(g6
(S'\x07\xe0\x08\x19\t5\x1f\x03\x15\xf3'
tRp767
I-1
I1
ttRp768
sVhttp://baysidech.com/wp-content/uploads/2014/11/Generous-Media1.jpg
p769
g3
(g4
g5
(g6
(S'\x07\xe0\x08\x02\x14\x10-\x07a\xd5'
tRp770
S'249'
p771
I1
ttRp772
sVhttp://www.generousjoes.com/_/rsrc/1402955843710/home/NEW_3994%20copy.jpg?height=2531&width=2333
p773
g3
(g4
g5
(g6
(S'\x07\xdf\x0c\x18\x10\x11\x1e\rD\x8a'
tRp774
S'128'
p775
I1
ttRp776
sVhttp://www.magnor.no/1172-thickbox_default/generous-vas-pink.jpg
p777
g3
(g4
g5
(g6
(S'\x07\xe0\n\x06\x15\x03\x18\x07\x95\xe7'
tRp778
NI1
ttRp779
sVhttp://jennifermccrea.com/wp-content/uploads/radicalgenerosity.jpg
p780
g3
(g4
g5
(g6
(S'\x07\xdf\x0c\n\x10\x08\x15\r\xef\xca'
tRp781
I-1
I1
ttRp782
sVhttp://previews.123rf.com/images/pressmaster/pressmaster0903/pressmaster090300486/4544882-Generous-girl-giving-bottle-of-water-to-the-friend-in-front-of-her-Stock-Photo.jpg
p783
g3
(g4
g5
(g6
(S'\x07\xe0\x06\x1e\x13-\n\x05\x1a\x0c'
tRp784
S'181'
p785
I2
ttRp786
sVhttp://leadnet.org/wp-content/uploads/2014/03/Poverty_-_Hands_with_Coins4.jpg
p787
g3
(g4
g5
(g6
(S'\x07\xe0\t\x1a\n\x171\x04\xfc\xdf'
tRp788
I-1
I1
ttRp789
sVhttp://projectpartner.org/wp-content/uploads/17-ways-generous-title.png
p790
g3
(g4
g5
(g6
(S'\x07\xe0\n\x06\x15\x03\x18\x07\x96&'
tRp791
S'296'
p792
I1
ttRp793
sVhttp://quotes.values.com/quote_artwork/7277/original/friday.jpg?1430071906
p794
g3
(g4
g5
(g6
(S'\x07\xe0\x06\x1e\x13-\n\x05\x19\xbd'
tRp795
I-1
I1
ttRp796
sVhttp://www.generous.eu/medias/home/Elections_Generous_intolerance_alimentaire_245.jpg
p797
g3
(g4
g5
(g6
(S'\x07\xdf\x0c\x12\x10\x0b6\x0c\x90\x82'
tRp798
I-1
I1
ttRp799
sVhttp://www.htj.org.uk/content/pages/uploaded_images/575.jpg
p800
g3
(g4
g5
(g6
(S'\x07\xe0\n\x06\x15\x03\x18\x07\x960'
tRp801
S'318'
p802
I1
ttRp803
sVhttp://moseskumar.com/wp-content/uploads/2016/01/Generosity.jpg
p804
g3
(g4
g5
(g6
(S'\x07\xe0\n\x06\x15\x03\x18\x07\x95\xcc'
tRp805
S'225'
p806
I1
ttRp807
sVhttp://southernemma.files.wordpress.com/2010/04/shutterstock_28143461.jpg
p808
g3
(g4
g5
(g6
(S'\x07\xdf\x0b\t\x13\x19\n\x08;\xff'
tRp809
S'4'
I1
ttRp810
sVhttp://i.ytimg.com/vi/ojDC8BWFZoI/maxresdefault.jpg
p811
g3
(g4
g5
(g6
(S'\x07\xdf\x0c\x18\x10\x11\x1e\rD\xf8'
tRp812
I-1
I3
ttRp813
sVhttps://assets.entrepreneur.com/content/16x9/822/get-ahead-being-generous.jpg
p814
g3
(g4
g5
(g6
(S'\x07\xe0\t\x1a\n\x171\x04\xfd\x10'
tRp815
S'2'
I1
ttRp816
sVhttps://c.o0bg.com/rf/image_960w/Boston/2011-2020/2015/12/18/BostonGlobe.com/Lifestyle/Images/shutterstock_260177225.jpg
p817
g3
(g4
g5
(g6
(S'\x07\xe0\n\x06\x15\x03\x18\x07\x96_'
tRp818
S'200'
p819
I1
ttRp820
sVhttp://previews.123rf.com/images/addricky/addricky1311/addricky131101002/24081795-Man-hand-holding-object-Gold-ingots-as-generous-gift-with-red-ribbon-and-bow-isolated-on-white-backg-Stock-Photo.jpg
p821
g3
(g4
g5
(g6
(S'\x07\xe0\x06\x1e\x13-\n\x05\x19\xfe'
tRp822
S'254'
p823
I1
ttRp824
sVhttps://pbs.twimg.com/profile_images/378800000636594581/1e5cca4fac592005a992eeef52e35a3b_400x400.png
p825
g3
(g4
g5
(g6
(S'\x07\xdf\x0c\x12\x10\x0b6\x0c\x8f\xe8'
tRp826
S'62'
p827
I1
ttRp828
sVhttps://scottpilgrim67.files.wordpress.com/2016/09/generous.jpg
p829
g3
(g4
g5
(g6
(S'\x07\xe0\t\x1a\n\x171\x04\xfd\x97'
tRp830
S'319'
p831
I1
ttRp832
sVhttp://assets.bakerpublishinggroup.com/processed/books/covers/original/9781587433559.jpg?1415810544
p833
g3
(g4
g5
(g6
(S'\x07\xe0\x07\x15\x111\x1a\r\x01\xd1'
tRp834
S'136'
p835
I1
ttRp836
sVhttp://www.transitsm.com/wp-content/uploads/2014/12/Generous.jpg
p837
g3
(g4
g5
(g6
(S'\x07\xdf\x0c\x01\x16!%\x0f 9'
tRp838
S'50'
p839
I1
ttRp840
sVhttp://images.technewstoday.com.s3.amazonaws.com/tnt/960-microsoft-employees-get-generous-raise-125-million-for-nonprofits.jpg
p841
g3
(g4
g5
(g6
(S'\x07\xe0\n\x02\n:5\x0e4\xc7'
tRp842
S'243'
p843
I1
ttRp844
sVhttp://myreallife.org/wp-content/uploads/2014/07/Generous-slider-11.jpg
p845
g3
(g4
g5
(g6
(S'\x07\xe0\n\x02\n:5\x0e4\xdc'
tRp846
I-1
I1
ttRp847
sVhttps://i.ytimg.com/vi/3z7e3VowkXc/maxresdefault.jpg
p848
g3
(g4
g5
(g6
(S'\x07\xdf\x0c\x18\x10\x11\x1e\rD\x9b'
tRp849
S'142'
p850
I1
ttRp851
sVhttp://www.eagleonline.com/wp-content/uploads/Generosity-quote.jpg
p852
g3
(g4
g5
(g6
(S'\x07\xe0\n\x06\x15\x03\x18\x07\x95\x9c'
tRp853
S'325'
p854
I1
ttRp855
sVhttp://www.gracea2.org/wp-content/uploads/2012/11/generous-b-960x350.jpg
p856
g3
(g4
g5
(g6
(S'\x07\xdf\x0c\n\x10\x08\x15\r\xef\xac'
tRp857
S'88'
p858
I1
ttRp859
sVhttps://i.ytimg.com/vi/vxhXwcjh9CY/maxresdefault.jpg
p860
g3
(g4
g5
(g6
(S'\x07\xe0\x07\x15\x111\x1a\r\x02g'
tRp861
S'290'
p862
I1
ttRp863
sVhttp://www.steamfeed.com/wp-content/uploads/2013/10/Your-generosity-will-create-prosperity.jpg
p864
g3
(g4
g5
(g6
(S'\x07\xe0\t\x1a\n\x171\x04\xfc|'
tRp865
I-1
I1
ttRp866
sVhttp://generositygameplan.com/wp-content/uploads/2013/08/generosity-checkup-logo-600x600.png
p867
g3
(g4
g5
(g6
(S'\x07\xe0\x08\x19\t5\x1f\x03\x16\x93'
tRp868
S'55'
p869
I1
ttRp870
sVhttp://loveamongthelampreys.com/comics/2011-10-26-lamprey17.JPG
p871
g3
(g4
g5
(g6
(S'\x07\xe0\x08\x02\x14\x10-\x07a\x18'
tRp872
S'99'
p873
I1
ttRp874
sVhttp://themoneycouple.com/wp-content/uploads/2015/11/Christmas-gift-for-homeless-man_c.-Halfpoint_shutterstock_116920486.jpg
p875
g3
(g4
g5
(g6
(S'\x07\xe0\x08\x02\x14\x10-\x07b)'
tRp876
I-1
I1
ttRp877
sVhttp://i.huffpost.com/gen/881744/images/o-GENEROSITY-BENEFITS-facebook.jpg
p878
g3
(g4
g5
(g6
(S'\x07\xe0\t\x1a\n\x171\x04\xfd\x00'
tRp879
S'44'
p880
I1
ttRp881
sVhttp://i2.cdn.turner.com/cnnnext/dam/assets/151105174136-myanmar-donations-exlarge-169.jpg
p882
g3
(g4
g5
(g6
(S'\x07\xe0\x08\x15\x014\x1e\x0bK\x0c'
tRp883
S'178'
p884
I1
ttRp885
sVhttp://orig03.deviantart.net/f126/f/2012/251/0/f/generous_offer_by_setpoirot-d5e0fyr.jpg
p886
g3
(g4
g5
(g6
(S'\x07\xe0\x06\x1e\x13-\n\x05\x19\xe6'
tRp887
S'147'
p888
I1
ttRp889
sVhttp://www.alambic-magazine.com/wp-content/uploads/2015/06/Generous-Gin.jpg
p890
g3
(g4
g5
(g6
(S'\x07\xe0\x08\x02\x14\x10-\x07b\xae'
tRp891
S'138'
p892
I1
ttRp893
sVhttps://quotefancy.com/media/wallpaper/3840x2160/89253-David-Jeremiah-Quote-The-truth-is-We-serve-a-generous-God-He.jpg
p894
g3
(g4
g5
(g6
(S'\x07\xe0\x08\x02\x14\x10-\x07b\xb6'
tRp895
S'284'
p896
I1
ttRp897
sVhttp://cdn-media-2.lifehack.org/wp-content/files/2015/07/Give-3.jpg
p898
g3
(g4
g5
(g6
(S'\x07\xe0\n\x02\n:5\x0e5\x02'
tRp899
S'259'
p900
I1
ttRp901
sVhttp://4.bp.blogspot.com/-uPt5GQiKlA4/VnYxHM6TVAI/AAAAAAAAADw/c8QItKeFSpc/s1600/3.jpg
p902
g3
(g4
g5
(g6
(S"\x07\xe0\x07\t\x11'!\tJ\xed"
tRp903
S'262'
p904
I1
ttRp905
sVhttp://thegeneroushost.files.wordpress.com/2014/04/design5.jpg
p906
g3
(g4
g5
(g6
(S'\x07\xe0\x08\x02\x14\x10-\x07`\xe0'
tRp907
S'185'
p908
I1
ttRp909
sVhttp://www.commentsyard.com/wp-content/uploads/2015/09/It-Is-Usually-Best-To-Be-Generous-With-Praise-CY123366.png
p910
g3
(g4
g5
(g6
(S'\x07\xe0\x08\x02\x14\x10-\x07a\x0e'
tRp911
S'251'
p912
I1
ttRp913
sVhttp://www.myquotesclub.com/wp-content/uploads/2015/12/Generosity-is-giving-more-than-you-can.png
p914
g3
(g4
g5
(g6
(S'\x07\xe0\x06\x0c\x00 %\x0410'
tRp915
S'217'
p916
I1
ttRp917
sVhttp://goonsquad.blog.com/files/2014/04/generous-melart-mtv.fi_.jpg
p918
g3
(g4
g5
(g6
(S'\x07\xe0\n\x06\x15\x03\x18\x07\x95d'
tRp919
I-1
I1
ttRp920
sVhttp://thefrugalmodel.com/wp-content/uploads/2014/09/o-GENEROSITY-facebook.jpg
p921
g3
(g4
g5
(g6
(S'\x07\xe0\n\x02\n:5\x0e4\xd8'
tRp922
I-1
I1
ttRp923
sVhttp://www.allegrotoday.com/wp-content/uploads/2015/12/generosity.jpg
p924
g3
(g4
g5
(g6
(S'\x07\xe0\x08\x19\t5\x1f\x03\x15\xe5'
tRp925
S'96'
p926
I2
ttRp927
sVhttp://www.thetinytwig.com/wp-content/uploads/2014/02/3-reasons-you-should-be-extravagantly-generous.jpg
p928
g3
(g4
g5
(g6
(S'\x07\xe0\n\x06\x15\x03\x18\x07\x95~'
tRp929
S'326'
p930
I1
ttRp931
sVhttp://www.foxcitiespac.com/sites/default/files/media-resources/files/MercyMe-TheGenerousMr.Lovewell_MMLovewellCover.jpg?1274884793
p932
g3
(g4
g5
(g6
(S'\x07\xdf\x0c\x18\x10\x11\x1e\rD`'
tRp933
S'108'
p934
I1
ttRp935
sVhttp://specials-images.forbesimg.com/imageserve/24d56b7ee6e893bf8ceb615570fda79d/0x600.jpg?fit=scale&background=000000
p936
g3
(g4
g5
(g6
(S'\x07\xe0\x06\x10\x02\x02#\x0eH>'
tRp937
S'237'
p938
I1
ttRp939
sVhttp://www.foxcitiespac.com/sites/default/files/media-resources/files/MercyMe-TheGenerousMr.Lovewell_MMLovewellCover.jpg
p940
g3
(g4
g5
(g6
(S'\x07\xe0\x07\x15\x111\x1a\r\x02P'
tRp941
I-1
I1
ttRp942
sVhttp://images.sodahead.com/polls/003485293/5410398558_Giving_11_xlarge.jpeg
p943
g3
(g4
g5
(g6
(S'\x07\xdf\x0c\n\x10\x08\x15\r\xef\xb8'
tRp944
S'89'
p945
I1
ttRp946
sVhttp://www.access52.com/wp-content/uploads/2013/09/stockfresh_2290191_gift_sizeS-645x429.jpg
p947
g3
(g4
g5
(g6
(S'\x07\xe0\x08\x19\t5\x1f\x03\x16\x01'
tRp948
I-1
I1
ttRp949
sVhttp://www.diyphotography.net/files/u8/photography-generosity-diyphotography.jpg
p950
g3
(g4
g5
(g6
(S'\x07\xe0\x08\x19\t5\x1f\x03\x16\x10'
tRp951
I-1
I1
ttRp952
sVhttp://specialneedsparenting.net/wp-content/uploads/2015/12/Alix-Generous-photo1.jpg
p953
g3
(g4
g5
(g6
(S'\x07\xe0\t\x1a\n\x171\x04\xfb\xfd'
tRp954
S'218'
p955
I1
ttRp956
sVhttp://robertjrgraham.com/wp-content/uploads/2011/08/generous-picture.jpg
p957
g3
(g4
g5
(g6
(S'\x07\xe0\x08\x19\t5\x1f\x03\x16-'
tRp958
S'30'
p959
I1
ttRp960
sVhttp://kathycaprino.com/wp-content/uploads/2015/02/iStock_000058101296_Medium.jpg
p961
g3
(g4
g5
(g6
(S"\x07\xe0\n\x02\n:5\x0e5'"
tRp962
S'65'
p963
I1
ttRp964
sVhttp://4cornersfestival.com/wp-content/uploads/generosity.jpg
p965
g3
(g4
g5
(g6
(S'\x07\xe0\t\x1a\n\x171\x04\xfc\xd6'
tRp966
S'167'
p967
I1
ttRp968
sVhttps://bitbucket.org/Karabor/karabor-bugtracker/issues/attachments/2121/Karabor/karabor-bugtracker/1423058768.39/2121/WoWScrnShot_020415_150513.jpg
p969
g3
(g4
g5
(g6
(S'\x07\xe0\x07\x15\x111\x1a\r\x02\x98'
tRp970
I-1
I1
ttRp971
sVhttp://www.formaggiokitchen.com/shop/media/catalog/product/cache/1/image/9df78eab33525d08d6e5fb8d27136e95/G/e/Generous_Citron_Cookies_sm-2_4.jpg
p972
g3
(g4
g5
(g6
(S'\x07\xe0\x08\t\x01.3\x0c\xbb\x91'
tRp973
S'241'
p974
I1
ttRp975
sVhttp://www.iwuspectrum.com/wp-content/uploads/2012/11/sandyfacebook2.jpg
p976
g3
(g4
g5
(g6
(S'\x07\xe0\x07\x15\x111\x1a\r\x02\x9b'
tRp977
S'286'
p978
I1
ttRp979
sVhttp://pad2.whstatic.com/images/thumb/7/72/Be-Generous-on-a-Limited-Budget-Step-2.jpg/aid476733-728px-Be-Generous-on-a-Limited-Budget-Step-2.jpg
p980
g3
(g4
g5
(g6
(S'\x07\xe0\t\x18\n\x0b%\x00\xffm'
tRp981
S'214'
p982
I1
ttRp983
sVhttp://www.genesisthejourney.com/images/wallpaper/be-generous/beGENEROUS_2560x1440.jpg
p984
g3
(g4
g5
(g6
(S'\x07\xe0\n\x02\n:5\x0e5\x0e'
tRp985
S'100'
p986
I1
ttRp987
sVhttp://www.fellowshipconway.org/wp-content/uploads/2011/12/generous-life-the_t_nt3.jpg
p988
g3
(g4
g5
(g6
(S'\x07\xdf\x0c\x01\x16!%\x0f!\x0b'
tRp989
S'58'
p990
I1
ttRp991
sVhttp://dingo.care2.com/pictures/greenliving/1199/1198986.large.jpg
p992
g3
(g4
g5
(g6
(S'\x07\xdf\x0c\n\x10\x08\x15\r\xf0"'
tRp993
S'66'
p994
I1
ttRp995
sVhttp://www.xrds.nl/sermons/images/sermons/everyone-a-generous-life.jpg
p996
g3
(g4
g5
(g6
(S'\x07\xe0\x08\t\x01.3\x0c\xbc\xc5'
tRp997
S'224'
p998
I1
ttRp999
sVhttp://unlockingthebible.org/wp-content/uploads/2014/08/A-Generous-Life-Cover-6.7x6.jpg
p1000
g3
(g4
g5
(g6
(S'\x07\xe0\x07\x15\x111\x1a\r\x02\xf5'
tRp1001
S'283'
p1002
I1
ttRp1003
sVhttp://secondharvestmidtn.org/wp-content/uploads/2015/03/Generous-Helpings-2016-Logo.jpg
p1004
g3
(g4
g5
(g6
(S'\x07\xe0\x07\x15\x111\x1a\r\x02\x02'
tRp1005
S'285'
p1006
I1
ttRp1007
sVhttp://www.investors.com/wp-content/uploads/2016/04/EDIT2-041916-iStock.jpg
p1008
g3
(g4
g5
(g6
(S'\x07\xe0\n\x1c\x17\x13\x04\x03\xa7('
tRp1009
S'206'
p1010
I1
ttRp1011
sVhttps://s3.amazonaws.com/media-4lpi/wp-content/uploads/2016/07/generosity.jpg
p1012
g3
(g4
g5
(g6
(S'\x07\xe0\t\x18\n\x0b%\x00\xff\x8c'
tRp1013
I-1
I1
ttRp1014
sVhttp://loisphillips.com/wp-content/uploads/2013/01/plant-grow.jpg
p1015
g3
(g4
g5
(g6
(S'\x07\xe0\x08\x02\x14\x10-\x07a\x88'
tRp1016
S'94'
p1017
I1
ttRp1018
sVhttp://pad1.whstatic.com/images/thumb/4/40/Be-Generous-Step-9.jpeg/670px-Be-Generous-Step-9.jpeg
p1019
g3
(g4
g5
(g6
(S'\x07\xdf\x0c\x12\x10\x0b6\x0c\x90\x1e'
tRp1020
S'60'
p1021
I1
ttRp1022
sVhttp://www.becomingminimalist.com/wp-content/uploads/2010/03/generosity1.jpg
p1023
g3
(g4
g5
(g6
(S'\x07\xe0\x08\x19\t5\x1f\x03\x15\xf7'
tRp1024
S'250'
p1025
I1
ttRp1026
sVhttp://rickwarren.org/images/default-source/Devotional-Images/02-18-16-habits-of-happiness-happiness-habit-be-generous-on-every-occasion.jpg?sfvrsn=0
p1027
g3
(g4
g5
(g6
(S'\x07\xe0\x08\x13\x0138\x02\x97\xa9'
tRp1028
S'293'
p1029
I1
ttRp1030
sVhttp://www.kirkstallbrewerycompany.com/wp-content/uploads/2013/02/GenerousGeorge.jpg
p1031
g3
(g4
g5
(g6
(S'\x07\xdf\x0c\x18\x10\x11\x1e\rD\x92'
tRp1032
S'129'
p1033
I1
ttRp1034
sVhttp://contents.spin.ph/image/pacquiao-toprank-turkey.jpg
p1035
g3
(g4
g5
(g6
(S'\x07\xdf\x0b\x15\x16\x10 \x01OH'
tRp1036
S'11'
p1037
I1
ttRp1038
sVhttp://www.crosswaybible.org/wp-content/uploads/2012/12/generous.jpg
p1039
g3
(g4
g5
(g6
(S'\x07\xe0\t\x18\n\x0b%\x00\xff\x16'
tRp1040
S'69'
p1041
I1
ttRp1042
sVhttps://ksr-ugc.imgix.net/assets/011/999/878/b78442948e12ec1ec1a20428a36c4fda_original.jpg?w=1536&h=864&fit=fill&bg=000000&v=1463722855&auto=format&q=92&s=d7f375550490650c0bd2e519f57c0e72
p1043
g3
(g4
g5
(g6
(S'\x07\xe0\x06\x1e\x13-\n\x05\x19='
tRp1044
S'275'
p1045
I1
ttRp1046
sVhttps://s-media-cache-ak0.pinimg.com/736x/15/e8/50/15e8500c17dc514b7ab454975812a8f5.jpg
p1047
g3
(g4
g5
(g6
(S'\x07\xe0\t\x18\n\x0b%\x00\xfe\xbb'
tRp1048
S'312'
p1049
I1
ttRp1050
sVhttp://www.nvumc.com/blog/home8/nvumccom/public_html/blog/wp-content/uploads/2012/08/generous-life.jpg
p1051
g3
(g4
g5
(g6
(S'\x07\xe0\x05\x10\x10\x17\x04\x056\xe8'
tRp1052
S'180'
p1053
I1
ttRp1054
sVhttp://www.livescience.com/images/i/000/056/415/original/money-hands.jpg?interpolation=lanczos-none&fit=inside%7C660:*
p1055
g3
(g4
g5
(g6
(S'\x07\xe0\x08\x19\t5\x1f\x03\x16D'
tRp1056
S'304'
p1057
I1
ttRp1058
sVhttps://f4.bcbits.com/img/a4158046891_16.jpg
p1059
g3
(g4
g5
(g6
(S'\x07\xe0\x07\x07\x10\x038\tc\xa6'
tRp1060
S'268'
p1061
I1
ttRp1062
sVhttp://rickwarren.org/images/default-source/Devotional-Images/01-21-16-daring-faith-generous-people-are-happy-people.jpg?sfvrsn=0
p1063
g3
(g4
g5
(g6
(S'\x07\xe0\x08\t\x01.3\x0c\xbb\xc7'
tRp1064
S'266'
p1065
I2
ttRp1066
sVhttp://www.charlesstone.com/images/uploads/hiresimages/generosity1.jpg
p1067
g3
(g4
g5
(g6
(S'\x07\xe0\x08\x02\x14\x10-\x07bL'
tRp1068
S'73'
p1069
I1
ttRp1070
sVhttps://i.ytimg.com/vi/tzQDewp48MU/maxresdefault.jpg
p1071
g3
(g4
g5
(g6
(S'\x07\xe0\x05\x04\x11\x1b&\x0b\xdbW'
tRp1072
S'174'
p1073
I1
ttRp1074
sVhttps://upload.wikimedia.org/wikipedia/en/8/81/Mercyme_the_generous_mr_lovewell_cover.jpg
p1075
g3
(g4
g5
(g6
(S'\x07\xe0\x08\x19\t5\x1f\x03\x16\xbd'
tRp1076
S'38'
p1077
I1
ttRp1078
sVhttps://www.airfrov.com/blog/wp-content/uploads/2015/12/generous.png
p1079
g3
(g4
g5
(g6
(S'\x07\xe0\x06\x1e\x13-\n\x05\x19)'
tRp1080
S'280'
p1081
I1
ttRp1082
sVhttp://www.kumveka.org/wp-content/uploads/2014/07/GG-Case-Study-Sliders-04logotag.jpg
p1083
g3
(g4
g5
(g6
(S'\x07\xe0\x08\x02\x14\x10-\x07a\x98'
tRp1084
S'133'
p1085
I1
ttRp1086
sVhttp://blog.lwyconline.com/wp-content/uploads/2014/02/generosity1.jpg
p1087
g3
(g4
g5
(g6
(S'\x07\xe0\n\x02\n:5\x0e5s'
tRp1088
I-1
I1
ttRp1089
sVhttp://www.kwizlet.com/uploads/1430260636.jpg
p1090
g3
(g4
g5
(g6
(S'\x07\xe0\x07\x15\x111\x1a\r\x02\xec'
tRp1091
S'247'
p1092
I1
ttRp1093
sVhttp://secondharvestmidtn.org/wp-content/uploads/2014/05/Generous-Helpings-logo.jpg
p1094
g3
(g4
g5
(g6
(S'\x07\xdf\x0c\x18\x10\x11\x1e\rE-'
tRp1095
S'103'
p1096
I1
ttRp1097
sVhttps://mbeaudettemolloy.files.wordpress.com/2014/09/2014-09-04-19-08-03.png
p1098
g3
(g4
g5
(g6
(S'\x07\xe0\x06\x1e\x13-\n\x05\x19\t'
tRp1099
S'159'
p1100
I1
ttRp1101
sVhttp://cbsnews1.cbsistatic.com/hub/i/r/2011/08/31/1d8be767-a738-11e2-a3f0-029118418759/thumbnail/620x350/1c251af7e4e594b0cf51bb55e1934234/money_generic_iStock_000004.jpg
p1102
g3
(g4
g5
(g6
(S'\x07\xdf\x0c\x01\x16!%\x0f \xaf'
tRp1103
S'51'
p1104
I1
ttRp1105
sVhttp://secondharvestmidtn.org/wp-content/uploads/2015/03/PeytonHoge-photos-093.jpg
p1106
g3
(g4
g5
(g6
(S'\x07\xdf\x0c\x18\x10\x11\x1e\rD\xf0'
tRp1107
S'134'
p1108
I1
ttRp1109
sVhttp://fpchackensack.org/wp-content/uploads/2015/10/3983.jpg
p1110
g3
(g4
g5
(g6
(S'\x07\xdf\x0c\n\x10\x08\x15\r\xef\x82'
tRp1111
S'56'
p1112
I1
ttRp1113
sVhttp://jive.com/wp-content/uploads/2014/06/generosity-climbing.jpg
p1114
g3
(g4
g5
(g6
(S'\x07\xe0\t\x18\n\x0b%\x00\xfe\xde'
tRp1115
S'23'
p1116
I1
ttRp1117
sVhttps://www.dobbies.com/media/2822891/Rosa-The-Generous-Gardener-Ausdrawn.jpg
p1118
g3
(g4
g5
(g6
(S'\x07\xe0\x08\x02\x14\x10-\x07a\xe5'
tRp1119
S'193'
p1120
I1
ttRp1121
sVhttp://media-cache-ec0.pinimg.com/736x/15/e8/50/15e8500c17dc514b7ab454975812a8f5.jpg
p1122
g3
(g4
g5
(g6
(S'\x07\xdf\x0c\n\x10\x08\x15\r\xf0\x1a'
tRp1123
S'49'
p1124
I1
ttRp1125
sVhttp://2.bp.blogspot.com/-9snvBGKv2Kg/VYgH35oy9EI/AAAAAAAAAjM/dv8gXj_MRO4/s1600/6.21.15.009.jpg
p1126
g3
(g4
g5
(g6
(S'\x07\xe0\x05\x10\x10\x17\x04\x057\xa7'
tRp1127
S'179'
p1128
I1
ttRp1129
sVhttp://www.raincityhousing.org/wordpress/wp-content/uploads/2014/03/large_generosity-nature.jpg
p1130
g3
(g4
g5
(g6
(S'\x07\xdf\x0b\x15\x16\x10 \x01O\xdb'
tRp1131
S'12'
p1132
I1
ttRp1133
sVhttp://blog.lwyconline.com/wp-content/uploads/2014/02/FileItem-124143-Generosity.jpg
p1134
g3
(g4
g5
(g6
(S'\x07\xe0\x06\x0c\x00 %\x041F'
tRp1135
I-1
I1
ttRp1136
sVhttps://www.canadahelps.org/media/GIV3-Map.png
p1137
g3
(g4
g5
(g6
(S'\x07\xe0\x08\t\x01.3\x0c\xbb{'
tRp1138
S'235'
p1139
I1
ttRp1140
sVhttp://media-cache-ec0.pinimg.com/736x/87/d5/4f/87d54f16a21e62adb901a7069299beb3.jpg
p1141
g3
(g4
g5
(g6
(S'\x07\xe0\x06\x0c\x00 %\x041\xd3'
tRp1142
S'228'
p1143
I1
ttRp1144
sVhttp://www.agenerousthought.com/wp-content/uploads/2015/06/agenerousthought.jpg
p1145
g3
(g4
g5
(g6
(S'\x07\xe0\x07\x15\x111\x1a\r\x02\x9f'
tRp1146
S'287'
p1147
I1
ttRp1148
sVhttp://www.mendopres.org/files/2013/06/generous.jpg
p1149
g3
(g4
g5
(g6
(S'\x07\xe0\t\x1a\n\x171\x04\xfc\xef'
tRp1150
S'148'
p1151
I1
ttRp1152
sVhttp://www.churchplanting.com/wp-content/uploads/2011/09/generosity1.jpg
p1153
g3
(g4
g5
(g6
(S'\x07\xe0\n\x06\x15\x03\x18\x07\x95\xa8'
tRp1154
I-1
I1
ttRp1155
sVhttps://twcdaily.files.wordpress.com/2014/05/grace-in-giving-main-logo1.jpg
p1156
g3
(g4
g5
(g6
(S'\x07\xe0\x05\x1a\x10\x19\x08\x07\xbc\x96'
tRp1157
S'125'
p1158
I1
ttRp1159
sVhttp://quotescloud.com/wp-content/uploads/2015/05/A-generous-heart-kind-speech.jpg
p1160
g3
(g4
g5
(g6
(S'\x07\xe0\n\x06\x15\x03\x18\x07\x96B'
tRp1161
I-1
I1
ttRp1162
sVhttp://img.jakpost.net/c/2016/09/11/2016_09_11_11716_1473558858._large.jpg
p1163
g3
(g4
g5
(g6
(S'\x07\xe0\n\x06\x15\x03\x18\x07\x96+'
tRp1164
I-1
I1
ttRp1165
sVhttp://www.beaneagle.be/wp-content/uploads/2013/01/BEA-Generous-1.jpg
p1166
g3
(g4
g5
(g6
(S'\x07\xe0\x07\x15\x111\x1a\r\x02\xd5'
tRp1167
S'187'
p1168
I1
ttRp1169
sVhttp://i.kinja-img.com/gawker-media/image/upload/s--w4Xo0pUh--/18k2x2l3gcfnujpg.jpg
p1170
g3
(g4
g5
(g6
(S'\x07\xdf\x0c\x01\x16!%\x0f!('
tRp1171
S'59'
p1172
I1
ttRp1173
sVhttp://media-cache-ak0.pinimg.com/originals/2e/1f/64/2e1f642561b0b80e4eb348070cfbe211.jpg
p1174
g3
(g4
g5
(g6
(S'\x07\xe0\x06\x1e\x13-\n\x05\x18\xdd'
tRp1175
S'168'
p1176
I1
ttRp1177
sVhttp://cdn-media-1.lifehack.org/wp-content/files/2015/07/493626935_a62784f191_b.jpg
p1178
g3
(g4
g5
(g6
(S'\x07\xe0\x06\x1e\x13-\n\x05\x19\x89'
tRp1179
S'253'
p1180
I1
ttRp1181
sVhttp://www.genesisthejourney.com/images/wallpaper/be-generous/beGENEROUS_1920x1200.jpg
p1182
g3
(g4
g5
(g6
(S'\x07\xe0\x07\x15\x111\x1a\r\x02\xa8'
tRp1183
S'289'
p1184
I1
ttRp1185
sVhttp://generouslife.net/wp-content/uploads/2011/11/Generous-Life-logo-AI-reflect-warp-sm.png
p1186
g3
(g4
g5
(g6
(S'\x07\xdf\x0c\x18\x10\x11\x1e\rD\xe3'
tRp1187
S'114'
p1188
I1
ttRp1189
sVhttp://vignette2.wikia.nocookie.net/wowwiki/images/d/df/JaluuTheGenerous.png/revision/latest?cb=20140603135021
p1190
g3
(g4
g5
(g6
(S'\x07\xe0\x06\x0c\x00 %\x041\x80'
tRp1191
S'240'
p1192
I1
ttRp1193
sVhttp://deborahhbateman.com/wp-content/uploads/2015/02/Proverbs-11-generosity.png
p1194
g3
(g4
g5
(g6
(S'\x07\xe0\x06\x0c\x00 %\x041u'
tRp1195
I-1
I1
ttRp1196
sVhttp://generis.com/wp-content/uploads/2014/02/handsfoldedinwheatfield.jpg
p1197
g3
(g4
g5
(g6
(S'\x07\xe0\x05\x10\x10\x17\x04\x056\xd7'
tRp1198
I-1
I1
ttRp1199
sVhttp://wp.production.patheos.com/blogs/rhemedia/files/2013/05/generosity.jpg
p1200
g3
(g4
g5
(g6
(S'\x07\xdf\x0c\n\x10\x08\x15\r\xef\x94'
tRp1201
S'20'
p1202
I1
ttRp1203
sVhttp://www.churchplants.com/wp-content/uploads/2015/04/GENEROSITY.jpg
p1204
g3
(g4
g5
(g6
(S'\x07\xe0\x08\x19\t5\x1f\x03\x15\xdb'
tRp1205
S'82'
p1206
I1
ttRp1207
sVhttp://eelebmxcq9286ev52zp92u7e.wpengine.netdna-cdn.com/wp-content/uploads/2015/10/Generous-Sermon-Series-Square.jpg
p1208
g3
(g4
g5
(g6
(S'\x07\xe0\n\x06\x15\x03\x18\x07\x95\x97'
tRp1209
I-1
I1
ttRp1210
sVhttp://www.davidaustinroses.co.uk/media/catalog/product/cache/1/image/040ec09b1e35df139433887a97daa66f/T/h/The_Generous_Gardener_Clg_5_2.jpg
p1211
g3
(g4
g5
(g6
(S'\x07\xe0\x08\x02\x14\x10-\x07a\xa4'
tRp1212
I-1
I1
ttRp1213
sVhttp://livingontheedge.org/images/default-source/Product-Cover-Images/geniusgenerosity_3000x1134.jpg?sfvrsn=2
p1214
g3
(g4
g5
(g6
(S'\x07\xe0\x08\x06\x16\x0e\x00\x05\xbd}'
tRp1215
S'246'
p1216
I1
ttRp1217
sVhttp://joeybonifacio.com/wp-content/uploads/2013/11/JB-Generosity-1280x768.jpg
p1218
g3
(g4
g5
(g6
(S'\x07\xe0\x06\x1e\x13-\n\x05\x19T'
tRp1219
S'37'
p1220
I1
ttRp1221
sVhttps://i.ytimg.com/vi/umkO-qIT3HE/maxresdefault.jpg
p1222
g3
(g4
g5
(g6
(S'\x07\xe0\x06\x1e\x13-\n\x05\x19\x80'
tRp1223
S'163'
p1224
I1
ttRp1225
sVhttp://3.bp.blogspot.com/-SoE0DeyUNEg/URQeZLzrTjI/AAAAAAAABJc/mWswlVzJoeA/s1600/black_peace_symbol.png
p1226
g3
(g4
g5
(g6
(S'\x07\xe0\x05\x1a\x10\x19\x08\x07\xbc\xf8'
tRp1227
S'198'
p1228
I1
ttRp1229
sVhttp://i.huffpost.com/gen/1593950/images/o-HOW-TO-BE-GENEROUS-facebook.jpg
p1230
g3
(g4
g5
(g6
(S'\x07\xe0\x08\x02\x14\x10-\x07a\xfe'
tRp1231
S'90'
p1232
I1
ttRp1233
sVhttp://blog.ring.com/wp-content/uploads/2015/11/gift-sharing.jpg
p1234
g3
(g4
g5
(g6
(S'\x07\xe0\n\x1c\x17\x13\x04\x03\xa7v'
tRp1235
S'219'
p1236
I2
ttRp1237
sVhttp://thecastingdock.com/wp-content/uploads/2011/03/just-bee-generous-1024x520.jpg
p1238
g3
(g4
g5
(g6
(S'\x07\xe0\x07\x07\x10\x038\tb\xe8'
tRp1239
S'230'
p1240
I1
ttRp1241
sVhttp://i.imgur.com/z4eJQUc.jpg?1
p1242
g3
(g4
g5
(g6
(S'\x07\xe0\n\x06\x15\x03\x18\x07\x95\x91'
tRp1243
S'329'
p1244
I1
ttRp1245
sVhttp://quotes.lifehack.org/media/quotes/quote-Max-Irons-kindness-and-a-generous-spirit-go-a-131094_2.png
p1246
g3
(g4
g5
(g6
(S"\x07\xe0\x07\t\x11'!\tK."
tRp1247
S'216'
p1248
I1
ttRp1249
sVhttp://generoushome-care.com/wp-content/uploads/2016/02/GenerousHomeCare.png
p1250
g3
(g4
g5
(g6
(S'\x07\xe0\n\x06\x15\x03\x18\x07\x96\x11'
tRp1251
S'295'
p1252
I1
ttRp1253
sVhttps://i.ytimg.com/vi/VJuMljAim8A/maxresdefault.jpg
p1254
g3
(g4
g5
(g6
(S'\x07\xe0\x06\x1e\x13-\n\x05\x19A'
tRp1255
S'267'
p1256
I1
ttRp1257
sVhttps://todaysfreshmanna.files.wordpress.com/2009/09/79685-rule10_final-conflict-1024x810.jpg
p1258
g3
(g4
g5
(g6
(S'\x07\xe0\x05\x04\x11\x1b&\x0b\xdb\xea'
tRp1259
S'175'
p1260
I1
ttRp1261
sVhttp://onehope.net/wp-content/uploads/2015/11/happy-family-running-on-the-beach-000067164403_Double-1128x576.jpg
p1262
g3
(g4
g5
(g6
(S'\x07\xe0\n\x02\n:5\x0e4\x99'
tRp1263
S'233'
p1264
I2
ttRp1265
sVhttps://www.atheistalliance.org/userdata/regionalreports/2015/11-November/sn-religion.jpg
p1266
g3
(g4
g5
(g6
(S'\x07\xe0\t\x1a\n\x171\x04\xfd)'
tRp1267
I-1
I1
ttRp1268
sVhttps://i.ytimg.com/vi/i5Y6fk61wc4/maxresdefault.jpg
p1269
g3
(g4
g5
(g6
(S'\x07\xe0\x07\x15\x111\x1a\r\x02\x8e'
tRp1270
S'104'
p1271
I2
ttRp1272
sVhttp://static1.squarespace.com/static/5306e0f2e4b023c00ff9e916/t/5524638fe4b0445bac76031f/1428448155056/Ministry+Pass%3A+Live+Generous+%7C+Shane+Harris
p1273
g3
(g4
g5
(g6
(S'\x07\xe0\t\x1a\n\x171\x04\xfdE'
tRp1274
S'316'
p1275
I1
ttRp1276
sVhttp://previews.123rf.com/images/pressmaster/pressmaster1003/pressmaster100300274/6637833-Generous-girl-giving-bottle-of-water-to-the-friend-in-front-of-her-Stock-Photo.jpg
p1277
g3
(g4
g5
(g6
(S'\x07\xe0\x05\x04\x11\x1b&\x0b\xdbf'
tRp1278
S'172'
p1279
I1
ttRp1280
sVhttp://cranestookey.com/wp-content/uploads/2016/01/Your-generosity-will-create-prosperity.jpg
p1281
g3
(g4
g5
(g6
(S'\x07\xe0\x08\x19\t5\x1f\x03\x16\xa6'
tRp1282
S'144'
p1283
I1
ttRp1284
sVhttp://www.generosityfactor.com/resources/GENEROSTY%20FACTOR.jpg
p1285
g3
(g4
g5
(g6
(S'\x07\xdf\x0b\x15\x16\x10 \x01P1'
tRp1286
S'24'
p1287
I2
ttRp1288
sVhttp://i.livescience.com/images/i/000/034/599/i02/shutterstock_60344920.jpg?1355777908
p1289
g3
(g4
g5
(g6
(S'\x07\xe0\x04\x16\x10\x13!\x05\xb5\xd0'
tRp1290
I-1
I1
ttRp1291
sVhttps://cocoandmilk.files.wordpress.com/2016/01/generous.jpg
p1292
g3
(g4
g5
(g6
(S'\x07\xe0\x05\x10\x10\x17\x04\x057\xd2'
tRp1293
S'153'
p1294
I1
ttRp1295
sVhttp://www.abenistales.com/wp/wp-content/uploads/2015/08/bonusy-bukmekerov.jpg
p1296
g3
(g4
g5
(g6
(S'\x07\xdf\x0c\x06\x10\x13\x10\r\x90*'
tRp1297
S'81'
p1298
I1
ttRp1299
sVhttp://static.squarespace.com/static/52d088b9e4b0bbf31d3d26b7/52d9422ce4b06ee02710e9ea/52d95b27e4b06ee027157289/1389976359461/6a00d83452063969e20148c72da95a970c.jpg?format=original
p1300
g3
(g4
g5
(g6
(S'\x07\xe0\x08\t\x01.3\x0c\xb9\xad'
tRp1301
S'202'
p1302
I1
ttRp1303
sVhttp://a.scpr.org/i/0261510a0c59b94b763686b89ac8e00e/75156-full.jpg
p1304
g3
(g4
g5
(g6
(S'\x07\xe0\x08\t\x01.3\x0c\xb9\xdc'
tRp1305
S'244'
p1306
I1
ttRp1307
sVhttp://generosity.org/wp-content/uploads/2014/07/generous-society-hero.jpg
p1308
g3
(g4
g5
(g6
(S'\x07\xe0\n\x06\x15\x03\x18\x07\x95\xc6'
tRp1309
I-1
I1
ttRp1310
sVhttp://www.stewardshipoflife.org/wordpress/wp-content/uploads/2013/05/generous-hand-gratitude-generosity-346x280.jpg
p1311
g3
(g4
g5
(g6
(S'\x07\xdf\x0c\x12\x10\x0b6\x0c\x8f\xf0'
tRp1312
S'42'
p1313
I1
ttRp1314
sVhttp://www.martyduren.com/wp-content/uploads/2012/04/Generosity2.jpg
p1315
g3
(g4
g5
(g6
(S'\x07\xdf\x0c\n\x10\x08\x15\r\xef\xb0'
tRp1316
S'45'
p1317
I1
ttRp1318
sVhttp://www.habitat.ca/photos/custom/TeamGenerous_MainLogo.jpg
p1319
g3
(g4
g5
(g6
(S'\x07\xe0\x07\x15\x111\x1a\r\x02_'
tRp1320
S'116'
p1321
I2
ttRp1322
sVhttp://courageouschurch.tv/uploads/images/thumb/large/generous-podcast-1.jpg
p1323
g3
(g4
g5
(g6
(S'\x07\xe0\n\x1c\x17\x13\x04\x03\xa7b'
tRp1324
S'215'
p1325
I1
ttRp1326
sVhttp://cdn4.list25.com/wp-content/uploads/2015/06/generous.jpg
p1327
g3
(g4
g5
(g6
(S'\x07\xe0\t\x1a\n\x171\x04\xfc\xa2'
tRp1328
S'70'
p1329
I1
ttRp1330
sVhttp://www.quotehd.com/imagequotes/authors83/russell-johnson-quote-a-dear-sweet-generous-loving-man.jpg
p1331
g3
(g4
g5
(g6
(S'\x07\xe0\x07\x15\x111\x1a\r\x02\xfa'
tRp1332
S'196'
p1333
I1
ttRp1334
sVhttps://lsaruminations.edublogs.org/files/2015/05/generosity-color-pquolh.jpg
p1335
g3
(g4
g5
(g6
(S'\x07\xe0\t\x1a\n\x171\x04\xfc\xb3'
tRp1336
I-1
I1
ttRp1337
sVhttp://www.generouschurch.com/uploads/images/ladder_8_rungs_3.jpg
p1338
g3
(g4
g5
(g6
(S'\x07\xe0\x05\x04\x11\x1b&\x0b\xdb\x89'
tRp1339
S'80'
p1340
I1
ttRp1341
sVhttp://cdn-media-2.lifehack.org/wp-content/files/2015/07/Give-3-380x253.jpg
p1342
g3
(g4
g5
(g6
(S'\x07\xe0\t\x18\n\x0b%\x00\xff6'
tRp1343
S'236'
p1344
I1
ttRp1345
sVhttp://comps.canstockphoto.com/can-stock-photo_csp2778001.jpg
p1346
g3
(g4
g5
(g6
(S'\x07\xdf\x0c\x01\x16!%\x0f \x80'
tRp1347
S'72'
p1348
I1
ttRp1349
sVhttp://static1.squarespace.com/static/5519f46ae4b08a0cc6098097/t/551f7a38e4b019d7121d5952/1428126265070/Raising+Generous+Kids
p1350
g3
(g4
g5
(g6
(S'\x07\xe0\x07\x07\x10\x038\tc\x9f'
tRp1351
S'274'
p1352
I1
ttRp1353
sVhttp://www.marcfey.com/wp-content/uploads/2014/09/generous.jpg
p1354
g3
(g4
g5
(g6
(S'\x07\xdf\x0c\x12\x10\x0b6\x0c\x90u'
tRp1355
S'83'
p1356
I1
ttRp1357
sVhttp://media-azeroth.cursecdn.com/attachments/17/874/634876434310732640.jpg
p1358
g3
(g4
g5
(g6
(S'\x07\xe0\n\x02\n:5\x0e5I'
tRp1359
S'210'
p1360
I1
ttRp1361
sVhttp://i.huffpost.com/gen/911136/images/o-GENEROUS-PROVINCES-facebook.jpg
p1362
g3
(g4
g5
(g6
(S'\x07\xe0\x08\x15\x014\x1e\x0bK&'
tRp1363
S'31'
p1364
I1
ttRp1365
sVhttp://www.jasongarwood.com/wp-content/uploads/2012/11/generous-1024x819.jpg
p1366
g3
(g4
g5
(g6
(S'\x07\xe0\x05\x18\x10\x177\x0c\xceK'
tRp1367
I-1
I1
ttRp1368
sVhttp://www.onbeing.org/sites/default/files/styles/width668/public/5619435641_8329d4e6c5_o.jpg?itok=7YEVpbBr
p1369
g3
(g4
g5
(g6
(S'\x07\xe0\x05\x04\x11\x1b&\x0b\xdb\xda'
tRp1370
S'169'
p1371
I1
ttRp1372
sVhttp://7768-presscdn-0-28.pagely.netdna-cdn.com/wp-content/uploads/2015/11/sn-religion.jpg
p1373
g3
(g4
g5
(g6
(S'\x07\xe0\t\x18\n\x0b%\x00\xff\x7f'
tRp1374
S'182'
p1375
I2
ttRp1376
sVhttp://www.emotivebrand.com/wp-content/uploads/2016/06/generosity-840x420-1080x675.jpg
p1377
g3
(g4
g5
(g6
(S'\x07\xe0\n\x1c\x17\x13\x04\x03\xa7\x19'
tRp1378
S'277'
p1379
I1
ttRp1380
sVhttp://www.becomingminimalist.com/wp-content/uploads/2013/07/generous-people-see-differently.jpg
p1381
g3
(g4
g5
(g6
(S'\x07\xe0\x08\x19\t5\x1f\x03\x16\xa1'
tRp1382
S'46'
p1383
I1
ttRp1384
sVhttps://c2.staticflickr.com/4/3828/12214872025_3d9505ab9b_b.jpg
p1385
g3
(g4
g5
(g6
(S'\x07\xe0\n\x06\x15\x03\x18\x07\x95V'
tRp1386
S'226'
p1387
I2
ttRp1388
sVhttp://images.clipartpanda.com/generosity-clipart-Picture1.png
p1389
g3
(g4
g5
(g6
(S'\x07\xdf\x0c\x01\x16!%\x0f @'
tRp1390
S'25'
p1391
I1
ttRp1392
sVhttp://www.rockefellernews.com/wp-content/uploads/2013/02/Generosity.jpg
p1393
g3
(g4
g5
(g6
(S'\x07\xdf\x0c\x01\x16!%\x0f T'
tRp1394
S'68'
p1395
I1
ttRp1396
sVhttp://www.transitsm.com/wp-content/uploads/2014/12/Generous-400x400.jpg
p1397
g3
(g4
g5
(g6
(S'\x07\xe0\x08\x15\x014\x1e\x0bJy'
tRp1398
S'53'
p1399
I1
ttRp1400
sVhttps://www.marketingmag.com.au/wp-content/uploads/2016/02/gift-540.jpg
p1401
g3
(g4
g5
(g6
(S'\x07\xe0\x08\x15\x014\x1e\x0bJ|'
tRp1402
S'309'
p1403
I1
ttRp1404
sVhttps://assets.entrepreneur.com/content/3x2/1300/get-ahead-being-generous.jpg
p1405
g3
(g4
g5
(g6
(S'\x07\xe0\x06\x1e\x13-\n\x05\x199'
tRp1406
S'256'
p1407
I1
ttRp1408
sVhttps://i.ytimg.com/vi/rm8o6IGruds/maxresdefault.jpg
p1409
g3
(g4
g5
(g6
(S'\x07\xe0\x08\x02\x14\x10-\x07a\x90'
tRp1410
S'93'
p1411
I1
ttRp1412
sVhttp://www.becomingminimalist.com/wp-content/uploads/2010/03/generosity.jpg
p1413
g3
(g4
g5
(g6
(S'\x07\xdf\x0c\x12\x10\x0b6\x0c\x8f\xce'
tRp1414
S'52'
p1415
I1
ttRp1416
sVhttp://www.formaggiokitchen.com/shop/media/catalog/product/cache/1/image/9df78eab33525d08d6e5fb8d27136e95/G/e/Generous_Speculoos_Cookies_sm_4.jpg
p1417
g3
(g4
g5
(g6
(S'\x07\xe0\n\x06\x15\x03\x18\x07\x95\xd4'
tRp1418
S'271'
p1419
I1
ttRp1420
sVhttp://lepoa.co.ke/wp-content/uploads/2016/01/The-Generous-Life.jpg
p1421
g3
(g4
g5
(g6
(S'\x07\xe0\n\x06\x15\x03\x18\x07\x95\xed'
tRp1422
I-1
I1
ttRp1423
sVhttp://riverrecoverychurch.com/wp-content/uploads/2014/08/Generous.jpg
p1424
g3
(g4
g5
(g6
(S'\x07\xe0\x08\x13\x0138\x02\x98&'
tRp1425
S'149'
p1426
I1
ttRp1427
sVhttp://www.zoompanningeffectslider.com/wordpressplugin_old/images/generousFixedDimensions/02_generous.jpg
p1428
g3
(g4
g5
(g6
(S'\x07\xe0\x05\x04\x11\x1b&\x0b\xdb\x80'
tRp1429
I-1
I1
ttRp1430
sVhttp://valleychristian.codesmprojects.com/wp-content/uploads/2014/12/be-generous.jpg
p1431
g3
(g4
g5
(g6
(S'\x07\xe0\x06\x1e\x13-\n\x05\x19\x11'
tRp1432
S'158'
p1433
I1
ttRp1434
sVhttp://hope4you.tv/hope4you/wp-content/uploads/2014/11/generous-wide.jpg
p1435
g3
(g4
g5
(g6
(S'\x07\xe0\x08\x19\t5\x1f\x03\x166'
tRp1436
S'310'
p1437
I1
ttRp1438
sVhttp://onpurpose.uk.com/wp-content/uploads/2013/06/generosity.jpg
p1439
g3
(g4
g5
(g6
(S'\x07\xdf\x0c\n\x10\x08\x15\r\xef\xee'
tRp1440
S'27'
p1441
I2
ttRp1442
sVhttp://www.allpilgrims.org/wp-content/uploads/2012/10/cg_logo1.jpg
p1443
g3
(g4
g5
(g6
(S'\x07\xe0\x08\x13\x0138\x02\x97\xe8'
tRp1444
S'85'
p1445
I1
ttRp1446
sVhttp://static1.squarespace.com/static/5005b3e5e4b0d377efbf3ab5/5374b5d7e4b000761fd48ec1/5506af7ee4b02d88373137a8/1426593900514/?format=1500w
p1447
g3
(g4
g5
(g6
(S'\x07\xdf\x0c\n\x10\x08\x15\r\xf0\x12'
tRp1448
I-1
I1
ttRp1449
sVhttp://www.ami.org.au/imis15/images/Publications/GGG/GGG-promo-pic3.jpg
p1450
g3
(g4
g5
(g6
(S'\x07\xe0\x07\x15\x111\x1a\r\x02\xa4'
tRp1451
S'288'
p1452
I1
ttRp1453
sVhttp://leadnet.org/wp-content/uploads/2014/02/Generosity-image.jpg
p1454
g3
(g4
g5
(g6
(S'\x07\xdf\x0c\x12\x10\x0b6\x0c\x90h'
tRp1455
I-1
I1
ttRp1456
sVhttp://www.formaggiokitchen.com/shop/media/catalog/product/cache/1/image/9df78eab33525d08d6e5fb8d27136e95/G/e/Generous_Chocolate_Cookies_sm-2_4.jpg
p1457
g3
(g4
g5
(g6
(S'\x07\xe0\n\x06\x15\x03\x18\x07\x96\x9e'
tRp1458
S'327'
p1459
I1
ttRp1460
sVhttp://www.stewardshipadvocates.org/wp-content/uploads/generous-life-the_t_nt3.jpg
p1461
g3
(g4
g5
(g6
(S'\x07\xe0\t\x18\n\x0b%\x00\xfe\xe2'
tRp1462
S'18'
p1463
I1
ttRp1464
sVhttps://9marks.org/wp-content/uploads/2010/10/generous-justice.jpg
p1465
g3
(g4
g5
(g6
(S'\x07\xe0\n\x06\x15\x03\x18\x07\x96\x85'
tRp1466
I-1
I1
ttRp1467
sVhttp://d.fastcompany.net/multisite_files/coexist/imagecache/1280/poster/2013/01/1681158-poster-1280-generosity.jpg
p1468
g3
(g4
g5
(g6
(S'\x07\xe0\x06\x1e\x13-\n\x05\x1a-'
tRp1469
S'176'
p1470
I1
ttRp1471
sVhttp://inallfairness.ie/wp-content/uploads/2015/05/get-ahead-being-generous.jpg
p1472
g3
(g4
g5
(g6
(S'\x07\xdf\x0c\x12\x10\x0b6\x0c\x90\xb4'
tRp1473
S'84'
p1474
I1
ttRp1475
s.