(dp1
Vhttps://hbr.org/resources/images/article_assets/2015/10/OCT15_01_71580112_a.jpg
p2
ccopy_reg
_reconstructor
p3
(cbase.graph_fetch.fetcher
ImageSlot
p4
c__builtin__
tuple
p5
(cdatetime
datetime
p6
(S'\x07\xe0\t\x1a\n\x171\x04\xfbR'
tRp7
S'171'
p8
I2
ttRp9
sVhttp://rickwarren.org/images/default-source/Devotional-Images/12-19-15-christmas-is-for-all-people-the-spirit-of-christmas-is-generosity_mini.jpg?sfvrsn=0
p10
g3
(g4
g5
(g6
(S'\x07\xe0\x08\t\x01.3\x0c\xb9\x12'
tRp11
S'292'
p12
I2
ttRp13
sVhttp://life-balance.s3.amazonaws.com/wp-content/uploads/generosity1.jpg
p14
g3
(g4
g5
(g6
(S'\x07\xe0\x08\x19\t5\x1f\x03\x15\xb2'
tRp15
S'40'
p16
I1
ttRp17
sVhttp://1.bp.blogspot.com/-Fd_gBC5Xmz0/UmdFSpvH_nI/AAAAAAAACVQ/Sw3lsQGIyUU/s1600/Generous-Thought.jpg
p18
g3
(g4
g5
(g6
(S'\x07\xe0\x07\x15\x111\x1a\r\x02\xb5'
tRp19
S'192'
p20
I2
ttRp21
sVhttp://rgtor7kt68-flywheel.netdna-ssl.com/wp-content/uploads/SERMON-Be-Generous-03.jpg
p22
g3
(g4
g5
(g6
(S'\x07\xe0\x08\x02\x14\x10-\x07b\x97'
tRp23
S'252'
p24
I1
ttRp25
sVhttps://www.heartmath.org/assets/uploads/2015/11/generosity-hormone-emotion-index.jpg
p26
g3
(g4
g5
(g6
(S'\x07\xe0\x08\x19\t5\x1f\x03\x16i'
tRp27
S'170'
p28
I1
ttRp29
sVhttp://www.lolosthoughts.com/wp-content/uploads/2016/09/o-GENEROSITY-facebook.jpg
p30
g3
(g4
g5
(g6
(S'\x07\xe0\n\x02\n:5\x0e4\xec'
tRp31
S'324'
p32
I1
ttRp33
sVhttp://www.godfuel.org/wp-content/uploads/2015/07/generosity.jpg
p34
g3
(g4
g5
(g6
(S'\x07\xe0\x06\x0c\x00 %\x042\x01'
tRp35
I-1
I1
ttRp36
sVhttp://quotes.lifehack.org/media/quotes/quote-Pete-Seeger-being-generous-of-spirit-is-a-wonderful-142472_1.png
p37
g3
(g4
g5
(g6
(S'\x07\xe0\n\x06\x15\x03\x18\x07\x95\xb4'
tRp38
S'211'
p39
I1
ttRp40
sVhttp://clubnarwhalblog.com/wp-content/uploads/2013/08/Be-Generous-Blue-Resized.png
p41
g3
(g4
g5
(g6
(S'\x07\xe0\n\x06\x15\x03\x18\x07\x95\xbd'
tRp42
S'199'
p43
I1
ttRp44
sVhttps://qflf.files.wordpress.com/2011/03/honesty.jpg
p45
g3
(g4
g5
(g6
(S'\x07\xe0\x05\x1a\x10\x19\x08\x07\xbc\xf4'
tRp46
S'130'
p47
I1
ttRp48
sVhttp://www.jasongarwood.com/wp-content/uploads/2012/11/generous.jpg
p49
g3
(g4
g5
(g6
(S'\x07\xe0\x05\x18\x10\x177\x0c\xcd\xed'
tRp50
I-1
I1
ttRp51
sVhttps://onfaith.onfaith.co/wp-content/uploads/2015/05/generous1.jpg
p52
g3
(g4
g5
(g6
(S'\x07\xe0\t\x18\n\x0b%\x00\xff\x03'
tRp53
I-1
I1
ttRp54
sVhttp://skinnymom.com/wp-content/uploads/2011/07/generous-kids.jpg
p55
g3
(g4
g5
(g6
(S'\x07\xdf\x0b\t\x13\x19\n\x08;\xd8'
tRp56
I-1
I1
ttRp57
sVhttp://thegenerouscity.com/wp-content/uploads/2013/08/Fotolia_1788043_Subscription_Monthly_M-980x600.jpg
p58
g3
(g4
g5
(g6
(S'\x07\xe0\n\x06\x15\x03\x18\x07\x96\x0b'
tRp59
S'264'
p60
I4
ttRp61
sVhttp://static.tumblr.com/d6bb5a3674a6d7669cf6dfeaaf0d2695/ulfr32t/sU2mw775y/tumblr_static_generation_generous_pic_profile.jpg
p62
g3
(g4
g5
(g6
(S'\x07\xe0\n\x02\n:5\x0e5\n'
tRp63
S'234'
p64
I1
ttRp65
sVhttp://media.salemwebnetwork.com/cms/CW/family/children/30691-greedy-child-1200.1200w.tn.jpg
p66
g3
(g4
g5
(g6
(S'\x07\xe0\n\x02\n:5\x0e54'
tRp67
S'212'
p68
I1
ttRp69
sVhttp://startingpointchurch.ca/wp-content/uploads/2014/11/Generous-912x340.jpg
p70
g3
(g4
g5
(g6
(S'\x07\xe0\t\x18\n\x0b%\x00\xffH'
tRp71
S'146'
p72
I1
ttRp73
sVhttp://images.technewstoday.com.s3.amazonaws.com/tnt/microsoft-employees-get-generous-raise-125-million-for-nonprofits.jpg
p74
g3
(g4
g5
(g6
(S'\x07\xe0\t\x1a\n\x171\x04\xfd\x08'
tRp75
I-1
I1
ttRp76
sVhttp://i.huffpost.com/gen/2243624/images/o-MOST-GENEROUS-CELEBRITIES-facebook.jpg
p77
g3
(g4
g5
(g6
(S'\x07\xe0\x08\x02\x14\x10-\x07bT'
tRp78
S'112'
p79
I1
ttRp80
sVhttp://www.davidaustinroses.co.uk/media/catalog/product/cache/1/image/040ec09b1e35df139433887a97daa66f/T/h/The_Generous_Gardener_Clg_1_2.jpg
p81
g3
(g4
g5
(g6
(S'\x07\xe0\x08\x02\x14\x10-\x07bo'
tRp82
I-1
I1
ttRp83
sVhttp://powertochange.com/wp-content/uploads/2011/04/generous-nltr.jpg
p84
g3
(g4
g5
(g6
(S'\x07\xe0\t\x1a\n\x171\x04\xfc\x99'
tRp85
S'14'
p86
I1
ttRp87
sVhttp://forerunner.org.au/wp-content/uploads/2013/09/generosity.jpg
p88
g3
(g4
g5
(g6
(S'\x07\xe0\x06\x1e\x13-\n\x05\x1a\x05'
tRp89
I-1
I1
ttRp90
sVhttp://oneinfinitelife.com/wp-content/uploads/2016/01/ways-to-be-generous-FB.jpg
p91
g3
(g4
g5
(g6
(S'\x07\xe0\x08\t\x01.3\x0c\xbcm'
tRp92
I-1
I1
ttRp93
sVhttp://southpaloaltofoodcloset.org/wp-content/uploads/2015/11/Helping-hands-care1.jpg
p94
g3
(g4
g5
(g6
(S'\x07\xe0\x07\x15\x111\x1a\r\x02\xda'
tRp95
S'282'
p96
I1
ttRp97
sVhttp://dennissy.com/wp-content/uploads/2015/06/generosity-wk-1.jpg
p98
g3
(g4
g5
(g6
(S'\x07\xe0\x04\x18\x11\x1a\x13\x07\xff\xd1'
tRp99
S'1'
I1
ttRp100
sVhttp://www.teamgenerous.com/img/TG_World.png
p101
g3
(g4
g5
(g6
(S'\x07\xe0\x05\x1a\x10\x19\x08\x07\xbc\xa8'
tRp102
S'194'
p103
I1
ttRp104
sVhttp://idealistcareers.org/wp-content/uploads/2014/07/passion-work.jpg
p105
g3
(g4
g5
(g6
(S'\x07\xe0\n\x06\x15\x03\x18\x07\x95\x84'
tRp106
I-1
I1
ttRp107
sVhttp://www.gamingcfg.com/img/6821/Speak-to-Jaluu-the-Generous.jpg
p108
g3
(g4
g5
(g6
(S'\x07\xe0\x05\x1a\x10\x19\x08\x07\xbd1'
tRp109
I-1
I1
ttRp110
sVhttp://2.bp.blogspot.com/-LGfXEolO2PQ/T7Ec-Gmza_I/AAAAAAAAIWo/6PmLx3KvLYc/s1600/generosity.jpg
p111
g3
(g4
g5
(g6
(S'\x07\xe0\x06\x01\x10#\x1b\x03\xddH'
tRp112
S'118'
p113
I2
ttRp114
sVhttp://onfaith.faithstreet.com/wp-content/uploads/2015/05/generous1.jpg
p115
g3
(g4
g5
(g6
(S'\x07\xe0\x08\x19\t5\x1f\x03\x16('
tRp116
I-1
I1
ttRp117
sVhttp://cdn.prezly.com/e7/eb7cf09f2e11e59c6c2fef790e8e5b/GenerousJack_GenFries.jpg
p118
g3
(g4
g5
(g6
(S'\x07\xe0\t\x18\n\x0b%\x00\xfe\xa8'
tRp119
S'213'
p120
I1
ttRp121
sVhttp://bradhoffmann.com/wp-content/uploads/2015/01/generous-building.jpg
p122
g3
(g4
g5
(g6
(S'\x07\xe0\t\x1a\n\x171\x04\xfc\xf8'
tRp123
S'36'
p124
I1
ttRp125
sVhttp://pad3.whstatic.com/images/thumb/2/24/Be-Generous-Step-1.jpeg/aid21099-728px-Be-Generous-Step-1.jpeg
p126
g3
(g4
g5
(g6
(S'\x07\xe0\x08\x19\t5\x1f\x03\x16\xb4'
tRp127
S'306'
p128
I1
ttRp129
sVhttp://hiroboga.com/wp-content/uploads/2012/06/Choose-to-be-generous.jpg
p130
g3
(g4
g5
(g6
(S'\x07\xe0\x05\x04\x11\x1b&\x0b\xdb\xca'
tRp131
S'156'
p132
I1
ttRp133
sVhttp://hiroboga.com/wp-content/uploads/2013/01/dreamstime_xs_23988225-generous.jpg
p134
g3
(g4
g5
(g6
(S'\x07\xdf\x0c\x12\x10\x0b6\x0c\x90\x8f'
tRp135
S'29'
p136
I1
ttRp137
sVhttp://churchsermonseriesideas.com/wp-content/uploads/2015/01/The-Generous-Life-Sermon-Series-Idea.jpg
p138
g3
(g4
g5
(g6
(S'\x07\xe0\n\x06\x15\x03\x18\x07\x95\xa2'
tRp139
I-1
I1
ttRp140
sVhttp://1.bp.blogspot.com/-xWLA49JT6_A/T2JrEWUDUwI/AAAAAAAAA1A/P-bw9dDEeEk/s1600/generous%2Blogo.jpg
p141
g3
(g4
g5
(g6
(S'\x07\xe0\x06\x1e\x13-\n\x05\x1a)'
tRp142
S'258'
p143
I1
ttRp144
sVhttp://www.chapelrva.com/wp-content/uploads/2015/10/Generous-Sermon-Series-Square.jpg
p145
g3
(g4
g5
(g6
(S'\x07\xe0\x08\x13\x0138\x02\x97\xbf'
tRp146
S'260'
p147
I1
ttRp148
sVhttp://www.brokeandhealthy.com/wp-content/uploads/2012/06/give-610x225.png
p149
g3
(g4
g5
(g6
(S'\x07\xdf\x0c\x12\x10\x0b6\x0c\x8f\xc2'
tRp150
S'22'
p151
I1
ttRp152
sVhttp://cdn-media-1.lifehack.org/wp-content/files/2015/12/08074002/generosity.jpg
p153
g3
(g4
g5
(g6
(S'\x07\xe0\x06\x1e\x13-\n\x05\x19\x18'
tRp154
S'164'
p155
I1
ttRp156
sVhttp://iwclive.com/images/demo/Generous.jpg
p157
g3
(g4
g5
(g6
(S'\x07\xe0\x08\x06\x16\x0e\x00\x05\xbdO'
tRp158
S'92'
p159
I1
ttRp160
sVhttp://www.annsullivansimpletruths.com/wp-content/uploads/2015/11/generous-heart-hands.jpg
p161
g3
(g4
g5
(g6
(S'\x07\xe0\x05\x1a\x10\x19\x08\x07\xbd-'
tRp162
I-1
I1
ttRp163
sVhttp://keepaustingenerous.org/wp-content/uploads/2014/10/GIVEMONEY2.jpg
p164
g3
(g4
g5
(g6
(S'\x07\xe0\n\x06\x15\x03\x18\x07\x95j'
tRp165
S'294'
p166
I1
ttRp167
sVhttp://assets4.bigthink.com/system/idea_thumbnails/58489/size_1024/giving_man_hand.jpg?1428244040
p168
g3
(g4
g5
(g6
(S'\x07\xe0\t\x1a\n\x171\x04\xfd\xb7'
tRp169
I-1
I1
ttRp170
sVhttp://img.picturequotes.com/2/444/443342/i-was-originally-going-to-keep-both-but-i-was-feeling-generous-quote-1.jpg
p171
g3
(g4
g5
(g6
(S'\x07\xe0\x08\t\x01.3\x0c\xba-'
tRp172
S'269'
p173
I1
ttRp174
sVhttp://www.nathanmagnuson.com/wp-content/uploads/2013/11/Generosity.jpg
p175
g3
(g4
g5
(g6
(S'\x07\xe0\t\x1a\n\x171\x04\xfc\x0f'
tRp176
S'26'
p177
I1
ttRp178
sVhttp://i.dailymail.co.uk/i/pix/2012/12/30/article-2255039-16B2A144000005DC-542_306x423.jpg
p179
g3
(g4
g5
(g6
(S'\x07\xe0\x08\x19\t5\x1f\x03\x16\x8a'
tRp180
S'47'
p181
I1
ttRp182
sVhttp://cdn-media-2.lifehack.org/wp-content/files/2015/12/08074002/generosity.jpg
p183
g3
(g4
g5
(g6
(S'\x07\xe0\x06\x1a\x13(\x12\x08{\xdb'
tRp184
S'270'
p185
I1
ttRp186
sVhttp://bethelharvestchurch.com/wp-content/uploads/2014/11/generous-hope-logo-only.png
p187
g3
(g4
g5
(g6
(S'\x07\xe0\x06\x01\x10#\x1b\x03\xdd0'
tRp188
S'19'
p189
I1
ttRp190
sVhttp://www.gracegoalsandguts.com/wp-content/uploads/2014/04/generosity.jpg
p191
g3
(g4
g5
(g6
(S'\x07\xe0\x06\x1e\x13-\n\x05\x19f'
tRp192
S'165'
p193
I1
ttRp194
sVhttp://7minutesinthemorning.com/wp-content/uploads/2013/12/generous-hands-heart.jpg
p195
g3
(g4
g5
(g6
(S'\x07\xe0\x04\x18\x11\x1a\x13\x07\xff5'
tRp196
S'3'
I1
ttRp197
sVhttp://www.zoompanningeffectslider.com/wordpressplugin_old/images/generousFixedDimensions/07_generous.jpg
p198
g3
(g4
g5
(g6
(S'\x07\xe0\x06\x1e\x13-\n\x05\x1a1'
tRp199
I-1
I1
ttRp200
sVhttp://buddhismguide.org/wp-content/uploads/2013/12/giving-hands.png
p201
g3
(g4
g5
(g6
(S'\x07\xe0\x08\x19\t5\x1f\x03\x16\n'
tRp202
S'43'
p203
I1
ttRp204
sVhttps://upload.wikimedia.org/wikipedia/commons/9/9e/Melton_Mowbray_The_Generous_Briton.JPG
p205
g3
(g4
g5
(g6
(S'\x07\xe0\x05\x1a\x10\x19\x08\x07\xbdt'
tRp206
S'95'
p207
I1
ttRp208
sVhttp://www.exclusivebottle.ch/shop/images/product_images/popup_images/Generous-Gin-mit-Gents-Tonic-Water_540.jpg
p209
g3
(g4
g5
(g6
(S'\x07\xe0\n\x06\x15\x03\x18\x07\x96\x8a'
tRp210
NI1
ttRp211
sVhttp://inspirationallifechurch.com/wp-content/uploads/2015/09/generosity.jpg
p212
g3
(g4
g5
(g6
(S'\x07\xdf\x0c\x01\x16!%\x0f!\x19'
tRp213
S'67'
p214
I1
ttRp215
sVhttp://pad2.whstatic.com/images/thumb/4/49/Be-Generous-on-a-Limited-Budget-Step-1.jpg/aid476733-728px-Be-Generous-on-a-Limited-Budget-Step-1.jpg
p216
g3
(g4
g5
(g6
(S'\x07\xe0\x08\x19\t5\x1f\x03\x16\x80'
tRp217
S'303'
p218
I1
ttRp219
sVhttp://rgtor7kt68-flywheel.netdna-ssl.com/wp-content/uploads/SERMON-Be-Generous-02.jpg
p220
g3
(g4
g5
(g6
(S'\x07\xe0\x08\x02\x14\x10-\x07b1'
tRp221
S'248'
p222
I1
ttRp223
sVhttp://robindance.me/wp-content/uploads/2008/10/Be-generous-quote-Robin-Dance.jpg
p224
g3
(g4
g5
(g6
(S'\x07\xdf\x0c\x18\x10\x11\x1e\rE\t'
tRp225
S'105'
p226
I1
ttRp227
sVhttp://livingcolourstyle.com/wp-content/uploads/2014/05/IMG_0581.jpg
p228
g3
(g4
g5
(g6
(S'\x07\xe0\x05\x1a\x10\x19\x08\x07\xbd_'
tRp229
S'127'
p230
I1
ttRp231
sVhttp://www.coloringpages.pics/wp-content/uploads/2014/09/generosity-coloring-pages-3.jpg
p232
g3
(g4
g5
(g6
(S'\x07\xdf\x0c\x18\x10\x11\x1e\rE\x1e'
tRp233
I-1
I1
ttRp234
sVhttp://www.davidaustinroses.co.uk/media/catalog/product/cache/1/image/818x/040ec09b1e35df139433887a97daa66f/t/h/the_generous_gardener_2.jpg
p235
g3
(g4
g5
(g6
(S'\x07\xe0\n\x02\n:5\x0e5k'
tRp236
I-1
I1
ttRp237
sVhttp://quickbase.intuit.com/quickbase-blog/wp-content/uploads/sites/3/2011/07/generous.jpg
p238
g3
(g4
g5
(g6
(S'\x07\xe0\x06\t\x0c\x03%\x03\x01F'
tRp239
I-1
I1
ttRp240
sVhttps://qzprod.files.wordpress.com/2014/01/who-s-the-most-generous-of-them-all-offical-development-aid-as-a-share-of-gross-national-income_chartbuilder.png?w=640
p241
g3
(g4
g5
(g6
(S"\x07\xe0\x07\t\x11'!\tK\xac"
tRp242
S'231'
p243
I1
ttRp244
sVhttp://blogs.nsb.org/jonathanalexander/files/2011/02/Generosity-1.jpg
p245
g3
(g4
g5
(g6
(S'\x07\xdf\x0c\x01\x16!%\x0f!H'
tRp246
S'54'
p247
I1
ttRp248
sVhttps://citipointearchives.files.wordpress.com/2012/08/generosity.jpg
p249
g3
(g4
g5
(g6
(S'\x07\xe0\n\x06\x15\x03\x18\x07\x956'
tRp250
S'238'
p251
I1
ttRp252
sVhttp://img05.deviantart.net/d383/i/2012/346/0/2/are_you_generous__by_sebreg-d5nu19k.jpg
p253
g3
(g4
g5
(g6
(S'\x07\xe0\n\x06\x15\x03\x18\x07\x95F'
tRp254
S'77'
p255
I2
ttRp256
sVhttps://fairhopechurch.files.wordpress.com/2012/01/eg-logo-jpg.jpg
p257
g3
(g4
g5
(g6
(S'\x07\xe0\x05\x04\x11\x1b&\x0b\xdb\xce'
tRp258
S'173'
p259
I1
ttRp260
sVhttp://everythingidid.com/wp-content/uploads/2014/03/T86-1024x1024.jpg
p261
g3
(g4
g5
(g6
(S'\x07\xe0\x06\x1e\x13-\n\x05\x195'
tRp262
I-1
I1
ttRp263
sVhttps://i.ytimg.com/vi/_cNfX3tJonw/maxresdefault.jpg
p264
g3
(g4
g5
(g6
(S'\x07\xe0\x05\x1a\x10\x19\x08\x07\xbc\xb3'
tRp265
S'107'
p266
I1
ttRp267
sVhttp://dperiod.com/yahoo_site_admin/assets/images/BeGenerous.275201956_std.jpg
p268
g3
(g4
g5
(g6
(S'\x07\xe0\n\x06\x15\x03\x18\x07\x95q'
tRp269
S'204'
p270
I1
ttRp271
sVhttp://www.marcandangel.com/images/9-generous-people.jpg
p272
g3
(g4
g5
(g6
(S'\x07\xe0\x08\x19\t5\x1f\x03\x15\xce'
tRp273
S'308'
p274
I1
ttRp275
sVhttp://www.decaedere.com/wp-content/uploads/2013/09/The-poor-people-are-often-the-most-generous.jpg
p276
g3
(g4
g5
(g6
(S'\x07\xdf\x0c\n\x10\x08\x15\r\xef\x8f'
tRp277
S'87'
p278
I1
ttRp279
sVhttp://www.stuff.co.nz/content/dam/images/1/5/x/2/k/k/image.related.StuffLandscapeSixteenByNine.620x349.1809hk.png/1447711564249.jpg
p280
g3
(g4
g5
(g6
(S'\x07\xe0\x08\x19\t5\x1f\x03\x16R'
tRp281
S'209'
p282
I1
ttRp283
sVhttps://theologicalsynergy.files.wordpress.com/2011/07/generositycopy.jpg
p284
g3
(g4
g5
(g6
(S'\x07\xdf\x0c\x16\x10\x10\x0e\n\x10)'
tRp285
S'122'
p286
I1
ttRp287
sVhttp://www.charlesstone.com/images/uploads/generosity1.jpg
p288
g3
(g4
g5
(g6
(S'\x07\xe0\x07\x01\x0f\x016\x01\xdd)'
tRp289
S'9'
I1
ttRp290
sVhttp://cdn1.cowbird.com/items/pages/2012/10/08/14/52/77154/18842_5072e8b2ad0056.29444482-big.jpg?q=20130525123703
p291
g3
(g4
g5
(g6
(S'\x07\xe0\x06\x1e\x13-\n\x05\x19\xee'
tRp292
S'177'
p293
I1
ttRp294
sVhttp://stmarkedmond.org/wp-content/uploads/2013/10/3466070-generosity-road-sign-with-dramatic-clouds-and-sky-980x798.jpg
p295
g3
(g4
g5
(g6
(S'\x07\xe0\n\x06\x15\x03\x18\x07\x95x'
tRp296
S'223'
p297
I1
ttRp298
sVhttp://www.alambic-magazine.com/wp-content/uploads/2015/06/Generous_Gin.jpg
p299
g3
(g4
g5
(g6
(S'\x07\xe0\x06\x01\x10#\x1b\x03\xddi'
tRp300
S'110'
p301
I1
ttRp302
sVhttp://www.libertimagazine.com/wp-content/uploads/2015/06/generous.jpg
p303
g3
(g4
g5
(g6
(S'\x07\xe0\n\x06\x15\x03\x18\x07\x96\x05'
tRp304
S'205'
p305
I1
ttRp306
sVhttps://fortunedotcom.files.wordpress.com/2016/06/175419408.jpg?w=1024
p307
g3
(g4
g5
(g6
(S'\x07\xe0\x08\t\x01.3\x0c\xb9\xc0'
tRp308
S'297'
p309
I1
ttRp310
sVhttp://c.fastcompany.net/multisite_files/coexist/imagecache/1280/poster/2013/05/1682092-poster-1280-most-generous.jpg
p311
g3
(g4
g5
(g6
(S'\x07\xe0\x06\x1e\x13-\n\x05\x19\xab'
tRp312
S'151'
p313
I1
ttRp314
sVhttps://generousfaith.files.wordpress.com/2015/09/agenerousfaith_logo1-2.jpg?w=800
p315
g3
(g4
g5
(g6
(S'\x07\xe0\x08\t\x01.3\x0c\xbc\x1f'
tRp316
S'273'
p317
I1
ttRp318
sVhttp://www.stuff.co.nz/content/dam/images/1/2/5/s/7/u/image.related.StuffLandscapeSixteenByNine.620x349.19k2mm.png/1461793121268.jpg
p319
g3
(g4
g5
(g6
(S'\x07\xe0\x08\x19\t5\x1f\x03\x16m'
tRp320
S'305'
p321
I1
ttRp322
sVhttp://image.slidesharecdn.com/how2bgenerous-120813130028-phpapp01/95/how-to-be-generous-2-638.jpg?cb=1423526006
p323
g3
(g4
g5
(g6
(S'\x07\xe0\x08\x19\t5\x1f\x03\x16\xb9'
tRp324
S'145'
p325
I1
ttRp326
sVhttps://upload.wikimedia.org/wikipedia/commons/thumb/3/3b/Racing_silks_of_Fahd_Salman.svg/2000px-Racing_silks_of_Fahd_Salman.svg.png
p327
g3
(g4
g5
(g6
(S'\x07\xe0\x08\x02\x14\x10-\x07b]'
tRp328
S'190'
p329
I1
ttRp330
sVhttp://thebattleofwills.com/wp-content/uploads/2013/02/RadicalGenerosity.001.jpg
p331
g3
(g4
g5
(g6
(S'\x07\xdf\x0c\x18\x10\x11\x1e\rD\xd1'
tRp332
S'113'
p333
I1
ttRp334
sVhttp://quotes.lifehack.org/media/quotes/quote-Khalil-Gibran-generosity-is-giving-more-than-you-can-104463.png
p335
g3
(g4
g5
(g6
(S'\x07\xe0\n\x06\x15\x03\x18\x07\x96S'
tRp336
S'208'
p337
I1
ttRp338
sVhttp://generous.s3.amazonaws.com/web/apple-touch-icon.png
p339
g3
(g4
g5
(g6
(S'\x07\xe0\t\x18\n\x0b%\x00\xff\x99'
tRp340
I-1
I1
ttRp341
sVhttps://www.afes.org.au/sites/default/files/styles/11_column/public/generosity_0.png?itok=rQ2Zwzcv
p342
g3
(g4
g5
(g6
(S'\x07\xe0\n\x06\x15\x03\x18\x07\x95*'
tRp343
I-1
I1
ttRp344
sVhttp://www.scecina.org/Websites/scecinastudentambassadors/images/The_paradox_of_generosity_thumb_thumb_thumb.jpg
p345
g3
(g4
g5
(g6
(S'\x07\xe0\x07\x15\x111\x1a\r\x02\x16'
tRp346
S'120'
p347
I2
ttRp348
sVhttp://www.santosha.com/assets/images/pages/generosity_banner.png
p349
g3
(g4
g5
(g6
(S'\x07\xdf\x0c\x12\x10\x0b6\x0c\x90\x97'
tRp350
S'75'
p351
I1
ttRp352
sVhttps://andyjbrown.files.wordpress.com/2012/03/generous_11.jpg
p353
g3
(g4
g5
(g6
(S'\x07\xe0\x05\x04\x11\x1b&\x0b\xdb\xfb'
tRp354
S'5'
I1
ttRp355
sVhttp://specialneedsparenting.net/wp-content/uploads/2015/12/Alix-Generous-photo2.jpg
p356
g3
(g4
g5
(g6
(S'\x07\xe0\x08\x02\x14\x10-\x07b\xc5'
tRp357
S'188'
p358
I1
ttRp359
sVhttp://www.imgnaly.com/wp-content/uploads/2015/06/It-Is-Usually-Best-To-Be-Generous-With-Praise.png
p360
g3
(g4
g5
(g6
(S'\x07\xe0\x08\x02\x14\x10-\x07a\xcd'
tRp361
S'281'
p362
I1
ttRp363
sVhttp://blog.myjobchart.com/wp-content/uploads/86546285-giving1.jpg
p364
g3
(g4
g5
(g6
(S'\x07\xdf\x0c\x01\x16!%\x0f I'
tRp365
S'16'
p366
I1
ttRp367
sVhttp://www.socialstrategies.net.au/wp-content/uploads/2013/10/Your-generosity-will-create-prosperity.jpg
p368
g3
(g4
g5
(g6
(S'\x07\xdf\x0c\x01\x16!%\x0f M'
tRp369
S'28'
p370
I1
ttRp371
sVhttp://www.thefinancialphysician.com/wp-content/uploads/2012/01/generosity.png
p372
g3
(g4
g5
(g6
(S'\x07\xdf\x0c\x12\x10\x0b6\x0c\x8f\xd3'
tRp373
I-1
I1
ttRp374
sVhttp://www.generous.eu/medias/home/biscuits_sans_gluten_445.jpg
p375
g3
(g4
g5
(g6
(S'\x07\xe0\x08\x19\t5\x1f\x03\x15\xc9'
tRp376
S'301'
p377
I1
ttRp378
sVhttps://www.stir.ac.uk/news/2015/12/mathematical-proof-you-should-be-generous-this-christmas/present%20main%20(2).jpg
p379
g3
(g4
g5
(g6
(S'\x07\xe0\x08\x19\t5\x1f\x03\x15\xbb'
tRp380
S'311'
p381
I1
ttRp382
sVhttp://www.fengshuidana.com/wp-content/uploads/2014/10/Slide11.jpg
p383
g3
(g4
g5
(g6
(S'\x07\xdf\x0c\x18\x10\x11\x1e\rD1'
tRp384
S'132'
p385
I1
ttRp386
sVhttps://i.ytimg.com/vi/yhQgR2nsIvA/maxresdefault.jpg
p387
g3
(g4
g5
(g6
(S'\x07\xe0\x06\x1e\x13-\n\x05\x19J'
tRp388
S'255'
p389
I1
ttRp390
sVhttp://cashcowcouple.com/wp-content/uploads/2013/07/generous-giving.jpg
p391
g3
(g4
g5
(g6
(S'\x07\xdf\x0c\x12\x10\x0b6\x0c\x90\x0c'
tRp392
I-1
I1
ttRp393
sVhttp://img12.deviantart.net/42c5/i/2010/046/8/c/generous_hearts_4_by_mic_ardant.jpg
p394
g3
(g4
g5
(g6
(S'\x07\xe0\n\x06\x15\x03\x18\x07\x95@'
tRp395
S'314'
p396
I1
ttRp397
sVhttp://livingcolourstyle.com/wp-content/uploads/2014/05/IMG_0573.jpg
p398
g3
(g4
g5
(g6
(S'\x07\xdf\x0c\x18\x10\x11\x1e\rE\x11'
tRp399
S'106'
p400
I1
ttRp401
sVhttp://www.gcgi.info/images/2015generosity.jpg
p402
g3
(g4
g5
(g6
(S'\x07\xdf\x0c\x01\x16!%\x0f \xb3'
tRp403
S'17'
p404
I1
ttRp405
sVhttp://www.star2.com/wp-content/uploads/2015/08/sfit_fitgenerous3008_py_1-e1440859307348-770x470.jpg
p406
g3
(g4
g5
(g6
(S'\x07\xe0\x08\x19\t5\x1f\x03\x16\x1a'
tRp407
S'300'
p408
I1
ttRp409
sVhttp://static2.businessinsider.com/image/52273c1c6bb3f7ec1131616a/generosity-pays-off-in-the-long-run.jpg
p410
g3
(g4
g5
(g6
(S'\x07\xe0\x08\x13\x0138\x02\x97\xd1'
tRp411
S'57'
p412
I1
ttRp413
sVhttp://mochagirlspitstop.com/wp-content/uploads/2014/02/SB28-1024x788.png
p414
g3
(g4
g5
(g6
(S'\x07\xe0\x06\x1e\x13-\n\x05\x1a\x13'
tRp415
S'279'
p416
I1
ttRp417
sVhttps://strativity.com/wp-content/uploads/2015/09/Be-generous.png
p418
g3
(g4
g5
(g6
(S'\x07\xe0\n\x06\x15\x03\x18\x07\x96\x1e'
tRp419
S'265'
p420
I1
ttRp421
sVhttp://www.slate.com/content/dam/slate/articles/life/the_kids/2015/12/151218_kids_charitable.jpg.CROP.promo-xlarge2.jpg
p422
g3
(g4
g5
(g6
(S'\x07\xe0\x08\x13\x0138\x02\x97\xe4'
tRp423
S'155'
p424
I3
ttRp425
sVhttps://s-media-cache-ak0.pinimg.com/736x/87/d5/4f/87d54f16a21e62adb901a7069299beb3.jpg
p426
g3
(g4
g5
(g6
(S"\x07\xe0\x07\t\x11'!\tK "
tRp427
S'263'
p428
I1
ttRp429
sVhttp://theakiba.com/images/2008/11/20081114002.jpg
p430
g3
(g4
g5
(g6
(S'\x07\xe0\x06\x1e\x13-\n\x05\x19\xd3'
tRp431
I-1
I1
ttRp432
sVhttp://www.genesisthejourney.com/images/large/sermons/be-generous.jpg
p433
g3
(g4
g5
(g6
(S'\x07\xe0\n\x02\n:5\x0e5M'
tRp434
S'8'
I1
ttRp435
sVhttp://personalexcellence.co/quotes/files/inspirational-quote-renew-humanity.jpg
p436
g3
(g4
g5
(g6
(S'\x07\xe0\x08\t\x01.3\x0c\xbc\xd2'
tRp437
S'261'
p438
I1
ttRp439
sVhttp://pastorrick.com/images/default-source/Devotional-Images/12-19-15-christmas-is-for-all-people-the-spirit-of-christmas-is-generosity_mini.jpg?sfvrsn=0
p440
g3
(g4
g5
(g6
(S'\x07\xe0\n\x06\x15\x03\x18\x07\x95\xfa'
tRp441
S'321'
p442
I1
ttRp443
sVhttp://tippingthescales.com/wp-content/uploads/2015/08/money_generic_iStock_000004.jpg
p444
g3
(g4
g5
(g6
(S'\x07\xe0\x08\x19\t5\x1f\x03\x16\xae'
tRp445
S'78'
p446
I1
ttRp447
sVhttp://static5.businessinsider.com/image/56158c78bd86ef185c8b5120-1190-625/the-20-most-generous-people-in-the-world.jpg
p448
g3
(g4
g5
(g6
(S'\x07\xe0\n\x06\x15\x03\x18\x07\x96\x98'
tRp449
S'328'
p450
I1
ttRp451
sVhttp://i.huffpost.com/gen/2210938/images/o-GENEROUS-facebook.jpg
p452
g3
(g4
g5
(g6
(S'\x07\xe0\x08\x02\x14\x10-\x07b\xcd'
tRp453
S'102'
p454
I1
ttRp455
sVhttp://www.ascensionpittsburgh.org/wp-content/uploads/2015/11/generous.jpg
p456
g3
(g4
g5
(g6
(S'\x07\xe0\x08\x13\x0138\x02\x98.'
tRp457
S'239'
p458
I1
ttRp459
sVhttps://i.ytimg.com/vi/nj42wV1bPdw/maxresdefault.jpg
p460
g3
(g4
g5
(g6
(S'\x07\xe0\x08\x06\x16\x0e\x00\x05\xbd/'
tRp461
S'186'
p462
I1
ttRp463
sVhttp://media.crossroadschurchaustin.com/2013/sermons/images/Generous_squared.jpg
p464
g3
(g4
g5
(g6
(S'\x07\xe0\n\x02\n:5\x0e4\xd4'
tRp465
S'117'
p466
I1
ttRp467
sVhttp://www.redeemingriches.com/wp-content/uploads/2010/10/generous.jpg
p468
g3
(g4
g5
(g6
(S'\x07\xe0\x08\x19\t5\x1f\x03\x15\xe0'
tRp469
S'74'
p470
I1
ttRp471
sVhttp://assets.babycenter.com/ims/2015/05/iStock_09217655_wide.jpg?width=475
p472
g3
(g4
g5
(g6
(S'\x07\xe0\x08\x19\t5\x1f\x03\x16\x9d'
tRp473
S'221'
p474
I2
ttRp475
sVhttp://www.jskogerboe.com/wp-content/uploads/2013/08/Generous_King_Main_Widescreen.jpg
p476
g3
(g4
g5
(g6
(S'\x07\xe0\x05\x1a\x10\x19\x08\x07\xbc\xb7'
tRp477
S'131'
p478
I1
ttRp479
sVhttp://site.cisternyard.com/wp-content/uploads/2012/10/DSCN0010.jpg
p480
g3
(g4
g5
(g6
(S'\x07\xe0\x07\x15\x111\x1a\r\x02\xcc'
tRp481
S'109'
p482
I1
ttRp483
sVhttp://brinkleywarren.com/wp-content/uploads/2014/04/generosity.jpg
p484
g3
(g4
g5
(g6
(S'\x07\xdf\x0c\n\x10\x08\x15\r\xef\xc6'
tRp485
S'15'
p486
I1
ttRp487
sVhttp://www.churchplanting.com/wp-content/uploads/2012/07/generous-1024x6801.jpeg
p488
g3
(g4
g5
(g6
(S'\x07\xe0\n\x06\x15\x03\x18\x07\x96H'
tRp489
I-1
I1
ttRp490
sVhttps://www.healthinsurance.org/assets/2015/10/do-gold-exchange-plans-offer-more-generous-coverage-than-bronze-or-silver-plans-1560x580.jpg
p491
g3
(g4
g5
(g6
(S'\x07\xe0\x06\x1e\x13-\n\x05\x19\x9e'
tRp492
S'272'
p493
I1
ttRp494
sVhttp://media.patheos.com/Images/TPC/TPC_FamilyChildrenMoneyInvestmentsConcept_fbm.jpg
p495
g3
(g4
g5
(g6
(S'\x07\xe0\t\x18\n\x0b%\x00\xff1'
tRp496
S'299'
p497
I1
ttRp498
sVhttp://keepaustingenerous.org/wp-content/uploads/2014/10/GIVEGOODS1.jpg
p499
g3
(g4
g5
(g6
(S'\x07\xe0\n\x06\x15\x03\x18\x07\x95\xaf'
tRp500
NI1
ttRp501
sVhttps://ksr-ugc.imgix.net/projects/1593307/photo-original.jpg?w=1536&h=1152&fit=crop&v=1421214326&auto=format&q=92&s=b1a570fbbc3aeca3117130e9951e410a
p502
g3
(g4
g5
(g6
(S'\x07\xe0\x04\x18\x11\x1a\x13\x07\xff0'
tRp503
S'161'
p504
I1
ttRp505
sVhttp://www.incourage.me/wp/wp-content/uploads/2016/08/A-generous-person-will-prosper-1000x614.png
p506
g3
(g4
g5
(g6
(S'\x07\xe0\n\x02\n:5\x0e5w'
tRp507
S'322'
p508
I2
ttRp509
sVhttps://s-media-cache-ak0.pinimg.com/736x/4d/cb/bd/4dcbbd7950dada094bcc65f827bbd178.jpg
p510
g3
(g4
g5
(g6
(S'\x07\xe0\x06\x1e\x13-\n\x05\x19\xce'
tRp511
S'152'
p512
I1
ttRp513
sVhttp://www.quotesvalley.com/images/23/one-of-the-sanest-surest-and-most-generous-joys-of-life-comes-from-being-happy-over-the-good-fortune-of-others-2.jpg
p514
g3
(g4
g5
(g6
(S'\x07\xe0\x08\t\x01.3\x0c\xbb\xa0'
tRp515
S'232'
p516
I2
ttRp517
sVhttp://www.formaggiokitchen.com/shop/media/catalog/product/cache/1/image/9df78eab33525d08d6e5fb8d27136e95/G/e/Generous_Speculoos_Cookies_sm-2_4.jpg
p518
g3
(g4
g5
(g6
(S'\x07\xe0\n\x02\n:5\x0e58'
tRp519
NI1
ttRp520
sVhttp://i.dailymail.co.uk/i/pix/2012/12/30/article-2255039-16B2A14C000005DC-336_634x444.jpg
p521
g3
(g4
g5
(g6
(S'\x07\xe0\x08\x19\t5\x1f\x03\x15\xb7'
tRp522
S'302'
p523
I1
ttRp524
sVhttp://d1ig2tdbom83n0.cloudfront.net/wp-content/uploads/2015/07/David-and-his-generous-strength-Pocket-Fuel-Daily-Devotional-on-1-Sam-30-12-700x700.jpg
p525
g3
(g4
g5
(g6
(S'\x07\xe0\x07\x07\x10\x038\tc\xae'
tRp526
S'257'
p527
I1
ttRp528
sVhttps://quotefancy.com/media/wallpaper/3840x2160/224903-Hunter-S-Thompson-Quote-I-am-a-generous-man-by-nature-and-far-more.jpg
p529
g3
(g4
g5
(g6
(S'\x07\xe0\x08\x02\x14\x10-\x07bw'
tRp530
I-1
I1
ttRp531
sVhttp://orig12.deviantart.net/05f2/f/2012/052/e/5/generous_giving_according_to_jesus_by_hooblah2u2-d4qk0em.png
p532
g3
(g4
g5
(g6
(S'\x07\xe0\n\x06\x15\x03\x18\x07\x94\xdb'
tRp533
S'207'
p534
I3
ttRp535
sVhttps://www.bigquestionsonline.com/sites/default/files/styles/discussion-main/public/essays/templeton-generous.jpeg?itok=NH1zTZeR
p536
g3
(g4
g5
(g6
(S'\x07\xdf\x0c\x12\x10\x0b6\x0c\x8f\xc9'
tRp537
S'71'
p538
I1
ttRp539
sVhttp://i.imgur.com/0DmxiJt.jpg
p540
g3
(g4
g5
(g6
(S'\x07\xe0\x08\x13\x0138\x02\x97f'
tRp541
S'10'
p542
I1
ttRp543
sVhttp://specials-images.forbesimg.com/imageserve/03yY2aL7dF3U5/0x600.jpg?fit=scale&background=000000
p544
g3
(g4
g5
(g6
(S'\x07\xe0\x06\x16\n\x13\x04\x01\xa7X'
tRp545
S'48'
p546
I1
ttRp547
sVhttp://randalldsmith.com/wp-content/uploads/2008/07/Reaching-out-WS.jpg
p548
g3
(g4
g5
(g6
(S'\x07\xe0\x08\x02\x14\x10-\x07aF'
tRp549
S'141'
p550
I1
ttRp551
sVhttp://cdn-media-1.lifehack.org/wp-content/files/2015/07/Give-3-380x253.jpg
p552
g3
(g4
g5
(g6
(S'\x07\xe0\x07\x01\x0f\x016\x01\xdd\x00'
tRp553
S'278'
p554
I1
ttRp555
sVhttp://pastorrick.com/images/default-source/Devotional-Images/02-18-16-habits-of-happiness-happiness-habit-be-generous-on-every-occasion.jpg?sfvrsn=0
p556
g3
(g4
g5
(g6
(S'\x07\xe0\n\x02\n:5\x0e4\x9d'
tRp557
S'320'
p558
I1
ttRp559
sVhttp://tv.mycfmhub.net/wp-content/uploads/sites/2/2014/04/I-am-Generous-Slide-640x360.jpg
p560
g3
(g4
g5
(g6
(S'\x07\xdf\x0c\n\x10\x08\x15\r\xef\xa1'
tRp561
S'35'
p562
I1
ttRp563
sVhttps://cdn-media-2.lifehack.org/wp-content/files/2015/12/08074002/generosity-1024x678.jpg
p564
g3
(g4
g5
(g6
(S'\x07\xe0\n\x06\x15\x03\x18\x07\x968'
tRp565
S'315'
p566
I1
ttRp567
sVhttps://khcwomeninministry.files.wordpress.com/2014/06/raising-generous-children.jpg
p568
g3
(g4
g5
(g6
(S'\x07\xe0\x08\x13\x0138\x02\x97k'
tRp569
S'191'
p570
I1
ttRp571
sVhttp://quietgivers.org/wp-content/uploads/2012/03/generous-logo.jpg
p572
g3
(g4
g5
(g6
(S'\x07\xe0\t\x1a\n\x171\x04\xfck'
tRp573
S'160'
p574
I1
ttRp575
sVhttps://timedotcom.files.wordpress.com/2015/12/gettyimages-149285467.jpg?quality=75&strip=color&w=1100
p576
g3
(g4
g5
(g6
(S'\x07\xe0\x08\x19\t5\x1f\x03\x16\x06'
tRp577
S'143'
p578
I1
ttRp579
sVhttp://cdn2-b.examiner.com/sites/default/files/styles/image_content_width/hash/5d/52/1363281797_7585_generous.jpg?itok=uAgCf_kY
p580
g3
(g4
g5
(g6
(S'\x07\xdf\x0c\x12\x10\x0b6\x0c\x90,'
tRp581
S'86'
p582
I1
ttRp583
sVhttp://www.foresthill.org/assets/components/foresthill/media/collections/4e8df88c157d7/Generous.jpg
p584
g3
(g4
g5
(g6
(S'\x07\xdf\x0c\x12\x10\x0b6\x0c\x901'
tRp585
S'13'
p586
I1
ttRp587
sVhttp://www.chatelaine.com/wp-content/uploads/2015/11/grinch-generous.png
p588
g3
(g4
g5
(g6
(S'\x07\xe0\x08\x19\t5\x1f\x03\x16\x15'
tRp589
S'307'
p590
I1
ttRp591
sVhttps://d1ig2tdbom83n0.cloudfront.net/wp-content/uploads/2015/07/David-and-his-generous-strength-Pocket-Fuel-Daily-Devotional-on-1-Sam-30-12-700x700.jpg
p592
g3
(g4
g5
(g6
(S'\x07\xe0\n\x06\x15\x03\x18\x07\x96\x18'
tRp593
S'276'
p594
I1
ttRp595
sVhttp://09280a92bab43a2a4ef6-baf24f468a9c2769033004b1fa9667f1.r61.cf2.rackcdn.com/uploaded/g/0e4446935_1439834385_generous-living-logo-and-subtitle.jpg
p596
g3
(g4
g5
(g6
(S'\x07\xe0\x08\x02\x14\x10-\x07b '
tRp597
S'115'
p598
I1
ttRp599
sVhttp://madartlab.com/files/2012/05/TTDH2.png
p600
g3
(g4
g5
(g6
(S'\x07\xe0\x08\x13\x0138\x02\x97\xd8'
tRp601
I-1
I1
ttRp602
sVhttp://www.clipartbest.com/cliparts/xTg/ELE/xTgELEBTA.png
p603
g3
(g4
g5
(g6
(S'\x07\xdf\x0c\x18\x10\x11\x1e\rD('
tRp604
S'123'
p605
I1
ttRp606
sVhttp://d1ig2tdbom83n0.cloudfront.net/wp-content/uploads/2015/07/David-and-his-generous-strength-Pocket-Fuel-Daily-Devotional-on-1-Sam-30-12-pinterest.jpg
p607
g3
(g4
g5
(g6
(S'\x07\xe0\x07\x03\x0f-;\x05L\xf4'
tRp608
S'242'
p609
I1
ttRp610
sVhttp://www.successandfailure.net/blog/wp-content/uploads/2012/10/Generosity-H2O.jpg.opt860x1094o00s860x1094.jpg
p611
g3
(g4
g5
(g6
(S'\x07\xe0\x06\x1e\x13-\n\x05\x1a\x1a'
tRp612
S'162'
p613
I1
ttRp614
sVhttp://theinspirationroom.com/daily/commercials/2015/3/coca_cola_generous_world_alien.jpg
p615
g3
(g4
g5
(g6
(S'\x07\xdf\x0c\x18\x10\x11\x1e\rD\xc9'
tRp616
S'126'
p617
I1
ttRp618
sVhttp://d.fastcompany.net/multisite_files/fastcompany/imagecache/1280/poster/2013/05/3009323-poster-1920-extreme-giver-adam-grant-lends-us-his-advice-on-becoming-a-more-generous-lead.jpg
p619
g3
(g4
g5
(g6
(S'\x07\xe0\x06\x1e\x13-\n\x05\x19\x92'
tRp620
S'184'
p621
I1
ttRp622
sVhttps://i.ytimg.com/vi/2_cWXp1eM0U/maxresdefault.jpg
p623
g3
(g4
g5
(g6
(S'\x07\xe0\x05\x1a\x10\x19\x08\x07\xbdF'
tRp624
S'119'
p625
I1
ttRp626
sVhttp://www.fccwilmington.org/uploads/4/7/8/7/4787221/2216614_orig.jpg
p627
g3
(g4
g5
(g6
(S'\x07\xe0\x06\x0c\x00 %\x041\xd7'
tRp628
S'220'
p629
I1
ttRp630
sVhttps://www.bigquestionsonline.com/wp-content/uploads/2014/05/What-Makes-Us-Generous-990x580.jpg
p631
g3
(g4
g5
(g6
(S'\x07\xe0\n\x06\x15\x03\x18\x07\x96Z'
tRp632
S'203'
p633
I1
ttRp634
sVhttp://static2.businessinsider.com/image/56158c6abd86ef1b008c023d/the-20-most-generous-people-in-the-world.jpg
p635
g3
(g4
g5
(g6
(S'\x07\xe0\x06\x1e\x13-\n\x05\x1a\x1e'
tRp636
S'166'
p637
I1
ttRp638
sVhttp://www.vineyardcolumbus.org/monkimage.php?mediaDirectory=mediafiles&mediaId=3428024&fileName=generouslifeslide-557-313-0-0.jpg
p639
g3
(g4
g5
(g6
(S'\x07\xe0\t\x1a\n\x171\x04\xfb\xe9'
tRp640
S'101'
p641
I1
ttRp642
sVhttps://pbs.twimg.com/media/CV-fOvCU4AAZRlO.png
p643
g3
(g4
g5
(g6
(S'\x07\xe0\t\x1a\n\x171\x04\xfc\x07'
tRp644
S'150'
p645
I1
ttRp646
sVhttps://www.idisciple.org/cloud/idm/Fotolia_36816941_Subscription_Monthly_M.png
p647
g3
(g4
g5
(g6
(S'\x07\xe0\x07\x01\x0f\x016\x01\xdd?'
tRp648
S'157'
p649
I1
ttRp650
sVhttp://www.workingmomsagainstguilt.com/wp-content/uploads/2014/12/raising-a-generous-child.jpg
p651
g3
(g4
g5
(g6
(S'\x07\xe0\n\x06\x15\x03\x18\x07\x95\x8c'
tRp652
I-1
I1
ttRp653
sVhttp://quotes.lifehack.org/media/quotes/quote-William-Arthur-Ward-the-more-generous-we-are-the-more-36194.png
p654
g3
(g4
g5
(g6
(S'\x07\xe0\x08\t\x01.3\x0c\xba['
tRp655
I-1
I1
ttRp656
sVhttp://karenheimbuch.com/wp-content/uploads/2011/12/Giving-11.jpg
p657
g3
(g4
g5
(g6
(S'\x07\xe0\t\x1a\n\x171\x04\xfc;'
tRp658
I-1
I1
ttRp659
sVhttp://i.imgur.com/k9en74h.jpg
p660
g3
(g4
g5
(g6
(S'\x07\xe0\x08\x02\x14\x10-\x07a\xbd'
tRp661
S'64'
p662
I1
ttRp663
sVhttp://incedogroup.com/wp-content/uploads/2013/06/The-Obvious-but-Understated-Fact-Generous-Leaders-are-Richer-than-Stingy-Leaders-2.jpg
p664
g3
(g4
g5
(g6
(S'\x07\xe0\x08\x02\x14\x10-\x07ap'
tRp665
S'97'
p666
I1
ttRp667
sVhttp://cdn-media-1.lifehack.org/wp-content/files/2015/07/Give-3.jpg
p668
g3
(g4
g5
(g6
(S'\x07\xe0\n\x06\x15\x03\x18\x07\x95\xda'
tRp669
S'201'
p670
I1
ttRp671
sVhttp://oodlesprintery.com/wp-content/uploads/2013/04/CoachingOOdles-Poems-Generous.jpg
p672
g3
(g4
g5
(g6
(S'\x07\xe0\n\x06\x15\x03\x18\x07\x95\xe2'
tRp673
I-1
I1
ttRp674
sVhttps://i.ytimg.com/vi/wIOWM0SdE2c/maxresdefault.jpg
p675
g3
(g4
g5
(g6
(S'\x07\xe0\x08\x02\x14\x10-\x07a\xdd'
tRp676
S'91'
p677
I1
ttRp678
sVhttp://specials-images.forbesimg.com/imageserve/03yY2aL7dF3U5/0x600.jpg
p679
g3
(g4
g5
(g6
(S'\x07\xe0\n\x06\x15\x03\x18\x07\x95\xf4'
tRp680
S'317'
p681
I1
ttRp682
sVhttp://prudent-assets.s3-us-west-2.amazonaws.com/wp-content/uploads/2012/10/14230027/generous2.jpeg
p683
g3
(g4
g5
(g6
(S'\x07\xe0\x08\x19\t5\x1f\x03\x15\xad'
tRp684
S'7'
I1
ttRp685
sVhttps://i.ytimg.com/vi/3sJcbxj5zGA/maxresdefault.jpg
p686
g3
(g4
g5
(g6
(S'\x07\xe0\x05\x1a\x10\x19\x08\x07\xbd\x1a'
tRp687
S'137'
p688
I1
ttRp689
sVhttps://codyhooper.files.wordpress.com/2016/02/generous.jpg
p690
g3
(g4
g5
(g6
(S'\x07\xe0\t\x18\n\x0b%\x00\xff?'
tRp691
S'245'
p692
I2
ttRp693
sVhttps://nyoobserver.files.wordpress.com/2015/10/web_cover_philanthropy_neil-webb.jpg?quality=80
p694
g3
(g4
g5
(g6
(S'\x07\xe0\n\x06\x15\x03\x18\x07\x96\x92'
tRp695
S'291'
p696
I1
ttRp697
sVhttp://assets.babycenter.com/ims/2015/04/ThinkstockPhotos-477998733_wide.jpg?width=475
p698
g3
(g4
g5
(g6
(S'\x07\xe0\t\x1a\n\x171\x04\xfd3'
tRp699
S'33'
p700
I1
ttRp701
sVhttp://www.onbeing.org/sites/default/files/styles/width668/public/5619435641_8329d4e6c5_o.jpg?itok=8UV_OVbQ
p702
g3
(g4
g5
(g6
(S'\x07\xe0\t\x1a\n\x171\x04\xfc3'
tRp703
S'183'
p704
I1
ttRp705
sVhttp://payload213.cargocollective.com/1/13/420765/6575732/web_generous_4_905.jpg
p706
g3
(g4
g5
(g6
(S'\x07\xe0\n\x06\x15\x03\x18\x07\x96L'
tRp707
NI1
ttRp708
sVhttp://www.generousjoes.com/_/rsrc/1402955866551/home/NEW_3999%20copy.jpg?height=1988&width=2376
p709
g3
(g4
g5
(g6
(S'\x07\xe0\x05\x1a\x10\x19\x08\x07\xbdR'
tRp710
S'111'
p711
I1
ttRp712
sVhttp://www.emotivebrand.com/wp-content/uploads/2016/06/generosity-840x420-1080x675.jpg
p713
g3
(g4
g5
(g6
(S'\x07\xe0\n\x06\x15\x03\x18\x07\x96w'
tRp714
S'277'
p715
I1
ttRp716
sVhttp://c1940652.r52.cf0.rackcdn.com/52e80fc2b8d39a0f410021ee/BeGenerous_Desktop.jpg
p717
g3
(g4
g5
(g6
(S'\x07\xe0\x08\x02\x14\x10-\x07`\xef'
tRp718
S'135'
p719
I1
ttRp720
sVhttp://cdn.thefiscaltimes.com/sites/default/files/styles/article_hero_image/public/articles/10242011_Charitable_Deductions_article.jpg?itok=t2NcHXEs
p721
g3
(g4
g5
(g6
(S'\x07\xe0\n\x06\x15\x03\x18\x07\x96~'
tRp722
S'222'
p723
I1
ttRp724
sVhttp://nationalmortgageprofessional.com/sites/default/files/ThinkstockPhotos-482444033.jpg
p725
g3
(g4
g5
(g6
(S'\x07\xe0\n\x02\n:5\x0e5o'
tRp726
S'98'
p727
I1
ttRp728
sVhttp://abidinginthevine.net/wp-content/uploads/2014/05/generous_logo.jpg
p729
g3
(g4
g5
(g6
(S'\x07\xe0\x08\x19\t5\x1f\x03\x16\xaa'
tRp730
S'21'
p731
I1
ttRp732
sVhttp://www.pattylaurel.com/wp-content/uploads/2015/01/generosity-quotes.jpg
p733
g3
(g4
g5
(g6
(S'\x07\xdf\x0c\x12\x10\x0b6\x0c\x90\xb0'
tRp734
S'39'
p735
I1
ttRp736
sVhttp://sparktriad.com/wp-content/uploads/2014/03/Generosity-21.jpg
p737
g3
(g4
g5
(g6
(S'\x07\xdf\x0c\x01\x16!%\x0f \x1c'
tRp738
S'6'
I1
ttRp739
sVhttp://i.imgur.com/qHGt6cf.jpg
p740
g3
(g4
g5
(g6
(S'\x07\xe0\x07\x15\x111\x1a\r\x02\x06'
tRp741
S'189'
p742
I1
ttRp743
sVhttps://southernemma.files.wordpress.com/2010/04/shutterstock_28143461.jpg
p744
g3
(g4
g5
(g6
(S'\x07\xe0\x08\x02\x14\x10-\x07a5'
tRp745
S'61'
p746
I1
ttRp747
sVhttp://throwingthebowlines.com/wp-content/uploads/2014/08/giving3.jpg
p748
g3
(g4
g5
(g6
(S'\x07\xe0\n\x06\x15\x03\x18\x07\x95]'
tRp749
S'227'
p750
I1
ttRp751
sVhttp://www.thestar.com/content/dam/thestar/life/2012/10/08/teach_your_kids_how_to_be_generous/sharing.jpeg.size.xxlarge.letterbox.jpeg
p752
g3
(g4
g5
(g6
(S'\x07\xdf\x0c\n\x10\x08\x15\r\xf0&'
tRp753
S'63'
p754
I1
ttRp755
sVhttp://i.huffpost.com/gen/1477659/images/o-GENEROSITY-facebook.jpg
p756
g3
(g4
g5
(g6
(S'\x07\xe0\n\x02\n:5\x0e4\x92'
tRp757
S'139'
p758
I1
ttRp759
sVhttp://media.indiatimes.in/media/content/2015/Nov/ag1_1447219314.jpg
p760
g3
(g4
g5
(g6
(S'\x07\xe0\t\x18\n\x0b%\x00\xfe\xc3'
tRp761
S'313'
p762
I1
ttRp763
sVhttp://pastorrick.com/images/default-source/Devotional-Images/02-23-16-habits-of-happiness-happiness-habit-be-generous.jpg?sfvrsn=0
p764
g3
(g4
g5
(g6
(S'\x07\xe0\n\x02\n:5\x0e5\x05'
tRp765
S'323'
p766
I1
ttRp767
sVhttp://www.northumbriacommunity.org/wp-content/uploads/2013/07/DSCN28921.jpg
p768
g3
(g4
g5
(g6
(S'\x07\xdf\x0c\x18\x10\x11\x1e\rD\xd8'
tRp769
S'121'
p770
I1
ttRp771
sVhttp://images.hellokids.com/_uploads/_tiny_galerie/20160103/helping-hands-kzw_jfb.jpg
p772
g3
(g4
g5
(g6
(S'\x07\xe0\x08\x19\t5\x1f\x03\x15\xf3'
tRp773
I-1
I1
ttRp774
sVhttp://baysidech.com/wp-content/uploads/2014/11/Generous-Media1.jpg
p775
g3
(g4
g5
(g6
(S'\x07\xe0\x08\x02\x14\x10-\x07a\xd5'
tRp776
S'249'
p777
I1
ttRp778
sVhttp://www.generousjoes.com/_/rsrc/1402955843710/home/NEW_3994%20copy.jpg?height=2531&width=2333
p779
g3
(g4
g5
(g6
(S'\x07\xdf\x0c\x18\x10\x11\x1e\rD\x8a'
tRp780
S'128'
p781
I1
ttRp782
sVhttp://www.magnor.no/1172-thickbox_default/generous-vas-pink.jpg
p783
g3
(g4
g5
(g6
(S'\x07\xe0\n\x06\x15\x03\x18\x07\x95\xe7'
tRp784
NI1
ttRp785
sVhttp://jennifermccrea.com/wp-content/uploads/radicalgenerosity.jpg
p786
g3
(g4
g5
(g6
(S'\x07\xdf\x0c\n\x10\x08\x15\r\xef\xca'
tRp787
I-1
I1
ttRp788
sVhttp://previews.123rf.com/images/pressmaster/pressmaster0903/pressmaster090300486/4544882-Generous-girl-giving-bottle-of-water-to-the-friend-in-front-of-her-Stock-Photo.jpg
p789
g3
(g4
g5
(g6
(S'\x07\xe0\x06\x1e\x13-\n\x05\x1a\x0c'
tRp790
S'181'
p791
I2
ttRp792
sVhttp://leadnet.org/wp-content/uploads/2014/03/Poverty_-_Hands_with_Coins4.jpg
p793
g3
(g4
g5
(g6
(S'\x07\xe0\t\x1a\n\x171\x04\xfc\xdf'
tRp794
I-1
I1
ttRp795
sVhttp://projectpartner.org/wp-content/uploads/17-ways-generous-title.png
p796
g3
(g4
g5
(g6
(S'\x07\xe0\n\x06\x15\x03\x18\x07\x96&'
tRp797
S'296'
p798
I1
ttRp799
sVhttp://quotes.values.com/quote_artwork/7277/original/friday.jpg?1430071906
p800
g3
(g4
g5
(g6
(S'\x07\xe0\x06\x1e\x13-\n\x05\x19\xbd'
tRp801
I-1
I1
ttRp802
sVhttp://www.generous.eu/medias/home/Elections_Generous_intolerance_alimentaire_245.jpg
p803
g3
(g4
g5
(g6
(S'\x07\xdf\x0c\x12\x10\x0b6\x0c\x90\x82'
tRp804
S'76'
p805
I1
ttRp806
sVhttp://www.htj.org.uk/content/pages/uploaded_images/575.jpg
p807
g3
(g4
g5
(g6
(S'\x07\xe0\n\x06\x15\x03\x18\x07\x960'
tRp808
S'318'
p809
I1
ttRp810
sVhttp://moseskumar.com/wp-content/uploads/2016/01/Generosity.jpg
p811
g3
(g4
g5
(g6
(S'\x07\xe0\n\x06\x15\x03\x18\x07\x95\xcc'
tRp812
S'225'
p813
I1
ttRp814
sVhttp://southernemma.files.wordpress.com/2010/04/shutterstock_28143461.jpg
p815
g3
(g4
g5
(g6
(S'\x07\xdf\x0b\t\x13\x19\n\x08;\xff'
tRp816
S'4'
I1
ttRp817
sVhttp://i.ytimg.com/vi/ojDC8BWFZoI/maxresdefault.jpg
p818
g3
(g4
g5
(g6
(S'\x07\xdf\x0c\x18\x10\x11\x1e\rD\xf8'
tRp819
S'124'
p820
I3
ttRp821
sVhttps://assets.entrepreneur.com/content/16x9/822/get-ahead-being-generous.jpg
p822
g3
(g4
g5
(g6
(S'\x07\xe0\t\x1a\n\x171\x04\xfd\x10'
tRp823
S'2'
I1
ttRp824
sVhttps://c.o0bg.com/rf/image_960w/Boston/2011-2020/2015/12/18/BostonGlobe.com/Lifestyle/Images/shutterstock_260177225.jpg
p825
g3
(g4
g5
(g6
(S'\x07\xe0\n\x06\x15\x03\x18\x07\x96_'
tRp826
S'200'
p827
I1
ttRp828
sVhttp://previews.123rf.com/images/addricky/addricky1311/addricky131101002/24081795-Man-hand-holding-object-Gold-ingots-as-generous-gift-with-red-ribbon-and-bow-isolated-on-white-backg-Stock-Photo.jpg
p829
g3
(g4
g5
(g6
(S'\x07\xe0\x06\x1e\x13-\n\x05\x19\xfe'
tRp830
S'254'
p831
I1
ttRp832
sVhttps://pbs.twimg.com/profile_images/378800000636594581/1e5cca4fac592005a992eeef52e35a3b_400x400.png
p833
g3
(g4
g5
(g6
(S'\x07\xdf\x0c\x12\x10\x0b6\x0c\x8f\xe8'
tRp834
S'62'
p835
I1
ttRp836
sVhttps://scottpilgrim67.files.wordpress.com/2016/09/generous.jpg
p837
g3
(g4
g5
(g6
(S'\x07\xe0\t\x1a\n\x171\x04\xfd\x97'
tRp838
S'319'
p839
I1
ttRp840
sVhttp://assets.bakerpublishinggroup.com/processed/books/covers/original/9781587433559.jpg?1415810544
p841
g3
(g4
g5
(g6
(S'\x07\xe0\x07\x15\x111\x1a\r\x01\xd1'
tRp842
S'136'
p843
I1
ttRp844
sVhttp://www.transitsm.com/wp-content/uploads/2014/12/Generous.jpg
p845
g3
(g4
g5
(g6
(S'\x07\xdf\x0c\x01\x16!%\x0f 9'
tRp846
S'50'
p847
I1
ttRp848
sVhttp://images.technewstoday.com.s3.amazonaws.com/tnt/960-microsoft-employees-get-generous-raise-125-million-for-nonprofits.jpg
p849
g3
(g4
g5
(g6
(S'\x07\xe0\n\x02\n:5\x0e4\xc7'
tRp850
S'243'
p851
I1
ttRp852
sVhttp://myreallife.org/wp-content/uploads/2014/07/Generous-slider-11.jpg
p853
g3
(g4
g5
(g6
(S'\x07\xe0\n\x02\n:5\x0e4\xdc'
tRp854
I-1
I1
ttRp855
sVhttps://i.ytimg.com/vi/3z7e3VowkXc/maxresdefault.jpg
p856
g3
(g4
g5
(g6
(S'\x07\xdf\x0c\x18\x10\x11\x1e\rD\x9b'
tRp857
S'142'
p858
I1
ttRp859
sVhttp://www.eagleonline.com/wp-content/uploads/Generosity-quote.jpg
p860
g3
(g4
g5
(g6
(S'\x07\xe0\n\x06\x15\x03\x18\x07\x95\x9c'
tRp861
S'325'
p862
I1
ttRp863
sVhttp://www.gracea2.org/wp-content/uploads/2012/11/generous-b-960x350.jpg
p864
g3
(g4
g5
(g6
(S'\x07\xdf\x0c\n\x10\x08\x15\r\xef\xac'
tRp865
S'88'
p866
I1
ttRp867
sVhttps://i.ytimg.com/vi/vxhXwcjh9CY/maxresdefault.jpg
p868
g3
(g4
g5
(g6
(S'\x07\xe0\x07\x15\x111\x1a\r\x02g'
tRp869
S'290'
p870
I1
ttRp871
sVhttp://www.steamfeed.com/wp-content/uploads/2013/10/Your-generosity-will-create-prosperity.jpg
p872
g3
(g4
g5
(g6
(S'\x07\xe0\t\x1a\n\x171\x04\xfc|'
tRp873
I-1
I1
ttRp874
sVhttp://generositygameplan.com/wp-content/uploads/2013/08/generosity-checkup-logo-600x600.png
p875
g3
(g4
g5
(g6
(S'\x07\xe0\x08\x19\t5\x1f\x03\x16\x93'
tRp876
S'55'
p877
I1
ttRp878
sVhttp://loveamongthelampreys.com/comics/2011-10-26-lamprey17.JPG
p879
g3
(g4
g5
(g6
(S'\x07\xe0\x08\x02\x14\x10-\x07a\x18'
tRp880
S'99'
p881
I1
ttRp882
sVhttp://themoneycouple.com/wp-content/uploads/2015/11/Christmas-gift-for-homeless-man_c.-Halfpoint_shutterstock_116920486.jpg
p883
g3
(g4
g5
(g6
(S'\x07\xe0\x08\x02\x14\x10-\x07b)'
tRp884
I-1
I1
ttRp885
sVhttp://i.huffpost.com/gen/881744/images/o-GENEROSITY-BENEFITS-facebook.jpg
p886
g3
(g4
g5
(g6
(S'\x07\xe0\t\x1a\n\x171\x04\xfd\x00'
tRp887
S'44'
p888
I1
ttRp889
sVhttp://i2.cdn.turner.com/cnnnext/dam/assets/151105174136-myanmar-donations-exlarge-169.jpg
p890
g3
(g4
g5
(g6
(S'\x07\xe0\x08\x15\x014\x1e\x0bK\x0c'
tRp891
S'178'
p892
I1
ttRp893
sVhttp://orig03.deviantart.net/f126/f/2012/251/0/f/generous_offer_by_setpoirot-d5e0fyr.jpg
p894
g3
(g4
g5
(g6
(S'\x07\xe0\x06\x1e\x13-\n\x05\x19\xe6'
tRp895
S'147'
p896
I1
ttRp897
sVhttp://www.alambic-magazine.com/wp-content/uploads/2015/06/Generous-Gin.jpg
p898
g3
(g4
g5
(g6
(S'\x07\xe0\x08\x02\x14\x10-\x07b\xae'
tRp899
S'138'
p900
I1
ttRp901
sVhttps://quotefancy.com/media/wallpaper/3840x2160/89253-David-Jeremiah-Quote-The-truth-is-We-serve-a-generous-God-He.jpg
p902
g3
(g4
g5
(g6
(S'\x07\xe0\x08\x02\x14\x10-\x07b\xb6'
tRp903
S'284'
p904
I1
ttRp905
sVhttp://cdn-media-2.lifehack.org/wp-content/files/2015/07/Give-3.jpg
p906
g3
(g4
g5
(g6
(S'\x07\xe0\n\x02\n:5\x0e5\x02'
tRp907
S'259'
p908
I1
ttRp909
sVhttp://4.bp.blogspot.com/-uPt5GQiKlA4/VnYxHM6TVAI/AAAAAAAAADw/c8QItKeFSpc/s1600/3.jpg
p910
g3
(g4
g5
(g6
(S"\x07\xe0\x07\t\x11'!\tJ\xed"
tRp911
S'262'
p912
I1
ttRp913
sVhttp://thegeneroushost.files.wordpress.com/2014/04/design5.jpg
p914
g3
(g4
g5
(g6
(S'\x07\xe0\x08\x02\x14\x10-\x07`\xe0'
tRp915
S'185'
p916
I1
ttRp917
sVhttp://www.commentsyard.com/wp-content/uploads/2015/09/It-Is-Usually-Best-To-Be-Generous-With-Praise-CY123366.png
p918
g3
(g4
g5
(g6
(S'\x07\xe0\x08\x02\x14\x10-\x07a\x0e'
tRp919
S'251'
p920
I1
ttRp921
sVhttp://www.myquotesclub.com/wp-content/uploads/2015/12/Generosity-is-giving-more-than-you-can.png
p922
g3
(g4
g5
(g6
(S'\x07\xe0\x06\x0c\x00 %\x0410'
tRp923
S'217'
p924
I1
ttRp925
sVhttp://goonsquad.blog.com/files/2014/04/generous-melart-mtv.fi_.jpg
p926
g3
(g4
g5
(g6
(S'\x07\xe0\n\x06\x15\x03\x18\x07\x95d'
tRp927
I-1
I1
ttRp928
sVhttp://thefrugalmodel.com/wp-content/uploads/2014/09/o-GENEROSITY-facebook.jpg
p929
g3
(g4
g5
(g6
(S'\x07\xe0\n\x02\n:5\x0e4\xd8'
tRp930
I-1
I1
ttRp931
sVhttp://www.allegrotoday.com/wp-content/uploads/2015/12/generosity.jpg
p932
g3
(g4
g5
(g6
(S'\x07\xe0\x08\x19\t5\x1f\x03\x15\xe5'
tRp933
S'96'
p934
I2
ttRp935
sVhttp://www.thetinytwig.com/wp-content/uploads/2014/02/3-reasons-you-should-be-extravagantly-generous.jpg
p936
g3
(g4
g5
(g6
(S'\x07\xe0\n\x06\x15\x03\x18\x07\x95~'
tRp937
S'326'
p938
I1
ttRp939
sVhttp://www.foxcitiespac.com/sites/default/files/media-resources/files/MercyMe-TheGenerousMr.Lovewell_MMLovewellCover.jpg?1274884793
p940
g3
(g4
g5
(g6
(S'\x07\xdf\x0c\x18\x10\x11\x1e\rD`'
tRp941
S'108'
p942
I1
ttRp943
sVhttp://specials-images.forbesimg.com/imageserve/24d56b7ee6e893bf8ceb615570fda79d/0x600.jpg?fit=scale&background=000000
p944
g3
(g4
g5
(g6
(S'\x07\xe0\x06\x10\x02\x02#\x0eH>'
tRp945
S'237'
p946
I1
ttRp947
sVhttp://www.foxcitiespac.com/sites/default/files/media-resources/files/MercyMe-TheGenerousMr.Lovewell_MMLovewellCover.jpg
p948
g3
(g4
g5
(g6
(S'\x07\xe0\x07\x15\x111\x1a\r\x02P'
tRp949
S'195'
p950
I1
ttRp951
sVhttp://generosity.org/wp-content/uploads/2014/07/generous-society-hero.jpg
p952
g3
(g4
g5
(g6
(S'\x07\xe0\n\x06\x15\x03\x18\x07\x95\xc6'
tRp953
I-1
I1
ttRp954
sVhttp://www.access52.com/wp-content/uploads/2013/09/stockfresh_2290191_gift_sizeS-645x429.jpg
p955
g3
(g4
g5
(g6
(S'\x07\xe0\x08\x19\t5\x1f\x03\x16\x01'
tRp956
I-1
I1
ttRp957
sVhttp://www.diyphotography.net/files/u8/photography-generosity-diyphotography.jpg
p958
g3
(g4
g5
(g6
(S'\x07\xe0\x08\x19\t5\x1f\x03\x16\x10'
tRp959
I-1
I1
ttRp960
sVhttp://specialneedsparenting.net/wp-content/uploads/2015/12/Alix-Generous-photo1.jpg
p961
g3
(g4
g5
(g6
(S'\x07\xe0\t\x1a\n\x171\x04\xfb\xfd'
tRp962
S'218'
p963
I1
ttRp964
sVhttp://robertjrgraham.com/wp-content/uploads/2011/08/generous-picture.jpg
p965
g3
(g4
g5
(g6
(S'\x07\xe0\x08\x19\t5\x1f\x03\x16-'
tRp966
S'30'
p967
I1
ttRp968
sVhttp://kathycaprino.com/wp-content/uploads/2015/02/iStock_000058101296_Medium.jpg
p969
g3
(g4
g5
(g6
(S"\x07\xe0\n\x02\n:5\x0e5'"
tRp970
S'65'
p971
I1
ttRp972
sVhttp://4cornersfestival.com/wp-content/uploads/generosity.jpg
p973
g3
(g4
g5
(g6
(S'\x07\xe0\t\x1a\n\x171\x04\xfc\xd6'
tRp974
S'167'
p975
I1
ttRp976
sVhttps://bitbucket.org/Karabor/karabor-bugtracker/issues/attachments/2121/Karabor/karabor-bugtracker/1423058768.39/2121/WoWScrnShot_020415_150513.jpg
p977
g3
(g4
g5
(g6
(S'\x07\xe0\x07\x15\x111\x1a\r\x02\x98'
tRp978
I-1
I1
ttRp979
sVhttp://www.formaggiokitchen.com/shop/media/catalog/product/cache/1/image/9df78eab33525d08d6e5fb8d27136e95/G/e/Generous_Citron_Cookies_sm-2_4.jpg
p980
g3
(g4
g5
(g6
(S'\x07\xe0\x08\t\x01.3\x0c\xbb\x91'
tRp981
S'241'
p982
I1
ttRp983
sVhttp://www.iwuspectrum.com/wp-content/uploads/2012/11/sandyfacebook2.jpg
p984
g3
(g4
g5
(g6
(S'\x07\xe0\x07\x15\x111\x1a\r\x02\x9b'
tRp985
S'286'
p986
I1
ttRp987
sVhttp://pad2.whstatic.com/images/thumb/7/72/Be-Generous-on-a-Limited-Budget-Step-2.jpg/aid476733-728px-Be-Generous-on-a-Limited-Budget-Step-2.jpg
p988
g3
(g4
g5
(g6
(S'\x07\xe0\t\x18\n\x0b%\x00\xffm'
tRp989
S'214'
p990
I1
ttRp991
sVhttp://www.genesisthejourney.com/images/wallpaper/be-generous/beGENEROUS_2560x1440.jpg
p992
g3
(g4
g5
(g6
(S'\x07\xe0\n\x02\n:5\x0e5\x0e'
tRp993
S'100'
p994
I1
ttRp995
sVhttp://www.fellowshipconway.org/wp-content/uploads/2011/12/generous-life-the_t_nt3.jpg
p996
g3
(g4
g5
(g6
(S'\x07\xdf\x0c\x01\x16!%\x0f!\x0b'
tRp997
S'58'
p998
I1
ttRp999
sVhttp://dingo.care2.com/pictures/greenliving/1199/1198986.large.jpg
p1000
g3
(g4
g5
(g6
(S'\x07\xdf\x0c\n\x10\x08\x15\r\xf0"'
tRp1001
S'66'
p1002
I1
ttRp1003
sVhttp://www.xrds.nl/sermons/images/sermons/everyone-a-generous-life.jpg
p1004
g3
(g4
g5
(g6
(S'\x07\xe0\x08\t\x01.3\x0c\xbc\xc5'
tRp1005
S'224'
p1006
I1
ttRp1007
sVhttp://unlockingthebible.org/wp-content/uploads/2014/08/A-Generous-Life-Cover-6.7x6.jpg
p1008
g3
(g4
g5
(g6
(S'\x07\xe0\x07\x15\x111\x1a\r\x02\xf5'
tRp1009
S'283'
p1010
I1
ttRp1011
sVhttp://secondharvestmidtn.org/wp-content/uploads/2015/03/Generous-Helpings-2016-Logo.jpg
p1012
g3
(g4
g5
(g6
(S'\x07\xe0\x07\x15\x111\x1a\r\x02\x02'
tRp1013
S'285'
p1014
I1
ttRp1015
sVhttp://www.investors.com/wp-content/uploads/2016/04/EDIT2-041916-iStock.jpg
p1016
g3
(g4
g5
(g6
(S'\x07\xe0\n\x06\x15\x03\x18\x07\x95N'
tRp1017
S'206'
p1018
I1
ttRp1019
sVhttps://s3.amazonaws.com/media-4lpi/wp-content/uploads/2016/07/generosity.jpg
p1020
g3
(g4
g5
(g6
(S'\x07\xe0\t\x18\n\x0b%\x00\xff\x8c'
tRp1021
I-1
I1
ttRp1022
sVhttp://loisphillips.com/wp-content/uploads/2013/01/plant-grow.jpg
p1023
g3
(g4
g5
(g6
(S'\x07\xe0\x08\x02\x14\x10-\x07a\x88'
tRp1024
S'94'
p1025
I1
ttRp1026
sVhttp://pad1.whstatic.com/images/thumb/4/40/Be-Generous-Step-9.jpeg/670px-Be-Generous-Step-9.jpeg
p1027
g3
(g4
g5
(g6
(S'\x07\xdf\x0c\x12\x10\x0b6\x0c\x90\x1e'
tRp1028
S'60'
p1029
I1
ttRp1030
sVhttp://www.becomingminimalist.com/wp-content/uploads/2010/03/generosity1.jpg
p1031
g3
(g4
g5
(g6
(S'\x07\xe0\x08\x19\t5\x1f\x03\x15\xf7'
tRp1032
S'250'
p1033
I1
ttRp1034
sVhttp://rickwarren.org/images/default-source/Devotional-Images/02-18-16-habits-of-happiness-happiness-habit-be-generous-on-every-occasion.jpg?sfvrsn=0
p1035
g3
(g4
g5
(g6
(S'\x07\xe0\x08\x13\x0138\x02\x97\xa9'
tRp1036
S'293'
p1037
I1
ttRp1038
sVhttp://www.kirkstallbrewerycompany.com/wp-content/uploads/2013/02/GenerousGeorge.jpg
p1039
g3
(g4
g5
(g6
(S'\x07\xdf\x0c\x18\x10\x11\x1e\rD\x92'
tRp1040
S'129'
p1041
I1
ttRp1042
sVhttp://contents.spin.ph/image/pacquiao-toprank-turkey.jpg
p1043
g3
(g4
g5
(g6
(S'\x07\xdf\x0b\x15\x16\x10 \x01OH'
tRp1044
S'11'
p1045
I1
ttRp1046
sVhttp://www.crosswaybible.org/wp-content/uploads/2012/12/generous.jpg
p1047
g3
(g4
g5
(g6
(S'\x07\xe0\t\x18\n\x0b%\x00\xff\x16'
tRp1048
S'69'
p1049
I1
ttRp1050
sVhttps://ksr-ugc.imgix.net/assets/011/999/878/b78442948e12ec1ec1a20428a36c4fda_original.jpg?w=1536&h=864&fit=fill&bg=000000&v=1463722855&auto=format&q=92&s=d7f375550490650c0bd2e519f57c0e72
p1051
g3
(g4
g5
(g6
(S'\x07\xe0\x06\x1e\x13-\n\x05\x19='
tRp1052
S'275'
p1053
I1
ttRp1054
sVhttps://s-media-cache-ak0.pinimg.com/736x/15/e8/50/15e8500c17dc514b7ab454975812a8f5.jpg
p1055
g3
(g4
g5
(g6
(S'\x07\xe0\t\x18\n\x0b%\x00\xfe\xbb'
tRp1056
S'312'
p1057
I1
ttRp1058
sVhttp://www.nvumc.com/blog/home8/nvumccom/public_html/blog/wp-content/uploads/2012/08/generous-life.jpg
p1059
g3
(g4
g5
(g6
(S'\x07\xe0\x05\x10\x10\x17\x04\x056\xe8'
tRp1060
S'180'
p1061
I1
ttRp1062
sVhttp://www.livescience.com/images/i/000/056/415/original/money-hands.jpg?interpolation=lanczos-none&fit=inside%7C660:*
p1063
g3
(g4
g5
(g6
(S'\x07\xe0\x08\x19\t5\x1f\x03\x16D'
tRp1064
S'304'
p1065
I1
ttRp1066
sVhttps://f4.bcbits.com/img/a4158046891_16.jpg
p1067
g3
(g4
g5
(g6
(S'\x07\xe0\x07\x07\x10\x038\tc\xa6'
tRp1068
S'268'
p1069
I1
ttRp1070
sVhttp://rickwarren.org/images/default-source/Devotional-Images/01-21-16-daring-faith-generous-people-are-happy-people.jpg?sfvrsn=0
p1071
g3
(g4
g5
(g6
(S'\x07\xe0\x08\t\x01.3\x0c\xbb\xc7'
tRp1072
S'266'
p1073
I2
ttRp1074
sVhttp://www.charlesstone.com/images/uploads/hiresimages/generosity1.jpg
p1075
g3
(g4
g5
(g6
(S'\x07\xe0\x08\x02\x14\x10-\x07bL'
tRp1076
S'73'
p1077
I1
ttRp1078
sVhttps://i.ytimg.com/vi/tzQDewp48MU/maxresdefault.jpg
p1079
g3
(g4
g5
(g6
(S'\x07\xe0\x05\x04\x11\x1b&\x0b\xdbW'
tRp1080
S'174'
p1081
I1
ttRp1082
sVhttps://upload.wikimedia.org/wikipedia/en/8/81/Mercyme_the_generous_mr_lovewell_cover.jpg
p1083
g3
(g4
g5
(g6
(S'\x07\xe0\x08\x19\t5\x1f\x03\x16\xbd'
tRp1084
S'38'
p1085
I1
ttRp1086
sVhttps://www.airfrov.com/blog/wp-content/uploads/2015/12/generous.png
p1087
g3
(g4
g5
(g6
(S'\x07\xe0\x06\x1e\x13-\n\x05\x19)'
tRp1088
S'280'
p1089
I1
ttRp1090
sVhttp://www.kumveka.org/wp-content/uploads/2014/07/GG-Case-Study-Sliders-04logotag.jpg
p1091
g3
(g4
g5
(g6
(S'\x07\xe0\x08\x02\x14\x10-\x07a\x98'
tRp1092
S'133'
p1093
I1
ttRp1094
sVhttp://blog.lwyconline.com/wp-content/uploads/2014/02/generosity1.jpg
p1095
g3
(g4
g5
(g6
(S'\x07\xe0\n\x02\n:5\x0e5s'
tRp1096
S'34'
p1097
I1
ttRp1098
sVhttp://www.kwizlet.com/uploads/1430260636.jpg
p1099
g3
(g4
g5
(g6
(S'\x07\xe0\x07\x15\x111\x1a\r\x02\xec'
tRp1100
S'247'
p1101
I1
ttRp1102
sVhttp://secondharvestmidtn.org/wp-content/uploads/2014/05/Generous-Helpings-logo.jpg
p1103
g3
(g4
g5
(g6
(S'\x07\xdf\x0c\x18\x10\x11\x1e\rE-'
tRp1104
S'103'
p1105
I1
ttRp1106
sVhttps://mbeaudettemolloy.files.wordpress.com/2014/09/2014-09-04-19-08-03.png
p1107
g3
(g4
g5
(g6
(S'\x07\xe0\x06\x1e\x13-\n\x05\x19\t'
tRp1108
S'159'
p1109
I1
ttRp1110
sVhttp://cbsnews1.cbsistatic.com/hub/i/r/2011/08/31/1d8be767-a738-11e2-a3f0-029118418759/thumbnail/620x350/1c251af7e4e594b0cf51bb55e1934234/money_generic_iStock_000004.jpg
p1111
g3
(g4
g5
(g6
(S'\x07\xdf\x0c\x01\x16!%\x0f \xaf'
tRp1112
S'51'
p1113
I1
ttRp1114
sVhttp://secondharvestmidtn.org/wp-content/uploads/2015/03/PeytonHoge-photos-093.jpg
p1115
g3
(g4
g5
(g6
(S'\x07\xdf\x0c\x18\x10\x11\x1e\rD\xf0'
tRp1116
S'134'
p1117
I1
ttRp1118
sVhttp://fpchackensack.org/wp-content/uploads/2015/10/3983.jpg
p1119
g3
(g4
g5
(g6
(S'\x07\xdf\x0c\n\x10\x08\x15\r\xef\x82'
tRp1120
S'56'
p1121
I1
ttRp1122
sVhttp://jive.com/wp-content/uploads/2014/06/generosity-climbing.jpg
p1123
g3
(g4
g5
(g6
(S'\x07\xe0\t\x18\n\x0b%\x00\xfe\xde'
tRp1124
S'23'
p1125
I1
ttRp1126
sVhttps://www.dobbies.com/media/2822891/Rosa-The-Generous-Gardener-Ausdrawn.jpg
p1127
g3
(g4
g5
(g6
(S'\x07\xe0\x08\x02\x14\x10-\x07a\xe5'
tRp1128
S'193'
p1129
I1
ttRp1130
sVhttp://media-cache-ec0.pinimg.com/736x/15/e8/50/15e8500c17dc514b7ab454975812a8f5.jpg
p1131
g3
(g4
g5
(g6
(S'\x07\xdf\x0c\n\x10\x08\x15\r\xf0\x1a'
tRp1132
S'49'
p1133
I1
ttRp1134
sVhttp://2.bp.blogspot.com/-9snvBGKv2Kg/VYgH35oy9EI/AAAAAAAAAjM/dv8gXj_MRO4/s1600/6.21.15.009.jpg
p1135
g3
(g4
g5
(g6
(S'\x07\xe0\x05\x10\x10\x17\x04\x057\xa7'
tRp1136
S'179'
p1137
I1
ttRp1138
sVhttp://www.raincityhousing.org/wordpress/wp-content/uploads/2014/03/large_generosity-nature.jpg
p1139
g3
(g4
g5
(g6
(S'\x07\xdf\x0b\x15\x16\x10 \x01O\xdb'
tRp1140
S'12'
p1141
I1
ttRp1142
sVhttp://blog.lwyconline.com/wp-content/uploads/2014/02/FileItem-124143-Generosity.jpg
p1143
g3
(g4
g5
(g6
(S'\x07\xe0\x06\x0c\x00 %\x041F'
tRp1144
S'79'
p1145
I1
ttRp1146
sVhttps://www.canadahelps.org/media/GIV3-Map.png
p1147
g3
(g4
g5
(g6
(S'\x07\xe0\x08\t\x01.3\x0c\xbb{'
tRp1148
S'235'
p1149
I1
ttRp1150
sVhttp://media-cache-ec0.pinimg.com/736x/87/d5/4f/87d54f16a21e62adb901a7069299beb3.jpg
p1151
g3
(g4
g5
(g6
(S'\x07\xe0\x06\x0c\x00 %\x041\xd3'
tRp1152
S'228'
p1153
I1
ttRp1154
sVhttp://www.agenerousthought.com/wp-content/uploads/2015/06/agenerousthought.jpg
p1155
g3
(g4
g5
(g6
(S'\x07\xe0\x07\x15\x111\x1a\r\x02\x9f'
tRp1156
S'287'
p1157
I1
ttRp1158
sVhttp://www.mendopres.org/files/2013/06/generous.jpg
p1159
g3
(g4
g5
(g6
(S'\x07\xe0\t\x1a\n\x171\x04\xfc\xef'
tRp1160
S'148'
p1161
I1
ttRp1162
sVhttp://www.churchplanting.com/wp-content/uploads/2011/09/generosity1.jpg
p1163
g3
(g4
g5
(g6
(S'\x07\xe0\n\x06\x15\x03\x18\x07\x95\xa8'
tRp1164
I-1
I1
ttRp1165
sVhttps://twcdaily.files.wordpress.com/2014/05/grace-in-giving-main-logo1.jpg
p1166
g3
(g4
g5
(g6
(S'\x07\xe0\x05\x1a\x10\x19\x08\x07\xbc\x96'
tRp1167
S'125'
p1168
I1
ttRp1169
sVhttp://quotescloud.com/wp-content/uploads/2015/05/A-generous-heart-kind-speech.jpg
p1170
g3
(g4
g5
(g6
(S'\x07\xe0\n\x06\x15\x03\x18\x07\x96B'
tRp1171
I-1
I1
ttRp1172
sVhttp://img.jakpost.net/c/2016/09/11/2016_09_11_11716_1473558858._large.jpg
p1173
g3
(g4
g5
(g6
(S'\x07\xe0\n\x06\x15\x03\x18\x07\x96+'
tRp1174
I-1
I1
ttRp1175
sVhttp://www.beaneagle.be/wp-content/uploads/2013/01/BEA-Generous-1.jpg
p1176
g3
(g4
g5
(g6
(S'\x07\xe0\x07\x15\x111\x1a\r\x02\xd5'
tRp1177
S'187'
p1178
I1
ttRp1179
sVhttp://i.kinja-img.com/gawker-media/image/upload/s--w4Xo0pUh--/18k2x2l3gcfnujpg.jpg
p1180
g3
(g4
g5
(g6
(S'\x07\xdf\x0c\x01\x16!%\x0f!('
tRp1181
S'59'
p1182
I1
ttRp1183
sVhttp://media-cache-ak0.pinimg.com/originals/2e/1f/64/2e1f642561b0b80e4eb348070cfbe211.jpg
p1184
g3
(g4
g5
(g6
(S'\x07\xe0\x06\x1e\x13-\n\x05\x18\xdd'
tRp1185
S'168'
p1186
I1
ttRp1187
sVhttp://cdn-media-1.lifehack.org/wp-content/files/2015/07/493626935_a62784f191_b.jpg
p1188
g3
(g4
g5
(g6
(S'\x07\xe0\x06\x1e\x13-\n\x05\x19\x89'
tRp1189
S'253'
p1190
I1
ttRp1191
sVhttp://www.genesisthejourney.com/images/wallpaper/be-generous/beGENEROUS_1920x1200.jpg
p1192
g3
(g4
g5
(g6
(S'\x07\xe0\x07\x15\x111\x1a\r\x02\xa8'
tRp1193
S'289'
p1194
I1
ttRp1195
sVhttp://generouslife.net/wp-content/uploads/2011/11/Generous-Life-logo-AI-reflect-warp-sm.png
p1196
g3
(g4
g5
(g6
(S'\x07\xdf\x0c\x18\x10\x11\x1e\rD\xe3'
tRp1197
S'114'
p1198
I1
ttRp1199
sVhttp://vignette2.wikia.nocookie.net/wowwiki/images/d/df/JaluuTheGenerous.png/revision/latest?cb=20140603135021
p1200
g3
(g4
g5
(g6
(S'\x07\xe0\x06\x0c\x00 %\x041\x80'
tRp1201
S'240'
p1202
I1
ttRp1203
sVhttp://deborahhbateman.com/wp-content/uploads/2015/02/Proverbs-11-generosity.png
p1204
g3
(g4
g5
(g6
(S'\x07\xe0\x06\x0c\x00 %\x041u'
tRp1205
I-1
I1
ttRp1206
sVhttp://generis.com/wp-content/uploads/2014/02/handsfoldedinwheatfield.jpg
p1207
g3
(g4
g5
(g6
(S'\x07\xe0\x05\x10\x10\x17\x04\x056\xd7'
tRp1208
S'154'
p1209
I1
ttRp1210
sVhttp://wp.production.patheos.com/blogs/rhemedia/files/2013/05/generosity.jpg
p1211
g3
(g4
g5
(g6
(S'\x07\xdf\x0c\n\x10\x08\x15\r\xef\x94'
tRp1212
S'20'
p1213
I1
ttRp1214
sVhttp://www.churchplants.com/wp-content/uploads/2015/04/GENEROSITY.jpg
p1215
g3
(g4
g5
(g6
(S'\x07\xe0\x08\x19\t5\x1f\x03\x15\xdb'
tRp1216
S'82'
p1217
I1
ttRp1218
sVhttp://eelebmxcq9286ev52zp92u7e.wpengine.netdna-cdn.com/wp-content/uploads/2015/10/Generous-Sermon-Series-Square.jpg
p1219
g3
(g4
g5
(g6
(S'\x07\xe0\n\x06\x15\x03\x18\x07\x95\x97'
tRp1220
I-1
I1
ttRp1221
sVhttp://www.davidaustinroses.co.uk/media/catalog/product/cache/1/image/040ec09b1e35df139433887a97daa66f/T/h/The_Generous_Gardener_Clg_5_2.jpg
p1222
g3
(g4
g5
(g6
(S'\x07\xe0\x08\x02\x14\x10-\x07a\xa4'
tRp1223
I-1
I1
ttRp1224
sVhttp://livingontheedge.org/images/default-source/Product-Cover-Images/geniusgenerosity_3000x1134.jpg?sfvrsn=2
p1225
g3
(g4
g5
(g6
(S'\x07\xe0\x08\x06\x16\x0e\x00\x05\xbd}'
tRp1226
S'246'
p1227
I1
ttRp1228
sVhttp://joeybonifacio.com/wp-content/uploads/2013/11/JB-Generosity-1280x768.jpg
p1229
g3
(g4
g5
(g6
(S'\x07\xe0\x06\x1e\x13-\n\x05\x19T'
tRp1230
S'37'
p1231
I1
ttRp1232
sVhttps://i.ytimg.com/vi/umkO-qIT3HE/maxresdefault.jpg
p1233
g3
(g4
g5
(g6
(S'\x07\xe0\x06\x1e\x13-\n\x05\x19\x80'
tRp1234
S'163'
p1235
I1
ttRp1236
sVhttp://3.bp.blogspot.com/-SoE0DeyUNEg/URQeZLzrTjI/AAAAAAAABJc/mWswlVzJoeA/s1600/black_peace_symbol.png
p1237
g3
(g4
g5
(g6
(S'\x07\xe0\x05\x1a\x10\x19\x08\x07\xbc\xf8'
tRp1238
S'198'
p1239
I1
ttRp1240
sVhttp://i.huffpost.com/gen/1593950/images/o-HOW-TO-BE-GENEROUS-facebook.jpg
p1241
g3
(g4
g5
(g6
(S'\x07\xe0\x08\x02\x14\x10-\x07a\xfe'
tRp1242
S'90'
p1243
I1
ttRp1244
sVhttp://blog.ring.com/wp-content/uploads/2015/11/gift-sharing.jpg
p1245
g3
(g4
g5
(g6
(S'\x07\xe0\n\x06\x15\x03\x18\x07\x96\x00'
tRp1246
S'219'
p1247
I2
ttRp1248
sVhttp://thecastingdock.com/wp-content/uploads/2011/03/just-bee-generous-1024x520.jpg
p1249
g3
(g4
g5
(g6
(S'\x07\xe0\x07\x07\x10\x038\tb\xe8'
tRp1250
S'230'
p1251
I1
ttRp1252
sVhttp://i.imgur.com/z4eJQUc.jpg?1
p1253
g3
(g4
g5
(g6
(S'\x07\xe0\n\x06\x15\x03\x18\x07\x95\x91'
tRp1254
S'329'
p1255
I1
ttRp1256
sVhttp://quotes.lifehack.org/media/quotes/quote-Max-Irons-kindness-and-a-generous-spirit-go-a-131094_2.png
p1257
g3
(g4
g5
(g6
(S"\x07\xe0\x07\t\x11'!\tK."
tRp1258
S'216'
p1259
I1
ttRp1260
sVhttp://generoushome-care.com/wp-content/uploads/2016/02/GenerousHomeCare.png
p1261
g3
(g4
g5
(g6
(S'\x07\xe0\n\x06\x15\x03\x18\x07\x96\x11'
tRp1262
S'295'
p1263
I1
ttRp1264
sVhttps://i.ytimg.com/vi/VJuMljAim8A/maxresdefault.jpg
p1265
g3
(g4
g5
(g6
(S'\x07\xe0\x06\x1e\x13-\n\x05\x19A'
tRp1266
S'267'
p1267
I1
ttRp1268
sVhttps://todaysfreshmanna.files.wordpress.com/2009/09/79685-rule10_final-conflict-1024x810.jpg
p1269
g3
(g4
g5
(g6
(S'\x07\xe0\x05\x04\x11\x1b&\x0b\xdb\xea'
tRp1270
S'175'
p1271
I1
ttRp1272
sVhttp://onehope.net/wp-content/uploads/2015/11/happy-family-running-on-the-beach-000067164403_Double-1128x576.jpg
p1273
g3
(g4
g5
(g6
(S'\x07\xe0\n\x02\n:5\x0e4\x99'
tRp1274
S'233'
p1275
I2
ttRp1276
sVhttps://www.atheistalliance.org/userdata/regionalreports/2015/11-November/sn-religion.jpg
p1277
g3
(g4
g5
(g6
(S'\x07\xe0\t\x1a\n\x171\x04\xfd)'
tRp1278
I-1
I1
ttRp1279
sVhttps://i.ytimg.com/vi/i5Y6fk61wc4/maxresdefault.jpg
p1280
g3
(g4
g5
(g6
(S'\x07\xe0\x07\x15\x111\x1a\r\x02\x8e'
tRp1281
S'104'
p1282
I2
ttRp1283
sVhttp://static1.squarespace.com/static/5306e0f2e4b023c00ff9e916/t/5524638fe4b0445bac76031f/1428448155056/Ministry+Pass%3A+Live+Generous+%7C+Shane+Harris
p1284
g3
(g4
g5
(g6
(S'\x07\xe0\t\x1a\n\x171\x04\xfdE'
tRp1285
S'316'
p1286
I1
ttRp1287
sVhttp://previews.123rf.com/images/pressmaster/pressmaster1003/pressmaster100300274/6637833-Generous-girl-giving-bottle-of-water-to-the-friend-in-front-of-her-Stock-Photo.jpg
p1288
g3
(g4
g5
(g6
(S'\x07\xe0\x05\x04\x11\x1b&\x0b\xdbf'
tRp1289
S'172'
p1290
I1
ttRp1291
sVhttp://cranestookey.com/wp-content/uploads/2016/01/Your-generosity-will-create-prosperity.jpg
p1292
g3
(g4
g5
(g6
(S'\x07\xe0\x08\x19\t5\x1f\x03\x16\xa6'
tRp1293
S'144'
p1294
I1
ttRp1295
sVhttp://www.generosityfactor.com/resources/GENEROSTY%20FACTOR.jpg
p1296
g3
(g4
g5
(g6
(S'\x07\xdf\x0b\x15\x16\x10 \x01P1'
tRp1297
S'24'
p1298
I2
ttRp1299
sVhttp://i.livescience.com/images/i/000/034/599/i02/shutterstock_60344920.jpg?1355777908
p1300
g3
(g4
g5
(g6
(S'\x07\xe0\x04\x16\x10\x13!\x05\xb5\xd0'
tRp1301
I-1
I1
ttRp1302
sVhttps://cocoandmilk.files.wordpress.com/2016/01/generous.jpg
p1303
g3
(g4
g5
(g6
(S'\x07\xe0\x05\x10\x10\x17\x04\x057\xd2'
tRp1304
S'153'
p1305
I1
ttRp1306
sVhttp://www.abenistales.com/wp/wp-content/uploads/2015/08/bonusy-bukmekerov.jpg
p1307
g3
(g4
g5
(g6
(S'\x07\xdf\x0c\x06\x10\x13\x10\r\x90*'
tRp1308
S'81'
p1309
I1
ttRp1310
sVhttp://static.squarespace.com/static/52d088b9e4b0bbf31d3d26b7/52d9422ce4b06ee02710e9ea/52d95b27e4b06ee027157289/1389976359461/6a00d83452063969e20148c72da95a970c.jpg?format=original
p1311
g3
(g4
g5
(g6
(S'\x07\xe0\x08\t\x01.3\x0c\xb9\xad'
tRp1312
S'202'
p1313
I1
ttRp1314
sVhttp://a.scpr.org/i/0261510a0c59b94b763686b89ac8e00e/75156-full.jpg
p1315
g3
(g4
g5
(g6
(S'\x07\xe0\x08\t\x01.3\x0c\xb9\xdc'
tRp1316
S'244'
p1317
I1
ttRp1318
sVhttp://images.sodahead.com/polls/003485293/5410398558_Giving_11_xlarge.jpeg
p1319
g3
(g4
g5
(g6
(S'\x07\xdf\x0c\n\x10\x08\x15\r\xef\xb8'
tRp1320
S'89'
p1321
I1
ttRp1322
sVhttp://www.stewardshipoflife.org/wordpress/wp-content/uploads/2013/05/generous-hand-gratitude-generosity-346x280.jpg
p1323
g3
(g4
g5
(g6
(S'\x07\xdf\x0c\x12\x10\x0b6\x0c\x8f\xf0'
tRp1324
S'42'
p1325
I1
ttRp1326
sVhttp://www.martyduren.com/wp-content/uploads/2012/04/Generosity2.jpg
p1327
g3
(g4
g5
(g6
(S'\x07\xdf\x0c\n\x10\x08\x15\r\xef\xb0'
tRp1328
S'45'
p1329
I1
ttRp1330
sVhttp://www.habitat.ca/photos/custom/TeamGenerous_MainLogo.jpg
p1331
g3
(g4
g5
(g6
(S'\x07\xe0\x07\x15\x111\x1a\r\x02_'
tRp1332
S'116'
p1333
I2
ttRp1334
sVhttp://courageouschurch.tv/uploads/images/thumb/large/generous-podcast-1.jpg
p1335
g3
(g4
g5
(g6
(S'\x07\xe0\n\x06\x15\x03\x18\x07\x96='
tRp1336
S'215'
p1337
I1
ttRp1338
sVhttp://cdn4.list25.com/wp-content/uploads/2015/06/generous.jpg
p1339
g3
(g4
g5
(g6
(S'\x07\xe0\t\x1a\n\x171\x04\xfc\xa2'
tRp1340
S'70'
p1341
I1
ttRp1342
sVhttp://www.quotehd.com/imagequotes/authors83/russell-johnson-quote-a-dear-sweet-generous-loving-man.jpg
p1343
g3
(g4
g5
(g6
(S'\x07\xe0\x07\x15\x111\x1a\r\x02\xfa'
tRp1344
S'196'
p1345
I1
ttRp1346
sVhttps://lsaruminations.edublogs.org/files/2015/05/generosity-color-pquolh.jpg
p1347
g3
(g4
g5
(g6
(S'\x07\xe0\t\x1a\n\x171\x04\xfc\xb3'
tRp1348
I-1
I1
ttRp1349
sVhttp://www.generouschurch.com/uploads/images/ladder_8_rungs_3.jpg
p1350
g3
(g4
g5
(g6
(S'\x07\xe0\x05\x04\x11\x1b&\x0b\xdb\x89'
tRp1351
S'80'
p1352
I1
ttRp1353
sVhttp://cdn-media-2.lifehack.org/wp-content/files/2015/07/Give-3-380x253.jpg
p1354
g3
(g4
g5
(g6
(S'\x07\xe0\t\x18\n\x0b%\x00\xff6'
tRp1355
S'236'
p1356
I1
ttRp1357
sVhttp://comps.canstockphoto.com/can-stock-photo_csp2778001.jpg
p1358
g3
(g4
g5
(g6
(S'\x07\xdf\x0c\x01\x16!%\x0f \x80'
tRp1359
S'72'
p1360
I1
ttRp1361
sVhttp://static1.squarespace.com/static/5519f46ae4b08a0cc6098097/t/551f7a38e4b019d7121d5952/1428126265070/Raising+Generous+Kids
p1362
g3
(g4
g5
(g6
(S'\x07\xe0\x07\x07\x10\x038\tc\x9f'
tRp1363
S'274'
p1364
I1
ttRp1365
sVhttp://www.marcfey.com/wp-content/uploads/2014/09/generous.jpg
p1366
g3
(g4
g5
(g6
(S'\x07\xdf\x0c\x12\x10\x0b6\x0c\x90u'
tRp1367
S'83'
p1368
I1
ttRp1369
sVhttp://media-azeroth.cursecdn.com/attachments/17/874/634876434310732640.jpg
p1370
g3
(g4
g5
(g6
(S'\x07\xe0\n\x02\n:5\x0e5I'
tRp1371
S'210'
p1372
I1
ttRp1373
sVhttp://i.huffpost.com/gen/911136/images/o-GENEROUS-PROVINCES-facebook.jpg
p1374
g3
(g4
g5
(g6
(S'\x07\xe0\x08\x15\x014\x1e\x0bK&'
tRp1375
S'31'
p1376
I1
ttRp1377
sVhttp://www.jasongarwood.com/wp-content/uploads/2012/11/generous-1024x819.jpg
p1378
g3
(g4
g5
(g6
(S'\x07\xe0\x05\x18\x10\x177\x0c\xceK'
tRp1379
I-1
I1
ttRp1380
sVhttp://www.onbeing.org/sites/default/files/styles/width668/public/5619435641_8329d4e6c5_o.jpg?itok=7YEVpbBr
p1381
g3
(g4
g5
(g6
(S'\x07\xe0\x05\x04\x11\x1b&\x0b\xdb\xda'
tRp1382
S'169'
p1383
I1
ttRp1384
sVhttp://7768-presscdn-0-28.pagely.netdna-cdn.com/wp-content/uploads/2015/11/sn-religion.jpg
p1385
g3
(g4
g5
(g6
(S'\x07\xe0\t\x18\n\x0b%\x00\xff\x7f'
tRp1386
S'182'
p1387
I2
ttRp1388
sVhttps://idisciple.blob.core.windows.net/idm/Fotolia_36816941_Subscription_Monthly_M.png
p1389
g3
(g4
g5
(g6
(S'\x07\xe0\x08\x13\x0138\x02\x98\x0e'
tRp1390
S'298'
p1391
I1
ttRp1392
sVhttp://www.becomingminimalist.com/wp-content/uploads/2013/07/generous-people-see-differently.jpg
p1393
g3
(g4
g5
(g6
(S'\x07\xe0\x08\x19\t5\x1f\x03\x16\xa1'
tRp1394
S'46'
p1395
I1
ttRp1396
sVhttps://c2.staticflickr.com/4/3828/12214872025_3d9505ab9b_b.jpg
p1397
g3
(g4
g5
(g6
(S'\x07\xe0\n\x06\x15\x03\x18\x07\x95V'
tRp1398
S'226'
p1399
I2
ttRp1400
sVhttp://images.clipartpanda.com/generosity-clipart-Picture1.png
p1401
g3
(g4
g5
(g6
(S'\x07\xdf\x0c\x01\x16!%\x0f @'
tRp1402
S'25'
p1403
I1
ttRp1404
sVhttp://www.rockefellernews.com/wp-content/uploads/2013/02/Generosity.jpg
p1405
g3
(g4
g5
(g6
(S'\x07\xdf\x0c\x01\x16!%\x0f T'
tRp1406
S'68'
p1407
I1
ttRp1408
sVhttp://www.transitsm.com/wp-content/uploads/2014/12/Generous-400x400.jpg
p1409
g3
(g4
g5
(g6
(S'\x07\xe0\x08\x15\x014\x1e\x0bJy'
tRp1410
S'53'
p1411
I1
ttRp1412
sVhttps://www.marketingmag.com.au/wp-content/uploads/2016/02/gift-540.jpg
p1413
g3
(g4
g5
(g6
(S'\x07\xe0\x08\x15\x014\x1e\x0bJ|'
tRp1414
S'309'
p1415
I1
ttRp1416
sVhttps://assets.entrepreneur.com/content/3x2/1300/get-ahead-being-generous.jpg
p1417
g3
(g4
g5
(g6
(S'\x07\xe0\x06\x1e\x13-\n\x05\x199'
tRp1418
S'256'
p1419
I1
ttRp1420
sVhttps://i.ytimg.com/vi/rm8o6IGruds/maxresdefault.jpg
p1421
g3
(g4
g5
(g6
(S'\x07\xe0\x08\x02\x14\x10-\x07a\x90'
tRp1422
S'93'
p1423
I1
ttRp1424
sVhttp://www.becomingminimalist.com/wp-content/uploads/2010/03/generosity.jpg
p1425
g3
(g4
g5
(g6
(S'\x07\xdf\x0c\x12\x10\x0b6\x0c\x8f\xce'
tRp1426
S'52'
p1427
I1
ttRp1428
sVhttp://www.formaggiokitchen.com/shop/media/catalog/product/cache/1/image/9df78eab33525d08d6e5fb8d27136e95/G/e/Generous_Speculoos_Cookies_sm_4.jpg
p1429
g3
(g4
g5
(g6
(S'\x07\xe0\n\x06\x15\x03\x18\x07\x95\xd4'
tRp1430
S'271'
p1431
I1
ttRp1432
sVhttp://lepoa.co.ke/wp-content/uploads/2016/01/The-Generous-Life.jpg
p1433
g3
(g4
g5
(g6
(S'\x07\xe0\n\x06\x15\x03\x18\x07\x95\xed'
tRp1434
I-1
I1
ttRp1435
sVhttp://riverrecoverychurch.com/wp-content/uploads/2014/08/Generous.jpg
p1436
g3
(g4
g5
(g6
(S'\x07\xe0\x08\x13\x0138\x02\x98&'
tRp1437
S'149'
p1438
I1
ttRp1439
sVhttp://www.zoompanningeffectslider.com/wordpressplugin_old/images/generousFixedDimensions/02_generous.jpg
p1440
g3
(g4
g5
(g6
(S'\x07\xe0\x05\x04\x11\x1b&\x0b\xdb\x80'
tRp1441
I-1
I1
ttRp1442
sVhttp://valleychristian.codesmprojects.com/wp-content/uploads/2014/12/be-generous.jpg
p1443
g3
(g4
g5
(g6
(S'\x07\xe0\x06\x1e\x13-\n\x05\x19\x11'
tRp1444
S'158'
p1445
I1
ttRp1446
sVhttp://hope4you.tv/hope4you/wp-content/uploads/2014/11/generous-wide.jpg
p1447
g3
(g4
g5
(g6
(S'\x07\xe0\x08\x19\t5\x1f\x03\x166'
tRp1448
S'310'
p1449
I1
ttRp1450
sVhttp://onpurpose.uk.com/wp-content/uploads/2013/06/generosity.jpg
p1451
g3
(g4
g5
(g6
(S'\x07\xdf\x0c\n\x10\x08\x15\r\xef\xee'
tRp1452
S'27'
p1453
I2
ttRp1454
sVhttp://www.allpilgrims.org/wp-content/uploads/2012/10/cg_logo1.jpg
p1455
g3
(g4
g5
(g6
(S'\x07\xe0\x08\x13\x0138\x02\x97\xe8'
tRp1456
S'85'
p1457
I1
ttRp1458
sVhttp://static1.squarespace.com/static/5005b3e5e4b0d377efbf3ab5/5374b5d7e4b000761fd48ec1/5506af7ee4b02d88373137a8/1426593900514/?format=1500w
p1459
g3
(g4
g5
(g6
(S'\x07\xdf\x0c\n\x10\x08\x15\r\xf0\x12'
tRp1460
S'32'
p1461
I1
ttRp1462
sVhttp://www.ami.org.au/imis15/images/Publications/GGG/GGG-promo-pic3.jpg
p1463
g3
(g4
g5
(g6
(S'\x07\xe0\x07\x15\x111\x1a\r\x02\xa4'
tRp1464
S'288'
p1465
I1
ttRp1466
sVhttp://leadnet.org/wp-content/uploads/2014/02/Generosity-image.jpg
p1467
g3
(g4
g5
(g6
(S'\x07\xdf\x0c\x12\x10\x0b6\x0c\x90h'
tRp1468
I-1
I1
ttRp1469
sVhttp://www.formaggiokitchen.com/shop/media/catalog/product/cache/1/image/9df78eab33525d08d6e5fb8d27136e95/G/e/Generous_Chocolate_Cookies_sm-2_4.jpg
p1470
g3
(g4
g5
(g6
(S'\x07\xe0\n\x06\x15\x03\x18\x07\x96\x9e'
tRp1471
S'327'
p1472
I1
ttRp1473
sVhttp://www.stewardshipadvocates.org/wp-content/uploads/generous-life-the_t_nt3.jpg
p1474
g3
(g4
g5
(g6
(S'\x07\xe0\t\x18\n\x0b%\x00\xfe\xe2'
tRp1475
S'18'
p1476
I1
ttRp1477
sVhttps://9marks.org/wp-content/uploads/2010/10/generous-justice.jpg
p1478
g3
(g4
g5
(g6
(S'\x07\xe0\n\x06\x15\x03\x18\x07\x96\x85'
tRp1479
I-1
I1
ttRp1480
sVhttp://d.fastcompany.net/multisite_files/coexist/imagecache/1280/poster/2013/01/1681158-poster-1280-generosity.jpg
p1481
g3
(g4
g5
(g6
(S'\x07\xe0\x06\x1e\x13-\n\x05\x1a-'
tRp1482
S'176'
p1483
I1
ttRp1484
sVhttp://inallfairness.ie/wp-content/uploads/2015/05/get-ahead-being-generous.jpg
p1485
g3
(g4
g5
(g6
(S'\x07\xdf\x0c\x12\x10\x0b6\x0c\x90\xb4'
tRp1486
S'84'
p1487
I1
ttRp1488
s.