(dp1
Vhttp://phoozer.net/wp-content/uploads/2016/02/sweet-good-morning-wallpaper-1.jpg
p2
ccopy_reg
_reconstructor
p3
(cbase.graph_fetch.fetcher
ImageSlot
p4
c__builtin__
tuple
p5
(cdatetime
datetime
p6
(S'\x07\xe0\x08\x0f\x08\x003\x08\xef\x08'
tRp7
S'522'
p8
I1
ttRp9
sVhttp://3.bp.blogspot.com/-6BiKtvhpLqM/VfUm0yqeX3I/AAAAAAAABl0/Q04J9Faang0/s1600/Good%2BMorning%2BImages%2BWith%2BFlowers%2B4.jpg
p10
g3
(g4
g5
(g6
(S'\x07\xe0\x04\x18\x08\x00\x0f\rC\xb2'
tRp11
S'388'
p12
I1
ttRp13
sVhttps://lh4.ggpht.com/awBKg_qnmpD6OhrT2mj6YrLmLzlKjqHO5vv6PyLaDVXXPTgS9b-_peoO18Z050ZKLqM=h900
p14
g3
(g4
g5
(g6
(S'\x07\xe0\x01\x05\x08\x050\x06/\x14'
tRp15
S'177'
p16
I1
ttRp17
sVhttp://static.hdw.eweb4.com/media/wallpapers_dl/1/144/1438995-good-morning.jpg
p18
g3
(g4
g5
(g6
(S'\x07\xe0\x08\x0f\x08\x003\x08\xee`'
tRp19
S'536'
p20
I1
ttRp21
sVhttp://www.desicomments.com/dc3/09/341964/341964.jpg
p22
g3
(g4
g5
(g6
(S'\x07\xe0\x07\x1b\t6/\x0c\x8e\xc0'
tRp23
S'404'
p24
I1
ttRp25
sVhttp://i2.wp.com/blogjob.com/lifeandliving/files/2014/10/Sunflowery-good-morning-1.jpg
p26
g3
(g4
g5
(g6
(S'\x07\xdf\x0c\x14\x08\x022\x03\xda\x8a'
tRp27
S'137'
p28
I1
ttRp29
sVhttp://previews.123rf.com/images/zmiter/zmiter1509/zmiter150900098/44950141-Fried-Egg-vector-illustration-good-morning-concept-breakfast-fried-hen-or-chicken-egg-with-a-orange--Stock-Vector.jpg
p30
g3
(g4
g5
(g6
(S'\x07\xe0\t\x1c\t!\x14\x00\xf4&'
tRp31
S'440'
p32
I1
ttRp33
sVhttp://www.lovethispic.com/uploaded_images/196788-Spiritual.png
p34
g3
(g4
g5
(g6
(S'\x07\xe0\x03\x17\t35\x0e\xd9P'
tRp35
S'390'
p36
I1
ttRp37
sVhttp://cache.lovethispic.com/uploaded_images/209978-Good-Morning-Tuesday.jpg
p38
g3
(g4
g5
(g6
(S'\x07\xe0\x02\x1a\t;\x1b\x05\xefT'
tRp39
S'275'
p40
I1
ttRp41
sVhttp://www.ambwallpapers.com/wp-content/uploads/2016/05/Sweet-Good-Morning-Wallpaper-HD.jpg
p42
g3
(g4
g5
(g6
(S'\x07\xe0\x06\x1d\t1)\x07;7'
tRp43
S'439'
p44
I1
ttRp45
sVhttp://www.lovethispic.com/uploaded_images/122605-Good-Morning-Sunday.jpg
p46
g3
(g4
g5
(g6
(S'\x07\xe0\x02\x12\t\x02#\x06ns'
tRp47
S'308'
p48
I1
ttRp49
sVhttp://www.lovethispic.com/uploaded_images/237474-Good-Morning-Bundle-Up-Its-Cold-Out.jpg
p50
g3
(g4
g5
(g6
(S'\x07\xe0\x04\x03\x08\x02 \x01\xfd\x16'
tRp51
S'323'
p52
I1
ttRp53
sVhttp://www.goodmorningimagesgreetings.com/wp-content/uploads/2015/09/Good-Morning-Tea-Wallpaper-11.jpg
p54
g3
(g4
g5
(g6
(S'\x07\xe0\x08\x1c\x08\x01\x14\n\xa2\x98'
tRp55
S'333'
p56
I1
ttRp57
sVhttp://www.spyderonlines.com/images/wallpapers/good-morning-hd-image/good-morning-hd-image-6.jpg
p58
g3
(g4
g5
(g6
(S'\x07\xe0\x07\x0f\t#\x16\x08\t\x11'
tRp59
S'462'
p60
I1
ttRp61
sVhttp://www.goodmorningquote.com/wp-content/uploads/2014/06/good-morning-quotes-the-minute-you-think-of.jpg?a8abaa
p62
g3
(g4
g5
(g6
(S'\x07\xdf\x0b\x08\x08\x01*\x0ch1'
tRp63
I-1
I1
ttRp64
sVhttp://thumbs.dreamstime.com/z/good-morning-toast-23506720.jpg
p65
g3
(g4
g5
(g6
(S'\x07\xe0\x04\x18\x08\x00\x0f\rDg'
tRp66
S'384'
p67
I1
ttRp68
sVhttp://www.nextimage.in/wp-content/uploads/2014/07/good-morning-sms-for-her-6.jpg
p69
g3
(g4
g5
(g6
(S'\x07\xdf\x0c\x12\x08\x01\x1d\x08\xdf1'
tRp70
S'126'
p71
I1
ttRp72
sVhttp://hdwallpaperstab.com/wp-content/uploads/2015/07/good-morning-and-keep-smiling-11.png
p73
g3
(g4
g5
(g6
(S'\x07\xe0\x01\x05\x08\x050\x06/\x85'
tRp74
S'105'
p75
I1
ttRp76
sVhttps://s-media-cache-ak0.pinimg.com/736x/ac/86/3b/ac863b73d981e88da24d1df73d56ffc1.jpg
p77
g3
(g4
g5
(g6
(S'\x07\xe0\x04\x03\x08\x02 \x01\xfc\xfa'
tRp78
S'346'
p79
I1
ttRp80
sVhttp://e2ua.com/data/wallpapers/103/WDF_1463266.png
p81
g3
(g4
g5
(g6
(S'\x07\xe0\x05\x1b\t.\x00\x02\xdfY'
tRp82
I-1
I1
ttRp83
sVhttp://fabimagepic.com/wp-content/gallery/good-morning/good-morning-with-love.jpg
p84
g3
(g4
g5
(g6
(S'\x07\xe0\x01\x0b\x08\x08\n\tUv'
tRp85
S'211'
p86
I1
ttRp87
sVhttp://goodmorningpics.com/wp-content/uploads/2015/11/Good-Morning-3.jpg
p88
g3
(g4
g5
(g6
(S'\x07\xe0\x08\x0f\x08\x003\x08\xee\xd4'
tRp89
S'91'
p90
I1
ttRp91
sVhttp://www.letuspublish.com/wp-content/uploads/2014/10/900x563xGood-Morning-Coffee-HD-Quotes.jpg.pagespeed.ic.si7d1Cq2qM.jpg
p92
g3
(g4
g5
(g6
(S'\x07\xe0\x04\x0b\x08\x03\x1d\x0cW\r'
tRp93
S'359'
p94
I1
ttRp95
sVhttp://www.lovethispic.com/uploaded_images/164703-Good-Morning-Jesus-Loves-You.jpg
p96
g3
(g4
g5
(g6
(S'\x07\xe0\t\x07\x08\x05\x15\x04d\xaa'
tRp97
S'287'
p98
I1
ttRp99
sVhttp://www.goodmorningimagesquotes.com/wp-content/uploads/2015/11/good-morning-pics-1.jpg
p100
g3
(g4
g5
(g6
(S'\x07\xdf\x0b\x1b\x08\x00\t\x03\xb6 '
tRp101
I-1
I1
ttRp102
sVhttp://alldayquotes.com/wp-content/uploads/2016/05/Download-Good-Morning-Quotes-For-WhatsApp.jpg
p103
g3
(g4
g5
(g6
(S'\x07\xe0\x07\x0f\t#\x16\x08\t<'
tRp104
S'484'
p105
I1
ttRp106
sVhttp://www.goodmorningimagesgreetings.com/wp-content/uploads/2015/08/good_morning_hd_wallpaper.jpg
p107
g3
(g4
g5
(g6
(S'\x07\xe0\x08\x17\t9\x17\x02\xfak'
tRp108
S'169'
p109
I1
ttRp110
sVhttp://www.imgion.com/images/02/Romantic-morning-greetings.jpg
p111
g3
(g4
g5
(g6
(S'\x07\xe0\x05\x19\t!\x06\t:\xe3'
tRp112
S'29'
p113
I1
ttRp114
sVhttp://www.wishgoodmorning.org/wp-content/uploads/2016/03/Good-Morning-Dear-All-wm1919.jpg
p115
g3
(g4
g5
(g6
(S'\x07\xe0\x08\x1c\x08\x01\x14\n\xa2\xdc'
tRp116
S'584'
p117
I1
ttRp118
sVhttp://previews.123rf.com/images/ratoca/ratoca1301/ratoca130100062/17265102-Good-morning-sun-Stock-Vector.jpg
p119
g3
(g4
g5
(g6
(S'\x07\xe0\t\x12\t *\x0b6\xd8'
tRp120
S'48'
p121
I1
ttRp122
sVhttp://cache.lovethispic.com/uploaded_images/234477-Good-Morning-Love-You.jpg
p123
g3
(g4
g5
(g6
(S'\x07\xe0\n\x07\x08\x02"\x0e\xa9\x13'
tRp124
S'658'
p125
I1
ttRp126
sVhttp://3.bp.blogspot.com/-6qMlfJvn9DU/VfUm43fzIZI/AAAAAAAABl8/zC49buh9iWk/s1600/Good%2BMorning%2BImages%2BWith%2BFlowers1.jpg
p127
g3
(g4
g5
(g6
(S'\x07\xe0\n\x04\t7;\x0e\x99\xb6'
tRp128
S'458'
p129
I1
ttRp130
sVhttp://projectsbymandy.com/wp-content/uploads/2013/07/goodmorning-love.jpg
p131
g3
(g4
g5
(g6
(S'\x07\xe0\x04\x0b\x08\x03\x1d\x0cW)'
tRp132
S'531'
p133
I1
ttRp134
sVhttp://www.goodmorning.quotesms.com/images/cute-ways-to-say-good-morning.jpg
p135
g3
(g4
g5
(g6
(S'\x07\xe0\x05\x19\t!\x06\t:$'
tRp136
S'424'
p137
I1
ttRp138
sVhttp://4.bp.blogspot.com/-TfyNpq_gens/VNW6nx1WJaI/AAAAAAAAKQA/zxRK5SXbTO4/s1600/Gud-Morning-SMS.jpg
p139
g3
(g4
g5
(g6
(S'\x07\xe0\t\x1c\t!\x14\x00\xf6\xa1'
tRp140
S'243'
p141
I1
ttRp142
sVhttp://hdwallpapershdpics.com/wp-content/uploads/2015/11/Good-Morning-Hindi-Quotes-Messages-Images-Wallpapers-Photos.jpg
p143
g3
(g4
g5
(g6
(S'\x07\xe0\x07\x15\t$#\x03\x8e\x94'
tRp144
S'480'
p145
I1
ttRp146
sVhttp://i.123g.us/c/gen_morning/pc/115940_pc.jpg
p147
g3
(g4
g5
(g6
(S'\x07\xdf\n\x1e\x08\x01\x18\x0c\xc2J'
tRp148
S'39'
p149
I1
ttRp150
sVhttp://www.lovethispic.com/uploaded_images/67038-Have-A-Sweet-Day-Good-Morning.jpg
p151
g3
(g4
g5
(g6
(S'\x07\xdf\x0c\x1e\x08\x03:\x04\x99{'
tRp152
S'187'
p153
I1
ttRp154
sVhttp://www.conversationsforabetterworld.com/wp-content/uploads/2015/06/Good-Morning-Full-HD-Photos-272.jpg
p155
g3
(g4
g5
(g6
(S'\x07\xe0\x01\x1b\x08\x1a\x06\x07\xc1\xbf'
tRp156
I-1
I1
ttRp157
sVhttp://www.goodmorningx.com/wp-content/uploads/2015/09/good-morning-photos.jpg
p158
g3
(g4
g5
(g6
(S'\x07\xe0\t\x12\t *\x0b74'
tRp159
S'246'
p160
I1
ttRp161
sVhttp://e2ua.com/data/wallpapers/100/WDF_1435223.jpg
p162
g3
(g4
g5
(g6
(S'\x07\xe0\x04\x0b\x08\x03\x1d\x0cW;'
tRp163
I-1
I1
ttRp164
sVhttp://www.toptenpack.com/wp-content/uploads/2015/06/hd-good-morning-desktop-wallpapers.jpg
p165
g3
(g4
g5
(g6
(S'\x07\xe0\x02\x0e\x08:7\r\x9d\xc6'
tRp166
S'296'
p167
I1
ttRp168
sVhttp://media-cache-ec0.pinimg.com/736x/07/d5/7c/07d57c845c3d0ea50d51a5fb29340fef.jpg
p169
g3
(g4
g5
(g6
(S'\x07\xe0\x07\x0f\t#\x16\x08\t\x91'
tRp170
S'551'
p171
I1
ttRp172
sVhttps://s-media-cache-ak0.pinimg.com/736x/d6/69/48/d66948dc4a203791ec850a7878be1a0e.jpg
p173
g3
(g4
g5
(g6
(S'\x07\xe0\x05\x1b\t.\x00\x02\xdf\x9b'
tRp174
S'429'
p175
I1
ttRp176
sVhttp://www.freshmorningquotes.com/wp-content/uploads/2015/10/Good-Morning-Love-Images-with-Flowers-images-14.jpg
p177
g3
(g4
g5
(g6
(S'\x07\xe0\x06\x1d\t1)\x07;\xb4'
tRp178
I-1
I1
ttRp179
sVhttp://www.wallpaperswidefree.com/images/good-morning-enjoy-tea--wide-hd-wallpapers.jpg
p180
g3
(g4
g5
(g6
(S'\x07\xe0\n\x07\x08\x02"\x0e\xaa\xcd'
tRp181
S'662'
p182
I1
ttRp183
sVhttp://www.goodmorningx.com/wp-content/uploads/2015/07/good-morning-image-for-girlfriend.jpg
p184
g3
(g4
g5
(g6
(S'\x07\xe0\x08\x05\x08\x025\x01\x1f['
tRp185
S'537'
p186
I1
ttRp187
sVhttp://4.bp.blogspot.com/-GsMZmZQzoqw/VI6X4H4gvxI/AAAAAAAABqY/YEaPPKjW1oI/s1600/good%2Bmorning%2B2015%2B(10).jpg
p188
g3
(g4
g5
(g6
(S'\x07\xe0\x01\x1b\x08\x1a\x06\x07\xc0\xf4'
tRp189
S'236'
p190
I2
ttRp191
sVhttp://www.spyderonlines.com/images/wallpapers/good-morning-images/good-morning-images-15.jpg
p192
g3
(g4
g5
(g6
(S'\x07\xe0\x07\x0f\t#\x16\x08\x08\xc8'
tRp193
S'464'
p194
I1
ttRp195
sVhttp://cache.lovethispic.com/uploaded_images/195770-Good-Morning-Gorgeous.jpg
p196
g3
(g4
g5
(g6
(S'\x07\xe0\t\x0c\t $\x02\xf28'
tRp197
S'392'
p198
I1
ttRp199
sVhttp://science-all.com/images/wallpapers/good-morning-hd-image/good-morning-hd-image-6.jpg
p200
g3
(g4
g5
(g6
(S"\x07\xe0\x08\x19\t:'\x01\x15\x05"
tRp201
S'502'
p202
I1
ttRp203
sVhttp://www.phaidon.com/resource/tullet-good-morning-game-board-2d-9780714868752.jpg
p204
g3
(g4
g5
(g6
(S'\x07\xe0\x08\x17\t9\x17\x02\xfaf'
tRp205
S'331'
p206
I1
ttRp207
sVhttp://www.padhokhelo.com/wp-content/uploads/2015/11/Good-morning-and-live-healthy-1024x768.jpg
p208
g3
(g4
g5
(g6
(S'\x07\xe0\x06\x1d\t1)\x07:\xc9'
tRp209
S'378'
p210
I1
ttRp211
sVhttp://imagesbug.com/wp-content/uploads/2015/11/Sweet-Good-Morning-with-Coffee-Hd-Wallpaper.jpg
p212
g3
(g4
g5
(g6
(S'\x07\xe0\t\x07\x08\x05\x15\x04e\x88'
tRp213
S'450'
p214
I1
ttRp215
sVhttp://www.goodmorningx.com/wp-content/uploads/2015/07/good-morning-images-for-friends.jpg
p216
g3
(g4
g5
(g6
(S'\x07\xe0\x08\x0f\x08\x003\x08\xee\x98'
tRp217
S'149'
p218
I1
ttRp219
sVhttp://www.makingdifferent.com/wp-content/uploads/2015/07/Sun-rising-good-morning.jpg
p220
g3
(g4
g5
(g6
(S'\x07\xe0\x01\x13\x08\x138\x02-\xe8'
tRp221
S'218'
p222
I2
ttRp223
sVhttp://photozup.com/wp-content/uploads/2015/08/Good-Morning-Images-For-Friends.jpg
p224
g3
(g4
g5
(g6
(S'\x07\xdf\x0c\x14\x08\x022\x03\xda\xbf'
tRp225
I-1
I1
ttRp226
sVhttps://messageshub.com/wp-content/uploads/2016/07/Good-Morning-Puppies.gif
p227
g3
(g4
g5
(g6
(S'\x07\xe0\n\x07\x08\x02"\x0e\xab@'
tRp228
I-1
I1
ttRp229
sVhttp://www.goodmorningx.com/wp-content/uploads/2015/04/1370233777_cup-of-coffee-happy-good-morning-wallpaper1.jpg
p230
g3
(g4
g5
(g6
(S'\x07\xe0\x08\x0f\x08\x003\x08\xeep'
tRp231
S'164'
p232
I1
ttRp233
sVhttp://www.wishgoodmorning.com/wp-content/uploads/2016/06/Good-Morning-Sister.jpg
p234
g3
(g4
g5
(g6
(S'\x07\xe0\t\x1c\t!\x14\x00\xf5g'
tRp235
S'597'
p236
I1
ttRp237
sVhttps://s-media-cache-ak0.pinimg.com/originals/2f/29/63/2f296336d57759f60ebf466eeafe2371.jpg
p238
g3
(g4
g5
(g6
(S'\x07\xe0\x02\x12\t\x02#\x06p\x03'
tRp239
S'307'
p240
I1
ttRp241
sVhttp://www.saraharonson.com/blog/wp-content/uploads/2015/11/good-morning-beautiful-people.png
p242
g3
(g4
g5
(g6
(S'\x07\xdf\x0c\x1e\x08\x03:\x04\x99\x11'
tRp243
I-1
I1
ttRp244
sVhttp://media1.santabanta.com/full1/Miscellaneous/Good%20Morning/good-morning-50a.jpg
p245
g3
(g4
g5
(g6
(S'\x07\xe0\x01\x1b\x08\x1a\x06\x07\xbf\xfe'
tRp246
S'238'
p247
I1
ttRp248
sVhttp://www.lovethispic.com/uploaded_images/198081-Good-Morning-Let-s-Get-The-Day-Started.jpg
p249
g3
(g4
g5
(g6
(S'\x07\xe0\t\x0c\t $\x02\xf2\xcf'
tRp250
S'86'
p251
I1
ttRp252
sVhttp://www.whatsappstatus2.com/wp-content/uploads/2015/09/good-morning.jpg
p253
g3
(g4
g5
(g6
(S'\x07\xdf\x0c\x12\x08\x01\x1d\x08\xdf)'
tRp254
S'117'
p255
I1
ttRp256
sVhttp://www.imgion.com/images/02/Sending-morning-wishes-to-make-a-nice-day.jpg
p257
g3
(g4
g5
(g6
(S'\x07\xe0\x01\x05\x08\x050\x06/q'
tRp258
S'10'
p259
I1
ttRp260
sVhttp://imagesleloimages.com/wp-content/uploads/2015/12/good-morning-hd-image.jpg
p261
g3
(g4
g5
(g6
(S'\x07\xe0\x08\x1c\x08\x01\x14\n\xa2\xa4'
tRp262
S'530'
p263
I1
ttRp264
sVhttp://www.searchyourchoice.com/wp-content/uploads/2016/03/Good-Morning-Have-a-Nice-Day-with-Lord-Ganesha.jpg
p265
g3
(g4
g5
(g6
(S'\x07\xe0\x07\x15\t$#\x03\x8d\xf5'
tRp266
S'377'
p267
I1
ttRp268
sVhttp://pic.1fotonin.com/data/wallpapers/115/WDF_1581198.jpg
p269
g3
(g4
g5
(g6
(S'\x07\xe0\x05\x08\x08\x00\x0b\x05\xe9A'
tRp270
I-1
I1
ttRp271
sVhttp://www.goodlightscraps.com/content/good-morning/good-morning-16.gif
p272
g3
(g4
g5
(g6
(S'\x07\xe0\x02\x04\x0837\x0e\xd4O'
tRp273
S'16'
p274
I1
ttRp275
sVhttp://www.ecards4ever.com/uploads/GoodMorning_Lg31.jpg
p276
g3
(g4
g5
(g6
(S'\x07\xe0\x02\x06\x085\x17\t\xfe\xf9'
tRp277
S'252'
p278
I1
ttRp279
sVhttp://www.whatsapp99.com/wp-content/uploads/2014/08/Have-a-yummy-good-morning.jpg
p280
g3
(g4
g5
(g6
(S'\x07\xe0\x01\x0b\x08\x08\n\tUi'
tRp281
S'165'
p282
I1
ttRp283
sVhttp://www.searchyourchoice.com/wp-content/uploads/2016/01/073.jpg
p284
g3
(g4
g5
(g6
(S'\x07\xe0\x03\x0e\x08\x00.\x07\xe1\x80'
tRp285
I-1
I1
ttRp286
sVhttp://4.bp.blogspot.com/-_ssFgbk7S3w/VhMtsn0gaWI/AAAAAAAACQA/ovgYU9gP9Jw/s1600/Good%2BMorning%2BSon.jpg
p287
g3
(g4
g5
(g6
(S'\x07\xe0\x07\x15\t$#\x03\x8eN'
tRp288
S'446'
p289
I1
ttRp290
sVhttp://www.zemwallpapers.com/wp-content/uploads/2015/07/Good-Morning-Wallpaper-8.jpg
p291
g3
(g4
g5
(g6
(S'\x07\xe0\x02\x1a\t;\x1b\x05\xef\xa7'
tRp292
S'263'
p293
I1
ttRp294
sVhttps://f4.bcbits.com/img/0006107714_10.jpg
p295
g3
(g4
g5
(g6
(S'\x07\xe0\x06\x17\t7\x08\x068\xf1'
tRp296
S'442'
p297
I1
ttRp298
sVhttps://4.bp.blogspot.com/-TCw_PAB5WsM/VuOVJKvkVTI/AAAAAAAAHFE/-5Ubx3S2Xw8fpXPwydKJ6Ykd_1c2UYuRQ/s1600/Best%2BGood%2Bmorning%2BGreetings%2BHindi%2Bshayari.JPG
p299
g3
(g4
g5
(g6
(S'\x07\xe0\t\x16\t 6\x04\x97\xbc'
tRp300
S'618'
p301
I1
ttRp302
sVhttp://freepicsimg.com/wp-content/uploads/2015/12/Goodmorning-Goodmorning-Wallpapers-5.jpg
p303
g3
(g4
g5
(g6
(S'\x07\xe0\x01\x05\x08\x050\x06/\xaa'
tRp304
I-1
I1
ttRp305
sVhttp://e2ua.com/data/wallpapers/115/WDF_1581280.jpg
p306
g3
(g4
g5
(g6
(S'\x07\xe0\x05\x15\x08\x01\x1e\x05\xdei'
tRp307
I-1
I1
ttRp308
sVhttp://www.imgion.com/images/02/Wonderful-white-green-flowers-for-morning-greetings.jpg
p309
g3
(g4
g5
(g6
(S'\x07\xe0\x01\x1b\x08\x1a\x06\x07\xc0\xcb'
tRp310
S'202'
p311
I1
ttRp312
sVhttp://freepicsimg.com/wp-content/uploads/2015/12/Goodmorning-Dear-3.jpg
p313
g3
(g4
g5
(g6
(S'\x07\xdf\x0c\x1e\x08\x03:\x04\x99R'
tRp314
I-1
I1
ttRp315
sVhttp://science-all.com/images/wallpapers/good-morning-pic/good-morning-pic-17.jpg
p316
g3
(g4
g5
(g6
(S'\x07\xe0\t\x0c\t $\x02\xf3\x07'
tRp317
S'611'
p318
I1
ttRp319
sVhttp://www.lovethispic.com/uploaded_images/232143-Good-Morning-Today-Is-A-New-Day-Full-Of-Endless-Possibilities.jpg
p320
g3
(g4
g5
(g6
(S'\x07\xe0\n\x07\x08\x02"\x0e\xaa\x0f'
tRp321
S'271'
p322
I1
ttRp323
sVhttp://www.freshmorningquotes.com/wp-content/uploads/2015/10/sending-you-some-morning-love.jpg
p324
g3
(g4
g5
(g6
(S'\x07\xe0\n\x07\x08\x02"\x0e\xaa*'
tRp325
I-1
I1
ttRp326
sVhttp://www.allgraphics123.com/wp-content/uploads/2015/06/Have-A-Nice-Day.jpg
p327
g3
(g4
g5
(g6
(S'\x07\xdf\x0c\x18\x08\x03\t\x04b\xf6'
tRp328
S'168'
p329
I1
ttRp330
sVhttp://www.commentsyard.com/wp-content/uploads/2016/03/Good-Morning-It-Has-A-Silent-Message-cy108.jpg
p331
g3
(g4
g5
(g6
(S'\x07\xe0\x05\x1b\t.\x00\x02\xdf\xb1'
tRp332
S'416'
p333
I1
ttRp334
sVhttp://www.goodmorningquote.com/wp-content/uploads/2014/06/motivational-good-morning-quotes-when-you-start-each-day-with-a-grateful-heart.jpg?a8abaa
p335
g3
(g4
g5
(g6
(S'\x07\xdf\x0b\x08\x08\x01*\x0ch\x8a'
tRp336
I-1
I1
ttRp337
sVhttps://s-media-cache-ak0.pinimg.com/originals/0c/07/e9/0c07e9d155458e0e687870cdad001869.png
p338
g3
(g4
g5
(g6
(S'\x07\xe0\x02\x0e\x08:7\r\x9e_'
tRp339
S'283'
p340
I1
ttRp341
sVhttp://www.wallpapersandbackground.com/images/good-morning-100-new--wallpapers-and-backgrounds.jpg
p342
g3
(g4
g5
(g6
(S'\x07\xe0\t\x1c\t!\x14\x00\xf6\x08'
tRp343
S'589'
p344
I1
ttRp345
sVhttps://s-media-cache-ak0.pinimg.com/736x/8d/5e/b2/8d5eb247ba6c319e840b8b26f000b4c5.jpg
p346
g3
(g4
g5
(g6
(S'\x07\xe0\x07\x1b\t6/\x0c\x8e\xf0'
tRp347
S'354'
p348
I1
ttRp349
sVhttp://www.mofasalkhabar.com/wp-content/uploads/2015/12/good-morning-25216-1920x1200.jpg
p350
g3
(g4
g5
(g6
(S'\x07\xdf\x0c\x1c\x08\x03+\x02\xb2\xe2'
tRp351
I-1
I1
ttRp352
sVhttps://i.ytimg.com/vi/TFVjU-dsIM8/maxresdefault.jpg
p353
g3
(g4
g5
(g6
(S'\x07\xe0\t\x1c\t!\x14\x00\xf7\xc5'
tRp354
S'216'
p355
I2
ttRp356
sVhttp://cache.lovethispic.com/uploaded_images/230014-Good-Morning-Spread-The-Love.jpg
p357
g3
(g4
g5
(g6
(S'\x07\xe0\x02\x06\x085\x17\t\xfe~'
tRp358
S'249'
p359
I1
ttRp360
sVhttp://www.lovethispic.com/uploaded_images/231755-Cute-Good-Morning-Happy-Saturday-Cats.jpg
p361
g3
(g4
g5
(g6
(S'\x07\xe0\x02\x04\x0837\x0e\xd4\xb6'
tRp362
S'265'
p363
I1
ttRp364
sVhttp://www.wallpapersandbackground.com/images/good-morning-enjoy-tea--wallpapers-and-backgrounds.jpg
p365
g3
(g4
g5
(g6
(S'\x07\xe0\x08\x17\t9\x17\x02\xfa\xff'
tRp366
S'525'
p367
I1
ttRp368
sVhttps://wishaf-graphics.s3.amazonaws.com/goodmorning/4271-good-morning-quotes.jpg
p369
g3
(g4
g5
(g6
(S'\x07\xe0\x02\x06\x085\x17\t\xfe\x88'
tRp370
S'67'
p371
I1
ttRp372
sVhttp://science-all.com/images/wallpapers/morning-images/morning-images-10.jpg
p373
g3
(g4
g5
(g6
(S'\x07\xe0\x05\x19\t!\x06\t;\x18'
tRp374
S'492'
p375
I1
ttRp376
sVhttp://www.goodmorning.quotesms.com/images/good-morning-inspirational-quotes.jpg
p377
g3
(g4
g5
(g6
(S'\x07\xe0\x05\x19\t!\x06\t;M'
tRp378
S'481'
p379
I1
ttRp380
sVhttp://phoozer.net/wp-content/uploads/2015/03/free-good-morning-images-for-whatsapp.jpg
p381
g3
(g4
g5
(g6
(S'\x07\xe0\x05\x15\x08\x01\x1e\x05\xde\xb8'
tRp382
S'406'
p383
I1
ttRp384
sVhttp://www.goodmorningx.com/wp-content/uploads/2015/07/good-morning-pictures-for-friends.jpg
p385
g3
(g4
g5
(g6
(S'\x07\xdf\x0b\x1b\x08\x00\t\x03\xb6d'
tRp386
S'71'
p387
I1
ttRp388
sVhttp://www.10ism.com/wp-content/uploads/2015/12/Good-Morning-My-Lovely-Friends.jpg
p389
g3
(g4
g5
(g6
(S'\x07\xe0\n\x04\t7;\x0e\x99\xde'
tRp390
NI1
ttRp391
sVhttp://clipartix.com/wp-content/uploads/2016/05/Good-morning-smiley-face-clipart.jpeg
p392
g3
(g4
g5
(g6
(S'\x07\xe0\t\x0c\t $\x02\xf3\x86'
tRp393
S'592'
p394
I1
ttRp395
sVhttp://i.kinja-img.com/gawker-media/image/upload/kwasznuydboq7k875eti.jpg
p396
g3
(g4
g5
(g6
(S'\x07\xe0\x03\x02\t/\x07\x05~\xe7'
tRp397
S'17'
p398
I2
ttRp399
sVhttp://www.superhdfx.com/wp-content/uploads/2016/05/Good-Morning-Friend-Wallpaper.jpg
p400
g3
(g4
g5
(g6
(S'\x07\xe0\x08\x05\x08\x025\x01\x1fl'
tRp401
S'542'
p402
I1
ttRp403
sVhttp://media1.santabanta.com/full1/Miscellaneous/Good%20Morning/good-morning-41a.jpg
p404
g3
(g4
g5
(g6
(S'\x07\xe0\t\x16\t 6\x04\x99H'
tRp405
S'34'
p406
I1
ttRp407
sVhttp://science-all.com/images/wallpapers/good-morning-hd-image/good-morning-hd-image-11.jpg
p408
g3
(g4
g5
(g6
(S"\x07\xe0\x08\x19\t:'\x01\x15v"
tRp409
S'594'
p410
I1
ttRp411
sVhttp://www.commentsyard.com/wp-content/uploads/2015/04/Good-Morning-Friends.jpg
p412
g3
(g4
g5
(g6
(S'\x07\xe0\x05\x10\t\x05\x19\tU\x9d'
tRp413
S'398'
p414
I1
ttRp415
sVhttp://quotesideas.com/wp-content/uploads/2015/05/Good-morning-sweetheart-quote.jpg
p416
g3
(g4
g5
(g6
(S'\x07\xe0\x07\x0f\t#\x16\x08\x08\xcc'
tRp417
I-1
I1
ttRp418
sVhttp://www.goodmorningx.com/wp-content/uploads/2015/09/lovely-good-morning.jpg
p419
g3
(g4
g5
(g6
(S'\x07\xe0\t\x16\t 6\x04\x978'
tRp420
S'95'
p421
I1
ttRp422
sVhttp://3.bp.blogspot.com/-Gn-Ck284S9M/VWYFJJKJ9NI/AAAAAAAAA0s/5KFKBKeECRI/s400/Good-Morning-272.jpg
p423
g3
(g4
g5
(g6
(S"\x07\xe0\x02\x0c\x086'\r\xfdp"
tRp424
S'63'
p425
I1
ttRp426
sVhttp://funnyfamilywallpaper.com/wp-content/uploads/2015/08/wallpaper-good-morning-wallpapers-big-size.jpg
p427
g3
(g4
g5
(g6
(S'\x07\xdf\x0b\x0c\x08\x018\x0e\xbc\xa6'
tRp428
S'66'
p429
I1
ttRp430
sVhttp://urbanimagemagazine.com/wp-content/uploads/2015/07/good-morning79.jpg
p431
g3
(g4
g5
(g6
(S'\x07\xdf\x0b\x10\x08\x03\x1a\x07\x85\xf4'
tRp432
S'54'
p433
I1
ttRp434
sVhttp://www.lovethispic.com/uploaded_images/168662-Good-Morning-My-Lovely-Friends.jpg
p435
g3
(g4
g5
(g6
(S'\x07\xe0\x05\x1b\t.\x00\x02\xde\xde'
tRp436
S'183'
p437
I1
ttRp438
sVhttp://www.goodmorningx.com/wp-content/uploads/2015/09/good-morning-picture.jpg
p439
g3
(g4
g5
(g6
(S'\x07\xe0\x08\x17\t9\x17\x02\xfa{'
tRp440
S'524'
p441
I1
ttRp442
sVhttp://media1.santabanta.com/full1/Miscellaneous/Good%20Morning/good-morning-56a.jpg
p443
g3
(g4
g5
(g6
(S'\x07\xe0\n\x04\t7;\x0e\x99\x19'
tRp444
S'572'
p445
I1
ttRp446
sVhttp://www.wishafriend.com/goodmorning/uploads/9599-good-morning-greetings.jpg
p447
g3
(g4
g5
(g6
(S'\x07\xe0\n\x07\x08\x02"\x0e\xa8\xfa'
tRp448
S'637'
p449
I1
ttRp450
sVhttp://mylovestatus.com/wp-content/uploads/2015/09/good-morning-status.jpg
p451
g3
(g4
g5
(g6
(S'\x07\xdf\x0b\x14\x08\x03&\x06\xecF'
tRp452
S'81'
p453
I1
ttRp454
sVhttp://e2ua.com/data/wallpapers/60/WDF_1057959.jpg
p455
g3
(g4
g5
(g6
(S'\x07\xe0\x04\x18\x08\x00\x0f\rD\xb4'
tRp456
I-1
I1
ttRp457
sVhttp://zellox.com/wp-content/uploads/2016/02/good-morning-images-for-whatsapp.jpg
p458
g3
(g4
g5
(g6
(S'\x07\xe0\x04\x18\x08\x00\x0f\rC\xb7'
tRp459
S'466'
p460
I1
ttRp461
sVhttp://i1.wp.com/www.alltechguide.net/wp-content/uploads/2015/04/good-morning-images-for-whatsapp.jpg?resize=500%2C680
p462
g3
(g4
g5
(g6
(S'\x07\xe0\x05\x1b\t.\x00\x02\xdf\x1b'
tRp463
S'413'
p464
I1
ttRp465
sVhttp://www.hippoquotes.com/img/good-morning-funny-quotes-in-hindi/Good-Morning-quotes-hindi.jpg
p466
g3
(g4
g5
(g6
(S'\x07\xe0\x04\x03\x08\x02 \x01\xfd\xc6'
tRp467
I-1
I1
ttRp468
sVhttps://i.ytimg.com/vi/ITBhZ7yGztw/hqdefault.jpg
p469
g3
(g4
g5
(g6
(S'\x07\xe0\x05\x1b\t.\x00\x02\xe0{'
tRp470
I-1
I1
ttRp471
sVhttp://greetings-day.com/wp-content/uploads/2015/07/good-morning_9.jpg
p472
g3
(g4
g5
(g6
(S'\x07\xe0\x04\x03\x08\x02 \x01\xfd\t'
tRp473
I-1
I1
ttRp474
sVhttp://www.mrwallpaper.com/wallpapers/good-morning-assassins-failed.jpg
p475
g3
(g4
g5
(g6
(S'\x07\xdf\x0c\x18\x08\x03\t\x04b\xaf'
tRp476
S'156'
p477
I1
ttRp478
sVhttp://www.punjabigraphics.com/images/126/Good-Morning-Coffee-Cup-And-Heart-Wallpaper-Image.jpg
p479
g3
(g4
g5
(g6
(S'\x07\xe0\t\x12\t *\x0b6-'
tRp480
S'449'
p481
I1
ttRp482
sVhttp://www.goodmorningx.com/wp-content/uploads/2015/04/64b7e0bbae20e1030111a6319b4d77e5.jpg
p483
g3
(g4
g5
(g6
(S'\x07\xe0\x07\x0f\t#\x16\x08\t\x0b'
tRp484
S'487'
p485
I1
ttRp486
sVhttp://www.hdwallpapersbee.com/wp-content/uploads/2014/05/good-morning.jpg
p487
g3
(g4
g5
(g6
(S'\x07\xe0\x01\x0b\x08\x08\n\tU\xdd'
tRp488
I-1
I1
ttRp489
sVhttp://www.imghans.com/wp-content/uploads/2015/05/Lovely-Good-Morning.jpg
p490
g3
(g4
g5
(g6
(S'\x07\xe0\x04\x03\x08\x02 \x01\xfd:'
tRp491
S'286'
p492
I1
ttRp493
sVhttp://kurld.com/images/wallpapers/good-morning-image/good-morning-image-15.jpg
p494
g3
(g4
g5
(g6
(S'\x07\xe0\n\x07\x08\x02"\x0e\xaa\xb1'
tRp495
S'648'
p496
I1
ttRp497
sVhttps://wishaf-graphics.s3.amazonaws.com/goodmorning/8341-good-morning-poems-for-her.jpg
p498
g3
(g4
g5
(g6
(S'\x07\xe0\x02\x06\x085\x17\t\xfd\xaa'
tRp499
S'262'
p500
I1
ttRp501
sVhttp://quotesstack.com/wp-content/uploads/2014/03/Good-Morning-Sweet-Wishes-Photos-53.jpg
p502
g3
(g4
g5
(g6
(S'\x07\xe0\x04\x03\x08\x02 \x01\xfdQ'
tRp503
S'360'
p504
I1
ttRp505
sVhttp://www.lovethispic.com/uploaded_images/77365-Have-A-Good-Morning.gif
p506
g3
(g4
g5
(g6
(S'\x07\xe0\x02\x06\x085\x17\t\xfe\x92'
tRp507
S'47'
p508
I1
ttRp509
sVhttp://goodmorningquotes.in/wp-content/uploads/2015/02/Best-Wishes-for-Good-Morning.jpg
p510
g3
(g4
g5
(g6
(S'\x07\xdf\n\x1f\x08\x01\x1e\x0b\r\xbc'
tRp511
I-1
I1
ttRp512
sVhttp://wallmanage.com/wp-content/uploads/2015/10/good-morning-hd-picture.jpg
p513
g3
(g4
g5
(g6
(S'\x07\xe0\x01\x17\x08\x14\x07\x02M~'
tRp514
I-1
I1
ttRp515
sVhttp://www.lovethispic.com/uploaded_images/245549-Good-Morning-Coffee-For-You.jpg
p516
g3
(g4
g5
(g6
(S'\x07\xe0\t\x0c\t $\x02\xf3L'
tRp517
S'500'
p518
I1
ttRp519
sVhttp://www.bestworldwallpapershd.com/wp-content/uploads/2015/10/good-morning-wallpapers-with-coffee-7.jpg
p520
g3
(g4
g5
(g6
(S'\x07\xe0\x01\x17\x08\x14\x07\x02M\x8a'
tRp521
I-1
I1
ttRp522
sVhttp://www.pixelstalk.net/wp-content/uploads/2016/05/Cute-Good-Morning-Wallpapers.jpg
p523
g3
(g4
g5
(g6
(S'\x07\xe0\n\x07\x08\x02"\x0e\xaa!'
tRp524
I-1
I1
ttRp525
sVhttp://wallpapercave.com/wp/raKIB5A.jpg
p526
g3
(g4
g5
(g6
(S'\x07\xdf\x0c\x18\x08\x03\t\x04c\x06'
tRp527
S'115'
p528
I1
ttRp529
sVhttp://www.goodmorningquote.com/wp-content/uploads/2014/06/good-morning-quotes-the-minute-you-think-of.jpg?1283de
p530
g3
(g4
g5
(g6
(S'\x07\xe0\x01\x05\x08\x050\x06/g'
tRp531
I-1
I1
ttRp532
sVhttp://www.commentsyard.com/wp-content/uploads/2015/06/Nice-Good-Morning-Friends.jpg
p533
g3
(g4
g5
(g6
(S'\x07\xdf\x0c\x18\x08\x03\t\x04b\xb4'
tRp534
S'154'
p535
I1
ttRp536
sVhttp://www.cnmuqi.com/data/out/60/good-morning-wallpaper-7705108.jpg
p537
g3
(g4
g5
(g6
(S'\x07\xe0\x08\x1c\x08\x01\x14\n\xa2\xf5'
tRp538
I-1
I1
ttRp539
sVhttp://www.imgion.com/images/02/Good-morning-a-cup-of-coffee.jpg
p540
g3
(g4
g5
(g6
(S'\x07\xe0\x03\x02\t/\x07\x05~\xc1'
tRp541
S'373'
p542
I1
ttRp543
sVhttp://media1.santabanta.com/full1/Miscellaneous/Good%20Morning/good-morning-46a.jpg
p544
g3
(g4
g5
(g6
(S'\x07\xdf\x0b\x14\x08\x03&\x06\xec\xe4'
tRp545
S'59'
p546
I1
ttRp547
sVhttp://www.mofasalkhabar.com/wp-content/uploads/2015/12/good-morning-21o22.jpg
p548
g3
(g4
g5
(g6
(S"\x07\xdf\x0c\x18\x08\x03\t\x04c'"
tRp549
I-1
I1
ttRp550
sVhttp://kurld.com/images/wallpapers/good-morning-wallpaper/good-morning-wallpaper-16.jpg
p551
g3
(g4
g5
(g6
(S'\x07\xe0\t\x16\t 6\x04\x97\xe0'
tRp552
S'627'
p553
I1
ttRp554
sVhttp://www.lovethispic.com/uploaded_images/166323-Good-Morning-Coffe-And-Chocolate.jpg
p555
g3
(g4
g5
(g6
(S'\x07\xe0\x07\x0f\t#\x16\x08\tq'
tRp556
S'278'
p557
I1
ttRp558
sVhttps://image.freepik.com/free-vector/good-morning-label-vector_23-2147497621.jpg
p559
g3
(g4
g5
(g6
(S'\x07\xe0\n\x07\x08\x02"\x0e\xaa\xa5'
tRp560
S'638'
p561
I1
ttRp562
sVhttp://pic.1fotonin.com/data/wallpapers/60/WDF_1058063.jpg
p563
g3
(g4
g5
(g6
(S'\x07\xe0\x05\x08\x08\x00\x0b\x05\xe9\xb0'
tRp564
S'393'
p565
I1
ttRp566
sVhttp://science-all.com/images/good-morning-clipart/good-morning-clipart-14.jpg
p567
g3
(g4
g5
(g6
(S'\x07\xe0\x04\x11\t95\x06\x8f\x87'
tRp568
S'383'
p569
I1
ttRp570
sVhttp://www.technewsonline.in/wp-content/uploads/2016/05/good-morning-whatsapp-image-1024x913.jpg
p571
g3
(g4
g5
(g6
(S'\x07\xe0\t\x1c\t!\x14\x00\xf8\x19'
tRp572
I-1
I1
ttRp573
sVhttp://lemerg.com/data/wallpapers/20/918138.jpg
p574
g3
(g4
g5
(g6
(S'\x07\xe0\x02\x12\t\x02#\x06p\x7f'
tRp575
I-1
I1
ttRp576
sVhttp://www.whatsappstatus100.com/wp-content/uploads/2015/11/nice-good-morning-quotes-with-picture.jpg
p577
g3
(g4
g5
(g6
(S'\x07\xdf\x0c\x18\x08\x03\t\x04cH'
tRp578
I-1
I1
ttRp579
sVhttp://www.desicomments.com/dc3/08/295004/295004.jpg
p580
g3
(g4
g5
(g6
(S'\x07\xe0\x03\x07\x08\x00 \x07oH'
tRp581
S'181'
p582
I1
ttRp583
sVhttp://www.desicomments.com/dc3/09/342069/342069.jpg
p584
g3
(g4
g5
(g6
(S'\x07\xe0\x05\x15\x08\x01\x1e\x05\xde\xd6'
tRp585
S'408'
p586
I1
ttRp587
sVhttp://desktopwallpapershd.in/wp-content/uploads/2016/04/Coffee-Cup-Good-Morning.jpg
p588
g3
(g4
g5
(g6
(S'\x07\xe0\x08\x17\t9\x17\x02\xfb:'
tRp589
S'514'
p590
I1
ttRp591
sVhttp://www.goodmorningquote.com/wp-content/uploads/2014/06/good-morning-inspirational-quotes-life-is-like-a-mirror.jpg?93df17
p592
g3
(g4
g5
(g6
(S'\x07\xdf\x0b\x1b\x08\x00\t\x03\xb6\x82'
tRp593
I-1
I1
ttRp594
sVhttp://www.goodmorningquote.com/wp-content/uploads/2014/06/motivational-good-morning-quotes-when-you-start-each-day-with-a-grateful-heart.jpg?2d7d09
p595
g3
(g4
g5
(g6
(S'\x07\xdf\x0b\x17\x08\x03+\x08\xcd\xd6'
tRp596
I-1
I1
ttRp597
sVhttp://fundilse.sanyamjain.in/wp-content/uploads/2014/02/Good-Morning-wishes-images.jpg
p598
g3
(g4
g5
(g6
(S'\x07\xe0\x06\x1d\t1)\x07:\xfc'
tRp599
S'567'
p600
I1
ttRp601
sVhttps://s-media-cache-ak0.pinimg.com/736x/2f/29/63/2f296336d57759f60ebf466eeafe2371.jpg
p602
g3
(g4
g5
(g6
(S"\x07\xe0\x08\x19\t:'\x01\x14\x9c"
tRp603
S'104'
p604
I1
ttRp605
sVhttp://www.letuspublish.com/wp-content/uploads/2014/10/Good-Morning-Have-a-Nice-Day-with-Coffee-Hd-Wallpaper.jpg
p606
g3
(g4
g5
(g6
(S'\x07\xe0\x01\x13\x08\x138\x02-\xd5'
tRp607
I-1
I1
ttRp608
sVhttps://s-media-cache-ak0.pinimg.com/originals/1d/4a/88/1d4a882afa72c5f405a7bdee2a1f6cfe.png
p609
g3
(g4
g5
(g6
(S'\x07\xe0\x02\x0e\x08:7\r\x9e\x86'
tRp610
S'314'
p611
I1
ttRp612
sVhttp://getlatestwallpapers.com/wp-content/uploads/2013/09/Good-Morning-Free-wallpaper1.jpg
p613
g3
(g4
g5
(g6
(S'\x07\xdf\x0c\x14\x08\x022\x03\xdbp'
tRp614
S'151'
p615
I1
ttRp616
sVhttp://www.allbesttricks.com/wp-content/uploads/2016/01/good-morning-image-4.jpg
p617
g3
(g4
g5
(g6
(S'\x07\xe0\x03\x04\t3;\x03\xfe\xbf'
tRp618
I-1
I1
ttRp619
sVhttp://7-themes.com/data_images/out/46/6926556-good-morning-love-wallpaper.jpg
p620
g3
(g4
g5
(g6
(S'\x07\xe0\x08\x01\x08\x02"\t&\xb3'
tRp621
I-1
I1
ttRp622
sVhttp://phoozer.com/wp-content/uploads/2015/03/free-good-morning-images-for-whatsapp.jpg
p623
g3
(g4
g5
(g6
(S'\x07\xe0\x02\x06\x085\x17\t\xfd8'
tRp624
I-1
I1
ttRp625
sVhttp://i.123g.us/c/gen_morning/card/319585.gif
p626
g3
(g4
g5
(g6
(S'\x07\xe0\n\x07\x08\x02"\x0e\xa9_'
tRp627
S'659'
p628
I1
ttRp629
sVhttp://media1.santabanta.com/full1/Miscellaneous/Good%20Morning/good-morning-17a.jpg
p630
g3
(g4
g5
(g6
(S'\x07\xe0\t\x1c\t!\x14\x00\xf5\xbb'
tRp631
S'33'
p632
I1
ttRp633
sVhttp://www.goodmorningx.com/wp-content/uploads/2015/04/good_morning_hd_wallpaper1.jpg
p634
g3
(g4
g5
(g6
(S'\x07\xe0\x01\x1b\x08\x1a\x06\x07\xc01'
tRp635
S'229'
p636
I1
ttRp637
sVhttp://girliegirlarmy.com/wp-content/uploads/2016/04/How-To-Have-A-Good-Morning-Every-Day.jpg
p638
g3
(g4
g5
(g6
(S'\x07\xe0\x08\x17\t9\x17\x02\xfax'
tRp639
S'539'
p640
I1
ttRp641
sVhttp://www.lovethispic.com/uploaded_images/232452-Good-Morning-Have-A-Beautiful-Blessed-Day.jpg
p642
g3
(g4
g5
(g6
(S'\x07\xe0\x05\x1b\t.\x00\x02\xdfC'
tRp643
S'336'
p644
I1
ttRp645
sVhttp://www.conversationsforabetterworld.com/wp-content/uploads/2015/08/img_1431691826_894.jpg
p646
g3
(g4
g5
(g6
(S'\x07\xe0\x01\x1b\x08\x1a\x06\x07\xc1\xa3'
tRp647
I-1
I1
ttRp648
sVhttp://www.hdwallpapers-3d.com/wp-content/uploads/2014/06/good-morning-pictures-hd-wallpaper-15.jpg
p649
g3
(g4
g5
(g6
(S'\x07\xdf\x0c\x10\x08\x00\x1f\x01\xbfa'
tRp650
S'107'
p651
I1
ttRp652
sVhttp://www.goodmorningx.com/wp-content/uploads/2015/09/Fresh-Morning-Images.jpg
p653
g3
(g4
g5
(g6
(S'\x07\xe0\x03\x07\x08\x00 \x07o:'
tRp654
S'327'
p655
I1
ttRp656
sVhttp://phoozer.com/wp-content/uploads/2015/03/free-good-morning-pictures-for-whatsapp.jpg
p657
g3
(g4
g5
(g6
(S'\x07\xe0\x02\x06\x085\x17\t\xfdf'
tRp658
S'251'
p659
I1
ttRp660
sVhttp://www.freshmorningquotes.com/wp-content/uploads/2015/11/good-morning-image.jpg
p661
g3
(g4
g5
(g6
(S'\x07\xe0\x05\x1b\t.\x00\x02\xdf-'
tRp662
I-1
I1
ttRp663
sVhttp://www.scrapsyard.com/wp-content/uploads/2015/05/Good-Morning-Have-Nice-Day.jpg
p664
g3
(g4
g5
(g6
(S'\x07\xe0\x05\x08\x08\x00\x0b\x05\xe9U'
tRp665
S'389'
p666
I1
ttRp667
sVhttp://www.desicomments.com/dc3/09/340029/340029.png
p668
g3
(g4
g5
(g6
(S'\x07\xe0\x05\x19\t!\x06\t:\xac'
tRp669
S'411'
p670
I1
ttRp671
sVhttp://www.searchyourchoice.com/wp-content/uploads/2016/03/Good-Morning.png
p672
g3
(g4
g5
(g6
(S'\x07\xe0\t\x12\t *\x0b6\x81'
tRp673
I-1
I1
ttRp674
sVhttp://www.ahdwallpaperstab.com/wp-content/uploads/2014/12/good_morning_coffee_cup.jpg
p675
g3
(g4
g5
(g6
(S'\x07\xe0\x01\x05\x08\x050\x06/\xf3'
tRp676
S'192'
p677
I1
ttRp678
sVhttp://www.lovethispic.com/uploaded_images/217299-Good-Morning-Thursday-Love.jpg
p679
g3
(g4
g5
(g6
(S'\x07\xe0\x05\x10\t\x05\x19\tU6'
tRp680
S'403'
p681
I1
ttRp682
sVhttp://www.letuspublish.com/wp-content/uploads/2014/10/1024x640xGood-Morning-HD-Photo-free-1024x640.jpg.pagespeed.ic.HnjMLQjOj3.jpg
p683
g3
(g4
g5
(g6
(S'\x07\xe0\x04\r\t9\n\nM\xdd'
tRp684
S'274'
p685
I1
ttRp686
sVhttp://2.bp.blogspot.com/-L5Dq7SOb3MM/VcYtr5MKGpI/AAAAAAAAA0E/v19LRVVflew/s1600/Every%2BSunrise%2Bgives%2Bme%2Ba%2Bnew%2Bday%2Bto%2Blove.png
p687
g3
(g4
g5
(g6
(S'\x07\xe0\x03\x17\t35\x0e\xd9\xcd'
tRp688
S'371'
p689
I1
ttRp690
sVhttps://i.ytimg.com/vi/GfoRTNKeGdQ/maxresdefault.jpg
p691
g3
(g4
g5
(g6
(S'\x07\xe0\x06\x1d\t1)\x07;\xa2'
tRp692
S'234'
p693
I1
ttRp694
sVhttp://allwishes.in/wp-content/uploads/2014/02/beautiful-good-morning-photos.jpg
p695
g3
(g4
g5
(g6
(S'\x07\xe0\t\x1c\t!\x14\x00\xf7/'
tRp696
S'205'
p697
I1
ttRp698
sVhttp://images.freeimages.com/images/premium/previews/1911/19116834-rooster-good-morning.jpg
p699
g3
(g4
g5
(g6
(S'\x07\xe0\t\x07\x08\x05\x15\x04d\xe1'
tRp700
S'486'
p701
I1
ttRp702
sVhttp://lovechq.com/wp-content/uploads/2015/06/good-morning-love-quotes-for-girlfriend.jpg
p703
g3
(g4
g5
(g6
(S'\x07\xe0\x03\x07\x08\x00 \x07o\xb2'
tRp704
I-1
I1
ttRp705
sVhttp://www.walldu.com/wp-content/uploads/2015/01/Best-Good-Morning-Wallpaper-in-HD.jpg
p706
g3
(g4
g5
(g6
(S'\x07\xdf\x0c\x12\x08\x01\x1d\x08\xde\xf4'
tRp707
S'116'
p708
I1
ttRp709
sVhttp://www.goodmorningx.com/wp-content/uploads/2015/09/Good-morning-Pics.jpg
p710
g3
(g4
g5
(g6
(S'\x07\xe0\t\x0c\t $\x02\xf3 '
tRp711
S'293'
p712
I1
ttRp713
sVhttp://www.goodmorningquote.com/wp-content/uploads/2014/06/motivational-good-morning-quotes-when-you-start-each-day-with-a-grateful-heart.jpg?3d1c9c
p714
g3
(g4
g5
(g6
(S'\x07\xdf\n\x1f\x08\x01\x1e\x0b\x0e\x0b'
tRp715
I-1
I1
ttRp716
sVhttp://www.imgion.com/images/02/Smiling-rose-for-you-in-morning.jpg
p717
g3
(g4
g5
(g6
(S'\x07\xe0\x04\x11\t95\x06\x8fg'
tRp718
S'199'
p719
I1
ttRp720
sVhttp://www.mofasalkhabar.com/wp-content/uploads/2015/12/Good-Morning-Wallpapers-With-Love-5.jpg
p721
g3
(g4
g5
(g6
(S'\x07\xe0\x01\x1b\x08\x1a\x06\x07\xc1v'
tRp722
I-1
I1
ttRp723
sVhttp://www.lovethispic.com/uploaded_images/246859-Oh-Hello-Good-Morning-Friends.jpg
p724
g3
(g4
g5
(g6
(S'\x07\xe0\x06\x17\t7\x08\x069\x88'
tRp725
S'477'
p726
I1
ttRp727
sVhttp://science-all.com/images/wallpapers/good-morning-hd-image/good-morning-hd-image-16.jpg
p728
g3
(g4
g5
(g6
(S'\x07\xe0\x08\x0f\x08\x003\x08\xef3'
tRp729
I-1
I1
ttRp730
sVhttp://alldayquotes.com/wp-content/uploads/2016/06/Good-Morning-Wishes-Images-For-Husband.jpg
p731
g3
(g4
g5
(g6
(S'\x07\xe0\x08\x0f\x08\x003\x08\xee\xa6'
tRp732
S'566'
p733
I1
ttRp734
sVhttps://s-media-cache-ak0.pinimg.com/originals/5a/e6/57/5ae65783c6d75c2a779d1f7eb8d96272.jpg
p735
g3
(g4
g5
(g6
(S'\x07\xdf\x0b\x1b\x08\x00\t\x03\xb5\xa7'
tRp736
S'35'
p737
I1
ttRp738
sVhttp://6iee.com/data/uploads/20/717307.jpg
p739
g3
(g4
g5
(g6
(S'\x07\xe0\x08\x01\x08\x02"\t\'K'
tRp740
I-1
I1
ttRp741
sVhttp://2.bp.blogspot.com/-5dNl43hyRmo/VlWZwtrbKwI/AAAAAAAACqA/s1pMglS16eI/s1600/good-morning-love-wallpaper.jpg
p742
g3
(g4
g5
(g6
(S'\x07\xe0\n\x07\x08\x02"\x0e\xaa\x9b'
tRp743
S'328'
p744
I1
ttRp745
sVhttp://e2ua.com/data/wallpapers/62/WDF_1080428.png
p746
g3
(g4
g5
(g6
(S'\x07\xe0\x05\x19\t!\x06\t;d'
tRp747
I-1
I1
ttRp748
sVhttps://wishaf-graphics.s3.amazonaws.com/goodmorning/8303-good-morning-messages-for-girlfriend.jpg
p749
g3
(g4
g5
(g6
(S'\x07\xe0\x02\x04\x0837\x0e\xd4\xc6'
tRp750
S'370'
p751
I1
ttRp752
sVhttps://s-media-cache-ak0.pinimg.com/564x/dd/5f/bd/dd5fbdce21ad3d2e54e373fcf35a1b45.jpg
p753
g3
(g4
g5
(g6
(S'\x07\xe0\n\x07\x08\x02"\x0e\xa9\x7f'
tRp754
S'641'
p755
I1
ttRp756
sVhttp://media1.santabanta.com/full1/Miscellaneous/Good%20Morning/good-morning-57a.jpg
p757
g3
(g4
g5
(g6
(S'\x07\xe0\t\x1c\t!\x14\x00\xf8!'
tRp758
S'605'
p759
I1
ttRp760
sVhttp://www.wallpaperswidefree.com/images/good-morning-coffee-beans-cup-wide-hd-wallpapers.jpg
p761
g3
(g4
g5
(g6
(S'\x07\xe0\n\x07\x08\x02"\x0e\xaa\xe3'
tRp762
S'649'
p763
I1
ttRp764
sVhttp://www.freelargeimages.com/wp-content/uploads/2015/11/Good_Morning_02.jpg
p765
g3
(g4
g5
(g6
(S'\x07\xe0\x04\x11\t95\x06\x8f\x9c'
tRp766
S'402'
p767
I2
ttRp768
sVhttps://wishaf-graphics.s3.amazonaws.com/goodmorning/8308-good-morning-messages-for-girlfriend.jpg
p769
g3
(g4
g5
(g6
(S'\x07\xe0\x02\x06\x085\x17\t\xff#'
tRp770
S'267'
p771
I1
ttRp772
sVhttp://www.thefreshquotes.com/wp-content/uploads/2015/07/I-Thank-God-For-Giving-Me-Eyes-To-See-The-Beauty-Of-The-Sunrise-Nose-To-Smell-The-Fragrance-Good-Morning.jpg
p773
g3
(g4
g5
(g6
(S'\x07\xe0\n\x07\x08\x02"\x0e\xab\x0e'
tRp774
S'538'
p775
I1
ttRp776
sVhttp://hdwallpaperssfree.com/wp-content/uploads/2013/05/good-morning-high-quality-hd-wallpaper.png
p777
g3
(g4
g5
(g6
(S'\x07\xe0\x01\x13\x08\x138\x02.\xa5'
tRp778
S'208'
p779
I1
ttRp780
sVhttp://www.goodmorning.quotesms.com/images/good-morning-my-friend.jpg
p781
g3
(g4
g5
(g6
(S'\x07\xe0\x05\x19\t!\x06\t;\x90'
tRp782
S'534'
p783
I1
ttRp784
sVhttp://www.messagescollection.com/wp-content/uploads/2015/02/good-morning-wallpaper.jpg
p785
g3
(g4
g5
(g6
(S'\x07\xe0\x08\x1c\x08\x01\x14\n\xa3Q'
tRp786
S'198'
p787
I1
ttRp788
sVhttp://hdwallpapersrocks.com/wp-content/uploads/2013/09/good-morning-have-a-nice-day-wallpapers.jpg
p789
g3
(g4
g5
(g6
(S'\x07\xe0\x08\x17\t9\x17\x02\xfa\xac'
tRp790
S'547'
p791
I1
ttRp792
sVhttp://hdwallpapersrocks.com/wp-content/uploads/2013/09/Good-morning-heart-draw-in-coffee-cup.jpg
p793
g3
(g4
g5
(g6
(S'\x07\xe0\x06\x17\t7\x08\x069\x13'
tRp794
S'461'
p795
I1
ttRp796
sVhttp://quotesideas.com/wp-content/uploads/2015/03/71997ab71ecf88b57208d38755511de8.jpg
p797
g3
(g4
g5
(g6
(S'\x07\xe0\x08\x1c\x08\x01\x14\n\xa3a'
tRp798
I-1
I1
ttRp799
sVhttp://www.goodmorningquote.com/wp-content/uploads/2014/06/motivational-good-morning-quotes-when-you-start-each-day-with-a-grateful-heart.jpg
p800
g3
(g4
g5
(g6
(S'\x07\xe0\x01\t\x08\x08\x01\x0bO\xa8'
tRp801
I-1
I1
ttRp802
sVhttp://cache.lovethispic.com/uploaded_images/231743-Good-Morning-God-Bless-Have-A-Lovely-Day.jpg
p803
g3
(g4
g5
(g6
(S'\x07\xe0\x02\x1a\t;\x1b\x05\xef\n'
tRp804
S'298'
p805
I1
ttRp806
sVhttp://www.relatably.com/q/img/funny-good-morning-love-quotes-for-him/Download-Goodmorning-Wallpapers-Saying-For-Your-Man2.jpg
p807
g3
(g4
g5
(g6
(S'\x07\xe0\x02\x0e\x08:7\r\x9d\xd0'
tRp808
I-1
I1
ttRp809
sVhttp://www.imgion.com/images/02/Sweet-pup-buddies-good-morning-ecard.gif
p810
g3
(g4
g5
(g6
(S'\x07\xe0\x05\x1b\t.\x00\x02\xdf\xe3'
tRp811
S'414'
p812
I1
ttRp813
sVhttp://www.lovethispic.com/uploaded_images/180917-Good-Morning-Sunday.jpg
p814
g3
(g4
g5
(g6
(S'\x07\xe0\t\x16\t 6\x04\x97\x1f'
tRp815
S'617'
p816
I1
ttRp817
sVhttp://imagesgoodmorning.com/wp-content/uploads/2016/03/Inspirational-Good-Morning-Quotes-Tumblr-1.jpg
p818
g3
(g4
g5
(g6
(S'\x07\xe0\x06\x1d\t1)\x07:\xc5'
tRp819
S'483'
p820
I1
ttRp821
sVhttp://www.goodmorningquote.com/wp-content/uploads/2014/06/motivational-good-morning-quotes-when-you-start-each-day-with-a-grateful-heart.jpg?93df17
p822
g3
(g4
g5
(g6
(S'\x07\xdf\x0b\x1b\x08\x00\t\x03\xb5\xcc'
tRp823
I-1
I1
ttRp824
sVhttp://graphicsheat.com/wp-content/uploads/2015/07/Wish-To-All-Good-Morning.jpg
p825
g3
(g4
g5
(g6
(S"\x07\xe0\x01\x0b\x08\x08\n\tU'"
tRp826
I-1
I1
ttRp827
sVhttp://www.imgion.com/images/02/Morning-wishes-with-healthy-meall.jpg
p828
g3
(g4
g5
(g6
(S'\x07\xe0\x04\x18\x08\x00\x0f\rD\xc2'
tRp829
S'124'
p830
I1
ttRp831
sVhttp://e2ua.com/data/wallpapers/115/WDF_1581198.jpg
p832
g3
(g4
g5
(g6
(S'\x07\xe0\x05\x10\t\x05\x19\tT\xd6'
tRp833
I-1
I1
ttRp834
sVhttp://www.goodmorning.quotesms.com/images/good-morning-my-love.jpg
p835
g3
(g4
g5
(g6
(S'\x07\xe0\n\x04\t7;\x0e\x99N'
tRp836
NI1
ttRp837
sVhttp://freewallpaperspictures.com/wp-content/uploads/2016/05/good-morning-images-for-whatsapp.jpg
p838
g3
(g4
g5
(g6
(S'\x07\xe0\x05\x19\t!\x06\t:r'
tRp839
S'456'
p840
I1
ttRp841
sVhttp://quotesideas.com/wp-content/uploads/2015/08/good-morning-love-wallpaper-for-him-3.jpg
p842
g3
(g4
g5
(g6
(S'\x07\xe0\x04\x11\t95\x06\x8f\x1c'
tRp843
I-1
I1
ttRp844
sVhttp://www.messages.oriza.net/good-morning-111115-1.jpg
p845
g3
(g4
g5
(g6
(S'\x07\xe0\x04\x03\x08\x02 \x01\xfd\x85'
tRp846
S'292'
p847
I1
ttRp848
sVhttp://imagesgoodmorning.com/wp-content/uploads/2015/12/Sweet-Good-Morning-Messages-for-Him-Tagalog-1.jpg
p849
g3
(g4
g5
(g6
(S'\x07\xe0\x01\x13\x08\x138\x02.,'
tRp850
S'217'
p851
I1
ttRp852
sVhttp://www.conversationsforabetterworld.com/wp-content/uploads/2015/06/good_morning_hd_wallpaper.jpg
p853
g3
(g4
g5
(g6
(S'\x07\xdf\x0c\x14\x08\x022\x03\xda\xe0'
tRp854
I-1
I1
ttRp855
sVhttp://fabimagepic.com/download.php?file=wp-content/gallery/good-morning/good-morning-with-love.jpg
p856
g3
(g4
g5
(g6
(S'\x07\xe0\x03\x0e\x08\x00.\x07\xe1{'
tRp857
S'409'
p858
I1
ttRp859
sVhttp://hdwallpaperstoke.com/wp-content/uploads/2015/05/Good-Morning-whatsapp-photos.jpg
p860
g3
(g4
g5
(g6
(S'\x07\xe0\x03\x17\t0\x08\x06bs'
tRp861
S'318'
p862
I1
ttRp863
sVhttp://media1.santabanta.com/full1/Miscellaneous/Good%20Morning/good-morning-52a.jpg
p864
g3
(g4
g5
(g6
(S'\x07\xe0\x04\r\t9\n\nM\x85'
tRp865
S'381'
p866
I1
ttRp867
sVhttp://theartmad.com/wp-content/uploads/2015/04/Good-Morning-Wallpapers-1.jpg
p868
g3
(g4
g5
(g6
(S'\x07\xe0\x02\x06\x085\x17\t\xfc\xa0'
tRp869
I-1
I1
ttRp870
sVhttp://www.desicomments.com/dc3/08/277729/277729.gif
p871
g3
(g4
g5
(g6
(S'\x07\xdf\x0c\x1e\x08\x03:\x04\x996'
tRp872
S'186'
p873
I1
ttRp874
sVhttp://hdwallpapersrocks.com/wp-content/uploads/2013/09/Good-morning-love-full-HD-wide-wallpaper.jpg
p875
g3
(g4
g5
(g6
(S'\x07\xe0\x08\x0f\x08\x003\x08\xee\xe2'
tRp876
S'529'
p877
I1
ttRp878
sVhttp://media1.santabanta.com/full1/Miscellaneous/Good%20Morning/good-morning-34a.jpg
p879
g3
(g4
g5
(g6
(S'\x07\xe0\x04\x18\x08\x00\x0f\rD@'
tRp880
S'46'
p881
I1
ttRp882
sVhttp://www.topely.com/wp-content/uploads/2015/07/Top-10-Free-Download-Good-Morning-Wallpapers-3.jpg
p883
g3
(g4
g5
(g6
(S'\x07\xe0\x04\x11\t95\x06\x8f='
tRp884
I-1
I1
ttRp885
sVhttp://www.lovethispic.com/uploaded_images/222992-Start-Each-Day-Happy-Good-Morning.jpg
p886
g3
(g4
g5
(g6
(S'\x07\xe0\x03\x17\t35\x0e\xd9D'
tRp887
S'422'
p888
I1
ttRp889
sVhttp://www.moso3a.net/thakafia/betterphoto/1001-good+morning+photos.jpg
p890
g3
(g4
g5
(g6
(S'\x07\xe0\x02\x04\x0837\x0e\xd4\x8c'
tRp891
S'83'
p892
I1
ttRp893
sVhttp://www.allgraphics123.com/wp-content/uploads/2015/06/Good-Morning-With-Coffee-And-Cupcakes.jpg
p894
g3
(g4
g5
(g6
(S'\x07\xdf\x0c\x10\x08\x00\x1f\x01\xbf\x91'
tRp895
S'123'
p896
I1
ttRp897
sVhttp://phoozer.com/wp-content/uploads/2015/08/good-morning-images-with-beautiful-flowers.jpg
p898
g3
(g4
g5
(g6
(S'\x07\xe0\x02\x0e\x08:7\r\x9eK'
tRp899
S'280'
p900
I1
ttRp901
sVhttp://www.imgion.com/images/02/I-do-love-you-good-morning.jpg
p902
g3
(g4
g5
(g6
(S'\x07\xe0\x01\x05\x08\x050\x06/\xe4'
tRp903
S'51'
p904
I1
ttRp905
sVhttp://www.lovethispic.com/uploaded_images/241573-Wednesday-Blessings-Good-Morning.jpg
p906
g3
(g4
g5
(g6
(S'\x07\xe0\x04\x03\x08\x02 \x01\xfd\x96'
tRp907
S'352'
p908
I1
ttRp909
sVhttp://www.freenewimages.com/wp-content/uploads/2015/12/good-morning-images.jpg
p910
g3
(g4
g5
(g6
(S'\x07\xe0\x01\x1b\x08\x1a\x06\x07\xc1]'
tRp911
S'212'
p912
I1
ttRp913
sVhttp://2.bp.blogspot.com/-urKiXQBjYbQ/VhKY9lvpDvI/AAAAAAAACV4/h2gkdRaNaNM/s1600/Good-Morning-With-Tea-And-Coffee.jpg
p914
g3
(g4
g5
(g6
(S'\x07\xe0\n\x07\x08\x02"\x0e\xa9\xbe'
tRp915
S'548'
p916
I2
ttRp917
sVhttp://www.lovethispic.com/uploaded_images/85900-Good-Morning-Tuesday.jpg
p918
g3
(g4
g5
(g6
(S'\x07\xe0\t\x0c\t $\x02\xf2\xff'
tRp919
S'372'
p920
I1
ttRp921
sVhttp://1.bp.blogspot.com/-MoQRpvYtPJ8/VfY6_w_m1hI/AAAAAAAAH9A/vAhE8xc8N3I/s1600/Good%2Bmorning%2Bimages%2Bshayari%2B%25283%2529.jpg
p922
g3
(g4
g5
(g6
(S'\x07\xe0\x06\x1d\t1)\x07;<'
tRp923
S'355'
p924
I1
ttRp925
sVhttp://greetings-day.com/wp-content/uploads/2015/08/good-morning-flowers.jpg
p926
g3
(g4
g5
(g6
(S'\x07\xe0\t\x1c\t!\x14\x00\xf5\xa6'
tRp927
I-1
I1
ttRp928
sVhttps://www.whoa.in/20150417-Whoa/Good-Morning-Have-a-Nice-Day-with-Lord-Ganesha-HD-Wallpaper.jpg
p929
g3
(g4
g5
(g6
(S'\x07\xe0\x03\x17\t35\x0e\xda\x08'
tRp930
I-1
I1
ttRp931
sVhttp://139.59.25.161/wp-content/uploads/2015/09/good-morning-hd-wallpaper-high-definition-ras.jpg
p932
g3
(g4
g5
(g6
(S'\x07\xe0\n\x07\x08\x02"\x0e\xaa\xbb'
tRp933
S'657'
p934
I1
ttRp935
sVhttp://www.goodmorningquote.com/wp-content/uploads/2014/06/good-morning-inspirational-quotes-life-is-like-a-mirror.jpg?2d7d09
p936
g3
(g4
g5
(g6
(S'\x07\xdf\x0b\x14\x08\x03&\x06\xed\x04'
tRp937
I-1
I1
ttRp938
sVhttp://4.bp.blogspot.com/-IGHk-3Kpl4M/VkO0RSUBjQI/AAAAAAAAD3g/fMrmfOvbrRI/s1600/166706-Good-Morning-Coffee-For-You.jpg
p939
g3
(g4
g5
(g6
(S'\x07\xe0\x05\x1b\t.\x00\x02\xe0u'
tRp940
S'437'
p941
I1
ttRp942
sVhttp://www.thefreshquotes.com/wp-content/uploads/2015/07/Wakeup-Wink-Those-Teeny-Weeny-Eyes.-Stretch-Those-Inzy-Winzy-Bones-Wear-That-Jolly-Winning-Smile-Tell-Yourself-Today-Is-A-Beautiful-Day...Good-Morning.jpg
p943
g3
(g4
g5
(g6
(S'\x07\xe0\t\x1c\t!\x14\x00\xf89'
tRp944
S'599'
p945
I1
ttRp946
sVhttps://2.bp.blogspot.com/-QIEj7MY93rw/Vyd6tSoyqNI/AAAAAAAAXaA/S3Z48A4ftw4UbpzJs4UXXhXNgpEaynhdQCLcB/s1600/Good%2BMorning%2BImages%2BWith%2BFlowers1.jpg
p947
g3
(g4
g5
(g6
(S'\x07\xe0\t\x16\t 6\x04\x99i'
tRp948
S'471'
p949
I1
ttRp950
sVhttp://media.glamsham.com/download/wallpaper/quotes-and-movies/Good%20Morning/Good-Morning-Quotes-32-12x9.jpg
p951
g3
(g4
g5
(g6
(S'\x07\xe0\x01\x1b\x08\x1a\x06\x07\xc2#'
tRp952
S'230'
p953
I1
ttRp954
sVhttp://www.imgion.com/images/02/Thank-you-lord-for-this-new-morning.jpg
p955
g3
(g4
g5
(g6
(S'\x07\xdf\x0c\x1e\x08\x03:\x04\x99\x8c'
tRp956
S'60'
p957
I1
ttRp958
sVhttp://www.goodmorningx.com/wp-content/uploads/2015/07/good-morning-sms.jpg
p959
g3
(g4
g5
(g6
(S'\x07\xdf\x0c\x18\x08\x03\t\x04b\xab'
tRp960
S'158'
p961
I1
ttRp962
sVhttp://phoozer.org/wp-content/uploads/2015/08/good-morning-images-with-beautiful-flowers.jpg
p963
g3
(g4
g5
(g6
(S'\x07\xe0\x04\x0b\x08\x03\x1d\x0cW-'
tRp964
S'313'
p965
I1
ttRp966
sVhttps://theworldimage.files.wordpress.com/2014/07/good-morning-pics-1024x640.jpg
p967
g3
(g4
g5
(g6
(S'\x07\xe0\x02\x1a\t;\x1b\x05\xf0\x19'
tRp968
S'281'
p969
I1
ttRp970
sVhttp://vignette2.wikia.nocookie.net/onedirection/images/5/52/Good_Morning_America.png/revision/latest?cb=20150902032527
p971
g3
(g4
g5
(g6
(S'\x07\xe0\x02\x0e\x08:7\r\x9d\xc2'
tRp972
S'311'
p973
I1
ttRp974
sVhttp://www.imgnaly.com/wp-content/uploads/2015/04/Good-Morning-Picture...jpg
p975
g3
(g4
g5
(g6
(S'\x07\xe0\x05\x08\x08\x00\x0b\x05\xe9\xe4'
tRp976
S'279'
p977
I1
ttRp978
sVhttp://www.wishgoodmorning.org/wp-content/uploads/2016/03/Good-Morning-With-A-Cup-Of-Tea-mn1-wm1955.jpg
p979
g3
(g4
g5
(g6
(S'\x07\xe0\x05\x10\t\x05\x19\tT`'
tRp980
S'350'
p981
I1
ttRp982
sVhttp://greetings-day.com/wp-content/uploads/2015/07/good-morning-my-friend.jpg
p983
g3
(g4
g5
(g6
(S'\x07\xe0\x03\x17\t35\x0e\xd9-'
tRp984
I-1
I1
ttRp985
sVhttp://messages.365greetings.com/wp-content/uploads/2014/04/funny-good-morning-sms.jpg
p986
g3
(g4
g5
(g6
(S'\x07\xdf\x0c\x1e\x08\x03:\x04\x98\xe4'
tRp987
I-1
I1
ttRp988
sVhttps://lh3.ggpht.com/DHc_uPDA4K4zmX3OejQPbX__jF2q7mV0GlLjmSSxoBpYIkRsh50BY0WkR16-OOS_WQ=h310
p989
g3
(g4
g5
(g6
(S'\x07\xe0\n\x04\t7;\x0e\x99\xed'
tRp990
S'62'
p991
I1
ttRp992
sVhttp://www.spyderonlines.com/images/wallpapers/good-morning-backgrounds/good-morning-backgrounds-14.jpg
p993
g3
(g4
g5
(g6
(S'\x07\xe0\t\x12\t *\x0b6\xa2'
tRp994
S'613'
p995
I1
ttRp996
sVhttp://hdwallpaperssfree.com/download.php?img=http://hdwallpaperssfree.com/wp-content/uploads/2013/05/subh-savar-hd-wallpapers.jpg&id=6755
p997
g3
(g4
g5
(g6
(S'\x07\xe0\x01\t\x08\x08\x01\x0bO\xd8'
tRp998
S'195'
p999
I1
ttRp1000
sVhttp://www.allgraphics123.com/wp-content/uploads/2015/06/Very-Cute-Good-Morning-with-Puppies.gif
p1001
g3
(g4
g5
(g6
(S'\x07\xe0\n\x07\x08\x02"\x0e\xa9$'
tRp1002
S'643'
p1003
I1
ttRp1004
sVhttp://www.goodmorningx.com/wp-content/uploads/2015/09/Gud-morning-pics-collection.jpg
p1005
g3
(g4
g5
(g6
(S'\x07\xe0\x03\x02\t/\x07\x05~\xf5'
tRp1006
S'351'
p1007
I1
ttRp1008
sVhttp://pic.1fotonin.com/data/wallpapers/57/WDF_1034101.jpg
p1009
g3
(g4
g5
(g6
(S'\x07\xe0\x05\x08\x08\x00\x0b\x05\xe9\xc5'
tRp1010
S'399'
p1011
I1
ttRp1012
sVhttp://www.doesntgrowontrees.co.uk/wp-content/uploads/2016/01/Good-morning-wallpapers-with-coffee-3.jpg
p1013
g3
(g4
g5
(g6
(S'\x07\xe0\x05\x1b\t.\x00\x02\xdf5'
tRp1014
S'428'
p1015
I1
ttRp1016
sVhttp://www.lovethispic.com/uploaded_images/157739-Good-Morning-Have-A-Wonderful-Weekend.jpg
p1017
g3
(g4
g5
(g6
(S'\x07\xe0\x02\x06\x085\x17\t\xfdN'
tRp1018
S'14'
p1019
I1
ttRp1020
sVhttp://greetings-day.com/wp-content/uploads/2015/07/Good-morning-fun.jpg
p1021
g3
(g4
g5
(g6
(S'\x07\xe0\x05\x10\t\x05\x19\tU!'
tRp1022
I-1
I1
ttRp1023
sVhttp://goodmorningquotes.in/wp-content/uploads/2015/04/Zedge-good-morning-wallpaper1.jpg
p1024
g3
(g4
g5
(g6
(S'\x07\xdf\x0b\x08\x08\x01*\x0ch.'
tRp1025
I-1
I1
ttRp1026
sVhttp://www.oyegraphics.com/wp-content/uploads/2015/08/Wishing-You-A-Peaceful-Day-.jpg
p1027
g3
(g4
g5
(g6
(S'\x07\xe0\n\x07\x08\x02"\x0e\xa9U'
tRp1028
S'652'
p1029
I1
ttRp1030
sVhttp://hdwallpapersrocks.com/wp-content/uploads/2013/09/Good-morning-funny-wallpaper1.jpg
p1031
g3
(g4
g5
(g6
(S'\x07\xe0\x08\x17\t9\x17\x02\xfaR'
tRp1032
S'510'
p1033
I1
ttRp1034
sVhttp://www.freelargeimages.com/wp-content/uploads/2015/11/Good_Morning_05.jpg
p1035
g3
(g4
g5
(g6
(S'\x07\xe0\t\x1c\t!\x14\x00\xf5\xeb'
tRp1036
S'622'
p1037
I1
ttRp1038
sVhttp://itsmyfun.net/MyFiles/2014/01/Good-Morning-Teddy-Hd-Wallpapers.jpg
p1039
g3
(g4
g5
(g6
(S'\x07\xe0\x01\x13\x08\x138\x02./'
tRp1040
S'220'
p1041
I1
ttRp1042
sVhttp://www.dailypicsupdate.com/wp-content/uploads/2013/01/good-morning-cup-of-coffee.jpg
p1043
g3
(g4
g5
(g6
(S'\x07\xe0\x08\x05\x08\x025\x01\x1e]'
tRp1044
S'553'
p1045
I1
ttRp1046
sVhttp://1.bp.blogspot.com/-7C4j6NAOSHA/UX1ne3eRQgI/AAAAAAAAF1c/OVEN6uvtJNk/s1600/Good+Morning+gods+grace.jpg
p1047
g3
(g4
g5
(g6
(S'\x07\xdf\x0b\x14\x08\x03&\x06\xec\xc7'
tRp1048
S'30'
p1049
I1
ttRp1050
sVhttp://www.lovethispic.com/uploaded_images/122374-Coffee-Is-Ready-Good-Morning-.gif?1
p1051
g3
(g4
g5
(g6
(S'\x07\xe0\x01\x05\x08\x050\x06/\xa0'
tRp1052
I-1
I1
ttRp1053
sVhttp://www.hdwallpapersnew.net/wp-content/uploads/2015/12/good-morning-coffee-cup-full-screen-high-resolution-wallpaper-free-desktop-background-photos.jpg
p1054
g3
(g4
g5
(g6
(S'\x07\xe0\x03\x07\x08\x00 \x07oD'
tRp1055
S'227'
p1056
I1
ttRp1057
sVhttp://whatsappmessages.net/wp-content/uploads/2015/06/Good-Morning-eCards-398.jpg
p1058
g3
(g4
g5
(g6
(S'\x07\xe0\x04\x18\x08\x00\x0f\rD\x18'
tRp1059
I-1
I1
ttRp1060
sVhttp://www.wishespoint.com/wp-content/uploads/2013/02/A-very-special-Good-Morning.jpeg
p1061
g3
(g4
g5
(g6
(S'\x07\xdf\x0c\x1e\x08\x03:\x04\x99\x1e'
tRp1062
I-1
I1
ttRp1063
sVhttp://e2ua.com/data/wallpapers/85/WDF_1295900.jpg
p1064
g3
(g4
g5
(g6
(S'\x07\xe0\x04\x11\t95\x06\x8f\x11'
tRp1065
I-1
I1
ttRp1066
sVhttps://wishaf-graphics.s3.amazonaws.com/goodmorning/8415-motivational-good-morning-messages.jpg
p1067
g3
(g4
g5
(g6
(S'\x07\xe0\x05\x1b\t.\x00\x02\xdfg'
tRp1068
S'247'
p1069
I1
ttRp1070
sVhttp://www.desicomments.com/dc3/10/343840/343840.jpg
p1071
g3
(g4
g5
(g6
(S'\x07\xe0\x05\x1b\t.\x00\x02\xdfv'
tRp1072
S'430'
p1073
I1
ttRp1074
sVhttp://www.goodmorningimagesgreetings.com/wp-content/uploads/2015/09/good-morning-love-hd-wallpaper-high-quality-s74.jpg
p1075
g3
(g4
g5
(g6
(S'\x07\xe0\x08\x0f\x08\x003\x08\xee\xdd'
tRp1076
I-1
I1
ttRp1077
sVhttp://www.thequotepedia.com/images/46/the-minute-you-think-giving-up-any-relation-think-of-reason-why-you-held-it-so-long-good-morning-and-have-a-nice-day.jpg
p1078
g3
(g4
g5
(g6
(S'\x07\xe0\x02\x12\t\x02#\x06p^'
tRp1079
S'317'
p1080
I1
ttRp1081
sVhttp://hdwallpaperssfree.com/wp-content/uploads/2013/05/have-a-nice-day-good-morning-hd-wallpapers.jpg
p1082
g3
(g4
g5
(g6
(S'\x07\xdf\x0c\x18\x08\x03\t\x04b\xf9'
tRp1083
S'172'
p1084
I1
ttRp1085
sVhttp://desipoetry.com/wp-content/uploads/2015/04/1385788108_good_morning_love_wallpapers.jpg
p1086
g3
(g4
g5
(g6
(S'\x07\xe0\x07\x15\t$#\x03\x8ei'
tRp1087
I-1
I1
ttRp1088
sVhttp://www.freenewimages.com/wp-content/uploads/2015/12/good-morning-images-in-gujarati.jpg
p1089
g3
(g4
g5
(g6
(S'\x07\xe0\x02\x06\x085\x17\t\xfdf'
tRp1090
S'233'
p1091
I1
ttRp1092
sVhttp://www.lovethispic.com/uploaded_images/195457-Good-Morning-Friends-And-Family.jpg
p1093
g3
(g4
g5
(g6
(S'\x07\xe0\x02\x06\x085\x17\t\xfe\x14'
tRp1094
S'270'
p1095
I1
ttRp1096
sVhttp://www.goodlightscraps.com/content/good-morning/good-morning-20.gif
p1097
g3
(g4
g5
(g6
(S'\x07\xdf\x0c\x1e\x08\x03:\x04\x99\\'
tRp1098
I-1
I1
ttRp1099
sVhttp://wishesmessages.com/wp-content/uploads/2013/10/Inspirational-good-morning-quote.jpg
p1100
g3
(g4
g5
(g6
(S'\x07\xe0\x03\x07\x08\x00 \x07o\xb7'
tRp1101
S'41'
p1102
I1
ttRp1103
sVhttp://www.goodmorningquote.com/wp-content/uploads/2014/06/goodmorning-quotes-the-best-thing-about-waking-up.jpg?ce4a2f
p1104
g3
(g4
g5
(g6
(S'\x07\xdf\x0c\x18\x08\x03\t\x04c\x16'
tRp1105
I-1
I1
ttRp1106
sVhttp://love.catchsmile.com/wp-content/uploads/2014/05/Good-Morning-281.jpg
p1107
g3
(g4
g5
(g6
(S'\x07\xdf\x0c\x1e\x08\x03:\x04\x99\x89'
tRp1108
S'189'
p1109
I1
ttRp1110
sVhttp://previews.123rf.com/images/dkossar/dkossar1209/dkossar120900003/15107520-Good-morning-Stock-Photo-coffee.jpg
p1111
g3
(g4
g5
(g6
(S'\x07\xe0\x05\x1b\t.\x00\x02\xe0E'
tRp1112
S'65'
p1113
I1
ttRp1114
sVhttp://i.123g.us/c/gen_morning/card/312401.jpg
p1115
g3
(g4
g5
(g6
(S'\x07\xdf\n\x1e\x08\x01\x18\x0c\xc29'
tRp1116
S'6'
I1
ttRp1117
sVhttp://wallino.com/wp-content/uploads/2015/10/good-morning-desktop-wallpaper.jpg
p1118
g3
(g4
g5
(g6
(S'\x07\xdf\x0b\x14\x08\x03&\x06\xecK'
tRp1119
S'79'
p1120
I1
ttRp1121
sVhttp://newshaunt.com/wp-content/uploads/2015/09/Good-Morning-Sweet-Wishes-Photos-541.jpg?b4db58
p1122
g3
(g4
g5
(g6
(S'\x07\xe0\x06\x17\t7\x08\x069\x99'
tRp1123
S'445'
p1124
I1
ttRp1125
sVhttp://www.conversationsforabetterworld.com/wp-content/uploads/2015/06/beautiful-good-morning.jpg
p1126
g3
(g4
g5
(g6
(S'\x07\xe0\x03\x02\t/\x07\x05~\xd0'
tRp1127
I-1
I1
ttRp1128
sVhttp://www.iamalwayswithyou.com/wp-content/uploads/2015/09/good_morning_coffee_cup.jpg
p1129
g3
(g4
g5
(g6
(S'\x07\xe0\x03\x02\t/\x07\x05~\xcd'
tRp1130
I-1
I1
ttRp1131
sVhttp://www.topglitz.com/wp-content/uploads/2016/03/good-morning-images1.jpg
p1132
g3
(g4
g5
(g6
(S'\x07\xe0\t\x0c\t $\x02\xf3`'
tRp1133
S'367'
p1134
I1
ttRp1135
sVhttp://www.wishgoodmorning.org/wp-content/uploads/2016/03/Good-Morning-The-Glow-Of-Good-Health-wm6411.jpg
p1136
g3
(g4
g5
(g6
(S'\x07\xe0\x04\x18\x08\x00\x0f\rD\x87'
tRp1137
S'386'
p1138
I1
ttRp1139
sVhttp://1.bp.blogspot.com/-VnyEHv_haRQ/VlWZzFZU-FI/AAAAAAAACqQ/9pW2CYLYO6E/s1600/img_1431691826_894.jpg
p1140
g3
(g4
g5
(g6
(S'\x07\xe0\x05\x10\t\x05\x19\tU\x88'
tRp1141
S'288'
p1142
I1
ttRp1143
sVhttp://desktopbackgrounds4u.com/wp-content/gallery/good-morning-cute-images/good-morning-sweet-heart-cards-017.jpg
p1144
g3
(g4
g5
(g6
(S'\x07\xe0\x02\x12\t\x02#\x06m\x97'
tRp1145
S'282'
p1146
I1
ttRp1147
sVhttp://www.goodmorningquote.com/wp-content/uploads/2014/06/goodmorning-quotes-the-best-thing-about-waking-up.jpg
p1148
g3
(g4
g5
(g6
(S'\x07\xe0\x03\x07\x08\x00 \x07p\x02'
tRp1149
I-1
I1
ttRp1150
sVhttp://www.toptenpack.com/wp-content/uploads/2015/06/good-morning-wallpapers-with-coffee.jpg
p1151
g3
(g4
g5
(g6
(S'\x07\xe0\x01\x0b\x08\x08\n\tV3'
tRp1152
S'196'
p1153
I1
ttRp1154
sVhttp://www.newhdwallpapers.in/wp-content/uploads/2013/01/Good-Morning-with-Tea-Cup.jpg
p1155
g3
(g4
g5
(g6
(S'\x07\xe0\x08\x17\t9\x17\x02\xfa\xcf'
tRp1156
S'109'
p1157
I1
ttRp1158
sVhttp://www.wishgoodmorning.com/wp-content/uploads/2015/06/My-dear-sistergood-morning.jpg
p1159
g3
(g4
g5
(g6
(S'\x07\xe0\x01\x17\x08\x14\x07\x02M\xe7'
tRp1160
S'244'
p1161
I1
ttRp1162
sVhttp://goodmorningimageswithquotes.com/wp-content/uploads/2015/11/Download-Free-Good-Morning-Wallpapers-to-have-a-coffe-with-you.jpeg
p1163
g3
(g4
g5
(g6
(S'\x07\xdf\x0c\x14\x08\x022\x03\xda\x9c'
tRp1164
S'142'
p1165
I1
ttRp1166
sVhttp://hdwallpapershdfree.com/wp-content/uploads/2015/10/Good-Morning-Images-Download-5.jpg
p1167
g3
(g4
g5
(g6
(S'\x07\xdf\n\x1e\x08\x01\x18\x0c\xc2\x7f'
tRp1168
I-1
I1
ttRp1169
sVhttp://www.imgnaly.com/wp-content/uploads/2015/04/Lovely-Morning.jpg
p1170
g3
(g4
g5
(g6
(S'\x07\xe0\n\x04\t7;\x0e\x99\\'
tRp1171
S'666'
p1172
I1
ttRp1173
sVhttp://www.wiki-how.in/wp-content/uploads/2015/09/funny-good-morning-pic.jpg
p1174
g3
(g4
g5
(g6
(S'\x07\xe0\x07\x1b\t6/\x0c\x8f9'
tRp1175
I-1
I1
ttRp1176
sVhttp://image.shutterstock.com/z/stock-vector-vector-hand-draw-illustration-good-morning-293696297.jpg
p1177
g3
(g4
g5
(g6
(S'\x07\xe0\n\x07\x08\x02"\x0e\xa8s'
tRp1178
S'479'
p1179
I1
ttRp1180
sVhttp://www.wishgoodmorning.com/wp-content/uploads/2015/06/Hello-my-beautiful-good-morning.jpg
p1181
g3
(g4
g5
(g6
(S'\x07\xe0\t\x1c\t!\x14\x00\xf4\xd6'
tRp1182
S'385'
p1183
I1
ttRp1184
sVhttp://hdwallpaperssfree.com/wp-content/uploads/2013/05/good-morning-greeting-wishes-message-hd-wallpapers.jpg
p1185
g3
(g4
g5
(g6
(S'\x07\xe0\x01\x13\x08\x138\x02-\xe5'
tRp1186
S'215'
p1187
I1
ttRp1188
sVhttp://wallpapersshd.com/wp-content/uploads/2015/01/good-morning-have-a-nice-day-.jpg
p1189
g3
(g4
g5
(g6
(S'\x07\xdf\x0c\x14\x08\x022\x03\xdb-'
tRp1190
S'157'
p1191
I1
ttRp1192
sVhttp://www.lovethispic.com/uploaded_images/198719-Good-Morning-Puppies.gif
p1193
g3
(g4
g5
(g6
(S'\x07\xe0\x03\x07\x08\x00 \x07o\x0c'
tRp1194
S'173'
p1195
I1
ttRp1196
sVhttp://www.goodmorningimagesgreetings.com/wp-content/uploads/2015/09/Good-Morning-Coffee-HD-Wallpaper.jpg
p1197
g3
(g4
g5
(g6
(S'\x07\xe0\x08\x0f\x08\x003\x08\xee\xca'
tRp1198
I-1
I1
ttRp1199
sVhttp://www.relatably.com/q/img/good-morning-quotes-for-your-man/Download-Goodmorning-Wallpapers-Saying-For-Your-Man2.jpg
p1200
g3
(g4
g5
(g6
(S'\x07\xe0\x03\x0e\x08\x00.\x07\xe1+'
tRp1201
I-1
I1
ttRp1202
sVhttp://alldayquotes.com/wp-content/uploads/2016/05/Good-Morning-Love-Images-For-Mom.jpg
p1203
g3
(g4
g5
(g6
(S'\x07\xe0\x06\x17\t7\x08\x069z'
tRp1204
S'494'
p1205
I1
ttRp1206
sVhttps://2.bp.blogspot.com/-v44-Jr0aEso/Vu1JS46owKI/AAAAAAAAWsg/XFkqlbewPdsayp6lUCSE7YCiCMyHUFHMg/s1600/funny%2Bgood%2Bmorning%2Blove%2Bquotes%2B%25281%2529.jpg
p1207
g3
(g4
g5
(g6
(S'\x07\xe0\x08\x1c\x08\x01\x14\n\xa2\x8a'
tRp1208
S'465'
p1209
I2
ttRp1210
sVhttp://cache.lovethispic.com/uploaded_images/212206-Good-Morning-Friends-And-Family-Have-A-Good-Day.jpg
p1211
g3
(g4
g5
(g6
(S'\x07\xe0\x01\x05\x08\x050\x06/^'
tRp1212
I-1
I1
ttRp1213
sVhttp://www.relatably.com/q/img/good-morning-quotes-for-your-husband/Download-Goodmorning-Wallpapers-Saying-For-Your-Man2.jpg
p1214
g3
(g4
g5
(g6
(S'\x07\xe0\x05\x10\t\x05\x19\tU|'
tRp1215
I-1
I1
ttRp1216
sVhttp://media1.santabanta.com/full1/Miscellaneous/Good%20Morning/good-morning-12a.jpg
p1217
g3
(g4
g5
(g6
(S'\x07\xe0\t\x12\t *\x0b6\x96'
tRp1218
S'3'
I2
ttRp1219
sVhttp://cache.lovethispic.com/uploaded_images/198081-Good-Morning-Let-s-Get-The-Day-Started.jpg
p1220
g3
(g4
g5
(g6
(S'\x07\xe0\x03\x02\t/\x07\x05~o'
tRp1221
S'338'
p1222
I1
ttRp1223
sVhttp://designoval.com/wp-content/uploads/2015/04/good-morning-motivational-quotes-18.jpg
p1224
g3
(g4
g5
(g6
(S'\x07\xdf\x0c\x18\x08\x03\t\x04c3'
tRp1225
S'121'
p1226
I1
ttRp1227
sVhttp://4.bp.blogspot.com/-_cbPHqe5Vho/Vn9i5e6b3mI/AAAAAAAAPfc/2FvRXDylAHs/s1600/Good%2BMorning%2BInspiring%2BQuotes%2Band%2BWishes%2Bin%2BEnglish%2BLanguage%2B%2B%2B-%2BDEC27%2B-%2BQuotesAdda.jpg
p1228
g3
(g4
g5
(g6
(S'\x07\xe0\x05\x10\t\x05\x19\tU\xaa'
tRp1229
S'357'
p1230
I1
ttRp1231
sVhttps://wishyouthesame.files.wordpress.com/2014/02/good-morning-new-wallpaper.jpg
p1232
g3
(g4
g5
(g6
(S'\x07\xdf\x0c\x18\x08\x03\t\x04c<'
tRp1233
S'74'
p1234
I1
ttRp1235
sVhttps://lh3.ggpht.com/TqlpuTSPHobvu96yOdmfmWsZb4mkbpAlnJZ8RiTBv5kAZmgfzS-Kzk20hs5T-M9H5Q=h900
p1236
g3
(g4
g5
(g6
(S'\x07\xe0\x05\x19\t!\x06\t:\x90'
tRp1237
S'489'
p1238
I1
ttRp1239
sVhttp://www.pixelstalk.net/wp-content/uploads/2016/05/Good-Morning-Picture-Free-Download.jpg
p1240
g3
(g4
g5
(g6
(S'\x07\xe0\x08\x0f\x08\x003\x08\xee\xce'
tRp1241
I-1
I1
ttRp1242
sVhttp://cache.lovethispic.com/uploaded_images/238539-Good-Morning-May-God-Bless-You-Have-A-Lovely-Day.jpg
p1243
g3
(g4
g5
(g6
(S'\x07\xe0\x05\x19\t!\x06\t:\x9e'
tRp1244
S'425'
p1245
I1
ttRp1246
sVhttp://onehdwallpaper.com/wp-content/uploads/2015/07/Good-Morning.png
p1247
g3
(g4
g5
(g6
(S'\x07\xe0\t\x0c\t $\x02\xf2\xea'
tRp1248
S'223'
p1249
I1
ttRp1250
sVhttp://www.goodmorningquote.com/wp-content/uploads/2014/06/goodmorning-quotes-the-best-thing-about-waking-up.jpg?3d1c9c
p1251
g3
(g4
g5
(g6
(S'\x07\xdf\n\x1f\x08\x01\x1e\x0b\r\x94'
tRp1252
I-1
I1
ttRp1253
sVhttp://wallpaperz-hd.com/images/2015/good-morning-wallpaper/good-morning-wallpaper-05.jpg
p1254
g3
(g4
g5
(g6
(S'\x07\xdf\x0c\x14\x08\x022\x03\xdb\x04'
tRp1255
S'163'
p1256
I1
ttRp1257
sVhttp://quotesideas.com/wp-content/uploads/2015/07/Good-morning-wallpaper-with-a-beautiful-quote-and-picture-2015-2016.jpg
p1258
g3
(g4
g5
(g6
(S'\x07\xe0\x02\x12\t\x02#\x06oG'
tRp1259
I-1
I1
ttRp1260
sVhttp://www.imagefully.com/wp-content/uploads/2015/06/New-Style-Good-Morning-Wishes.jpg
p1261
g3
(g4
g5
(g6
(S'\x07\xdf\x0c\x18\x08\x03\t\x04b\xee'
tRp1262
S'119'
p1263
I1
ttRp1264
sVhttp://indiabright.com/wp-content/uploads/2015/12/good-morning-images-11.jpg
p1265
g3
(g4
g5
(g6
(S'\x07\xdf\x0c\x18\x08\x03\t\x04b\xf2'
tRp1266
S'113'
p1267
I1
ttRp1268
sVhttp://www.lovethispic.com/uploaded_images/204079-Good-Morning-Wishes.jpg
p1269
g3
(g4
g5
(g6
(S'\x07\xe0\n\x07\x08\x02"\x0e\xa9\xf2'
tRp1270
S'651'
p1271
I1
ttRp1272
sVhttp://www.lovethispic.com/uploaded_images/165719-Good-Morning-Coffee-Beans.jpg
p1273
g3
(g4
g5
(g6
(S'\x07\xe0\x03\x17\t0\x08\x06b\xb9'
tRp1274
S'289'
p1275
I1
ttRp1276
sVhttp://good-morning.hothungama.com/wp-content/uploads/2014/08/good-morning-wishes-images-1.jpg
p1277
g3
(g4
g5
(g6
(S'\x07\xe0\x05\x10\t\x05\x19\tUC'
tRp1278
S'395'
p1279
I1
ttRp1280
sVhttp://www.lovethispic.com/uploaded_images/194390-Good-Morning-Beautiful.jpg
p1281
g3
(g4
g5
(g6
(S'\x07\xdf\x0c\x1e\x08\x03:\x04\x99Y'
tRp1282
S'182'
p1283
I1
ttRp1284
sVhttp://www.pixelstalk.net/wp-content/uploads/2016/05/Good-Morning-HD-Photo.jpg
p1285
g3
(g4
g5
(g6
(S'\x07\xe0\x08\x17\t9\x17\x02\xfa\xc8'
tRp1286
I-1
I1
ttRp1287
sVhttp://phoozer.org/wp-content/uploads/2015/03/free-good-morning-images-for-whatsapp.jpg
p1288
g3
(g4
g5
(g6
(S'\x07\xe0\x04\r\t9\n\nM\xef'
tRp1289
I-1
I1
ttRp1290
sVhttp://hdwallpaperstab.com/wp-content/uploads/2015/07/wooden-heart-Good-Morning.jpg
p1291
g3
(g4
g5
(g6
(S'\x07\xdf\x0c\x14\x08\x022\x03\xdb3'
tRp1292
S'108'
p1293
I1
ttRp1294
sVhttp://pic.1fotonin.com/data/wallpapers/60/WDF_1058515.jpg
p1295
g3
(g4
g5
(g6
(S'\x07\xe0\x05\x15\x08\x01\x1e\x05\xde\x8d'
tRp1296
S'460'
p1297
I1
ttRp1298
sVhttp://www.topely.com/wp-content/uploads/2015/07/Top-10-Good-Morning-Wallpapers-With-Tea-2.gif
p1299
g3
(g4
g5
(g6
(S'\x07\xe0\x01\x1b\x08\x1a\x06\x07\xc1,'
tRp1300
S'219'
p1301
I1
ttRp1302
sVhttp://www.spyderonlines.com/images/wallpapers/good-morning-pic/good-morning-pic-16.jpg
p1303
g3
(g4
g5
(g6
(S'\x07\xe0\x07\n\x08\x009\x02\x0c\x1c'
tRp1304
S'476'
p1305
I1
ttRp1306
sVhttp://wishesmessages.com/wp-content/uploads/2013/03/Sweet-good-morning-message-for-friends-640x480.jpg
p1307
g3
(g4
g5
(g6
(S'\x07\xe0\x05\x1b\t.\x00\x02\xdfR'
tRp1308
S'56'
p1309
I1
ttRp1310
sVhttp://www.hdwallpaper.nu/wp-content/uploads/2015/04/good-morning-2015-6.jpg
p1311
g3
(g4
g5
(g6
(S'\x07\xe0\x08\x0f\x08\x003\x08\xef\x1f'
tRp1312
S'504'
p1313
I2
ttRp1314
sVhttp://hdwallpapersrocks.com/wp-content/uploads/2013/09/Good-Morning-coffee-cup-with-chocolate-chips.jpg
p1315
g3
(g4
g5
(g6
(S'\x07\xdf\x0c\x14\x08\x022\x03\xdb_'
tRp1316
S'159'
p1317
I1
ttRp1318
sVhttps://wishaf-graphics.s3.amazonaws.com/goodmorning/7414-cute-good-morning-messages.jpg
p1319
g3
(g4
g5
(g6
(S'\x07\xdf\x0c\x18\x08\x03\t\x04cj'
tRp1320
S'5'
I1
ttRp1321
sVhttp://www.wishwithlove.com/wp-content/uploads/2016/06/Good-Morning-Photo-HD-2.jpg
p1322
g3
(g4
g5
(g6
(S'\x07\xe0\x07\x0f\t#\x16\x08\x08\xfc'
tRp1323
S'575'
p1324
I1
ttRp1325
sVhttps://s-media-cache-ak0.pinimg.com/564x/86/09/3a/86093a0e9f4fbba038eecd3bc04471cc.jpg
p1326
g3
(g4
g5
(g6
(S'\x07\xe0\x02\x12\t\x02#\x06o\xfe'
tRp1327
S'276'
p1328
I1
ttRp1329
sVhttp://www.arenaworlds.com/wp-content/uploads/2016/07/good-morning-coffee-wallpaper.jpg
p1330
g3
(g4
g5
(g6
(S'\x07\xe0\n\x07\x08\x02"\x0e\xa9k'
tRp1331
S'518'
p1332
I1
ttRp1333
sVhttp://hdwallpapersrocks.com/wp-content/uploads/2013/09/good-morning-tea-flowers-nice-pictures.jpg
p1334
g3
(g4
g5
(g6
(S'\x07\xdf\x0c\x14\x08\x022\x03\xdb\x10'
tRp1335
S'162'
p1336
I1
ttRp1337
sVhttp://quotesideas.com/wp-content/uploads/2015/08/Love-quote-Good-morning-dear.jpg
p1338
g3
(g4
g5
(g6
(S'\x07\xe0\t\x1c\t!\x14\x00\xf7\xf5'
tRp1339
I-1
I1
ttRp1340
sVhttp://www.lovethispic.com/uploaded_images/209091-Good-Morning-Hump-Day-Camel.gif
p1341
g3
(g4
g5
(g6
(S'\x07\xe0\x03\x07\x08\x00 \x07or'
tRp1342
S'341'
p1343
I1
ttRp1344
sVhttps://static-2.gumroad.com/res/gumroad/5379993923488/asset_previews/95eb739608fea35349c91e9559e9ca3b/retina/GoodMorningSunshine_orange.jpg
p1345
g3
(g4
g5
(g6
(S'\x07\xe0\x04\x03\x08\x02 \x01\xfd\x9f'
tRp1346
S'363'
p1347
I1
ttRp1348
sVhttp://www.ambwallpapers.com/wp-content/uploads/2016/04/Download-Good-Morning-Coffee-Wallpaper.jpg
p1349
g3
(g4
g5
(g6
(S'\x07\xe0\x06\x1d\t1)\x07;\x96'
tRp1350
S'467'
p1351
I1
ttRp1352
sVhttp://www.lovethispic.com/uploaded_images/253093-Good-Morning-Have-A-Great-Day.jpg
p1353
g3
(g4
g5
(g6
(S'\x07\xe0\n\x07\x08\x02"\x0e\xa9\xe9'
tRp1354
S'653'
p1355
I1
ttRp1356
sVhttp://www.toptenpack.com/wp-content/uploads/2015/06/high-quailty-good-morning-wallpapers.jpg
p1357
g3
(g4
g5
(g6
(S"\x07\xe0\x08\x19\t:'\x01\x15Z"
tRp1358
S'401'
p1359
I1
ttRp1360
sVhttps://wishaf-graphics.s3.amazonaws.com/goodmorning/6020-good-morning-poems-for-him.jpg
p1361
g3
(g4
g5
(g6
(S'\x07\xdf\x0c\x1e\x08\x03:\x04\x98\xf0'
tRp1362
S'190'
p1363
I1
ttRp1364
sVhttps://pbs.twimg.com/profile_images/651923549909856256/RE690ojs.png
p1365
g3
(g4
g5
(g6
(S'\x07\xdf\n\x1f\x08\x01\x1e\x0b\r"'
tRp1366
S'21'
p1367
I1
ttRp1368
sVhttp://www.imagefully.com/wp-content/uploads/2015/06/Good-Morning-With-Indian-Nice-Cup-Of-Black-Tea.jpg
p1369
g3
(g4
g5
(g6
(S'\x07\xdf\x0c\x14\x08\x022\x03\xdb\x8f'
tRp1370
S'171'
p1371
I1
ttRp1372
sVhttps://s-media-cache-ak0.pinimg.com/736x/03/7c/76/037c76d152ad92f472fd77445b307a36.jpg
p1373
g3
(g4
g5
(g6
(S'\x07\xe0\x07\x0f\t#\x16\x08\t#'
tRp1374
S'475'
p1375
I1
ttRp1376
sVhttp://www.mystatus360.com/wp-content/uploads/2015/01/164.jpg
p1377
g3
(g4
g5
(g6
(S'\x07\xe0\x02\x06\x085\x17\t\xfe\xe0'
tRp1378
S'269'
p1379
I1
ttRp1380
sVhttp://www.lovethispic.com/uploaded_images/190005-Good-Morning-Wake-Up-And-Give-It-Your-Best-Shot.jpg
p1381
g3
(g4
g5
(g6
(S'\x07\xe0\x05\x19\t!\x06\t:\xf2'
tRp1382
S'38'
p1383
I1
ttRp1384
sVhttps://media1.popsugar-assets.com/files/2015/06/04/764/n/1922398/178362c0_POPSUGAR_03.27.15_ProductVignette_033_edit.xxxlarge_2x.jpg
p1385
g3
(g4
g5
(g6
(S'\x07\xe0\x08\x0f\x08\x003\x08\xefm'
tRp1386
S'493'
p1387
I1
ttRp1388
sVhttp://hdwallpaperssfree.com/wp-content/uploads/2013/05/download-natural-good-morning-free-hd-wallpapers.jpg
p1389
g3
(g4
g5
(g6
(S'\x07\xdf\x0c\x18\x08\x03\t\x04b\xdc'
tRp1390
S'120'
p1391
I1
ttRp1392
sVhttp://www.desicomments.com/dc3/09/342055/342055.jpg
p1393
g3
(g4
g5
(g6
(S'\x07\xe0\t\x1c\t!\x14\x00\xf8D'
tRp1394
S'391'
p1395
I1
ttRp1396
sVhttp://kurld.com/images/wallpapers/good-morning-pictures/good-morning-pictures-14.jpg
p1397
g3
(g4
g5
(g6
(S'\x07\xe0\n\x04\t7;\x0e\x9a\x01'
tRp1398
S'647'
p1399
I1
ttRp1400
sVhttp://www.dgreetings.com/newimages/goodmorning/hot-hello-good-morning-card.jpg
p1401
g3
(g4
g5
(g6
(S'\x07\xe0\x02\x04\x0837\x0e\xd4\xf8'
tRp1402
S'300'
p1403
I1
ttRp1404
sVhttp://media1.santabanta.com/full1/Miscellaneous/Good%20Morning/good-morning-2a.jpg
p1405
g3
(g4
g5
(g6
(S'\x07\xe0\x04\x11\t95\x06\x8f,'
tRp1406
S'23'
p1407
I2
ttRp1408
sVhttps://s3-eu-west-1.amazonaws.com/3tags-prod/article/55153547eced3/55153547f2dd9/original.jpg
p1409
g3
(g4
g5
(g6
(S'\x07\xe0\x05\x19\t!\x06\t:\x1a'
tRp1410
S'444'
p1411
I1
ttRp1412
sVhttp://img.wallpaperfolder.com/f/799614F75D1B/good-morning-messages-quotes-images.jpg
p1413
g3
(g4
g5
(g6
(S'\x07\xe0\x08\x1c\x08\x01\x14\n\xa2l'
tRp1414
S'579'
p1415
I1
ttRp1416
sVhttp://www.imgion.com/images/02/Red-tulips-for-lovely-morning.gif
p1417
g3
(g4
g5
(g6
(S'\x07\xe0\x02\x06\x085\x17\t\xfc\x8d'
tRp1418
S'27'
p1419
I1
ttRp1420
sVhttp://www.wishgoodmorning.org/wp-content/uploads/2016/03/Good-Morning-Happy-New-Year-wg017061.jpg
p1421
g3
(g4
g5
(g6
(S'\x07\xe0\x04\x03\x08\x02 \x01\xfdo'
tRp1422
S'362'
p1423
I1
ttRp1424
sVhttp://www.goodmorning.quotesms.com/images/good-morning-in-different-languages.jpg
p1425
g3
(g4
g5
(g6
(S'\x07\xe0\x05\x19\t!\x06\t;\x82'
tRp1426
S'427'
p1427
I1
ttRp1428
sVhttp://www.imagesbuddy.com/images/198/good-morning-you-have-to-get-up-every-morning-and-tell-yourself-i-can-do-this.jpg
p1429
g3
(g4
g5
(g6
(S'\x07\xe0\x02\x04\x0837\x0e\xd4('
tRp1430
S'303'
p1431
I1
ttRp1432
sVhttp://www.lovethispic.com/uploaded_images/122767-Good-Morning-Friends-And-Family.jpg
p1433
g3
(g4
g5
(g6
(S'\x07\xe0\x02\x1a\t;\x1b\x05\xeff'
tRp1434
S'114'
p1435
I1
ttRp1436
sVhttp://1.bp.blogspot.com/-qGqJrkMnQ1s/VMhkY-zGjmI/AAAAAAAACWA/YVX-Xmh5HDs/s1600/WhatsApp%2BGood%2BMorning%2BImage%2B2015%2Blatest%2Bfree%2B(7).jpg
p1437
g3
(g4
g5
(g6
(S'\x07\xe0\x02\x02\x08\x1a\x1f\x0b\xe0\x9e'
tRp1438
S'128'
p1439
I1
ttRp1440
sVhttps://pbs.twimg.com/profile_images/661157534107983877/wAKTiyA0_400x400.jpg
p1441
g3
(g4
g5
(g6
(S'\x07\xe0\x03\x07\x08\x00 \x07o\x90'
tRp1442
S'250'
p1443
I1
ttRp1444
sVhttp://www.birthdaywishes.expert/wp-content/uploads/2016/01/GoodMorning-4.jpg
p1445
g3
(g4
g5
(g6
(S'\x07\xe0\x05\x15\x08\x01\x1e\x05\xde1'
tRp1446
I-1
I1
ttRp1447
sVhttp://www.imgion.com/images/02/Start-your-morning-with-sweet-pastry.jpg
p1448
g3
(g4
g5
(g6
(S'\x07\xe0\x05\x1b\t.\x00\x02\xe0`'
tRp1449
S'26'
p1450
I1
ttRp1451
sVhttp://e2ua.com/data/wallpapers/143/WDF_1847726.jpg
p1452
g3
(g4
g5
(g6
(S'\x07\xe0\x05\x15\x08\x01\x1e\x05\xdeB'
tRp1453
I-1
I1
ttRp1454
sVhttp://rlv.zcache.com/good_morning_beautiful_inspirational_poster-rd56a7708c73549ffbb6352940ef91f70_i1ghw_8byvr_1024.jpg
p1455
g3
(g4
g5
(g6
(S'\x07\xe0\x02\x02\x08\x1a\x1f\x0b\xe0\xf8'
tRp1456
S'203'
p1457
I1
ttRp1458
sVhttps://i.ytimg.com/vi/IEUlOrBSxPc/maxresdefault.jpg
p1459
g3
(g4
g5
(g6
(S'\x07\xe0\x01\x1b\x08\x1a\x06\x07\xc0^'
tRp1460
S'224'
p1461
I1
ttRp1462
sVhttp://phoozer.org/wp-content/uploads/2015/03/good-morning-pics-for-whatsapp.jpg
p1463
g3
(g4
g5
(g6
(S'\x07\xe0\x03\x04\t3;\x03\xff\x12'
tRp1464
I-1
I1
ttRp1465
sVhttps://s-media-cache-ak0.pinimg.com/736x/07/d5/7c/07d57c845c3d0ea50d51a5fb29340fef.jpg
p1466
g3
(g4
g5
(g6
(S'\x07\xe0\t\x0c\t $\x02\xf2\xe1'
tRp1467
S'297'
p1468
I1
ttRp1469
sVhttp://www.imagefully.com/wp-content/uploads/2015/06/The-Beautiful-Scene-Good-Morning.png
p1470
g3
(g4
g5
(g6
(S'\x07\xe0\t\x1c\t!\x14\x00\xf5\xfe'
tRp1471
S'207'
p1472
I1
ttRp1473
sVhttp://www.wallpapersandbackground.com/images/good-morning-coffee-cup-beans-wallpapers-and-backgrounds.jpg
p1474
g3
(g4
g5
(g6
(S'\x07\xe0\x08\x0f\x08\x003\x08\xee\x93'
tRp1475
S'543'
p1476
I1
ttRp1477
sVhttps://s-media-cache-ak0.pinimg.com/originals/92/48/da/9248daae44fef62d59448129f52e50bf.jpg
p1478
g3
(g4
g5
(g6
(S'\x07\xe0\n\x04\t7;\x0e\x99\x99'
tRp1479
S'629'
p1480
I2
ttRp1481
sVhttp://www.lovethispic.com/uploaded_images/165733-Good-Morning-Tea.jpg
p1482
g3
(g4
g5
(g6
(S'\x07\xe0\x05\x19\t!\x06\t:<'
tRp1483
S'419'
p1484
I1
ttRp1485
sVhttp://phoozer.org/wp-content/uploads/2015/04/good-morning-images-for-whatsapp-free-download.png
p1486
g3
(g4
g5
(g6
(S'\x07\xe0\x03\x0e\x08\x00.\x07\xe1\x8b'
tRp1487
I-1
I1
ttRp1488
sVhttp://www.allbesttricks.com/wp-content/uploads/2016/01/good-morning-image-1.gif
p1489
g3
(g4
g5
(g6
(S'\x07\xe0\x02\x06\x085\x17\t\xfe!'
tRp1490
I-1
I1
ttRp1491
sVhttp://www.imgion.com/images/02/Look-a-new-day-to-enjoy.jpg
p1492
g3
(g4
g5
(g6
(S'\x07\xe0\x07\x1b\t6/\x0c\x8e\xdb'
tRp1493
S'89'
p1494
I1
ttRp1495
sVhttps://s-media-cache-ak0.pinimg.com/originals/dd/5f/bd/dd5fbdce21ad3d2e54e373fcf35a1b45.gif
p1496
g3
(g4
g5
(g6
(S'\x07\xe0\n\x07\x08\x02"\x0e\xaaT'
tRp1497
S'650'
p1498
I1
ttRp1499
sVhttp://www.goodmorningquote.com/wp-content/uploads/2014/06/motivational-good-morning-quotes-when-you-start-each-day-with-a-grateful-heart.jpg?1283de
p1500
g3
(g4
g5
(g6
(S'\x07\xdf\x0c\x1e\x08\x03:\x04\x99V'
tRp1501
I-1
I1
ttRp1502
sVhttp://phoozer.com/wp-content/uploads/2015/08/best-good-morning-quote.jpg
p1503
g3
(g4
g5
(g6
(S'\x07\xdf\x0b\x14\x08\x03&\x06\xec\xb8'
tRp1504
I-1
I1
ttRp1505
sVhttps://www.goodmorningquote.com/wp-content/uploads/2014/06/goodmorning-quotes-the-best-thing-about-waking-up.jpg?e7cdc0
p1506
g3
(g4
g5
(g6
(S'\x07\xe0\x02\x02\x08\x1a\x1f\x0b\xe0\xf3'
tRp1507
I-1
I1
ttRp1508
sVhttp://www.allbesttricks.com/wp-content/uploads/2016/01/good-morning-image-1.jpg
p1509
g3
(g4
g5
(g6
(S'\x07\xe0\x04\x18\x08\x00\x0f\rDJ'
tRp1510
I-1
I1
ttRp1511
sVhttp://www.lovethispic.com/uploaded_images/232892-Good-Morning-Smiles.jpg
p1512
g3
(g4
g5
(g6
(S'\x07\xe0\x03\x07\x08\x00 \x07oi'
tRp1513
S'253'
p1514
I1
ttRp1515
sVhttp://kurld.com/images/wallpapers/pic-of-good-morning/pic-of-good-morning-8.png
p1516
g3
(g4
g5
(g6
(S'\x07\xe0\n\x07\x08\x02"\x0e\xaaI'
tRp1517
S'640'
p1518
I1
ttRp1519
sVhttp://phoozer.net/wp-content/uploads/2016/02/good-morning-wallpapers-with-love.jpg
p1520
g3
(g4
g5
(g6
(S'\x07\xe0\n\x04\t7;\x0e\x99\xa7'
tRp1521
S'562'
p1522
I1
ttRp1523
sVhttp://hdwllpapers.com/wp-content/uploads/2016/01/Good-Morning-Wishes-Wallpapers-34-4.jpg
p1524
g3
(g4
g5
(g6
(S'\x07\xe0\x01\x0b\x08\x08\n\tU\xcc'
tRp1525
I-1
I1
ttRp1526
sVhttp://thelivepk.com/wp-content/uploads/2015/08/Superb-Good-Morning-Wallpaper.jpg
p1527
g3
(g4
g5
(g6
(S'\x07\xdf\x0b\x08\x08\x01*\x0ch\x87'
tRp1528
S'20'
p1529
I1
ttRp1530
sVhttp://paperpkblog.com/sms/wp-content/uploads/2015/04/Good-Morning-New-Style.jpg
p1531
g3
(g4
g5
(g6
(S'\x07\xe0\x03\x0e\x08\x00.\x07\xe1\xf7'
tRp1532
S'374'
p1533
I1
ttRp1534
sVhttp://www.w3mirchi.com/images/picture/16748-good-morning-wishes.jpg
p1535
g3
(g4
g5
(g6
(S'\x07\xe0\t\x0c\t $\x02\xf3-'
tRp1536
S'496'
p1537
I1
ttRp1538
sVhttp://cache.lovethispic.com/uploaded_images/242391-Happy-Leap-Year-Day-Good-Morning.jpg
p1539
g3
(g4
g5
(g6
(S'\x07\xe0\x04\x03\x08\x02 \x01\xfd\x92'
tRp1540
S'361'
p1541
I1
ttRp1542
sVhttp://previews.123rf.com/images/dkossar/dkossar1209/dkossar120900003/15107520-Good-morning-Stock-Photo.jpg
p1543
g3
(g4
g5
(g6
(S'\x07\xe0\t\x12\t *\x0b6\xf9'
tRp1544
S'468'
p1545
I1
ttRp1546
sVhttps://s-media-cache-ak0.pinimg.com/736x/cc/8b/70/cc8b70097682294943bec451695f7d31.jpg
p1547
g3
(g4
g5
(g6
(S'\x07\xe0\t\x0c\t $\x02\xf3C'
tRp1548
S'200'
p1549
I1
ttRp1550
sVhttp://good-morning.hothungama.com/wp-content/uploads/2014/08/1385788108_good_morning_love_wallpapers.jpg
p1551
g3
(g4
g5
(g6
(S'\x07\xe0\x08\x05\x08\x025\x01\x1fG'
tRp1552
S'482'
p1553
I1
ttRp1554
sVhttp://1.bp.blogspot.com/-CqDGFmp5T_g/VhKY460ODdI/AAAAAAAACVc/AG-KCzBeUmM/s1600/A-Lovely-Good-Morning.jpg
p1555
g3
(g4
g5
(g6
(S'\x07\xe0\t\x0c\t $\x02\xf3k'
tRp1556
S'232'
p1557
I1
ttRp1558
sVhttp://www.goodmorning.quotesms.com/images/cute-good-morning-sayings.jpg
p1559
g3
(g4
g5
(g6
(S'\x07\xe0\n\x07\x08\x02"\x0e\xaa\xd8'
tRp1560
S'417'
p1561
I1
ttRp1562
sVhttp://image.shutterstock.com/z/stock-photo-good-morning-cloud-massage-on-sky-131248247.jpg
p1563
g3
(g4
g5
(g6
(S'\x07\xe0\t\x1c\t!\x14\x00\xf5\xc4'
tRp1564
S'448'
p1565
I1
ttRp1566
sVhttps://s-media-cache-ak0.pinimg.com/564x/32/fa/b9/32fab97f34095bd8ca7218fba287ff93.jpg
p1567
g3
(g4
g5
(g6
(S'\x07\xe0\x03\x04\t3;\x03\xff\x0b'
tRp1568
S'347'
p1569
I1
ttRp1570
sVhttp://www.onsecrethunt.com/wallpaper/wp-content/uploads/2014/01/Good-Morning-2014-Wallpaper.jpg
p1571
g3
(g4
g5
(g6
(S'\x07\xdf\x0c\x18\x08\x03\t\x04c]'
tRp1572
S'122'
p1573
I1
ttRp1574
sVhttps://s-media-cache-ak0.pinimg.com/originals/03/7c/76/037c76d152ad92f472fd77445b307a36.jpg
p1575
g3
(g4
g5
(g6
(S'\x07\xe0\t\x1c\t!\x14\x00\xf8L'
tRp1576
S'635'
p1577
I1
ttRp1578
sVhttp://media1.santabanta.com/full1/Miscellaneous/Good%20Morning/good-morning-0v.jpg
p1579
g3
(g4
g5
(g6
(S'\x07\xe0\x04\x11\t95\x06\x8f\xc2'
tRp1580
S'69'
p1581
I1
ttRp1582
sVhttp://kurld.com/images/wallpapers/good-morning-hd-image/good-morning-hd-image-19.jpg
p1583
g3
(g4
g5
(g6
(S'\x07\xe0\t\x16\t 6\x04\x99\xb0'
tRp1584
S'626'
p1585
I1
ttRp1586
sVhttp://img1.gbpicsonline.com/gb/good-morning/good-morning_009.jpg
p1587
g3
(g4
g5
(g6
(S'\x07\xe0\x01\x05\x08\x050\x06/U'
tRp1588
S'72'
p1589
I1
ttRp1590
sVhttp://media1.santabanta.com/full1/Miscellaneous/Good%20Morning/good-morning-23a.jpg
p1591
g3
(g4
g5
(g6
(S'\x07\xe0\x03\x04\t3;\x03\xfe\x99'
tRp1592
S'13'
p1593
I1
ttRp1594
sVhttp://www.hdwallpaper.nu/wp-content/uploads/2015/04/Good-morning-greetings.jpg
p1595
g3
(g4
g5
(g6
(S'\x07\xe0\x07\x15\t$#\x03\x8eI'
tRp1596
S'88'
p1597
I1
ttRp1598
sVhttp://www.thefreshquotes.com/wp-content/uploads/2015/01/You%E2%80%99ll-be-OK-in-the-morning.jpg
p1599
g3
(g4
g5
(g6
(S'\x07\xe0\x04\x03\x08\x02 \x01\xfc\xec'
tRp1600
S'245'
p1601
I1
ttRp1602
sVhttp://wallpapercave.com/wp/XSN851U.jpg
p1603
g3
(g4
g5
(g6
(S'\x07\xe0\n\x07\x08\x02"\x0e\xa8\xea'
tRp1604
S'134'
p1605
I1
ttRp1606
sVhttp://www.siwallpaper.com/wp-content/uploads/2015/09/good_morning_hd_wallpaper.jpg
p1607
g3
(g4
g5
(g6
(S'\x07\xdf\x0c\x18\x08\x03\t\x04b\x88'
tRp1608
I-1
I1
ttRp1609
sVhttp://topfullhdwallpapers.com/wp-content/uploads/2015/06/Good-morning-green-tea-wallpapers.jpg
p1610
g3
(g4
g5
(g6
(S'\x07\xe0\x01\t\x08\x08\x01\x0bO\xd3'
tRp1611
S'160'
p1612
I1
ttRp1613
sVhttps://s-media-cache-ak0.pinimg.com/736x/43/c3/09/43c309f49b1e3466f8d6b2b01af10ef8.jpg
p1614
g3
(g4
g5
(g6
(S'\x07\xe0\x03\x17\t35\x0e\xd9\xb9'
tRp1615
S'379'
p1616
I1
ttRp1617
sVhttp://phoozer.com/wp-content/uploads/2015/03/good-morning-wallpaper-for-whatsapp.jpg
p1618
g3
(g4
g5
(g6
(S'\x07\xe0\x01\x13\x08\x138\x02-\xf6'
tRp1619
I-1
I1
ttRp1620
sVhttp://good-morning.hothungama.com/wp-content/uploads/2014/08/Good-Morning-images-for-lover.png
p1621
g3
(g4
g5
(g6
(S'\x07\xe0\x03\x0e\x08\x00.\x07\xe18'
tRp1622
S'40'
p1623
I1
ttRp1624
sVhttp://www.imagesbuddy.com/images/198/wish-you-all-friends-good-morning.jpg
p1625
g3
(g4
g5
(g6
(S'\x07\xdf\x0c\x14\x08\x022\x03\xda\xb4'
tRp1626
S'153'
p1627
I1
ttRp1628
sVhttp://newyearfun2016.com/wp-content/uploads/2016/01/Good-morning-wallpapers-with-coffee-3.jpg
p1629
g3
(g4
g5
(g6
(S'\x07\xe0\x01\x1b\x08\x1a\x06\x07\xbf\xa3'
tRp1630
S'240'
p1631
I1
ttRp1632
sVhttp://kurld.com/images/wallpapers/good-morning-picture/good-morning-picture-12.jpg
p1633
g3
(g4
g5
(g6
(S'\x07\xe0\n\x04\t7;\x0e\x99F'
tRp1634
NI1
ttRp1635
sVhttp://4.bp.blogspot.com/-fAwZ9HMT60w/VfUmv10hI5I/AAAAAAAABlY/WsKpMwbzt6M/s1600/Best%2BGood%2BMorning%2BImages%2BWith%2BFlowers%2B8.jpg
p1636
g3
(g4
g5
(g6
(S'\x07\xe0\x03\x17\t35\x0e\xd9_'
tRp1637
S'353'
p1638
I1
ttRp1639
sVhttp://www.10ism.com/wp-content/uploads/2015/12/Good-Morning-Pictures-With-Heart.jpg
p1640
g3
(g4
g5
(g6
(S'\x07\xe0\x02\x04\x0837\x0e\xd4n'
tRp1641
I-1
I1
ttRp1642
sVhttp://3.bp.blogspot.com/--oezMnYgTsw/VNBMX2mQniI/AAAAAAAAHAU/vbFDpZjHgok/s1600/Beautiful%2BGood%2BMOrning%2BEnglish%2BQuotations%2BOnline.jpg
p1643
g3
(g4
g5
(g6
(S'\x07\xe0\x02\x12\t\x02#\x06n\xb0'
tRp1644
S'294'
p1645
I1
ttRp1646
sVhttp://www.allindiayouth.com/wp-content/uploads/2014/09/str-ly.com1406963250975.jpg
p1647
g3
(g4
g5
(g6
(S'\x07\xdf\x0c\x1e\x08\x03:\x04\x99\x1b'
tRp1648
S'188'
p1649
I1
ttRp1650
sVhttps://mittrandacafe.files.wordpress.com/2015/01/goodmorning-love.jpg
p1651
g3
(g4
g5
(g6
(S'\x07\xe0\x02\x12\t\x02#\x06o\xbf'
tRp1652
S'302'
p1653
I1
ttRp1654
sVhttp://www.goodmorningx.com/wp-content/uploads/2015/04/Good-morning-with-fresh-red-apple.jpg
p1655
g3
(g4
g5
(g6
(S'\x07\xe0\x06\x1d\t1)\x07;\x01'
tRp1656
S'125'
p1657
I1
ttRp1658
sVhttp://www.allgraphics123.com/wp-content/uploads/2015/06/SunFlowery-Good-Morning.jpg
p1659
g3
(g4
g5
(g6
(S'\x07\xe0\x03\x02\t/\x07\x05~k'
tRp1660
S'61'
p1661
I1
ttRp1662
sVhttp://www.wallpapers16.com/wp-content/uploads/2016/05/Good-Morning-Rose-Images-HD-8.jpg
p1663
g3
(g4
g5
(g6
(S'\x07\xe0\x06\x1d\t1)\x07;\x8d'
tRp1664
S'455'
p1665
I1
ttRp1666
sVhttp://media.toxicfox.co.uk/media/catalog/product/cache/1/image/9df78eab33525d08d6e5fb8d27136e95/g/o/good-morning-handsome-1.jpg
p1667
g3
(g4
g5
(g6
(S'\x07\xe0\n\x04\t7;\x0e\x99+'
tRp1668
S'645'
p1669
I1
ttRp1670
sVhttp://photozup.com/wp-content/uploads/2015/09/Good-Morning-Images-With-Funny-Sayings.jpg
p1671
g3
(g4
g5
(g6
(S'\x07\xe0\x02\x0e\x08:7\r\x9e\x9b'
tRp1672
I-1
I1
ttRp1673
sVhttp://www.funnfun.in/wp-content/uploads/2014/06/good-morning-rose-600x329.jpg
p1674
g3
(g4
g5
(g6
(S'\x07\xdf\x0c\x1e\x08\x03:\x04\x99:'
tRp1675
I-1
I1
ttRp1676
sVhttp://kurld.com/images/good-morning-clipart/good-morning-clipart-15.jpg
p1677
g3
(g4
g5
(g6
(S'\x07\xe0\t\x1c\t!\x14\x00\xf64'
tRp1678
S'625'
p1679
I1
ttRp1680
sVhttp://www.whatsapp360.com/wp-content/uploads/2015/01/164.jpg
p1681
g3
(g4
g5
(g6
(S'\x07\xe0\x02\x04\x0837\x0e\xd4J'
tRp1682
S'22'
p1683
I1
ttRp1684
sVhttp://www.lovethispic.com/uploaded_images/138788-Good-Morning-Enjoy-Your-Beautiful-Tuesday.jpg
p1685
g3
(g4
g5
(g6
(S'\x07\xe0\x08\x1c\x08\x01\x14\n\xa2\xbb'
tRp1686
S'290'
p1687
I1
ttRp1688
sVhttp://www.imagefully.com/wp-content/uploads/2015/06/Enjoy-With-Breakfast-Happy-Good-Morning.jpg
p1689
g3
(g4
g5
(g6
(S'\x07\xe0\x08\x17\t9\x17\x02\xfa\xb7'
tRp1690
S'135'
p1691
I1
ttRp1692
sVhttp://www.wishgoodmorning.org/wp-content/uploads/2016/04/Good-Morning-Love-Tea-wg16202.jpg
p1693
g3
(g4
g5
(g6
(S'\x07\xe0\n\x07\x08\x02"\x0e\xa9\xfc'
tRp1694
S'642'
p1695
I1
ttRp1696
sVhttp://www.lovethispic.com/uploaded_images/200066-Good-Morning-Coffee-And-Roses.jpg
p1697
g3
(g4
g5
(g6
(S'\x07\xe0\x03\x17\t35\x0e\xd9\x8b'
tRp1698
S'301'
p1699
I1
ttRp1700
sVhttp://dailysmspk.net/wp-content/uploads/Best-Good-Morning-SMS-Greetings-and-HD-Wallpaper.jpg
p1701
g3
(g4
g5
(g6
(S'\x07\xe0\x01\x05\x08\x050\x06/\xd4'
tRp1702
S'78'
p1703
I1
ttRp1704
sVhttp://backerart.com/wp-content/uploads/2015/02/good-morning-metal-wall-art.png
p1705
g3
(g4
g5
(g6
(S'\x07\xe0\t\x0c\t $\x02\xf3)'
tRp1706
S'423'
p1707
I1
ttRp1708
sVhttp://picscompany.com/wp-content/uploads/2015/01/good-morning-3.png
p1709
g3
(g4
g5
(g6
(S'\x07\xdf\x0c\x10\x08\x00\x1f\x01\xbf\xdc'
tRp1710
S'129'
p1711
I1
ttRp1712
sVhttp://previews.123rf.com/images/faitotoro/faitotoro1207/faitotoro120700007/14574620-Good-Morning--Stock-Vector-day.jpg
p1713
g3
(g4
g5
(g6
(S'\x07\xe0\x04\x18\x08\x00\x0f\rDT'
tRp1714
S'221'
p1715
I1
ttRp1716
sVhttp://www.hdwallpapernew.in/wp-content/uploads/2014/11/Good-Morning-3D-HD-Wallpapers.jpg
p1717
g3
(g4
g5
(g6
(S'\x07\xe0\x08\x0f\x08\x003\x08\xef\x1b'
tRp1718
S'501'
p1719
I1
ttRp1720
sVhttps://www.goodmorningquote.com/wp-content/uploads/2014/06/goodmorning-quotes-the-best-thing-about-waking-up.jpg
p1721
g3
(g4
g5
(g6
(S"\x07\xe0\x02\x0c\x086'\r\xfd!"
tRp1722
I-1
I1
ttRp1723
sVhttp://www.lovethispic.com/uploaded_images/210219-Good-Morning-Smiley-Kisses.jpg
p1724
g3
(g4
g5
(g6
(S'\x07\xe0\x05\x10\t\x05\x19\tU%'
tRp1725
S'310'
p1726
I1
ttRp1727
sVhttp://www.hdwallpaper.nu/wp-content/uploads/2015/04/Good-Morning-Images-Download-5.jpg
p1728
g3
(g4
g5
(g6
(S'\x07\xe0\x03\x02\t/\x07\x05~D'
tRp1729
S'52'
p1730
I1
ttRp1731
sVhttps://s-media-cache-ak0.pinimg.com/564x/73/c5/1f/73c51f87719d025327fd34cb6dde1f3d.jpg
p1732
g3
(g4
g5
(g6
(S'\x07\xe0\n\x04\t7;\x0e\x99\xb9'
tRp1733
S'639'
p1734
I1
ttRp1735
sVhttp://www.technewsonline.in/wp-content/uploads/2016/05/romantic-good-morning-pictures.jpg
p1736
g3
(g4
g5
(g6
(S'\x07\xe0\x08\x17\t9\x17\x02\xfa\xef'
tRp1737
I-1
I1
ttRp1738
sVhttp://www.memeornah.com/wp-content/uploads/2016/02/good-morning-1.png
p1739
g3
(g4
g5
(g6
(S"\x07\xe0\x02\x0c\x086'\r\xfd\\"
tRp1740
S'284'
p1741
I1
ttRp1742
sVhttp://www.freshmorningquotes.com/wp-content/uploads/2015/09/Good-Morning-Have-A-Good-Day-Images-HD-Wallpaper-6.jpg
p1743
g3
(g4
g5
(g6
(S'\x07\xe0\n\x04\t7;\x0e\x99r'
tRp1744
I-1
I1
ttRp1745
sVhttp://1.bp.blogspot.com/-Z6-kFxvo6zM/UbicIL_fqwI/AAAAAAAAADY/yDAmHHG-ulA/s1600/Good-Morning-Wishes-With-Quotes-Wallpaper.jpg
p1746
g3
(g4
g5
(g6
(S'\x07\xe0\t\x1c\t!\x14\x00\xf7y'
tRp1747
S'103'
p1748
I1
ttRp1749
sVhttp://findwallpapershd.com/wp-content/uploads/2013/11/Good-Morning-Love-Heart-With-Flowers.jpg
p1750
g3
(g4
g5
(g6
(S'\x07\xe0\x08\x05\x08\x025\x01\x1fU'
tRp1751
S'549'
p1752
I1
ttRp1753
sVhttp://hdwallpaperssfree.com/wp-content/uploads/2013/05/free-download-good-morning-wallpapes-hd.jpg
p1754
g3
(g4
g5
(g6
(S'\x07\xe0\x01\x0b\x08\x08\n\tU\xfb'
tRp1755
S'155'
p1756
I1
ttRp1757
sVhttp://www.lovethispic.com/uploaded_images/211539-Good-Morning-Beautiful.jpg
p1758
g3
(g4
g5
(g6
(S'\x07\xe0\t\x0c\t $\x02\xf3o'
tRp1759
S'85'
p1760
I1
ttRp1761
sVhttp://www.superhdfx.com/wp-content/uploads/2016/05/Good-Morning-Dear-Image.jpg
p1762
g3
(g4
g5
(g6
(S'\x07\xe0\n\x07\x08\x02"\x0e\xab\x1a'
tRp1763
S'533'
p1764
I1
ttRp1765
sVhttp://1.bp.blogspot.com/-L9nlLdOMpPA/VZ-nUwZXArI/AAAAAAAAA8M/SLhn1E5le2I/s1600/good%2Bmorning1.jpg
p1766
g3
(g4
g5
(g6
(S'\x07\xe0\x06\x17\t7\x08\x06:\x00'
tRp1767
S'214'
p1768
I1
ttRp1769
sVhttp://weneedfun.com/wp-content/uploads/2016/09/Good-Morning-Wallpapers-72.jpg
p1770
g3
(g4
g5
(g6
(S'\x07\xe0\t\x16\t 6\x04\x99\x99'
tRp1771
S'606'
p1772
I1
ttRp1773
sVhttp://www.ihindishayari.in/wp-content/uploads/2015/10/Best-Good-Morning-2B-Shayari-in-Hindi.jpg
p1774
g3
(g4
g5
(g6
(S'\x07\xe0\t\x07\x08\x05\x15\x04e\x96'
tRp1775
S'590'
p1776
I1
ttRp1777
sVhttp://www.imageshunt.com/wp-content/uploads/2014/01/Good-morning-to-friends-and-family.jpg
p1778
g3
(g4
g5
(g6
(S'\x07\xdf\x0c\x1e\x08\x03:\x04\x99\xa7'
tRp1779
I-1
I1
ttRp1780
sVhttp://hdwallpapersbin.com/wp-content/uploads/2015/10/Good-Morning-Wallpapers-backgrounds.jpg
p1781
g3
(g4
g5
(g6
(S'\x07\xdf\x0c\x18\x08\x03\t\x04bQ'
tRp1782
S'130'
p1783
I1
ttRp1784
sVhttp://science-all.com/images/wallpapers/good-morning-image/good-morning-image-7.jpg
p1785
g3
(g4
g5
(g6
(S'\x07\xe0\x08\x0f\x08\x003\x08\xef\x7f'
tRp1786
S'560'
p1787
I1
ttRp1788
sVhttp://ehdwall.com/wp-content/uploads/2015/07/Good-Morning-Photos-2016.jpg
p1789
g3
(g4
g5
(g6
(S'\x07\xe0\x08\x0f\x08\x003\x08\xeew'
tRp1790
S'527'
p1791
I1
ttRp1792
sVhttp://media.glamsham.com/download/wallpaper/quotes-and-movies/Good%20Morning/Good-Morning-Quotes-315-12x9.jpg
p1793
g3
(g4
g5
(g6
(S'\x07\xe0\t\x1c\t!\x14\x00\xf4\xeb'
tRp1794
S'96'
p1795
I1
ttRp1796
sVhttp://indiabright.com/wp-content/uploads/2015/12/Have-a-Blessed-day.jpg
p1797
g3
(g4
g5
(g6
(S'\x07\xe0\x02\x02\x08\x1a\x1f\x0b\xe0\x90'
tRp1798
S'100'
p1799
I1
ttRp1800
sVhttp://www.greetingsfromheart.com/images/good_morning/goodmorning3.gif
p1801
g3
(g4
g5
(g6
(S'\x07\xe0\x02\x06\x085\x17\t\xfcs'
tRp1802
S'18'
p1803
I1
ttRp1804
sVhttp://1.bp.blogspot.com/-MdrSSnjurso/Uv0BVWBzdaI/AAAAAAAAMk0/cRrvTe2-brQ/s1600/Good-Morning-Wishes-Card-Butterfly-Image-with-Hindi-Urdu-SMS-Messages-Facebook-Status-Morning-.jpg
p1805
g3
(g4
g5
(g6
(S'\x07\xe0\t\x07\x08\x05\x15\x04d<'
tRp1806
S'577'
p1807
I1
ttRp1808
sVhttp://greetings-day.com/wp-content/uploads/2015/12/good-morning-Xmas.jpg
p1809
g3
(g4
g5
(g6
(S'\x07\xe0\x05\x10\t\x05\x19\tU\xba'
tRp1810
I-1
I1
ttRp1811
sVhttp://www.goodmorning.quotesms.com/images/good-morning-spanish.jpg
p1812
g3
(g4
g5
(g6
(S'\x07\xe0\n\x04\t7;\x0e\x99J'
tRp1813
S'435'
p1814
I1
ttRp1815
sVhttp://phoozer.net/wp-content/uploads/2015/04/good-morning-images-for-whatsapp-free-download.png
p1816
g3
(g4
g5
(g6
(S'\x07\xe0\x05\x15\x08\x01\x1e\x05\xde>'
tRp1817
S'418'
p1818
I1
ttRp1819
sVhttp://e2ua.com/data/wallpapers/60/WDF_1058534.jpg
p1820
g3
(g4
g5
(g6
(S'\x07\xe0\x04\r\t9\n\nMs'
tRp1821
I-1
I1
ttRp1822
sVhttp://image.shutterstock.com/z/stock-photo-good-morning-105778163.jpg
p1823
g3
(g4
g5
(g6
(S'\x07\xe0\t\x1c\t!\x14\x00\xf5\xb1'
tRp1824
S'545'
p1825
I1
ttRp1826
sVhttp://www.hdwallpaper.nu/wp-content/uploads/2015/04/1956869.jpg
p1827
g3
(g4
g5
(g6
(S'\x07\xe0\x08\x0f\x08\x003\x08\xef_'
tRp1828
S'565'
p1829
I1
ttRp1830
sVhttp://www.conversationsforabetterworld.com/wp-content/uploads/2015/08/Good-morning-wishes-hd-images.jpg
p1831
g3
(g4
g5
(g6
(S'\x07\xe0\x03\x02\t/\x07\x05~u'
tRp1832
I-1
I1
ttRp1833
sVhttps://s-media-cache-ak0.pinimg.com/736x/05/07/09/05070970571dcd42575c7b1634e09336.jpg
p1834
g3
(g4
g5
(g6
(S'\x07\xe0\x05\x1b\t.\x00\x02\xdf\xaa'
tRp1835
S'426'
p1836
I1
ttRp1837
sVhttp://4.bp.blogspot.com/-BP0TlW4Auv8/VhKY7hM9l2I/AAAAAAAACVw/ROcxmpVqUJc/s1600/Good-Morning-Image.jpg
p1838
g3
(g4
g5
(g6
(S'\x07\xe0\n\x07\x08\x02"\x0e\xa9\xb4'
tRp1839
S'623'
p1840
I1
ttRp1841
sVhttp://goodmorningpics.com/wp-content/uploads/2015/12/Good_Morning.jpg
p1842
g3
(g4
g5
(g6
(S'\x07\xe0\x01\x1b\x08\x1a\x06\x07\xc0\x9e'
tRp1843
S'194'
p1844
I1
ttRp1845
sVhttp://girlterest.com/wp-content/uploads/2015/03/Good-Morning-lets-have-a-good-day1.jpg
p1846
g3
(g4
g5
(g6
(S'\x07\xe0\x05\x08\x08\x00\x0b\x05\xe9Q'
tRp1847
S'305'
p1848
I1
ttRp1849
sVhttp://science-all.com/images/wallpapers/good-morning-picture/good-morning-picture-21.jpg
p1850
g3
(g4
g5
(g6
(S'\x07\xe0\x05\x1b\t.\x00\x02\xdfn'
tRp1851
S'558'
p1852
I1
ttRp1853
sVhttp://www.barrmoss.com/wp-content/uploads/2016/06/Good-morning-cofee-wallpaper.jpg
p1854
g3
(g4
g5
(g6
(S'\x07\xe0\t\x1c\t!\x14\x00\xf6z'
tRp1855
S'632'
p1856
I1
ttRp1857
sVhttp://geniusquotes.org/wp-content/uploads/2014/03/new-quotes-hd-good-morning-with-flowers-free.jpg
p1858
g3
(g4
g5
(g6
(S'\x07\xdf\x0c\x12\x08\x01\x1d\x08\xdfM'
tRp1859
I-1
I1
ttRp1860
sVhttps://lh3.googleusercontent.com/-C2sP35M-xJA/V70O-1WQzQI/AAAAAAAAE9M/WFzjt1C_dQEompd2wNZFD95X8IiPFo7DgCJoC/w1024-h768/Good%2BMorning%2BFull%2BHD%2BImages%2B-%2B527.jpg
p1861
g3
(g4
g5
(g6
(S'\x07\xe0\t\x12\t *\x0b6:'
tRp1862
S'612'
p1863
I1
ttRp1864
sVhttp://wallino.com/wp-content/uploads/2015/10/good-morning-wallpapers-wide.jpg
p1865
g3
(g4
g5
(g6
(S'\x07\xdf\x0b\x08\x08\x01*\x0chb'
tRp1866
S'49'
p1867
I1
ttRp1868
sVhttp://data.whicdn.com/images/119371665/original.png
p1869
g3
(g4
g5
(g6
(S'\x07\xe0\x02\x1a\t;\x1b\x05\xef\xbd'
tRp1870
S'97'
p1871
I1
ttRp1872
sVhttp://www.thequotepedia.com/images/46/good-morning-faith-is-to-believe-what-we-do-not-see-and-the-reward-of-this-faith-is-to-see-what-we-believe.jpg
p1873
g3
(g4
g5
(g6
(S'\x07\xe0\x01\x17\x08\x14\x07\x02MH'
tRp1874
S'206'
p1875
I1
ttRp1876
sVhttp://www.imagefully.com/wp-content/uploads/2015/06/Good-Morning-Wishes-Three-Little-Cute-Cat-Sit-A-White-Cup.jpg
p1877
g3
(g4
g5
(g6
(S'\x07\xe0\x06\x1d\t1)\x07;I'
tRp1878
S'556'
p1879
I1
ttRp1880
sVhttp://www.desicomments.com/dc3/09/328319/328319.jpg
p1881
g3
(g4
g5
(g6
(S'\x07\xe0\x04\x0b\x08\x03\x1d\x0cW\x08'
tRp1882
S'315'
p1883
I1
ttRp1884
sVhttp://www.goodmorningtips.com/wp-content/uploads/2015/12/Good-Morning-Best-Cover-for-Facebook.jpg
p1885
g3
(g4
g5
(g6
(S'\x07\xe0\x03\x17\t35\x0e\xd9\xe5'
tRp1886
S'319'
p1887
I1
ttRp1888
sVhttp://livehdwallpaper.com/wp-content/uploads/2014/10/Good-Morning-Flowers-Pics.jpg
p1889
g3
(g4
g5
(g6
(S'\x07\xe0\x08\x1c\x08\x01\x14\n\xa2\xe0'
tRp1890
S'365'
p1891
I1
ttRp1892
sVhttp://www.goodmorningx.com/wp-content/uploads/2015/07/good-morning-to-gf-photo.jpg
p1893
g3
(g4
g5
(g6
(S'\x07\xe0\x02\x04\x0837\x0e\xd4\x81'
tRp1894
I-1
I1
ttRp1895
sVhttps://i.ytimg.com/vi/WEhTBlmpX8g/maxresdefault.jpg
p1896
g3
(g4
g5
(g6
(S"\x07\xe0\x04\x18\x08\x00\x0f\rD'"
tRp1897
S'235'
p1898
I1
ttRp1899
sVhttp://rawpl.com/wp-content/uploads/2015/11/good-morning-quotes-for-good-morning-quotes-collections-2015-47.jpg
p1900
g3
(g4
g5
(g6
(S'\x07\xdf\x0c\x18\x08\x03\t\x04c\x1b'
tRp1901
S'152'
p1902
I1
ttRp1903
sVhttp://www.wishwithlove.com/wp-content/uploads/2016/06/Good-Morning-Emoji-2.jpg
p1904
g3
(g4
g5
(g6
(S'\x07\xe0\x07\x0f\t#\x16\x08\tY'
tRp1905
I-1
I1
ttRp1906
sVhttp://www.wishafriend.com/goodmorning/uploads/7414-cute-good-morning-messages.jpg
p1907
g3
(g4
g5
(g6
(S'\x07\xe0\x02\x06\x085\x17\t\xfef'
tRp1908
I-1
I1
ttRp1909
sVhttp://www.fungistaan.com/wp-content/uploads/2015/11/20-Best-Good-Morning-Hindi-Shayari1.jpg
p1910
g3
(g4
g5
(g6
(S'\x07\xe0\x08\x05\x08\x025\x01\x1f@'
tRp1911
S'528'
p1912
I1
ttRp1913
sVhttp://www.yourwhatsappstatus.com/wp-content/uploads/2016/07/good-morning-whatsapp-image-good-morning-1-JolhmX-1.jpg
p1914
g3
(g4
g5
(g6
(S'\x07\xe0\x08\x05\x08\x025\x01\x1f\x1d'
tRp1915
I-1
I1
ttRp1916
sVhttps://s-media-cache-ak0.pinimg.com/originals/94/ff/0e/94ff0e745cc3492c1e3cba31306ce6f9.jpg
p1917
g3
(g4
g5
(g6
(S'\x07\xe0\x03\x07\x08\x00 \x07o\x02'
tRp1918
S'339'
p1919
I1
ttRp1920
sVhttp://www.allgraphics123.com/wp-content/uploads/2015/06/Nice-Good-Morning-Friends.jpg
p1921
g3
(g4
g5
(g6
(S'\x07\xe0\n\x07\x08\x02"\x0e\xaa\x91'
tRp1922
S'11'
p1923
I1
ttRp1924
sVhttps://wishaf-graphics.s3.amazonaws.com/goodmorning/7435-good-morning-messages-for-girlfriend.jpg
p1925
g3
(g4
g5
(g6
(S'\x07\xe0\x02\x06\x085\x17\t\xfd\xd3'
tRp1926
S'84'
p1927
I1
ttRp1928
sVhttp://www.wallpapersforu.com/wp-content/uploads/2016/08/Good-morning-best-wish.jpg
p1929
g3
(g4
g5
(g6
(S'\x07\xe0\x08\x0f\x08\x003\x08\xefI'
tRp1930
S'561'
p1931
I1
ttRp1932
sVhttp://cutewallpaper.org/wp-content/uploads/2016/08/good-morning-wallpaper-7.jpg
p1933
g3
(g4
g5
(g6
(S'\x07\xe0\n\x07\x08\x02"\x0e\xa9\x91'
tRp1934
S'655'
p1935
I1
ttRp1936
sVhttp://www.goodmorninghostels.com/wp-content/uploads/2011/05/bnn1-570x240.jpg
p1937
g3
(g4
g5
(g6
(S'\x07\xe0\x05\x1b\t.\x00\x02\xdf='
tRp1938
I-1
I1
ttRp1939
sVhttp://hdwallpapersrocks.com/wp-content/uploads/2013/09/Good-morning-wooden-heart-with-flower.jpg
p1940
g3
(g4
g5
(g6
(S'\x07\xe0\x08\x01\x08\x02"\t\'S'
tRp1941
S'519'
p1942
I1
ttRp1943
sVhttp://cache.lovethispic.com/uploaded_images/198719-Good-Morning-Puppies.gif
p1944
g3
(g4
g5
(g6
(S'\x07\xe0\x03\x04\t3;\x03\xff\xae'
tRp1945
S'348'
p1946
I1
ttRp1947
sVhttp://wallpapercave.com/wp/Dl4GwdJ.jpg
p1948
g3
(g4
g5
(g6
(S'\x07\xdf\x0b\x14\x08\x03&\x06\xec\x81'
tRp1949
S'82'
p1950
I1
ttRp1951
sVhttp://4.bp.blogspot.com/-2-nIu9BkE90/Vht8IaHWyjI/AAAAAAAACgU/UCHZo7rVmgI/s1600/sweet%2Bgood%2Bmorning.jpg
p1952
g3
(g4
g5
(g6
(S'\x07\xe0\x05\x10\t\x05\x19\tUf'
tRp1953
S'309'
p1954
I1
ttRp1955
sVhttp://www.lovethispic.com/uploaded_images/230014-Good-Morning-Spread-The-Love.jpg
p1956
g3
(g4
g5
(g6
(S'\x07\xe0\n\x07\x08\x02"\x0e\xaat'
tRp1957
S'342'
p1958
I1
ttRp1959
sVhttp://3.bp.blogspot.com/-l8Dr8frjRWk/VKomHfAXqOI/AAAAAAAABFY/5hSmN7V68uU/s1600/good-morning-greeting%2Bcup%2Btea%2Bwith%2Bchoco%2Bhd-wallpaper%2Bfree.gif
p1960
g3
(g4
g5
(g6
(S'\x07\xe0\x01\x0b\x08\x08\n\tV\r'
tRp1961
S'106'
p1962
I1
ttRp1963
sVhttp://www.goodmorningx.com/wp-content/uploads/2015/07/Good-Morning-Photo-for-husband.jpg
p1964
g3
(g4
g5
(g6
(S'\x07\xe0\x08\x0f\x08\x003\x08\xefw'
tRp1965
S'516'
p1966
I1
ttRp1967
sVhttp://kurld.com/images/wallpapers/good-morning-images/good-morning-images-13.jpg
p1968
g3
(g4
g5
(g6
(S'\x07\xe0\n\x07\x08\x02"\x0e\xa8\xd8'
tRp1969
I-1
I1
ttRp1970
sVhttp://www.goodmorningquote.com/wp-content/uploads/2014/06/good-morning-inspirational-quotes-life-is-like-a-mirror.jpg?3d1c9c
p1971
g3
(g4
g5
(g6
(S'\x07\xdf\n\x1f\x08\x01\x1e\x0b\x0e\x92'
tRp1972
I-1
I1
ttRp1973
sVhttp://www.technoven.com/wp-content/uploads/2015/05/top-Best-Good-Morning-Images-Pictures-For-Whatsapp.jpg
p1974
g3
(g4
g5
(g6
(S'\x07\xe0\x08\x05\x08\x025\x01\x1e\xd1'
tRp1975
S'499'
p1976
I1
ttRp1977
sVhttp://www.lovethispic.com/uploaded_images/227219-Happy-Saturday-Good-Morning-Friends.jpg
p1978
g3
(g4
g5
(g6
(S'\x07\xe0\x05\x08\x08\x00\x0b\x05\xe9\xe0'
tRp1979
S'550'
p1980
I1
ttRp1981
sVhttp://www.berryquotes.com/wp-content/uploads/2016/05/Good-morning-images-2.jpg
p1982
g3
(g4
g5
(g6
(S'\x07\xe0\t\x07\x08\x05\x15\x04e\x9c'
tRp1983
S'588'
p1984
I1
ttRp1985
sVhttp://www.jucoolimages.com/images/goodmorning/goodmorning_65.gif
p1986
g3
(g4
g5
(g6
(S'\x07\xdf\x0c\x1c\x08\x03+\x02\xb1\xdc'
tRp1987
S'179'
p1988
I1
ttRp1989
sVhttp://www.freelargeimages.com/wp-content/uploads/2015/11/Good_Morning_11.jpg
p1990
g3
(g4
g5
(g6
(S'\x07\xe0\t\x12\t *\x0b6c'
tRp1991
S'523'
p1992
I1
ttRp1993
sVhttps://thumbs.dreamstime.com/z/good-morning-message-tablet-computer-screen-office-table-49408226.jpg
p1994
g3
(g4
g5
(g6
(S'\x07\xe0\t\x1c\t!\x14\x00\xf52'
tRp1995
S'441'
p1996
I1
ttRp1997
sVhttp://www.jattsms.com/wp-content/uploads/2014/08/Romantic-Coffee-Good-Morning-Wallpaper.jpg
p1998
g3
(g4
g5
(g6
(S'\x07\xe0\x08\x17\t9\x17\x02\xfat'
tRp1999
S'513'
p2000
I1
ttRp2001
sVhttp://www.thequotepedia.com/images/46/there-is-always-something-to-be-thankful-for-each-and-every-day-when-you-see-the-beauty-of-being-alive-under-gods-grace-good-morning.jpg
p2002
g3
(g4
g5
(g6
(S'\x07\xe0\x07\x1b\t6/\x0c\x8e\x82'
tRp2003
S'554'
p2004
I1
ttRp2005
sVhttp://4.bp.blogspot.com/-lPxEtMu6TFg/VhKZDqv7g1I/AAAAAAAACWk/pI3TkMmc_l8/s1600/good-morning-quotes-funny.jpg
p2006
g3
(g4
g5
(g6
(S'\x07\xe0\n\x07\x08\x02"\x0e\xa91'
tRp2007
S'248'
p2008
I1
ttRp2009
sVhttp://ndl.mgccw.com/mu3/wallpaper/20141105/00/736a17c0a947be47ef22d34c441e9ea5/1874227-1280x1024-sy_65650017975.jpg
p2010
g3
(g4
g5
(g6
(S'\x07\xe0\x06\x1d\t1)\x07:\xdf'
tRp2011
S'255'
p2012
I1
ttRp2013
sVhttp://downloadimagesofflowers.com/wp-content/uploads/2015/12/images-of-good-morning-to-you.jpg
p2014
g3
(g4
g5
(g6
(S'\x07\xdf\x0c\x18\x08\x03\t\x04b\xa7'
tRp2015
S'167'
p2016
I1
ttRp2017
sVhttp://rahinz.com/wp-content/uploads/2015/11/good-morning-rose-600x329.jpg
p2018
g3
(g4
g5
(g6
(S'\x07\xe0\x02\x06\x085\x17\t\xfd&'
tRp2019
S'254'
p2020
I1
ttRp2021
sVhttp://www.lovethispic.com/uploaded_images/195770-Good-Morning-Gorgeous.jpg
p2022
g3
(g4
g5
(g6
(S'\x07\xe0\t\x07\x08\x05\x15\x04dl'
tRp2023
S'127'
p2024
I1
ttRp2025
sVhttp://www.thewallpapersfort.com/wp-content/uploads/2014/12/good_morning_coffee_cup.jpg
p2026
g3
(g4
g5
(g6
(S'\x07\xdf\x0c\x10\x08\x00\x1f\x01\xbfO'
tRp2027
S'102'
p2028
I1
ttRp2029
sVhttp://www.desicomments.com/dc3/10/350002/350002.jpg
p2030
g3
(g4
g5
(g6
(S'\x07\xe0\x07\n\x08\x009\x02\x0b\xd7'
tRp2031
S'474'
p2032
I1
ttRp2033
sVhttp://www.pluginsweb.com/wp-content/uploads/2016/05/romantic-good-morning-sms-5.jpg
p2034
g3
(g4
g5
(g6
(S'\x07\xe0\x06\x1d\t1)\x07;N'
tRp2035
I-1
I1
ttRp2036
sVhttp://www.wishgoodmorning.org/wp-content/uploads/2016/04/Aaj-Aur-Ek-Subah-Meri-Jholi-Me-Daal-Di-wg140045.jpg
p2037
g3
(g4
g5
(g6
(S'\x07\xe0\x05\x10\t\x05\x19\tT\xf6'
tRp2038
S'407'
p2039
I1
ttRp2040
sVhttp://goodmorningpics.com/wp-content/uploads/2015/11/Good-morning-6.jpg
p2041
g3
(g4
g5
(g6
(S'\x07\xe0\x02\x04\x0837\x0e\xd4F'
tRp2042
S'166'
p2043
I1
ttRp2044
sVhttp://www.happyholidaysimages.com/wp-content/uploads/2016/04/goodmorning-love.jpg
p2045
g3
(g4
g5
(g6
(S'\x07\xe0\x05\x10\t\x05\x19\tT\xff'
tRp2046
I-1
I1
ttRp2047
sVhttp://theartmad.com/wp-content/uploads/2015/04/Good-Morning-Images-9.jpg
p2048
g3
(g4
g5
(g6
(S'\x07\xdf\x0b\x08\x08\x01*\x0ch8'
tRp2049
I-1
I1
ttRp2050
sVhttp://www.letuspublish.com/wp-content/uploads/2014/10/1920x1200xGood-Morning-HD-Wallpaper-for-Desktop.jpg.pagespeed.ic.qyhmHbLl41.jpg
p2051
g3
(g4
g5
(g6
(S'\x07\xe0\x03\x02\t/\x07\x05~\xc9'
tRp2052
S'459'
p2053
I2
ttRp2054
sVhttp://media.glamsham.com/download/wallpaper/quotes-and-movies/Good%20Morning/Good-Morning-Quotes-311-12x9.jpg
p2055
g3
(g4
g5
(g6
(S'\x07\xe0\x06\x1d\t1)\x07;\x19'
tRp2056
S'515'
p2057
I1
ttRp2058
sVhttp://www.desiglitters.com/wp-content/uploads/2012/09/Wonderful-Good-Morning-Graphic1.gif
p2059
g3
(g4
g5
(g6
(S'\x07\xe0\x01\x05\x08\x050\x06/\xa7'
tRp2060
S'44'
p2061
I1
ttRp2062
sVhttp://p1.pichost.me/i/71/1956869.jpg
p2063
g3
(g4
g5
(g6
(S'\x07\xdf\x0c\x14\x08\x022\x03\xdb('
tRp2064
S'148'
p2065
I1
ttRp2066
sVhttp://hdwallpapershdpics.com/wp-content/uploads/2015/10/Zedge-good-morning-wallpaper1.jpg
p2067
g3
(g4
g5
(g6
(S'\x07\xe0\t\x07\x08\x05\x15\x04d\xa4'
tRp2068
I-1
I1
ttRp2069
sVhttp://www.goodmorningquote.com/wp-content/uploads/2014/06/good-morning-quotes-the-minute-you-think-of.jpg?2d7d09
p2070
g3
(g4
g5
(g6
(S'\x07\xdf\x0b\x14\x08\x03&\x06\xec\xeb'
tRp2071
I-1
I1
ttRp2072
sVhttp://www.goodmorning.quotesms.com/images/ways-to-say-good-morning.jpg
p2073
g3
(g4
g5
(g6
(S'\x07\xe0\n\x07\x08\x02"\x0e\xa9\xde'
tRp2074
S'451'
p2075
I1
ttRp2076
sVhttp://livehdwallpaper.com/wp-content/uploads/2016/01/Good-Morning-Desktop-Wallpaper-HD-Backgrounds.jpg
p2077
g3
(g4
g5
(g6
(S'\x07\xe0\x08\x0f\x08\x003\x08\xee\xf1'
tRp2078
S'526'
p2079
I1
ttRp2080
sVhttp://greetings-day.com/wp-content/uploads/2015/07/good-morning_quotes-3.jpg
p2081
g3
(g4
g5
(g6
(S"\x07\xe0\x02\x0c\x086'\r\xfd\x9b"
tRp2082
I-1
I1
ttRp2083
sVhttp://rishikajain.com/wp-content/uploads/2016/04/good-morning.jpg
p2084
g3
(g4
g5
(g6
(S'\x07\xe0\n\x07\x08\x02"\x0e\xaa\x05'
tRp2085
S'636'
p2086
I1
ttRp2087
sVhttp://www.goodmorningquote.com/wp-content/uploads/2014/06/good-morning-quotes-the-minute-you-think-of.jpg?3d1c9c
p2088
g3
(g4
g5
(g6
(S'\x07\xdf\n\x1f\x08\x01\x1e\x0b\r\xcb'
tRp2089
I-1
I1
ttRp2090
sVhttp://www.desicomments.com/dc3/10/359895/359895.jpg
p2091
g3
(g4
g5
(g6
(S'\x07\xe0\n\x07\x08\x02"\x0e\xa9\xaa'
tRp2092
S'660'
p2093
I1
ttRp2094
sVhttp://www.goodmorningx.com/wp-content/uploads/2015/04/latest-good-morning-wallpaper.jpg
p2095
g3
(g4
g5
(g6
(S'\x07\xe0\x07\x15\t$#\x03\x8ep'
tRp2096
S'94'
p2097
I1
ttRp2098
sVhttp://www.goodmorningimagesgreetings.com/wp-content/uploads/2015/09/good-morning-hd-wallpaper-high-definition-ras.jpg
p2099
g3
(g4
g5
(g6
(S'\x07\xe0\x08\x17\t9\x17\x02\xfa\xd8'
tRp2100
S'143'
p2101
I1
ttRp2102
sVhttp://wahbaloch.com/wp-content/uploads/2015/10/Good-Morning-HD-Wallpaper.jpg
p2103
g3
(g4
g5
(g6
(S'\x07\xdf\x0c\x14\x08\x022\x03\xdb\x95'
tRp2104
S'150'
p2105
I1
ttRp2106
sVhttp://www.mofasalkhabar.com/wp-content/uploads/2015/12/Good-Morning-Wallpapers-1.jpg
p2107
g3
(g4
g5
(g6
(S'\x07\xe0\x01\x05\x08\x050\x06/\xfa'
tRp2108
I-1
I1
ttRp2109
sVhttps://s-media-cache-ak0.pinimg.com/564x/cc/8b/70/cc8b70097682294943bec451695f7d31.jpg
p2110
g3
(g4
g5
(g6
(S'\x07\xe0\n\x07\x08\x02"\x0e\xa9J'
tRp2111
S'624'
p2112
I1
ttRp2113
sVhttp://www.lovethispic.com/uploaded_images/232389-Cute-Happy-Tuesday-Good-Morning.jpg
p2114
g3
(g4
g5
(g6
(S'\x07\xe0\x02\x0e\x08:7\r\x9em'
tRp2115
S'285'
p2116
I1
ttRp2117
sVhttp://smstosay.com/wp-content/uploads/2016/07/sms-to-say-good-morning.jpg
p2118
g3
(g4
g5
(g6
(S'\x07\xe0\x08\x05\x08\x025\x01\x1f\x08'
tRp2119
S'541'
p2120
I1
ttRp2121
sVhttp://www.thefreshquotes.com/wp-content/uploads/2015/07/Being-In-Love-With-You-Makes-Every-Morning-Worth-Getting-Up-For...-Good-Morning-Sweetheart.jpg
p2122
g3
(g4
g5
(g6
(S'\x07\xe0\t\x1c\t!\x14\x00\xf5\x85'
tRp2123
S'239'
p2124
I1
ttRp2125
sVhttp://www.livethesheendream.com/wp-content/uploads/2016/04/good-morning-images.jpg
p2126
g3
(g4
g5
(g6
(S'\x07\xe0\x08\x0f\x08\x003\x08\xefV'
tRp2127
I-1
I1
ttRp2128
sVhttp://phoozer.org/wp-content/uploads/2015/03/good-morning-wallpaper-for-whatsapp.jpg
p2129
g3
(g4
g5
(g6
(S'\x07\xe0\x03\x02\t/\x07\x05~H'
tRp2130
I-1
I1
ttRp2131
sVhttp://media-cache-ak0.pinimg.com/originals/94/ff/0e/94ff0e745cc3492c1e3cba31306ce6f9.jpg
p2132
g3
(g4
g5
(g6
(S'\x07\xe0\x08\x1c\x08\x01\x14\n\xa3U'
tRp2133
S'587'
p2134
I1
ttRp2135
sVhttps://wishaf-graphics.s3.amazonaws.com/goodmorning/8407-motivational-good-morning-messages.jpg
p2136
g3
(g4
g5
(g6
(S'\x07\xe0\x03\x07\x08\x00 \x07p\x10'
tRp2137
S'257'
p2138
I1
ttRp2139
sVhttp://images.freeimages.com/images/premium/previews/5199/51996988-cup-of-tea-and-good-morning-note.jpg
p2140
g3
(g4
g5
(g6
(S'\x07\xe0\t\x0c\t $\x02\xf3\x82'
tRp2141
S'583'
p2142
I1
ttRp2143
sVhttp://www.desicomments.com/dc3/10/345584/345584.jpg
p2144
g3
(g4
g5
(g6
(S'\x07\xe0\x05\x1b\t.\x00\x02\xe0f'
tRp2145
S'434'
p2146
I1
ttRp2147
sVhttp://www.oyegraphics.com/wp-content/uploads/2015/08/Lovely-Morning.jpg
p2148
g3
(g4
g5
(g6
(S'\x07\xe0\t\x1c\t!\x14\x00\xf4\xc4'
tRp2149
S'345'
p2150
I1
ttRp2151
sVhttps://wishaf-graphics.s3.amazonaws.com/goodmorning/8476-inspirational-good-morning-messages.jpg
p2152
g3
(g4
g5
(g6
(S'\x07\xe0\x02\x06\x085\x17\t\xfb\xb7'
tRp2153
S'191'
p2154
I1
ttRp2155
sVhttp://wallpapercave.com/wp/aNzkaBg.jpg
p2156
g3
(g4
g5
(g6
(S'\x07\xe0\x03\x02\t/\x07\x05~x'
tRp2157
S'325'
p2158
I1
ttRp2159
sVhttp://media1.santabanta.com/full1/Miscellaneous/Good%20Morning/good-morning-16a.jpg
p2160
g3
(g4
g5
(g6
(S'\x07\xe0\x01\x1b\x08\x1a\x06\x07\xbf;'
tRp2161
S'226'
p2162
I1
ttRp2163
sVhttp://139.59.25.161/wp-content/uploads/2015/09/Good-Morning-Tea-Wallpaper-11.jpg
p2164
g3
(g4
g5
(g6
(S'\x07\xe0\t\x07\x08\x05\x15\x04d$'
tRp2165
I-1
I1
ttRp2166
sVhttps://thumb7.shutterstock.com/display_pic_with_logo/1467743/180051215/stock-vector-good-morning-illustration-with-coffee-cat-banana-cute-vector-background-180051215.jpg
p2167
g3
(g4
g5
(g6
(S'\x07\xe0\n\x04\t7;\x0e\x990'
tRp2168
NI1
ttRp2169
sVhttps://s-media-cache-ak0.pinimg.com/originals/2f/5c/5b/2f5c5b21698befafadb461234ed89ae9.jpg
p2170
g3
(g4
g5
(g6
(S'\x07\xe0\x08\x0f\x08\x003\x08\xef)'
tRp2171
S'118'
p2172
I1
ttRp2173
sVhttp://hdwallpaperssfree.com/wp-content/uploads/2013/05/good-morning-have-a-nice-day-hd-wallpaper.jpeg
p2174
g3
(g4
g5
(g6
(S'\x07\xe0\x01\x0b\x08\x08\n\tU1'
tRp2175
S'204'
p2176
I1
ttRp2177
sVhttp://timepassbaba.com/wp-content/uploads/2015/01/IMG-20140716-WA0005.jpg
p2178
g3
(g4
g5
(g6
(S'\x07\xe0\x03\x17\t35\x0e\xda '
tRp2179
S'356'
p2180
I1
ttRp2181
sVhttps://lh3.googleusercontent.com/3svEWxbkeX37I7-xTzRONebxH8iHJxAQlr1hN_slF7SXJmXzwClQoGD14dMibcw8Kw=h900
p2182
g3
(g4
g5
(g6
(S'\x07\xe0\x06\x1d\t1)\x07;p'
tRp2183
S'557'
p2184
I1
ttRp2185
sVhttp://www.rainboz.com/wp-content/uploads/2015/05/good-morning-and-keep-smiling-1.jpg
p2186
g3
(g4
g5
(g6
(S'\x07\xe0\n\x07\x08\x02"\x0e\xab\x04'
tRp2187
S'656'
p2188
I1
ttRp2189
sVhttps://i.ytimg.com/vi/U9Q7Y3t4m3g/maxresdefault.jpg
p2190
g3
(g4
g5
(g6
(S'\x07\xdf\x0c\x14\x08\x022\x03\xda\xff'
tRp2191
S'136'
p2192
I1
ttRp2193
sVhttp://e2ua.com/data/wallpapers/100/WDF_1435286.jpg
p2194
g3
(g4
g5
(g6
(S'\x07\xe0\x04\x18\x08\x00\x0f\rC\xe7'
tRp2195
I-1
I1
ttRp2196
sVhttp://3.bp.blogspot.com/-yXB4RwTGqVU/VI6X-OMHL_I/AAAAAAAABq8/rdLzQ-rEH-g/s1600/good%2Bmorning%2B2015%2B(14).jpg
p2197
g3
(g4
g5
(g6
(S'\x07\xe0\t\x1c\t!\x14\x00\xf5\xd7'
tRp2198
S'559'
p2199
I1
ttRp2200
sVhttp://www.goodmorningquote.com/wp-content/uploads/2014/06/motivational-good-morning-quotes-when-you-start-each-day-with-a-grateful-heart.jpg?ce4a2f
p2201
g3
(g4
g5
(g6
(S'\x07\xdf\x0c\x18\x08\x03\t\x04cU'
tRp2202
S'161'
p2203
I1
ttRp2204
sVhttp://media1.santabanta.com/full1/Miscellaneous/Good%20Morning/good-morning-44a.jpg
p2205
g3
(g4
g5
(g6
(S'\x07\xe0\x04\x18\x08\x00\x0f\rD\x0e'
tRp2206
S'8'
I1
ttRp2207
sVhttp://www.tpevent.com/wp-content/uploads/2016/02/good-morning-images-11.jpg
p2208
g3
(g4
g5
(g6
(S'\x07\xe0\x05\x19\t!\x06\t:\x97'
tRp2209
S'569'
p2210
I1
ttRp2211
sVhttp://www.wishesquotes.com/wp-content/uploads/2015/07/good-morning-smily-face-card.jpg
p2212
g3
(g4
g5
(g6
(S'\x07\xe0\n\x07\x08\x02"\x0e\xaa~'
tRp2213
S'664'
p2214
I1
ttRp2215
sVhttp://www.punjabigraphics.com/images/126/Good-Morning-Sunrise-Wallpaper.jpg
p2216
g3
(g4
g5
(g6
(S'\x07\xdf\x0c\x18\x08\x03\t\x04b\xe5'
tRp2217
S'111'
p2218
I1
ttRp2219
sVhttp://www.amusingfun.com/wp-content/uploads/2013/10/i-think-about-you-good-morning.jpg
p2220
g3
(g4
g5
(g6
(S'\x07\xdf\x0b\x1b\x08\x00\t\x03\xb6S'
tRp2221
S'80'
p2222
I1
ttRp2223
sVhttp://merfo.net/wp-content/gallery/good-morning-hd-wallpapers/12.jpg
p2224
g3
(g4
g5
(g6
(S'\x07\xdf\x0c\x14\x08\x022\x03\xdb\x7f'
tRp2225
S'140'
p2226
I1
ttRp2227
sVhttp://img.wallpaperfolder.com/f/5F075BFFFB88/sweet-good-morning.jpg
p2228
g3
(g4
g5
(g6
(S'\x07\xe0\t\x16\t 6\x04\x97\xc8'
tRp2229
S'600'
p2230
I1
ttRp2231
sVhttp://www.desicomments.com/dc3/10/351957/351957.jpg
p2232
g3
(g4
g5
(g6
(S'\x07\xe0\n\x07\x08\x02"\x0e\xaa\xee'
tRp2233
S'663'
p2234
I1
ttRp2235
sVhttp://www.lovethispic.com/uploaded_images/253144-Happy-Thursday-Wishing-All-My-Friends-And-Family-A-Good-Morning.jpg
p2236
g3
(g4
g5
(g6
(S'\x07\xe0\n\x07\x08\x02"\x0e\xaa?'
tRp2237
S'667'
p2238
I1
ttRp2239
sVhttp://cache.lovethispic.com/uploaded_images/219345-Good-Morning-Sunshine-Quote.jpg
p2240
g3
(g4
g5
(g6
(S'\x07\xe0\t\x16\t 6\x04\x98\n'
tRp2241
S'608'
p2242
I1
ttRp2243
sVhttp://www.lovethispic.com/uploaded_images/209935-Good-Morning-Faith.jpg
p2244
g3
(g4
g5
(g6
(S"\x07\xe0\x08\x19\t:'\x01\x14\xc5"
tRp2245
S'596'
p2246
I1
ttRp2247
sVhttp://www.lovethispic.com/uploaded_images/234720-Good-Morning-God-Bless-You-Wishing-You-A-Day-Filled-With-His-Peace.jpg
p2248
g3
(g4
g5
(g6
(S'\x07\xe0\n\x07\x08\x02"\x0e\xaa\xc4'
tRp2249
S'433'
p2250
I1
ttRp2251
sVhttp://www.dgreetings.com/newimages/goodmorning/a-good-day-good-morning-card.jpg
p2252
g3
(g4
g5
(g6
(S'\x07\xe0\n\x04\t7;\x0e\x99U'
tRp2253
NI1
ttRp2254
sVhttp://science-all.com/images/wallpapers/good-morning-pic/good-morning-pic-9.jpg
p2255
g3
(g4
g5
(g6
(S'\x07\xe0\x05\x1b\t.\x00\x02\xdf\xf0'
tRp2256
S'431'
p2257
I1
ttRp2258
sVhttp://science-all.com/images/wallpapers/good-morning-hd-image/good-morning-hd-image-19.jpg
p2259
g3
(g4
g5
(g6
(S'\x07\xe0\t\x0c\t $\x02\xf3<'
tRp2260
S'602'
p2261
I1
ttRp2262
sVhttp://www.wishguy.com/wp-content/uploads/2015/11/My-Sunrise-Is-Where-I-See-Smile-On-Your-Face-Good-Morning-A9.jpg
p2263
g3
(g4
g5
(g6
(S'\x07\xe0\x08\x05\x08\x025\x01\x1e\xa0'
tRp2264
S'520'
p2265
I1
ttRp2266
sVhttps://s-media-cache-ak0.pinimg.com/736x/0f/9e/cb/0f9ecb49d02adf3dc305569fd1963cc9.jpg
p2267
g3
(g4
g5
(g6
(S'\x07\xe0\x05\x1b\t.\x00\x02\xdf)'
tRp2268
S'436'
p2269
I1
ttRp2270
sVhttp://media1.santabanta.com/full1/Miscellaneous/Good%20Morning/good-morning-51a.jpg
p2271
g3
(g4
g5
(g6
(S'\x07\xe0\x06\x1d\t1)\x07;\x85'
tRp2272
S'380'
p2273
I1
ttRp2274
sVhttp://www.cfau-pd.net/images/good-morning-wallpapers/good-morning-wallpapers-4.jpg
p2275
g3
(g4
g5
(g6
(S'\x07\xe0\t\x0c\t $\x02\xf34'
tRp2276
S'610'
p2277
I1
ttRp2278
sVhttp://www.goodmorning.quotesms.com/images/good-morning-beautiful-quotes.jpg
p2279
g3
(g4
g5
(g6
(S'\x07\xe0\n\x07\x08\x02"\x0e\xaaj'
tRp2280
S'415'
p2281
I1
ttRp2282
sVhttp://cache.lovethispic.com/uploaded_images/164703-Good-Morning-Jesus-Loves-You.jpg
p2283
g3
(g4
g5
(g6
(S'\x07\xe0\x08\x1c\x08\x01\x14\n\xa32'
tRp2284
S'268'
p2285
I1
ttRp2286
sVhttp://cutenet.in/wp-content/uploads/2016/02/good-morning-25.jpg
p2287
g3
(g4
g5
(g6
(S'\x07\xe0\x08\x17\t9\x17\x02\xfa['
tRp2288
S'570'
p2289
I1
ttRp2290
sVhttp://cdn.wallpapersafari.com/26/39/LVzyAv.jpg
p2291
g3
(g4
g5
(g6
(S'\x07\xe0\x08\x1c\x08\x01\x14\n\xa3?'
tRp2292
I-1
I1
ttRp2293
sVhttp://www.goodmorningquote.com/wp-content/uploads/2014/06/goodmorning-quotes-the-best-thing-about-waking-up.jpg?1283de
p2294
g3
(g4
g5
(g6
(S'\x07\xe0\x01\x05\x08\x050\x060\x08'
tRp2295
I-1
I1
ttRp2296
sVhttp://cache.lovethispic.com/uploaded_images/269686-Good-Morning-Wishing-You-A-Lovely-Day.jpg
p2297
g3
(g4
g5
(g6
(S'\x07\xe0\x07\x0f\t#\x16\x08\t.'
tRp2298
S'491'
p2299
I1
ttRp2300
sVhttp://indiabright.com/wp-content/uploads/2016/01/Facebook-Good-Morning-new-hd-wallpapers.jpg
p2301
g3
(g4
g5
(g6
(S'\x07\xe0\x02\x12\t\x02#\x06ph'
tRp2302
S'316'
p2303
I1
ttRp2304
sVhttp://e2ua.com/data/wallpapers/100/WDF_1435185.jpg
p2305
g3
(g4
g5
(g6
(S'\x07\xe0\x04\x0b\x08\x03\x1d\x0cW\x7f'
tRp2306
I-1
I1
ttRp2307
sVhttps://s-media-cache-ak0.pinimg.com/736x/7e/16/60/7e16605c2799bf8976f7c013ccc65d96.jpg
p2308
g3
(g4
g5
(g6
(S'\x07\xe0\t\x0c\t $\x02\xf3T'
tRp2309
S'505'
p2310
I1
ttRp2311
sVhttp://cache.lovethispic.com/uploaded_images/190005-Good-Morning-Wake-Up-And-Give-It-Your-Best-Shot.jpg
p2312
g3
(g4
g5
(g6
(S"\x07\xe0\x02\x0c\x086'\r\xfd\xa6"
tRp2313
S'273'
p2314
I1
ttRp2315
sVhttp://www.hdwallpapersstylo.com/wp-content/uploads/2015/10/good-morning-wallpapers-with-coffee-7.jpg
p2316
g3
(g4
g5
(g6
(S'\x07\xe0\x05\x08\x08\x00\x0b\x05\xe8\xcf'
tRp2317
S'400'
p2318
I1
ttRp2319
sVhttp://www.jokescoff.com/wp-content/uploads/2016/03/Good-Morning-Quotes-in-Hindi.jpg
p2320
g3
(g4
g5
(g6
(S'\x07\xe0\x08\x1c\x08\x01\x14\n\xa2^'
tRp2321
I-1
I1
ttRp2322
sVhttps://wishaf-graphics.s3.amazonaws.com/goodmorning/7440-good-morning-messages-for-girlfriend.jpg
p2323
g3
(g4
g5
(g6
(S'\x07\xe0\x01\x05\x08\x050\x06/A'
tRp2324
S'184'
p2325
I1
ttRp2326
sVhttp://wishesmessages.com/wp-content/uploads/2013/11/Good-morning-coffee-greeting-for-girlfriend.jpg
p2327
g3
(g4
g5
(g6
(S'\x07\xe0\x02\x06\x085\x17\t\xfba'
tRp2328
S'32'
p2329
I1
ttRp2330
sVhttp://139.59.25.161/wp-content/uploads/2015/08/good_morning_hd_wallpaper.jpg
p2331
g3
(g4
g5
(g6
(S'\x07\xe0\n\x07\x08\x02"\x0e\xa9\n'
tRp2332
S'646'
p2333
I1
ttRp2334
sVhttp://jokescoff.com/wp-content/uploads/2015/04/Good-Morning-quotes-hindi.jpg
p2335
g3
(g4
g5
(g6
(S'\x07\xe0\x04\x0b\x08\x03\x1d\x0cV\x8e'
tRp2336
S'322'
p2337
I1
ttRp2338
sVhttp://www.letuspublish.com/wp-content/uploads/2014/10/xGood-Morning-HD-Photo-free-1024x640.jpg.pagespeed.ic.HnjMLQjOj3.jpg
p2339
g3
(g4
g5
(g6
(S'\x07\xe0\t\x0c\t $\x02\xf2\xa9'
tRp2340
S'397'
p2341
I1
ttRp2342
sVhttp://www.tumblr18.com/t18/2015/06/New-ambitions-and-great-success-good-morning.jpg
p2343
g3
(g4
g5
(g6
(S'\x07\xdf\x0c\x14\x08\x022\x03\xda\xaf'
tRp2344
S'139'
p2345
I1
ttRp2346
sVhttp://www.imagesbuddy.com/images/198/good-morning-hearts-wallpaper-for-desktop.jpg
p2347
g3
(g4
g5
(g6
(S'\x07\xe0\x01\x13\x08\x138\x02.\x02'
tRp2348
S'242'
p2349
I1
ttRp2350
sVhttp://cache.lovethispic.com/uploaded_images/245549-Good-Morning-Coffee-For-You.jpg
p2351
g3
(g4
g5
(g6
(S'\x07\xe0\x08\x17\t9\x17\x02\xfa\x8b'
tRp2352
S'591'
p2353
I1
ttRp2354
sVhttp://geniusquotes.org/wp-content/uploads/2014/01/Download-good-morning-wallpaper-with-quote.jpg
p2355
g3
(g4
g5
(g6
(S'\x07\xe0\x04\x03\x08\x02 \x01\xfd\xe9'
tRp2356
I-1
I1
ttRp2357
sVhttp://www.hdwallpapersbits.com/wp-content/uploads/2015/10/Cute-Good-Morning-Image-Wallpapers-HD.jpg
p2358
g3
(g4
g5
(g6
(S'\x07\xe0\x03\x17\t35\x0e\xd9x'
tRp2359
S'368'
p2360
I1
ttRp2361
sVhttp://media-cache-ec0.pinimg.com/736x/71/99/7a/71997ab71ecf88b57208d38755511de8.jpg
p2362
g3
(g4
g5
(g6
(S"\x07\xe0\x08\x19\t:'\x01\x14\xc2"
tRp2363
S'578'
p2364
I1
ttRp2365
sVhttp://statusnmessages.com/wp-content/uploads/2015/06/good-morning-with-breakfast-pics-1024x576.jpg
p2366
g3
(g4
g5
(g6
(S'\x07\xe0\x04\x03\x08\x02 \x01\xfd{'
tRp2367
I-1
I1
ttRp2368
sVhttp://quotespics.net/wp-content/uploads/2016/05/Beautiful-Good-Morning-Roses-2016.jpg
p2369
g3
(g4
g5
(g6
(S'\x07\xe0\t\x1c\t!\x14\x00\xf5\xce'
tRp2370
I-1
I1
ttRp2371
sVhttp://www.greetingsfromheart.com/images/good_morning/good-morning-9.jpg
p2372
g3
(g4
g5
(g6
(S'\x07\xdf\x0b\x10\x08\x03\x1a\x07\x85\xb3'
tRp2373
S'68'
p2374
I1
ttRp2375
sVhttp://photozup.com/wp-content/uploads/2015/09/Good-Morning-Images-For-My-Sister.jpg
p2376
g3
(g4
g5
(g6
(S'\x07\xe0\x01\x1b\x08\x1a\x06\x07\xc0\xbf'
tRp2377
I-1
I1
ttRp2378
sVhttp://quotesideas.com/wp-content/uploads/2015/07/good-morning-love-wallpaper-for-him-3.jpg
p2379
g3
(g4
g5
(g6
(S'\x07\xe0\t\x16\t 6\x04\x99y'
tRp2380
I-1
I1
ttRp2381
sVhttp://previews.123rf.com/images/anyaberkut/anyaberkut1306/anyaberkut130600058/20489334-good-morning-breakfast-in-cafe-Stock-Photo.jpg
p2382
g3
(g4
g5
(g6
(S'\x07\xe0\x06\x17\t7\x08\x068\xd0'
tRp2383
S'495'
p2384
I1
ttRp2385
sVhttp://greetings-day.com/wp-content/uploads/2015/11/good-morning-everyone.jpg
p2386
g3
(g4
g5
(g6
(S'\x07\xe0\x04\x11\t95\x06\x8e\xfa'
tRp2387
I-1
I1
ttRp2388
sVhttp://azdailytrends.com/wp-content/uploads/2015/09/Cute-Good-Morning-Pictures-7.jpg
p2389
g3
(g4
g5
(g6
(S'\x07\xe0\x04\x03\x08\x02 \x01\xfd5'
tRp2390
S'369'
p2391
I1
ttRp2392
sVhttp://www.lovethispic.com/uploaded_images/232138-Good-Morning-Have-A-Beautiful-Day.jpg
p2393
g3
(g4
g5
(g6
(S'\x07\xe0\x02\x04\x0837\x0e\xd4\\'
tRp2394
S'258'
p2395
I1
ttRp2396
sVhttp://rawpl.com/wp-content/uploads/2015/11/good-morning-quotes-for-good-morning-quotes-collections-2015-37.jpg
p2397
g3
(g4
g5
(g6
(S'\x07\xdf\x0c\x1c\x08\x03+\x02\xb2d'
tRp2398
I-1
I1
ttRp2399
sVhttp://cache.lovethispic.com/uploaded_images/239047-Good-Morning-Friends-Families.jpg
p2400
g3
(g4
g5
(g6
(S'\x07\xe0\x03\x04\t3;\x03\xfe\xaf'
tRp2401
S'366'
p2402
I1
ttRp2403
sVhttp://love.catchsmile.com/wp-content/uploads/2013/10/Good-Morning-158.jpg
p2404
g3
(g4
g5
(g6
(S'\x07\xdf\x0c\x1c\x08\x03+\x02\xb2|'
tRp2405
S'180'
p2406
I1
ttRp2407
sVhttp://memesvault.com/wp-content/uploads/Good-Morning-Images-20.jpg
p2408
g3
(g4
g5
(g6
(S'\x07\xe0\t\x1c\t!\x14\x00\xf6W'
tRp2409
S'604'
p2410
I1
ttRp2411
sVhttp://www.imagesschool.com/wp-content/uploads/2015/12/Good-Morning-Inspirational-Quotes-With-Pictures-4.jpg
p2412
g3
(g4
g5
(g6
(S'\x07\xe0\x01\x05\x08\x050\x06/9'
tRp2413
I-1
I1
ttRp2414
sVhttp://www.greetingsfromheart.com/good-morning/good-morning-with-cute-dog.jpg
p2415
g3
(g4
g5
(g6
(S'\x07\xe0\x07\x0f\t#\x16\x08\t2'
tRp2416
S'470'
p2417
I1
ttRp2418
sVhttp://www.lovethispic.com/uploaded_images/205589-Good-Morning-Handsome.jpg
p2419
g3
(g4
g5
(g6
(S'\x07\xe0\x02\x04\x0837\x0e\xd4\x0c'
tRp2420
S'264'
p2421
I1
ttRp2422
sVhttp://www.lovethispic.com/uploaded_images/132724-Good-Morning-Have-A-Beautiful-Thursday.jpg?1
p2423
g3
(g4
g5
(g6
(S'\x07\xe0\x05\x08\x08\x00\x0b\x05\xe9c'
tRp2424
S'321'
p2425
I1
ttRp2426
sVhttp://4.bp.blogspot.com/-M6OQ45XeVis/VkgVRQZl7AI/AAAAAAAAAHs/7t-QDM5GZe0/s1600/ngaynaytuvi12cunghoangdaongay2042015.jpg
p2427
g3
(g4
g5
(g6
(S'\x07\xe0\x01\x1b\x08\x1a\x06\x07\xc1\x96'
tRp2428
S'197'
p2429
I1
ttRp2430
sVhttp://hdwallpapersrocks.com/wp-content/uploads/2013/09/Good-morning-hot-tea-in-winter.jpg
p2431
g3
(g4
g5
(g6
(S'\x07\xe0\x08\x0f\x08\x003\x08\xee\xec'
tRp2432
S'326'
p2433
I1
ttRp2434
sVhttp://www.desicomments.com/dc3/09/297021/297021.jpg
p2435
g3
(g4
g5
(g6
(S'\x07\xe0\t\x12\t *\x0b7;'
tRp2436
S'231'
p2437
I1
ttRp2438
sVhttp://imagedunia.com/wp-content/uploads/2014/10/Nice-good-morning-friends.jpg
p2439
g3
(g4
g5
(g6
(S'\x07\xdf\x0c\x14\x08\x022\x03\xdb"'
tRp2440
S'145'
p2441
I1
ttRp2442
sVhttp://2.bp.blogspot.com/-JLcI4spclZI/UwXAUVCZZLI/AAAAAAAAGr4/MXu9ougyStY/s1600/Good-Morning-tea-with-wishes-images.jpg
p2443
g3
(g4
g5
(g6
(S'\x07\xe0\x01\x0b\x08\x08\n\tU\x91'
tRp2444
S'201'
p2445
I1
ttRp2446
sVhttp://kurld.com/images/wallpapers/good-morning-wallpaper/good-morning-wallpaper-10.jpg
p2447
g3
(g4
g5
(g6
(S'\x07\xe0\n\x07\x08\x02"\x0e\xaa\x18'
tRp2448
S'665'
p2449
I1
ttRp2450
sVhttps://s-media-cache-ak0.pinimg.com/originals/a6/0b/c9/a60bc990eb3a5d563a684d11e78dea9d.jpg
p2451
g3
(g4
g5
(g6
(S'\x07\xe0\n\x07\x08\x02"\x0e\xaa3'
tRp2452
S'633'
p2453
I1
ttRp2454
sVhttp://media1.santabanta.com/full1/Miscellaneous/Good%20Morning/good-morning-49a.jpg
p2455
g3
(g4
g5
(g6
(S'\x07\xe0\x06\x1d\t1)\x07;/'
tRp2456
S'12'
p2457
I1
ttRp2458
sVhttp://www.lovethispic.com/uploaded_images/179757-Good-Morning-Love.jpg
p2459
g3
(g4
g5
(g6
(S'\x07\xe0\n\x04\t7;\x0e\x99\xa3'
tRp2460
S'37'
p2461
I1
ttRp2462
sVhttp://media1.popsugar-assets.com/files/2015/06/04/764/n/1922398/178362c0_POPSUGAR_03.27.15_ProductVignette_033_edit.xxxlarge_2x.jpg
p2463
g3
(g4
g5
(g6
(S'\x07\xe0\x03\x02\t/\x07\x05\x7f\x01'
tRp2464
S'532'
p2465
I1
ttRp2466
sVhttp://7-themes.com/data_images/out/55/6960034-good-morning-assassins-failed.jpg
p2467
g3
(g4
g5
(g6
(S'\x07\xdf\x0c\x12\x08\x01\x1d\x08\xdf\x80'
tRp2468
S'112'
p2469
I1
ttRp2470
sVhttp://www.lyfaces.com/wallpaper/good/good-morning-wallpapers-images-good-morning-wallpaper-wallpapers-sites-for-mobile-facebook-iphone-pc-download-pictures-with-quotes-apps.jpg
p2471
g3
(g4
g5
(g6
(S'\x07\xdf\x0c\x10\x08\x00\x1f\x01\xbf\xad'
tRp2472
I-1
I1
ttRp2473
sVhttp://www.punjabigraphics.com/images/126/Wooden-Heart-Good-Morning-Picture.jpg
p2474
g3
(g4
g5
(g6
(S'\x07\xdf\x0c\x18\x08\x03\t\x04c\x1e'
tRp2475
S'174'
p2476
I1
ttRp2477
sVhttp://www.lovethispic.com/uploaded_images/239041-Hello-Friends-Good-Morning.jpg
p2478
g3
(g4
g5
(g6
(S'\x07\xe0\x03\x07\x08\x00 \x07o\xd1'
tRp2479
S'340'
p2480
I1
ttRp2481
sVhttp://phoozer.net/wp-content/uploads/2016/02/lovely-good-morning-wallpaper-1.jpg
p2482
g3
(g4
g5
(g6
(S'\x07\xe0\x08\x0f\x08\x003\x08\xefM'
tRp2483
S'509'
p2484
I1
ttRp2485
sVhttp://www.yourwhatsappstatus.com/wp-content/uploads/2016/07/1874227-1280x1024-sy_65650017975.jpg
p2486
g3
(g4
g5
(g6
(S'\x07\xe0\n\x04\t7;\x0e\x99\xcb'
tRp2487
I-1
I1
ttRp2488
sVhttps://s-media-cache-ak0.pinimg.com/736x/5a/63/9f/5a639ff1b113a9ff66f9880146eb1a89.jpg
p2489
g3
(g4
g5
(g6
(S'\x07\xe0\x04\x03\x08\x02 \x01\xfd,'
tRp2490
S'375'
p2491
I1
ttRp2492
sVhttp://goodmorningpics.com/wp-content/uploads/2016/03/Good-morning-love.jpg
p2493
g3
(g4
g5
(g6
(S'\x07\xe0\t\x12\t *\x0b7\x00'
tRp2494
S'601'
p2495
I1
ttRp2496
sVhttp://alldayquotes.com/wp-content/uploads/2016/05/Free-Good-Morning-Images-For-Wife.jpg
p2497
g3
(g4
g5
(g6
(S'\x07\xe0\x07\x0f\t#\x16\x08\tn'
tRp2498
S'595'
p2499
I1
ttRp2500
sVhttp://www.thefreshquotes.com/wp-content/uploads/2015/07/Good-Morning-Beautiful.jpg
p2501
g3
(g4
g5
(g6
(S'\x07\xe0\n\x04\t7;\x0e\x99\xdb'
tRp2502
S'228'
p2503
I1
ttRp2504
sVhttp://weneedfun.com/wp-content/uploads/2016/09/Good-Morning-Wallpapers-172.jpg
p2505
g3
(g4
g5
(g6
(S'\x07\xe0\t\x1c\t!\x14\x00\xf7\xec'
tRp2506
S'631'
p2507
I1
ttRp2508
sVhttp://www.allbesttricks.com/wp-content/uploads/2016/01/good-morning-image-3.jpg
p2509
g3
(g4
g5
(g6
(S'\x07\xe0\x03\x02\t/\x07\x05~\xd8'
tRp2510
I-1
I1
ttRp2511
sVhttp://www.lovethispic.com/uploaded_images/235701-Good-Morning-Smile-It-Changed-Everything.jpg
p2512
g3
(g4
g5
(g6
(S'\x07\xe0\x05\x1b\t.\x00\x02\xe0('
tRp2513
S'453'
p2514
I1
ttRp2515
sVhttps://well2day.files.wordpress.com/2015/05/good-morning.png
p2516
g3
(g4
g5
(g6
(S'\x07\xe0\x02\x12\t\x02#\x06p\x13'
tRp2517
S'312'
p2518
I1
ttRp2519
sVhttp://www.freshmorningquotes.com/wp-content/uploads/2015/07/Beautiful-Good-Morning-Have-a-Nice-Day-Wallpapers-HD-Images-11.jpg
p2520
g3
(g4
g5
(g6
(S'\x07\xe0\x08\x1c\x08\x01\x14\n\xa3k'
tRp2521
I-1
I1
ttRp2522
sVhttp://media1.santabanta.com/full1/Miscellaneous/Good%20Morning/good-morning-18a.jpg
p2523
g3
(g4
g5
(g6
(S'\x07\xe0\x01\x1b\x08\x1a\x06\x07\xc1\xe8'
tRp2524
S'55'
p2525
I1
ttRp2526
sVhttp://www.desktopbackgroundsi.net/wp-content/uploads/Good-Morning-6.jpg
p2527
g3
(g4
g5
(g6
(S'\x07\xdf\x0b\x10\x08\x03\x1a\x07\x85\xe2'
tRp2528
S'73'
p2529
I1
ttRp2530
sVhttp://www.newhdwallpapers.in/wp-content/uploads/2013/01/Good-Morning-Wishes.jpg
p2531
g3
(g4
g5
(g6
(S'\x07\xe0\x08\x17\t9\x17\x02\xfb#'
tRp2532
S'512'
p2533
I1
ttRp2534
sVhttp://www.goodmorningimagesquotes.com/wp-content/uploads/2015/11/good-morning-pictures-14.jpg
p2535
g3
(g4
g5
(g6
(S'\x07\xdf\x0b\x17\x08\x03+\x08\xcd\xea'
tRp2536
S'87'
p2537
I1
ttRp2538
sVhttp://www.lovethispic.com/uploaded_images/121234-Good-Morning-Dropping-Off-Some-Sunshine.gif
p2539
g3
(g4
g5
(g6
(S'\x07\xdf\n\x1f\x08\x01\x1e\x0b\x0e{'
tRp2540
S'42'
p2541
I1
ttRp2542
sVhttp://phoozer.net/wp-content/uploads/2015/03/good-morning-pics-for-whatsapp.jpg
p2543
g3
(g4
g5
(g6
(S'\x07\xe0\x05\x15\x08\x01\x1e\x05\xde\xe7'
tRp2544
S'420'
p2545
I1
ttRp2546
sVhttp://www.w3mirchi.com/images/picture/17049-good-morning-baby-image.jpg
p2547
g3
(g4
g5
(g6
(S'\x07\xe0\t\x07\x08\x05\x15\x04d\xbf'
tRp2548
S'581'
p2549
I2
ttRp2550
sVhttp://kurld.com/images/wallpapers/good-morning-wallpapers/good-morning-wallpapers-15.jpg
p2551
g3
(g4
g5
(g6
(S'\x07\xe0\t\x16\t 6\x04\x97\xd6'
tRp2552
S'621'
p2553
I1
ttRp2554
sVhttp://geniusquotes.org/wp-content/uploads/2014/01/Good-morning-funny-wallpaper.jpg
p2555
g3
(g4
g5
(g6
(S'\x07\xdf\x0c\x18\x08\x03\t\x04cf'
tRp2556
I-1
I1
ttRp2557
sVhttp://top10wala.in/wp-content/uploads/2016/03/Good-Morning-Best-Greetings-456.jpg
p2558
g3
(g4
g5
(g6
(S'\x07\xe0\t\x12\t *\x0b6\x18'
tRp2559
S'473'
p2560
I1
ttRp2561
sVhttp://www.ecards4ever.com/uploads/GoodMorning_Lg66.jpg
p2562
g3
(g4
g5
(g6
(S'\x07\xe0\x03\x07\x08\x00 \x07n\xf2'
tRp2563
S'7'
I1
ttRp2564
sVhttp://www.goodmorningimagesgreetings.com/wp-content/uploads/2015/08/Good-Morning-Full-HD-Photos-272.jpg
p2565
g3
(g4
g5
(g6
(S'\x07\xdf\x0b\x1b\x08\x00\t\x03\xb5\xdb'
tRp2566
S'75'
p2567
I1
ttRp2568
sVhttp://i0.wp.com/3.bp.blogspot.com/-eZh5RPs9cn0/VXHRoJRMhgI/AAAAAAAAdMU/taQnEsY-rBQ/s1600/Good%2BMorning%2BBest%2BGreetings%2B-%2B456.jpg?w=150&h=150
p2569
g3
(g4
g5
(g6
(S'\x07\xe0\x06\x17\t7\x08\x067\xef'
tRp2570
S'552'
p2571
I1
ttRp2572
sVhttp://phoozer.net/wp-content/uploads/2016/02/beautiful-good-morning-wallpapers-1.jpg
p2573
g3
(g4
g5
(g6
(S'\x07\xe0\t\x12\t *\x0b6\xaf'
tRp2574
S'452'
p2575
I1
ttRp2576
sVhttp://www.goodmorningx.com/wp-content/uploads/2015/09/good-Morning-wallpapers.jpg
p2577
g3
(g4
g5
(g6
(S'\x07\xe0\x08\x17\t9\x17\x02\xfa\xf7'
tRp2578
S'498'
p2579
I1
ttRp2580
sVhttp://www.searchyourchoice.com/wp-content/uploads/2016/01/good-morning.jpg
p2581
g3
(g4
g5
(g6
(S'\x07\xe0\x08\x0f\x08\x003\x08\xee\xfa'
tRp2582
S'332'
p2583
I1
ttRp2584
sVhttp://www.imagefully.com/wp-content/uploads/2015/06/Nice-Animated-Graphic-Rose-Good-Morning-Wishes.jpg
p2585
g3
(g4
g5
(g6
(S'\x07\xdf\x0c\x14\x08\x022\x03\xda\xc4'
tRp2586
S'146'
p2587
I1
ttRp2588
sVhttps://s-media-cache-ak0.pinimg.com/originals/db/88/16/db88160fb237f6656601e99a80bcaab5.gif
p2589
g3
(g4
g5
(g6
(S'\x07\xdf\n\x1e\x08\x01\x18\x0c\xc1\x9d'
tRp2590
S'45'
p2591
I1
ttRp2592
sVhttp://www.lovethispic.com/uploaded_images/212206-Good-Morning-Friends-And-Family-Have-A-Good-Day.jpg
p2593
g3
(g4
g5
(g6
(S'\x07\xdf\x0c\x1c\x08\x03+\x02\xb2\x06'
tRp2594
I-1
I1
ttRp2595
sVhttps://upload.wikimedia.org/wikipedia/en/thumb/2/20/Good_Morning_Britain_logo.svg/1034px-Good_Morning_Britain_logo.svg.png
p2596
g3
(g4
g5
(g6
(S'\x07\xe0\x06\x1d\t1)\x07:\xd5'
tRp2597
S'98'
p2598
I1
ttRp2599
sVhttp://phoozer.net/wp-content/uploads/2016/02/good-morning-wallpaper-1.jpg
p2600
g3
(g4
g5
(g6
(S'\x07\xe0\x06\x1d\t1)\x07;}'
tRp2601
S'497'
p2602
I1
ttRp2603
sVhttp://goodmorningpics.lhxkadakp48l9kw4.netdna-cdn.com/wp-content/uploads/2016/05/coffee-and-flowers-good-morning-wallpaper.jpg
p2604
g3
(g4
g5
(g6
(S'\x07\xe0\n\x07\x08\x02"\x0e\xa9>'
tRp2605
S'644'
p2606
I1
ttRp2607
sVhttp://good-morning.hothungama.com/wp-content/uploads/2014/08/Good-Morning-Images.jpg
p2608
g3
(g4
g5
(g6
(S'\x07\xe0\x06\x1d\t1)\x07:\xe9'
tRp2609
S'457'
p2610
I1
ttRp2611
sVhttp://www.freelargeimages.com/wp-content/uploads/2015/11/Good_Morning_14.jpg
p2612
g3
(g4
g5
(g6
(S'\x07\xe0\x04\x18\x08\x00\x0f\rC\x9b'
tRp2613
S'213'
p2614
I1
ttRp2615
sVhttp://1.bp.blogspot.com/-bnjHmfolx4o/VQvq1HeSd7I/AAAAAAAAQEg/5liB9-18tFE/s1600/Good_Morning_Quotes_12.jpg
p2616
g3
(g4
g5
(g6
(S'\x07\xe0\x04\x03\x08\x02 \x01\xfd\xca'
tRp2617
S'320'
p2618
I1
ttRp2619
sVhttp://love.catchsmile.com/wp-content/uploads/2016/06/A-Very-Good-Morning.jpg
p2620
g3
(g4
g5
(g6
(S'\x07\xe0\t\x07\x08\x05\x15\x04d\x81'
tRp2621
S'571'
p2622
I1
ttRp2623
sVhttp://4.bp.blogspot.com/-sxGsA5PIZj0/VnVr8iKW8PI/AAAAAAAAQrU/_OoW8p-GkRo/s1600/Good%2Bmorning%2Bsms%2Bshayri%2B2016%2B%25286%2529.jpg
p2624
g3
(g4
g5
(g6
(S'\x07\xe0\t\x0c\t $\x02\xf2\xc3'
tRp2625
S'603'
p2626
I1
ttRp2627
sVhttp://www.hdwallpr.com/wp-content/uploads/2015/08/good-morning-message-bLvV.jpg
p2628
g3
(g4
g5
(g6
(S'\x07\xdf\x0b\x08\x08\x01*\x0ch_'
tRp2629
S'53'
p2630
I1
ttRp2631
sVhttp://www.goodmorningx.com/wp-content/uploads/2015/09/good-morning-pictures.jpg
p2632
g3
(g4
g5
(g6
(S'\x07\xe0\n\x07\x08\x02"\x0e\xa9u'
tRp2633
S'563'
p2634
I1
ttRp2635
sVhttp://www.lovethispic.com/uploaded_images/222194-Good-Morning-God-Has-Given-You-Another-Day.jpg
p2636
g3
(g4
g5
(g6
(S'\x07\xe0\x02\x04\x0837\x0e\xd4B'
tRp2637
S'261'
p2638
I1
ttRp2639
sVhttp://www.goodmorningquoteswishes.com/wp-content/uploads/2014/11/Cute-Good-Morning-Poem-Best-Morning-Poems-for-Friends-Images-Wallpapers-photos-Pictures.jpg
p2640
g3
(g4
g5
(g6
(S'\x07\xe0\x05\x15\x08\x01\x1e\x05\xdeO'
tRp2641
S'349'
p2642
I1
ttRp2643
sVhttp://www.birthdaywishes.expert/wp-content/uploads/2016/01/Good-Morning-1-2.jpg
p2644
g3
(g4
g5
(g6
(S'\x07\xe0\x05\x15\x08\x01\x1e\x05\xdeZ'
tRp2645
I-1
I1
ttRp2646
sVhttp://smszoo.com/wp-content/uploads/2015/04/lovely-good-morning-pictures-sms.jpg
p2647
g3
(g4
g5
(g6
(S'\x07\xe0\x02\x06\x085\x17\t\xfd\x95'
tRp2648
S'175'
p2649
I1
ttRp2650
sVhttp://www.lovethispic.com/uploaded_images/232145-Good-Morning-I-Wish-I-Could-Fly-Away-Until-Monday-Goes-Away.jpg
p2651
g3
(g4
g5
(g6
(S'\x07\xe0\x02\x06\x085\x17\t\xfd\xa0'
tRp2652
S'259'
p2653
I1
ttRp2654
sVhttp://wallpaperspicturesphotos.com/wp-content/uploads/2015/01/goodmorning-love.jpg
p2655
g3
(g4
g5
(g6
(S'\x07\xe0\x04\x03\x08\x02 \x01\xfdC'
tRp2656
S'132'
p2657
I1
ttRp2658
sVhttp://3.bp.blogspot.com/-VvkVnxyCCs4/UmqoC3gL3OI/AAAAAAAAB3s/N67FCOtNGhA/s1600/Good+Morning+SMS+For+Friend+Quotes+(3).jpg
p2659
g3
(g4
g5
(g6
(S'\x07\xe0\x06\x1d\t1)\x07; '
tRp2660
S'544'
p2661
I1
ttRp2662
sVhttp://media1.santabanta.com/full1/Miscellaneous/Good%20Morning/good-morning-58a.jpg
p2663
g3
(g4
g5
(g6
(S'\x07\xe0\n\x04\t7;\x0e\x99d'
tRp2664
S'593'
p2665
I1
ttRp2666
sVhttp://phoozer.com/wp-content/uploads/2015/04/good-morning-images-for-whatsapp-free-download.png
p2667
g3
(g4
g5
(g6
(S'\x07\xe0\x02\x06\x085\x17\t\xfd\xca'
tRp2668
I-1
I1
ttRp2669
sVhttp://www.goodmorningx.com/wp-content/uploads/2015/04/Good-Morning-Beautiful-wishes-sunrise-images.jpg
p2670
g3
(g4
g5
(g6
(S'\x07\xe0\x01\x1b\x08\x1a\x06\x07\xc2M'
tRp2671
S'237'
p2672
I1
ttRp2673
sVhttp://i.123g.us/c/gen_morning/card/308942.jpg
p2674
g3
(g4
g5
(g6
(S'\x07\xdf\x0c\x1e\x08\x03:\x04\x99\xa0'
tRp2675
S'178'
p2676
I1
ttRp2677
sVhttp://hdfreewallpaper.net/wp-content/uploads/2015/08/good-morning-best-greeting-free-hd-wallpapers.jpg
p2678
g3
(g4
g5
(g6
(S'\x07\xe0\x08\x0f\x08\x003\x08\xee\xf5'
tRp2679
I-1
I1
ttRp2680
sVhttp://www.punjabigraphics.com/images/126/Good-Morning-You-Have-To-Get-Up-Every-Morning-And-Tell-Yourself-I-Can-Do-This.jpg
p2681
g3
(g4
g5
(g6
(S'\x07\xdf\x0c\x1c\x08\x03+\x02\xb2\xa4'
tRp2682
S'176'
p2683
I1
ttRp2684
sVhttp://www.superhdfx.com/wp-content/uploads/2016/05/Good-Morning-Dear-Greetings.jpg
p2685
g3
(g4
g5
(g6
(S'\x07\xe0\x08\x0f\x08\x003\x08\xef\x0c'
tRp2686
S'564'
p2687
I1
ttRp2688
sVhttp://www.hdwalls.in/wp-content/uploads/2015/07/hd-wallpaper-good-morning-1.jpg
p2689
g3
(g4
g5
(g6
(S'\x07\xdf\x0c\x18\x08\x03\t\x04c\t'
tRp2690
S'170'
p2691
I1
ttRp2692
sVhttps://s-media-cache-ak0.pinimg.com/736x/28/17/f7/2817f7d3d6be81a9d1e4a50545720e00.jpg
p2693
g3
(g4
g5
(g6
(S'\x07\xe0\x05\x1b\t.\x00\x02\xe0S'
tRp2694
S'421'
p2695
I1
ttRp2696
sVhttp://img.wallpaperfolder.com/f/5E73FEC29C66/good-morning-coffee-com.jpg
p2697
g3
(g4
g5
(g6
(S'\x07\xe0\t\x12\t *\x0b6\xde'
tRp2698
S'614'
p2699
I1
ttRp2700
sVhttp://www.whatsapp99.com/wp-content/uploads/2016/05/17265102-Good-morning-sun-Stock-Vector.jpg
p2701
g3
(g4
g5
(g6
(S'\x07\xe0\x08\x1c\x08\x01\x14\n\xa2\xf1'
tRp2702
S'586'
p2703
I1
ttRp2704
sVhttp://www.wallpapersandbackground.com/images/good-morning-coffee-beans-cup-wallpapers-and-backgrounds.jpg
p2705
g3
(g4
g5
(g6
(S'\x07\xe0\x08\x0f\x08\x003\x08\xee\x89'
tRp2706
S'507'
p2707
I1
ttRp2708
sVhttp://www.allpriceweb.com/wp-content/uploads/2016/03/good-morning-25.jpg
p2709
g3
(g4
g5
(g6
(S'\x07\xe0\x08\x0f\x08\x003\x08\xef$'
tRp2710
S'506'
p2711
I1
ttRp2712
sVhttps://newquotesms.files.wordpress.com/2015/09/good-morning-my-love.jpg
p2713
g3
(g4
g5
(g6
(S'\x07\xe0\n\x07\x08\x02"\x0e\xa9\x88'
tRp2714
S'654'
p2715
I1
ttRp2716
sVhttp://www.imgnaly.com/wp-content/uploads/2015/10/My-Sunrise-Is-Where-I-See-Smile-On-Your-Face-Good-Morning-A97.jpg
p2717
g3
(g4
g5
(g6
(S'\x07\xe0\x08\x05\x08\x025\x01\x1f\xaa'
tRp2718
S'546'
p2719
I1
ttRp2720
sVhttp://wallpapersfr.com/wp-content/uploads/2016/09/good-morning-with-heart.jpg
p2721
g3
(g4
g5
(g6
(S'\x07\xe0\t\x1c\t!\x14\x00\xf7\xda'
tRp2722
S'615'
p2723
I1
ttRp2724
sVhttp://www.lovethispic.com/uploaded_images/211065-Good-Morning-Friends-Have-A-Good-Saturday.jpg
p2725
g3
(g4
g5
(g6
(S'\x07\xe0\x05\x1b\t.\x00\x02\xe0\x13'
tRp2726
I-1
I1
ttRp2727
sVhttp://phoozer.net/wp-content/uploads/2016/02/wallpaper-of-good-morning.jpg
p2728
g3
(g4
g5
(g6
(S'\x07\xe0\t\x12\t *\x0b7e'
tRp2729
S'488'
p2730
I2
ttRp2731
sVhttp://www.freelargeimages.com/wp-content/uploads/2015/11/Good_Morning_09.jpg
p2732
g3
(g4
g5
(g6
(S'\x07\xe0\t\x1c\t!\x14\x00\xf8,'
tRp2733
S'382'
p2734
I1
ttRp2735
sVhttps://messageshub.com/wp-content/uploads/2016/07/Happy-good-maorning-messages.jpg
p2736
g3
(g4
g5
(g6
(S'\x07\xe0\t\x07\x08\x05\x15\x04d\x1b'
tRp2737
I-1
I1
ttRp2738
sVhttp://e2ua.com/data/wallpapers/62/WDF_1080490.jpg
p2739
g3
(g4
g5
(g6
(S'\x07\xe0\x04\x11\t95\x06\x8f\xa1'
tRp2740
I-1
I1
ttRp2741
sVhttp://www.hdwallpaperspicture.net/wp-content/uploads/2015/10/good-morning-desktop-wallpaper.jpg
p2742
g3
(g4
g5
(g6
(S'\x07\xe0\x03\x02\t/\x07\x05~\xb0'
tRp2743
I-1
I1
ttRp2744
sVhttp://www.desicomments.com/user/2008/03/7730/goodmorning-520x411.jpg
p2745
g3
(g4
g5
(g6
(S'\x07\xdf\x0c\x1e\x08\x03:\x04\x99\x9d'
tRp2746
S'185'
p2747
I1
ttRp2748
sVhttp://www.goodmorningx.com/wp-content/uploads/2015/07/good-morning-girlfriend.jpg
p2749
g3
(g4
g5
(g6
(S'\x07\xe0\x03\x07\x08\x00 \x07o?'
tRp2750
S'272'
p2751
I1
ttRp2752
sVhttp://thumbs.dreamstime.com/z/good-morning-message-tablet-computer-screen-office-table-49408226.jpg
p2753
g3
(g4
g5
(g6
(S'\x07\xe0\x06\x17\t7\x08\x067o'
tRp2754
S'334'
p2755
I1
ttRp2756
sVhttp://www.dreamyquotes.com/wp-content/uploads/2016/03/lovely-good-morning-quotes.jpg
p2757
g3
(g4
g5
(g6
(S'\x07\xe0\x06\x1d\t1)\x07:\xe4'
tRp2758
I-1
I1
ttRp2759
sVhttp://www.freelargeimages.com/wp-content/uploads/2015/11/Good_Morning_08.jpg
p2760
g3
(g4
g5
(g6
(S'\x07\xe0\x04\r\t9\n\nN-'
tRp2761
S'131'
p2762
I1
ttRp2763
sVhttp://www.wishgoodmorning.org/wp-content/uploads/2016/03/Khushi-Ka-Har-Pal-Ho-Tumhara-Good-Morning-wg017152.jpg
p2764
g3
(g4
g5
(g6
(S'\x07\xe0\x05\x15\x08\x01\x1e\x05\xde\x02'
tRp2765
S'405'
p2766
I1
ttRp2767
sVhttp://phoozer.org/wp-content/uploads/2015/08/best-good-morning-quote.jpg
p2768
g3
(g4
g5
(g6
(S'\x07\xe0\x03\x07\x08\x00 \x07o\x07'
tRp2769
I-1
I1
ttRp2770
sVhttp://quotesideas.com/wp-content/uploads/2015/03/Good-Morning-With-Sunlight-Wishes-With-Quotes.jpg
p2771
g3
(g4
g5
(g6
(S'\x07\xdf\x0c\x14\x08\x022\x03\xdb9'
tRp2772
I-1
I1
ttRp2773
sVhttp://img1.sendscraps.com/se/008/073.jpg
p2774
g3
(g4
g5
(g6
(S'\x07\xe0\n\x04\t7;\x0e\x994'
tRp2775
S'24'
p2776
I1
ttRp2777
sVhttp://whatsappmessages.net/wp-content/uploads/2015/06/177846-Good-Morning-Lord.jpg
p2778
g3
(g4
g5
(g6
(S'\x07\xe0\x01\x05\x08\x050\x06/E'
tRp2779
I-1
I1
ttRp2780
sVhttp://www.goodmorningquoteswishes.com/wp-content/uploads/2015/06/Good-Morning-Hindi-Quotes-Messages-Images-Wallpapers-Photos.jpg
p2781
g3
(g4
g5
(g6
(S'\x07\xe0\x07\x1b\t6/\x0c\x8e\x8a'
tRp2782
S'277'
p2783
I1
ttRp2784
sVhttp://www.happyholidaysimages.com/wp-content/uploads/2016/04/Cute-images-to-say-good-morning-to-share.jpg
p2785
g3
(g4
g5
(g6
(S'\x07\xe0\x05\x15\x08\x01\x1e\x05\xde-'
tRp2786
I-1
I1
ttRp2787
sVhttp://www.goodmorningquoteswishes.com/wp-content/uploads/2014/11/Good-Morning-Spiritual-Quotes-Images-Wallpapers-Photos-Pictures-Download.jpg
p2788
g3
(g4
g5
(g6
(S'\x07\xe0\x04\x03\x08\x02 \x01\xfd\x05'
tRp2789
S'299'
p2790
I1
ttRp2791
sVhttp://www.whatsappdpstatus.com/wp-content/uploads/2015/10/Inspirational-Good-Morning-Quotes-with-Nature-Images-12.jpg
p2792
g3
(g4
g5
(g6
(S'\x07\xdf\x0b\x0c\x08\x018\x0e\xbct'
tRp2793
I-1
I1
ttRp2794
sVhttps://s-media-cache-ak0.pinimg.com/736x/dd/5f/bd/dd5fbdce21ad3d2e54e373fcf35a1b45.jpg
p2795
g3
(g4
g5
(g6
(S'\x07\xe0\x05\x1b\t.\x00\x02\xdf\x06'
tRp2796
S'410'
p2797
I1
ttRp2798
sVhttp://goodmorningwishesquotes.com/wp-content/uploads/2015/06/Good-Morning-Wishing-You-Lovely-Day-Images-Wallpapers-Photos-Pictures-Download.jpg
p2799
g3
(g4
g5
(g6
(S'\x07\xdf\x0b\x1b\x08\x00\t\x03\xb5\xa0'
tRp2800
S'1'
I1
ttRp2801
sVhttps://cdn1.vox-cdn.com/thumbor/G2dkLpSaAIsDAUWYVmeE7A6xysQ=/0x28:800x561/730x487/cdn0.vox-cdn.com/uploads/chorus_image/image/46516372/gmib.0.png
p2802
g3
(g4
g5
(g6
(S'\x07\xdf\x0b\x17\x08\x03+\x08\xcd\x00'
tRp2803
S'93'
p2804
I1
ttRp2805
sVhttp://www.mofasalkhabar.com/wp-content/uploads/2016/01/good-morning-and-sun-set-hd-wallpapers.jpg
p2806
g3
(g4
g5
(g6
(S'\x07\xe0\x01\x1b\x08\x1a\x06\x07\xc0\t'
tRp2807
I-1
I1
ttRp2808
sVhttp://e2ua.com/data/wallpapers/57/WDF_1034101.jpg
p2809
g3
(g4
g5
(g6
(S'\x07\xe0\x05\x15\x08\x01\x1e\x05\xdd\xed'
tRp2810
I-1
I1
ttRp2811
sVhttps://urbanimagemagazine.com/wp-content/uploads/2015/07/Good-Morning-726.jpg
p2812
g3
(g4
g5
(g6
(S'\x07\xdf\n\x1f\x08\x01\x1e\x0b\r2'
tRp2813
S'36'
p2814
I1
ttRp2815
sVhttp://4.bp.blogspot.com/-41StSmE4IDM/VlLWFJLsMmI/AAAAAAAADDQ/kQ9gPJ5Jv4I/s1600/good%2Bmorning%2B%25282%2529.jpg
p2816
g3
(g4
g5
(g6
(S'\x07\xe0\x02\x04\x0837\x0e\xd4?'
tRp2817
S'260'
p2818
I2
ttRp2819
sVhttp://quotesideas.com/wp-content/uploads/2015/03/Good-Morning-Wallpapers6.jpg
p2820
g3
(g4
g5
(g6
(S'\x07\xe0\x06\x17\t7\x08\x069\x0c'
tRp2821
I-1
I1
ttRp2822
sVhttp://www.thefreshquotes.com/wp-content/uploads/2015/07/Good-Morning-Hottie.jpg
p2823
g3
(g4
g5
(g6
(S'\x07\xe0\n\x04\t7;\x0e\x99Q'
tRp2824
S'241'
p2825
I1
ttRp2826
sVhttp://www.imagesgreetings.com/wp-content/uploads/2015/09/Good-Morning-Tea-Wallpaper-11.jpg
p2827
g3
(g4
g5
(g6
(S'\x07\xdf\x0c\x12\x08\x01\x1d\x08\xdf9'
tRp2828
S'9'
I1
ttRp2829
sVhttp://www.quoteslike.com/images/1348/cute-good-morning-poem-best-morning-poems-for-friends-images-sKzDJ4-quote.jpg
p2830
g3
(g4
g5
(g6
(S'\x07\xe0\x07\x0f\t#\x16\x08\t('
tRp2831
I-1
I1
ttRp2832
sVhttp://cache.lovethispic.com/uploaded_images/190467-Good-Morning-Keep-Smiling.jpg
p2833
g3
(g4
g5
(g6
(S'\x07\xe0\t\x1c\t!\x14\x00\xf6A'
tRp2834
S'630'
p2835
I1
ttRp2836
sVhttp://e2ua.com/data/wallpapers/60/WDF_1058063.jpg
p2837
g3
(g4
g5
(g6
(S'\x07\xe0\x04\x0b\x08\x03\x1d\x0cV\xcb'
tRp2838
I-1
I1
ttRp2839
sVhttp://phoozer.com/wp-content/uploads/2015/04/whatsapp-good-morning-images.jpg
p2840
g3
(g4
g5
(g6
(S'\x07\xe0\x02\x06\x085\x17\t\xfd\x8b'
tRp2841
I-1
I1
ttRp2842
sVhttp://cache.lovethispic.com/uploaded_images/232143-Good-Morning-Today-Is-A-New-Day-Full-Of-Endless-Possibilities.jpg
p2843
g3
(g4
g5
(g6
(S'\x07\xe0\t\x16\t 6\x04\x98\xbc'
tRp2844
S'619'
p2845
I1
ttRp2846
sVhttp://www.pleasantwalls.com/wp-content/uploads/2014/08/good-morning-wallpapers-hd-51.jpg
p2847
g3
(g4
g5
(g6
(S'\x07\xdf\x0c\x14\x08\x022\x03\xda\xee'
tRp2848
S'144'
p2849
I1
ttRp2850
sVhttp://www.punjabigraphics.com/images/126/Its-Healthy-Good-Morning-Strawberry-In-Milk-Wallpaper.jpg
p2851
g3
(g4
g5
(g6
(S'\x07\xe0\x08\x17\t9\x17\x02\xfa\x9b'
tRp2852
S'503'
p2853
I1
ttRp2854
sVhttps://s-media-cache-ak0.pinimg.com/originals/eb/ec/40/ebec4052147e32e785ccf67fd656d800.jpg
p2855
g3
(g4
g5
(g6
(S'\x07\xe0\x03\x07\x08\x00 \x07oQ'
tRp2856
S'337'
p2857
I1
ttRp2858
sVhttp://www.goodmorningx.com/wp-content/uploads/2015/09/gud-morning-pics.jpg
p2859
g3
(g4
g5
(g6
(S'\x07\xe0\x08\x0f\x08\x003\x08\xee\xd9'
tRp2860
S'517'
p2861
I1
ttRp2862
sVhttp://www.thefreshquotes.com/wp-content/uploads/2015/01/Do-good-and-forget.-It%E2%80%99ll-grow-some-day-600x600.png
p2863
g3
(g4
g5
(g6
(S'\x07\xe0\x02\x04\x0837\x0e\xd4y'
tRp2864
S'324'
p2865
I1
ttRp2866
sVhttps://s-media-cache-ak0.pinimg.com/originals/61/bf/61/61bf613d1604305575f6481a6d381a0d.jpg
p2867
g3
(g4
g5
(g6
(S'\x07\xe0\x03\x02\t/\x07\x05~\x8f'
tRp2868
S'330'
p2869
I1
ttRp2870
sVhttp://science-all.com/images/wallpapers/good-morning-images/good-morning-images-24.jpg
p2871
g3
(g4
g5
(g6
(S"\x07\xe0\x08\x19\t:'\x01\x15\x00"
tRp2872
S'576'
p2873
I1
ttRp2874
sVhttp://www.goodmorningx.com/wp-content/uploads/2015/07/very-good-morning-wallpapers.jpg
p2875
g3
(g4
g5
(g6
(S'\x07\xe0\x03\x17\t35\x0e\xd9\xd1'
tRp2876
S'291'
p2877
I1
ttRp2878
sVhttp://greetings-day.com/wp-content/uploads/2015/10/good-morning-sweetheart.jpg
p2879
g3
(g4
g5
(g6
(S'\x07\xe0\x04\x03\x08\x02 \x01\xfdg'
tRp2880
I-1
I1
ttRp2881
sVhttp://media1.santabanta.com/full1/Miscellaneous/Good%20Morning/good-morning-43a.jpg
p2882
g3
(g4
g5
(g6
(S'\x07\xe0\t\x16\t 6\x04\x98\x83'
tRp2883
S'4'
I1
ttRp2884
sVhttp://geniusquotes.org/wp-content/uploads/2014/04/Funny-good-morning-hd-wallpaper-top-minions.jpg
p2885
g3
(g4
g5
(g6
(S'\x07\xe0\x08\x0f\x08\x003\x08\xef\x11'
tRp2886
I-1
I1
ttRp2887
sVhttp://1.bp.blogspot.com/-Ne6L9rsDmoI/VhKY5FkXWHI/AAAAAAAACVg/QJ-ITbKN3zE/s1600/Good-Morning-Have-A-Nice-Day-Owl-Picture.jpg
p2888
g3
(g4
g5
(g6
(S'\x07\xe0\n\x07\x08\x02"\x0e\xaa_'
tRp2889
S'329'
p2890
I1
ttRp2891
sVhttp://www.mofasalkhabar.com/wp-content/uploads/2015/12/good-morning-hd-wallpaper.jpg
p2892
g3
(g4
g5
(g6
(S'\x07\xdf\x0c\x14\x08\x022\x03\xdam'
tRp2893
I-1
I1
ttRp2894
sVhttp://www.commentsyard.com/wp-content/uploads/2016/07/Wish-To-All-Good-Morning-CY1113.jpg
p2895
g3
(g4
g5
(g6
(S'\x07\xe0\x08\x1c\x08\x01\x14\n\xa2\xed'
tRp2896
S'574'
p2897
I1
ttRp2898
sVhttps://pbs.twimg.com/profile_images/1839233569/twitter_goodmorning_profile_400x400.jpg
p2899
g3
(g4
g5
(g6
(S'\x07\xe0\x03\x07\x08\x00 \x07o\xc9'
tRp2900
I-1
I1
ttRp2901
sVhttp://quotesfans.com/wp-content/uploads/2015/04/Good-Morning-Quotes-28.jpg
p2902
g3
(g4
g5
(g6
(S'\x07\xdf\x0b\x08\x08\x01*\x0ch\x8e'
tRp2903
S'19'
p2904
I1
ttRp2905
sVhttp://www.wishafriend.com/goodmorning/cute-good-morning-messages.php?pagenum=2
p2906
g3
(g4
g5
(g6
(S'\x07\xdf\x0b\x1b\x08\x00\t\x03\xb6O'
tRp2907
I-1
I1
ttRp2908
sVhttp://phoozer.net/wp-content/uploads/2016/02/good-morning-hd-wallpapers-1.jpg
p2909
g3
(g4
g5
(g6
(S'\x07\xe0\n\x07\x08\x02"\x0e\xaa\x87'
tRp2910
S'535'
p2911
I1
ttRp2912
sVhttp://quotesnhumor.com/wp-content/uploads/2015/11/Top-30-Funny-Good-Morning-Quotes-inpirational.jpg
p2913
g3
(g4
g5
(g6
(S'\x07\xe0\t\x07\x08\x05\x15\x04d+'
tRp2914
S'394'
p2915
I1
ttRp2916
sVhttps://s-media-cache-ak0.pinimg.com/736x/fa/69/34/fa6934f4f39c3b6efc4ff817a6fe0e4b.jpg
p2917
g3
(g4
g5
(g6
(S'\x07\xe0\x05\x1b\t.\x00\x02\xdf1'
tRp2918
S'432'
p2919
I1
ttRp2920
sVhttps://s-media-cache-ak0.pinimg.com/originals/8e/cb/10/8ecb106c5774525e9f1a7b0d1d59deb2.jpg
p2921
g3
(g4
g5
(g6
(S'\x07\xdf\x0b\x10\x08\x03\x1a\x07\x85C'
tRp2922
S'70'
p2923
I1
ttRp2924
sVhttp://www.cfau-pd.net/images/goodmorning-wallpaper/goodmorning-wallpaper-7.jpg
p2925
g3
(g4
g5
(g6
(S'\x07\xe0\t\x0c\t $\x02\xf3r'
tRp2926
S'609'
p2927
I1
ttRp2928
sVhttp://139.59.25.161/wp-content/uploads/2015/09/Romantic-Roses-good-morning-hd-wallpapers.jpg
p2929
g3
(g4
g5
(g6
(S'\x07\xe0\t\x16\t 6\x04\x98\x93'
tRp2930
S'607'
p2931
I1
ttRp2932
sVhttp://img.wallpaperfolder.com/f/48C041DCB719/good-morning-coffee-heart-get.jpg
p2933
g3
(g4
g5
(g6
(S'\x07\xe0\x08\x0f\x08\x003\x08\xefQ'
tRp2934
S'568'
p2935
I1
ttRp2936
sVhttp://cdn.superbwallpapers.com/wallpapers/typography/good-morning-25216-1920x1200.jpg
p2937
g3
(g4
g5
(g6
(S'\x07\xe0\x01\x13\x08\x138\x02.\x9d'
tRp2938
S'133'
p2939
I1
ttRp2940
sVhttp://media1.santabanta.com/full1/Miscellaneous/Good%20Morning/good-morning-9a.jpg
p2941
g3
(g4
g5
(g6
(S'\x07\xe0\x04\x18\x08\x00\x0f\rD\x13'
tRp2942
S'31'
p2943
I1
ttRp2944
sVhttp://www.hdwallpapers.in/walls/good_morning_coffee-wide.jpg
p2945
g3
(g4
g5
(g6
(S'\x07\xdf\x0c\x14\x08\x022\x03\xdb\x92'
tRp2946
S'138'
p2947
I1
ttRp2948
sVhttp://www.imagesbuddy.com/images/198/good-morning-to-all-my-friends-and-family.jpg
p2949
g3
(g4
g5
(g6
(S'\x07\xdf\x0b\x17\x08\x03+\x08\xcdH'
tRp2950
S'90'
p2951
I1
ttRp2952
sVhttp://www.ambwallpapers.com/wp-content/uploads/2016/03/Good-Morning-HD-Wallpapers-1.jpg
p2953
g3
(g4
g5
(g6
(S'\x07\xe0\x05\x15\x08\x01\x1e\x05\xde\xdb'
tRp2954
S'364'
p2955
I1
ttRp2956
sVhttp://wishesmessages.com/wp-content/uploads/2013/10/Inspirational-good-morning-quote-positive-attitude-coffee-640x480.jpg
p2957
g3
(g4
g5
(g6
(S'\x07\xe0\n\x07\x08\x02"\x0e\xab$'
tRp2958
S'266'
p2959
I1
ttRp2960
sVhttp://www.desicomments.com/dc3/10/355804/355804.jpg
p2961
g3
(g4
g5
(g6
(S'\x07\xe0\n\x07\x08\x02"\x0e\xab+'
tRp2962
S'661'
p2963
I1
ttRp2964
sVhttp://image.shutterstock.com/z/stock-photo--good-morning-happy-new-year-is-written-on-opened-notepad-with-pen-small-earphone-and-a-cup-345837281.jpg
p2965
g3
(g4
g5
(g6
(S'\x07\xe0\t\x12\t *\x0b7X'
tRp2966
S'447'
p2967
I1
ttRp2968
sVhttp://cdn.goodmorningmylove.com/wp-content/uploads/photo-gallery/Good%20Morning%20Wallpapers%20With%20Quotes_Emme%20Woodhull-Bache.jpg
p2969
g3
(g4
g5
(g6
(S'\x07\xe0\x08\x1c\x08\x01\x14\n\xa3Y'
tRp2970
S'585'
p2971
I1
ttRp2972
sVhttp://www.freshmorningquotes.com/wp-content/uploads/2015/09/inspirational-good-morning-love-quotes.jpg
p2973
g3
(g4
g5
(g6
(S'\x07\xe0\x04\x18\x08\x00\x0f\rD\xb9'
tRp2974
I-1
I1
ttRp2975
sVhttp://www.letuspublish.com/wp-content/uploads/2014/10/Cute-good-morning-wallpaper-1.jpg
p2976
g3
(g4
g5
(g6
(S'\x07\xe0\x06\x1d\t1)\x07;\xbd'
tRp2977
S'454'
p2978
I1
ttRp2979
sVhttp://www.whoa.in/20150417-Whoa/Good-Morning-Have-a-Nice-Day-with-Lord-Ganesha-HD-Wallpaper.jpg
p2980
g3
(g4
g5
(g6
(S'\x07\xe0\x03\x0e\x08\x00.\x07\xe2F'
tRp2981
S'335'
p2982
I1
ttRp2983
sVhttp://www.10ism.com/wp-content/uploads/2015/12/Good-Morning-Quotes-Messages.png
p2984
g3
(g4
g5
(g6
(S'\x07\xe0\x05\x19\t!\x06\t;\xbf'
tRp2985
S'443'
p2986
I1
ttRp2987
sVhttp://itsevalicious.com/wp-content/uploads/2015/06/Simple-Good-Morning-Quote-Wallpaper-2015.jpg
p2988
g3
(g4
g5
(g6
(S'\x07\xdf\x0c\x14\x08\x022\x03\xdad'
tRp2989
S'147'
p2990
I1
ttRp2991
sVhttp://pic.1fotonin.com/data/wallpapers/60/WDF_1059445.jpg
p2992
g3
(g4
g5
(g6
(S'\x07\xe0\x05\x08\x08\x00\x0b\x05\xe8\xe8'
tRp2993
S'396'
p2994
I1
ttRp2995
sVhttps://s-media-cache-ak0.pinimg.com/originals/34/f5/a8/34f5a857e6a5f3b5a8591a14e2a25064.jpg
p2996
g3
(g4
g5
(g6
(S'\x07\xdf\x0c\x12\x08\x01\x1d\x08\xde\xfe'
tRp2997
S'2'
I1
ttRp2998
sVhttp://thumbs.dreamstime.com/z/good-morning-smile-coffee-cup-39488693.jpg
p2999
g3
(g4
g5
(g6
(S'\x07\xe0\x04\x18\x08\x00\x0f\rD1'
tRp3000
S'344'
p3001
I1
ttRp3002
sVhttp://img.wallpaperfolder.com/f/79625221DDB7/good-morning-sunrise-images.jpg
p3003
g3
(g4
g5
(g6
(S'\x07\xe0\t\x12\t *\x0b5\xf4'
tRp3004
S'616'
p3005
I1
ttRp3006
sVhttp://www.goodmorningquote.com/wp-content/uploads/2014/06/goodmorning-quotes-the-best-thing-about-waking-up.jpg?93df17
p3007
g3
(g4
g5
(g6
(S'\x07\xdf\x0b\x1b\x08\x00\t\x03\xb5\xc0'
tRp3008
I-1
I1
ttRp3009
sVhttp://rishikajain.com/wp-content/uploads/2016/05/Good-morning7.jpg
p3010
g3
(g4
g5
(g6
(S'\x07\xe0\n\x07\x08\x02"\x0e\xa9\xa2'
tRp3011
S'634'
p3012
I1
ttRp3013
sVhttp://imaginestobrigthenyourday.com/wp-content/uploads/2016/03/Cute-images-to-say-good-morning-to-share.jpg
p3014
g3
(g4
g5
(g6
(S'\x07\xe0\x03\x0e\x08\x00.\x07\xe1$'
tRp3015
I-1
I1
ttRp3016
sVhttp://www.technoven.com/wp-content/uploads/2015/05/Good-Morning-Whats-App-HD-images.jpg
p3017
g3
(g4
g5
(g6
(S'\x07\xe0\x01\x1b\x08\x1a\x06\x07\xbf\xb9'
tRp3018
S'209'
p3019
I1
ttRp3020
sVhttp://freewallpaperspictures.com/wp-content/uploads/2016/03/1024x640xGood-Morning-HD-Photo-free-1024x640.jpg.pagespeed.ic_.HnjMLQjOj3.jpg
p3021
g3
(g4
g5
(g6
(S'\x07\xe0\x05\x15\x08\x01\x1e\x05\xde\x1b'
tRp3022
S'387'
p3023
I1
ttRp3024
sVhttp://www.mofasalkhabar.com/wp-content/uploads/2015/11/Good-Morning-Wishes.jpg
p3025
g3
(g4
g5
(g6
(S'\x07\xdf\x0c\x18\x08\x03\t\x04cL'
tRp3026
I-1
I1
ttRp3027
sVhttps://s-media-cache-ak0.pinimg.com/564x/3b/2d/66/3b2d660656655207a113641dadc42017.jpg
p3028
g3
(g4
g5
(g6
(S'\x07\xe0\t\x16\t 6\x04\x96{'
tRp3029
S'628'
p3030
I1
ttRp3031
sVhttp://www.cfau-pd.net/images/good-morning-hd-image/good-morning-hd-image-4.jpg
p3032
g3
(g4
g5
(g6
(S'\x07\xe0\t\x07\x08\x05\x15\x04dI'
tRp3033
NI1
ttRp3034
sVhttp://hdwallpapersrocks.com/wp-content/uploads/2013/09/Good-morning-funny-panda-face-in-coffee.jpg
p3035
g3
(g4
g5
(g6
(S'\x07\xe0\x08\x17\t9\x17\x02\xfa\x88'
tRp3036
S'511'
p3037
I1
ttRp3038
sVhttp://www.yourwhatsappstatus.com/wp-content/uploads/2016/07/Good-morning-and-live-healthy-1024x768.jpg
p3039
g3
(g4
g5
(g6
(S'\x07\xe0\t\x16\t 6\x04\x96p'
tRp3040
I-1
I1
ttRp3041
sVhttp://science-all.com/images/wallpapers/good-morning-hd-images/good-morning-hd-images-16.jpg
p3042
g3
(g4
g5
(g6
(S'\x07\xe0\x08\x1c\x08\x01\x14\n\xa2\x9b'
tRp3043
S'580'
p3044
I1
ttRp3045
sVhttp://www.imgion.com/images/02/Romantic-morning-rose-with-tea.jpg
p3046
g3
(g4
g5
(g6
(S'\x07\xdf\x0c\x18\x08\x03\t\x04b\xb8'
tRp3047
S'110'
p3048
I1
ttRp3049
sVhttp://6iee.com/data/uploads/20/639632.jpg
p3050
g3
(g4
g5
(g6
(S'\x07\xe0\x04\x03\x08\x02 \x01\xfd#'
tRp3051
I-1
I1
ttRp3052
sVhttp://www.quotesgiant.com/wp-content/uploads/2016/02/Good-Morning-Positive-Thought-Quotes-Wallpaper.jpg
p3053
g3
(g4
g5
(g6
(S'\x07\xe0\x03\x02\t/\x07\x05~<'
tRp3054
I-1
I1
ttRp3055
sVhttp://www.messagescollection.com/wp-content/uploads/2015/02/good-morning.jpg
p3056
g3
(g4
g5
(g6
(S'\x07\xe0\x08\x05\x08\x025\x01\x1e\x8d'
tRp3057
I-1
I1
ttRp3058
sVhttps://img1.etsystatic.com/001/0/6670867/il_fullxfull.401025025_4mcm.jpg
p3059
g3
(g4
g5
(g6
(S'\x07\xe0\x01\x1b\x08\x1a\x06\x07\xc0\x92'
tRp3060
S'222'
p3061
I1
ttRp3062
sVhttp://www.wishgoodmorning.org/wp-content/uploads/2016/02/Good-Morning-With-Lovely-Rose-wm13080.jpg
p3063
g3
(g4
g5
(g6
(S"\x07\xe0\x08\x19\t:'\x01\x14\xde"
tRp3064
S'573'
p3065
I1
ttRp3066
sVhttp://www.allgraphics123.com/wp-content/uploads/2015/06/Good-Morning-Have-A-Beautiful-And-Joyful-Day.gif
p3067
g3
(g4
g5
(g6
(S'\x07\xdf\n\x1f\x08\x01\x1e\x0b\rN'
tRp3068
S'15'
p3069
I1
ttRp3070
sVhttp://www.yourwhatsappstatus.com/wp-content/uploads/2016/07/Good-Morning-wishes-images.jpg
p3071
g3
(g4
g5
(g6
(S'\x07\xe0\t\x16\t 6\x04\x97a'
tRp3072
S'598'
p3073
I1
ttRp3074
sVhttp://www.ahdwallpaperstab.com/wp-content/uploads/2015/10/good_morning_quotes_with_images-7.jpg
p3075
g3
(g4
g5
(g6
(S'\x07\xe0\x01\x05\x08\x050\x060\x0b'
tRp3076
S'193'
p3077
I1
ttRp3078
sVhttp://freehd-images.com/wp-content/uploads/2015/09/Good-Morning-Wallpaper-120-4.jpg
p3079
g3
(g4
g5
(g6
(S'\x07\xe0\x02\x0e\x08:7\r\x9e)'
tRp3080
I-1
I1
ttRp3081
sVhttp://www.goodmorning.quotesms.com/images/good-morning-blessings.jpg
p3082
g3
(g4
g5
(g6
(S'\x07\xe0\n\x07\x08\x02"\x0e\xa9\xd1'
tRp3083
S'490'
p3084
I1
ttRp3085
sVhttps://s-media-cache-ak0.pinimg.com/736x/71/99/7a/71997ab71ecf88b57208d38755511de8.jpg
p3086
g3
(g4
g5
(g6
(S'\x07\xe0\t\x07\x08\x05\x15\x04d\xc6'
tRp3087
S'101'
p3088
I1
ttRp3089
sVhttp://www.mofasalkhabar.com/wp-content/uploads/2015/12/good_morning_hd_wallpaper1.jpg
p3090
g3
(g4
g5
(g6
(S'\x07\xe0\x01\x13\x08\x138\x02.\x0c'
tRp3091
I-1
I1
ttRp3092
sVhttp://www.hdwallpaper.nu/wp-content/uploads/2015/04/good-morning-with-flowers-hd-wallpaper.jpg
p3093
g3
(g4
g5
(g6
(S'\x07\xe0\x03\x02\t/\x07\x05~@'
tRp3094
S'343'
p3095
I1
ttRp3096
sVhttp://www.freelargeimages.com/wp-content/uploads/2015/11/Good_Morning_01.jpg
p3097
g3
(g4
g5
(g6
(S'\x07\xe0\t\x12\t *\x0b6\xb6'
tRp3098
S'57'
p3099
I1
ttRp3100
sVhttp://www.goodmorningquote.com/wp-content/uploads/2014/06/goodmorning-quotes-the-best-thing-about-waking-up.jpg?2d7d09
p3101
g3
(g4
g5
(g6
(S'\x07\xdf\x0b\x17\x08\x03+\x08\xcdz'
tRp3102
I-1
I1
ttRp3103
sVhttp://i.ytimg.com/vi/ITBhZ7yGztw/hqdefault.jpg
p3104
g3
(g4
g5
(g6
(S'\x07\xdf\n\x1f\x08\x01\x1e\x0b\rs'
tRp3105
S'25'
p3106
I1
ttRp3107
sVhttp://www.whatsapp99.com/wp-content/uploads/2016/05/funny-good-morning-pic.jpg
p3108
g3
(g4
g5
(g6
(S'\x07\xe0\t\x07\x08\x05\x15\x04d\xe7'
tRp3109
S'582'
p3110
I1
ttRp3111
sVhttp://3.bp.blogspot.com/-fm_AExeMVCo/VhKZAk9EYUI/AAAAAAAACWI/WiLbzhTxzlE/s1600/Good_Morning_03-copy.jpg
p3112
g3
(g4
g5
(g6
(S'\x07\xe0\x02\x06\x085\x17\t\xfdY'
tRp3113
S'304'
p3114
I1
ttRp3115
sVhttp://good-morning.hothungama.com/wp-content/uploads/2014/08/latest-good-morning-wallpaper.jpg
p3116
g3
(g4
g5
(g6
(S'\x07\xe0\x07\n\x08\x009\x02\x0c*'
tRp3117
S'438'
p3118
I1
ttRp3119
sVhttp://2.bp.blogspot.com/-TNLugsSDcBM/VRBNeA8XmAI/AAAAAAAABBU/0CLu0xRUssM/s1600/good%2Bmorning%2Bsweetheart%2Bimages%2B3.jpg
p3120
g3
(g4
g5
(g6
(S'\x07\xdf\x0b\x17\x08\x03+\x08\xcd\xe5'
tRp3121
S'64'
p3122
I1
ttRp3123
sVhttps://www.goodmorningquote.com/wp-content/uploads/2014/06/motivational-good-morning-quotes-when-you-start-each-day-with-a-grateful-heart.jpg
p3124
g3
(g4
g5
(g6
(S"\x07\xe0\x02\x0c\x086'\r\xfdP"
tRp3125
I-1
I1
ttRp3126
sVhttp://www.goodmorningx.com/wp-content/uploads/2015/04/good-morning-2a.jpg
p3127
g3
(g4
g5
(g6
(S'\x07\xe0\x04\x18\x08\x00\x0f\rC\xf2'
tRp3128
S'99'
p3129
I1
ttRp3130
sVhttp://www.wishgoodmorning.org/wp-content/uploads/2016/03/Good-Morning-Beautiful-I-Miss-You-fj52.png
p3131
g3
(g4
g5
(g6
(S'\x07\xe0\x05\x10\t\x05\x19\tU]'
tRp3132
S'376'
p3133
I1
ttRp3134
sVhttp://www.pixelstalk.net/wp-content/uploads/2016/05/Good-Morning-Desktop-Backgrounds.jpg
p3135
g3
(g4
g5
(g6
(S'\x07\xe0\x08\x17\t9\x17\x02\xfa\xfb'
tRp3136
I-1
I1
ttRp3137
sVhttp://www.goodmorningimagesquotes.com/wp-content/uploads/2015/11/Good-morning-love-images-1.jpg
p3138
g3
(g4
g5
(g6
(S'\x07\xdf\x0b\x1b\x08\x00\t\x03\xb6Z'
tRp3139
S'92'
p3140
I1
ttRp3141
sVhttp://allwishes.in/wp-content/uploads/2014/02/Best-Good-Morning-wishes-images-1024x640.jpg
p3142
g3
(g4
g5
(g6
(S'\x07\xe0\t\x0c\t $\x02\xf3X'
tRp3143
S'485'
p3144
I1
ttRp3145
sVhttp://e2ua.com/data/wallpapers/115/WDF_1581442.jpg
p3146
g3
(g4
g5
(g6
(S'\x07\xe0\x04\x11\t95\x06\x8e\xcb'
tRp3147
I-1
I1
ttRp3148
sVhttps://www.goodmorningquote.com/wp-content/uploads/2014/06/motivational-good-morning-quotes-when-you-start-each-day-with-a-grateful-heart.jpg?e7cdc0
p3149
g3
(g4
g5
(g6
(S'\x07\xe0\x02\x02\x08\x1a\x1f\x0b\xe1r'
tRp3150
I-1
I1
ttRp3151
sVhttp://www.goodmorning.quotesms.com/images/funny-good-morning-quotes.jpg
p3152
g3
(g4
g5
(g6
(S'\x07\xe0\x05\x19\t!\x06\t;j'
tRp3153
S'555'
p3154
I1
ttRp3155
sVhttp://kurld.com/images/wallpapers/good-morning-image/good-morning-image-9.jpg
p3156
g3
(g4
g5
(g6
(S'\x07\xe0\n\x07\x08\x02"\x0e\xa9\x9a'
tRp3157
I-1
I1
ttRp3158
sVhttp://www.newhdwallpaper.in/wp-content/uploads/2014/07/Good-morning-fabulous-wide.jpg
p3159
g3
(g4
g5
(g6
(S'\x07\xe0\n\x07\x08\x02"\x0e\xaa\xf9'
tRp3160
S'540'
p3161
I2
ttRp3162
sVhttps://s-media-cache-ak0.pinimg.com/736x/1d/4a/88/1d4a882afa72c5f405a7bdee2a1f6cfe.jpg
p3163
g3
(g4
g5
(g6
(S'\x07\xe0\x08\x1c\x08\x01\x14\n\xa2\x8f'
tRp3164
S'358'
p3165
I1
ttRp3166
sVhttp://quotesideas.com/wp-content/uploads/2015/03/other-card-beauteous-purple-theme-good-morning-lettering-quotes-with-cuppa-and-fancy-white-flowers-decorations-beautiful-good-morning-greetings-design-ideas.jpg
p3167
g3
(g4
g5
(g6
(S'\x07\xe0\x08\x1c\x08\x01\x14\n\xa3D'
tRp3168
I-1
I1
ttRp3169
sVhttp://2.bp.blogspot.com/-u68qtkZ4cg4/Vbh--o42zhI/AAAAAAAABPI/MUyW4N7Nx_Q/s1600/morning.jpg
p3170
g3
(g4
g5
(g6
(S'\x07\xe0\t\x0c\t $\x02\xf3z'
tRp3171
S'472'
p3172
I2
ttRp3173
sVhttp://www.freeforshare.com/wp-content/uploads/2016/05/Good-Morning-Quotes-in-Hindi.jpg
p3174
g3
(g4
g5
(g6
(S'\x07\xe0\x07\x1b\t6/\x0c\x8e\xbc'
tRp3175
I-1
I1
ttRp3176
sVhttp://www.pennsylvaniamusicnews.com/wp-content/uploads/2015/11/good-morning-america-logo.png
p3177
g3
(g4
g5
(g6
(S'\x07\xe0\x02\x12\t\x02#\x06p{'
tRp3178
S'306'
p3179
I1
ttRp3180
sVhttp://www.thefreshquotes.com/wp-content/uploads/2015/07/I-Sent-You-A-Couple-Of-Hugs-In-My-Thoughts-Good-Morning-My-Sweet2.jpg
p3181
g3
(g4
g5
(g6
(S'\x07\xe0\n\x07\x08\x02"\x0e\xab5'
tRp3182
S'521'
p3183
I1
ttRp3184
sVhttp://photozup.com/wp-content/uploads/2015/09/Good-Morning-Images-For-Mom.jpg
p3185
g3
(g4
g5
(g6
(S'\x07\xe0\x02\x06\x085\x17\t\xfe\xca'
tRp3186
I-1
I1
ttRp3187
sVhttp://www.goodmorning.quotesms.com/images/funny-good-morning-pictures.jpg
p3188
g3
(g4
g5
(g6
(S'\x07\xe0\n\x07\x08\x02"\x0e\xabI'
tRp3189
S'412'
p3190
I1
ttRp3191
s.