(dp1
Vhttp://phoozer.net/wp-content/uploads/2016/02/sweet-good-morning-wallpaper-1.jpg
p2
ccopy_reg
_reconstructor
p3
(cbase.graph_fetch.fetcher
ImageSlot
p4
c__builtin__
tuple
p5
(cdatetime
datetime
p6
(S'\x07\xe0\x08\x0f\x08\x003\x08\xef\x08'
tRp7
S'522'
p8
I1
ttRp9
sVhttp://3.bp.blogspot.com/-6BiKtvhpLqM/VfUm0yqeX3I/AAAAAAAABl0/Q04J9Faang0/s1600/Good%2BMorning%2BImages%2BWith%2BFlowers%2B4.jpg
p10
g3
(g4
g5
(g6
(S'\x07\xe0\x04\x18\x08\x00\x0f\rC\xb2'
tRp11
S'388'
p12
I1
ttRp13
sVhttps://lh4.ggpht.com/awBKg_qnmpD6OhrT2mj6YrLmLzlKjqHO5vv6PyLaDVXXPTgS9b-_peoO18Z050ZKLqM=h900
p14
g3
(g4
g5
(g6
(S'\x07\xe0\x01\x05\x08\x050\x06/\x14'
tRp15
S'177'
p16
I1
ttRp17
sVhttp://static.hdw.eweb4.com/media/wallpapers_dl/1/144/1438995-good-morning.jpg
p18
g3
(g4
g5
(g6
(S'\x07\xe0\x08\x0f\x08\x003\x08\xee`'
tRp19
S'536'
p20
I1
ttRp21
sVhttp://www.desicomments.com/dc3/09/341964/341964.jpg
p22
g3
(g4
g5
(g6
(S'\x07\xe0\x07\x1b\t6/\x0c\x8e\xc0'
tRp23
S'404'
p24
I1
ttRp25
sVhttp://i2.wp.com/blogjob.com/lifeandliving/files/2014/10/Sunflowery-good-morning-1.jpg
p26
g3
(g4
g5
(g6
(S'\x07\xdf\x0c\x14\x08\x022\x03\xda\x8a'
tRp27
S'137'
p28
I1
ttRp29
sVhttp://previews.123rf.com/images/zmiter/zmiter1509/zmiter150900098/44950141-Fried-Egg-vector-illustration-good-morning-concept-breakfast-fried-hen-or-chicken-egg-with-a-orange--Stock-Vector.jpg
p30
g3
(g4
g5
(g6
(S'\x07\xe0\t\x1c\t!\x14\x00\xf4&'
tRp31
S'440'
p32
I1
ttRp33
sVhttp://www.lovethispic.com/uploaded_images/196788-Spiritual.png
p34
g3
(g4
g5
(g6
(S'\x07\xe0\x03\x17\t35\x0e\xd9P'
tRp35
S'390'
p36
I1
ttRp37
sVhttp://cache.lovethispic.com/uploaded_images/209978-Good-Morning-Tuesday.jpg
p38
g3
(g4
g5
(g6
(S'\x07\xe0\x02\x1a\t;\x1b\x05\xefT'
tRp39
S'275'
p40
I1
ttRp41
sVhttp://www.ambwallpapers.com/wp-content/uploads/2016/05/Sweet-Good-Morning-Wallpaper-HD.jpg
p42
g3
(g4
g5
(g6
(S'\x07\xe0\x06\x1d\t1)\x07;7'
tRp43
S'439'
p44
I1
ttRp45
sVhttp://www.lovethispic.com/uploaded_images/122605-Good-Morning-Sunday.jpg
p46
g3
(g4
g5
(g6
(S'\x07\xe0\x02\x12\t\x02#\x06ns'
tRp47
S'308'
p48
I1
ttRp49
sVhttp://www.lovethispic.com/uploaded_images/237474-Good-Morning-Bundle-Up-Its-Cold-Out.jpg
p50
g3
(g4
g5
(g6
(S'\x07\xe0\x04\x03\x08\x02 \x01\xfd\x16'
tRp51
S'323'
p52
I1
ttRp53
sVhttp://www.goodmorningimagesgreetings.com/wp-content/uploads/2015/09/Good-Morning-Tea-Wallpaper-11.jpg
p54
g3
(g4
g5
(g6
(S'\x07\xe0\x08\x1c\x08\x01\x14\n\xa2\x98'
tRp55
S'333'
p56
I1
ttRp57
sVhttp://www.spyderonlines.com/images/wallpapers/good-morning-hd-image/good-morning-hd-image-6.jpg
p58
g3
(g4
g5
(g6
(S'\x07\xe0\x07\x0f\t#\x16\x08\t\x11'
tRp59
S'462'
p60
I1
ttRp61
sVhttp://www.goodmorningquote.com/wp-content/uploads/2014/06/good-morning-quotes-the-minute-you-think-of.jpg?a8abaa
p62
g3
(g4
g5
(g6
(S'\x07\xdf\x0b\x08\x08\x01*\x0ch1'
tRp63
I-1
I1
ttRp64
sVhttp://thumbs.dreamstime.com/z/good-morning-toast-23506720.jpg
p65
g3
(g4
g5
(g6
(S'\x07\xe0\x04\x18\x08\x00\x0f\rDg'
tRp66
S'384'
p67
I1
ttRp68
sVhttp://www.nextimage.in/wp-content/uploads/2014/07/good-morning-sms-for-her-6.jpg
p69
g3
(g4
g5
(g6
(S'\x07\xdf\x0c\x12\x08\x01\x1d\x08\xdf1'
tRp70
S'126'
p71
I1
ttRp72
sVhttp://hdwallpaperstab.com/wp-content/uploads/2015/07/good-morning-and-keep-smiling-11.png
p73
g3
(g4
g5
(g6
(S'\x07\xe0\x01\x05\x08\x050\x06/\x85'
tRp74
S'105'
p75
I1
ttRp76
sVhttps://s-media-cache-ak0.pinimg.com/736x/ac/86/3b/ac863b73d981e88da24d1df73d56ffc1.jpg
p77
g3
(g4
g5
(g6
(S'\x07\xe0\x04\x03\x08\x02 \x01\xfc\xfa'
tRp78
S'346'
p79
I1
ttRp80
sVhttp://e2ua.com/data/wallpapers/103/WDF_1463266.png
p81
g3
(g4
g5
(g6
(S'\x07\xe0\x05\x1b\t.\x00\x02\xdfY'
tRp82
I-1
I1
ttRp83
sVhttp://fabimagepic.com/wp-content/gallery/good-morning/good-morning-with-love.jpg
p84
g3
(g4
g5
(g6
(S'\x07\xe0\x01\x0b\x08\x08\n\tUv'
tRp85
S'211'
p86
I1
ttRp87
sVhttp://goodmorningpics.com/wp-content/uploads/2015/11/Good-Morning-3.jpg
p88
g3
(g4
g5
(g6
(S'\x07\xe0\x08\x0f\x08\x003\x08\xee\xd4'
tRp89
S'91'
p90
I1
ttRp91
sVhttp://www.letuspublish.com/wp-content/uploads/2014/10/900x563xGood-Morning-Coffee-HD-Quotes.jpg.pagespeed.ic.si7d1Cq2qM.jpg
p92
g3
(g4
g5
(g6
(S'\x07\xe0\x04\x0b\x08\x03\x1d\x0cW\r'
tRp93
S'359'
p94
I1
ttRp95
sVhttp://www.lovethispic.com/uploaded_images/164703-Good-Morning-Jesus-Loves-You.jpg
p96
g3
(g4
g5
(g6
(S'\x07\xe0\t\x07\x08\x05\x15\x04d\xaa'
tRp97
S'287'
p98
I1
ttRp99
sVhttp://www.goodmorningimagesquotes.com/wp-content/uploads/2015/11/good-morning-pics-1.jpg
p100
g3
(g4
g5
(g6
(S'\x07\xdf\x0b\x1b\x08\x00\t\x03\xb6 '
tRp101
I-1
I1
ttRp102
sVhttp://alldayquotes.com/wp-content/uploads/2016/05/Download-Good-Morning-Quotes-For-WhatsApp.jpg
p103
g3
(g4
g5
(g6
(S'\x07\xe0\x07\x0f\t#\x16\x08\t<'
tRp104
S'484'
p105
I1
ttRp106
sVhttp://www.goodmorningimagesgreetings.com/wp-content/uploads/2015/08/good_morning_hd_wallpaper.jpg
p107
g3
(g4
g5
(g6
(S'\x07\xe0\x08\x17\t9\x17\x02\xfak'
tRp108
S'169'
p109
I1
ttRp110
sVhttp://www.imgion.com/images/02/Romantic-morning-greetings.jpg
p111
g3
(g4
g5
(g6
(S'\x07\xe0\x05\x19\t!\x06\t:\xe3'
tRp112
S'29'
p113
I1
ttRp114
sVhttp://www.wishgoodmorning.org/wp-content/uploads/2016/03/Good-Morning-Dear-All-wm1919.jpg
p115
g3
(g4
g5
(g6
(S'\x07\xe0\x08\x1c\x08\x01\x14\n\xa2\xdc'
tRp116
S'584'
p117
I1
ttRp118
sVhttp://previews.123rf.com/images/ratoca/ratoca1301/ratoca130100062/17265102-Good-morning-sun-Stock-Vector.jpg
p119
g3
(g4
g5
(g6
(S'\x07\xe0\t\x12\t *\x0b6\xd8'
tRp120
S'48'
p121
I1
ttRp122
sVhttp://cache.lovethispic.com/uploaded_images/234477-Good-Morning-Love-You.jpg
p123
g3
(g4
g5
(g6
(S'\x07\xe0\n\x07\x08\x02"\x0e\xa9\x13'
tRp124
S'658'
p125
I1
ttRp126
sVhttp://3.bp.blogspot.com/-6qMlfJvn9DU/VfUm43fzIZI/AAAAAAAABl8/zC49buh9iWk/s1600/Good%2BMorning%2BImages%2BWith%2BFlowers1.jpg
p127
g3
(g4
g5
(g6
(S'\x07\xe0\n\x04\t7;\x0e\x99\xb6'
tRp128
S'458'
p129
I1
ttRp130
sVhttp://projectsbymandy.com/wp-content/uploads/2013/07/goodmorning-love.jpg
p131
g3
(g4
g5
(g6
(S'\x07\xe0\x04\x0b\x08\x03\x1d\x0cW)'
tRp132
S'531'
p133
I1
ttRp134
sVhttp://www.goodmorning.quotesms.com/images/cute-ways-to-say-good-morning.jpg
p135
g3
(g4
g5
(g6
(S'\x07\xe0\x05\x19\t!\x06\t:$'
tRp136
S'424'
p137
I1
ttRp138
sVhttp://4.bp.blogspot.com/-TfyNpq_gens/VNW6nx1WJaI/AAAAAAAAKQA/zxRK5SXbTO4/s1600/Gud-Morning-SMS.jpg
p139
g3
(g4
g5
(g6
(S'\x07\xe0\t\x1c\t!\x14\x00\xf6\xa1'
tRp140
S'243'
p141
I1
ttRp142
sVhttp://hdwallpapershdpics.com/wp-content/uploads/2015/11/Good-Morning-Hindi-Quotes-Messages-Images-Wallpapers-Photos.jpg
p143
g3
(g4
g5
(g6
(S'\x07\xe0\x07\x15\t$#\x03\x8e\x94'
tRp144
S'480'
p145
I1
ttRp146
sVhttp://i.123g.us/c/gen_morning/pc/115940_pc.jpg
p147
g3
(g4
g5
(g6
(S'\x07\xdf\n\x1e\x08\x01\x18\x0c\xc2J'
tRp148
S'39'
p149
I1
ttRp150
sVhttp://www.lovethispic.com/uploaded_images/67038-Have-A-Sweet-Day-Good-Morning.jpg
p151
g3
(g4
g5
(g6
(S'\x07\xdf\x0c\x1e\x08\x03:\x04\x99{'
tRp152
S'187'
p153
I1
ttRp154
sVhttp://www.conversationsforabetterworld.com/wp-content/uploads/2015/06/Good-Morning-Full-HD-Photos-272.jpg
p155
g3
(g4
g5
(g6
(S'\x07\xe0\x01\x1b\x08\x1a\x06\x07\xc1\xbf'
tRp156
I-1
I1
ttRp157
sVhttp://www.goodmorningx.com/wp-content/uploads/2015/09/good-morning-photos.jpg
p158
g3
(g4
g5
(g6
(S'\x07\xe0\t\x12\t *\x0b74'
tRp159
S'246'
p160
I1
ttRp161
sVhttp://e2ua.com/data/wallpapers/100/WDF_1435223.jpg
p162
g3
(g4
g5
(g6
(S'\x07\xe0\x04\x0b\x08\x03\x1d\x0cW;'
tRp163
I-1
I1
ttRp164
sVhttp://www.toptenpack.com/wp-content/uploads/2015/06/hd-good-morning-desktop-wallpapers.jpg
p165
g3
(g4
g5
(g6
(S'\x07\xe0\x02\x0e\x08:7\r\x9d\xc6'
tRp166
S'296'
p167
I1
ttRp168
sVhttp://media-cache-ec0.pinimg.com/736x/07/d5/7c/07d57c845c3d0ea50d51a5fb29340fef.jpg
p169
g3
(g4
g5
(g6
(S'\x07\xe0\x07\x0f\t#\x16\x08\t\x91'
tRp170
S'551'
p171
I1
ttRp172
sVhttps://s-media-cache-ak0.pinimg.com/736x/d6/69/48/d66948dc4a203791ec850a7878be1a0e.jpg
p173
g3
(g4
g5
(g6
(S'\x07\xe0\x05\x1b\t.\x00\x02\xdf\x9b'
tRp174
S'429'
p175
I1
ttRp176
sVhttp://www.freshmorningquotes.com/wp-content/uploads/2015/10/Good-Morning-Love-Images-with-Flowers-images-14.jpg
p177
g3
(g4
g5
(g6
(S'\x07\xe0\x06\x1d\t1)\x07;\xb4'
tRp178
I-1
I1
ttRp179
sVhttp://www.wallpaperswidefree.com/images/good-morning-enjoy-tea--wide-hd-wallpapers.jpg
p180
g3
(g4
g5
(g6
(S'\x07\xe0\n\x07\x08\x02"\x0e\xaa\xcd'
tRp181
S'662'
p182
I1
ttRp183
sVhttp://www.goodmorningx.com/wp-content/uploads/2015/07/good-morning-image-for-girlfriend.jpg
p184
g3
(g4
g5
(g6
(S'\x07\xe0\x08\x05\x08\x025\x01\x1f['
tRp185
S'537'
p186
I1
ttRp187
sVhttp://4.bp.blogspot.com/-GsMZmZQzoqw/VI6X4H4gvxI/AAAAAAAABqY/YEaPPKjW1oI/s1600/good%2Bmorning%2B2015%2B(10).jpg
p188
g3
(g4
g5
(g6
(S'\x07\xe0\x01\x1b\x08\x1a\x06\x07\xc0\xf4'
tRp189
S'236'
p190
I2
ttRp191
sVhttp://www.spyderonlines.com/images/wallpapers/good-morning-images/good-morning-images-15.jpg
p192
g3
(g4
g5
(g6
(S'\x07\xe0\x07\x0f\t#\x16\x08\x08\xc8'
tRp193
S'464'
p194
I1
ttRp195
sVhttp://cache.lovethispic.com/uploaded_images/195770-Good-Morning-Gorgeous.jpg
p196
g3
(g4
g5
(g6
(S'\x07\xe0\t\x0c\t $\x02\xf28'
tRp197
S'392'
p198
I1
ttRp199
sVhttp://science-all.com/images/wallpapers/good-morning-hd-image/good-morning-hd-image-6.jpg
p200
g3
(g4
g5
(g6
(S"\x07\xe0\x08\x19\t:'\x01\x15\x05"
tRp201
S'502'
p202
I1
ttRp203
sVhttp://www.phaidon.com/resource/tullet-good-morning-game-board-2d-9780714868752.jpg
p204
g3
(g4
g5
(g6
(S'\x07\xe0\x08\x17\t9\x17\x02\xfaf'
tRp205
S'331'
p206
I1
ttRp207
sVhttp://www.padhokhelo.com/wp-content/uploads/2015/11/Good-morning-and-live-healthy-1024x768.jpg
p208
g3
(g4
g5
(g6
(S'\x07\xe0\x06\x1d\t1)\x07:\xc9'
tRp209
S'378'
p210
I1
ttRp211
sVhttp://imagesbug.com/wp-content/uploads/2015/11/Sweet-Good-Morning-with-Coffee-Hd-Wallpaper.jpg
p212
g3
(g4
g5
(g6
(S'\x07\xe0\t\x07\x08\x05\x15\x04e\x88'
tRp213
S'450'
p214
I1
ttRp215
sVhttp://www.goodmorningx.com/wp-content/uploads/2015/07/good-morning-images-for-friends.jpg
p216
g3
(g4
g5
(g6
(S'\x07\xe0\x08\x0f\x08\x003\x08\xee\x98'
tRp217
S'149'
p218
I1
ttRp219
sVhttp://www.makingdifferent.com/wp-content/uploads/2015/07/Sun-rising-good-morning.jpg
p220
g3
(g4
g5
(g6
(S'\x07\xe0\x01\x13\x08\x138\x02-\xe8'
tRp221
S'218'
p222
I2
ttRp223
sVhttp://photozup.com/wp-content/uploads/2015/08/Good-Morning-Images-For-Friends.jpg
p224
g3
(g4
g5
(g6
(S'\x07\xdf\x0c\x14\x08\x022\x03\xda\xbf'
tRp225
I-1
I1
ttRp226
sVhttp://www.goodmorningx.com/wp-content/uploads/2015/04/1370233777_cup-of-coffee-happy-good-morning-wallpaper1.jpg
p227
g3
(g4
g5
(g6
(S'\x07\xe0\x08\x0f\x08\x003\x08\xeep'
tRp228
S'164'
p229
I1
ttRp230
sVhttp://www.wishgoodmorning.com/wp-content/uploads/2016/06/Good-Morning-Sister.jpg
p231
g3
(g4
g5
(g6
(S'\x07\xe0\t\x1c\t!\x14\x00\xf5g'
tRp232
S'597'
p233
I1
ttRp234
sVhttps://s-media-cache-ak0.pinimg.com/originals/2f/29/63/2f296336d57759f60ebf466eeafe2371.jpg
p235
g3
(g4
g5
(g6
(S'\x07\xe0\x02\x12\t\x02#\x06p\x03'
tRp236
S'307'
p237
I1
ttRp238
sVhttp://www.saraharonson.com/blog/wp-content/uploads/2015/11/good-morning-beautiful-people.png
p239
g3
(g4
g5
(g6
(S'\x07\xdf\x0c\x1e\x08\x03:\x04\x99\x11'
tRp240
I-1
I1
ttRp241
sVhttp://media1.santabanta.com/full1/Miscellaneous/Good%20Morning/good-morning-50a.jpg
p242
g3
(g4
g5
(g6
(S'\x07\xe0\x01\x1b\x08\x1a\x06\x07\xbf\xfe'
tRp243
S'238'
p244
I1
ttRp245
sVhttp://www.lovethispic.com/uploaded_images/198081-Good-Morning-Let-s-Get-The-Day-Started.jpg
p246
g3
(g4
g5
(g6
(S'\x07\xe0\n\x1c\x17\t\x15\x04*\x01'
tRp247
S'86'
p248
I1
ttRp249
sVhttp://www.whatsappstatus2.com/wp-content/uploads/2015/09/good-morning.jpg
p250
g3
(g4
g5
(g6
(S'\x07\xdf\x0c\x12\x08\x01\x1d\x08\xdf)'
tRp251
S'117'
p252
I1
ttRp253
sVhttp://www.imgion.com/images/02/Sending-morning-wishes-to-make-a-nice-day.jpg
p254
g3
(g4
g5
(g6
(S'\x07\xe0\x01\x05\x08\x050\x06/q'
tRp255
S'10'
p256
I1
ttRp257
sVhttp://imagesleloimages.com/wp-content/uploads/2015/12/good-morning-hd-image.jpg
p258
g3
(g4
g5
(g6
(S'\x07\xe0\x08\x1c\x08\x01\x14\n\xa2\xa4'
tRp259
S'530'
p260
I1
ttRp261
sVhttp://www.searchyourchoice.com/wp-content/uploads/2016/03/Good-Morning-Have-a-Nice-Day-with-Lord-Ganesha.jpg
p262
g3
(g4
g5
(g6
(S'\x07\xe0\x07\x15\t$#\x03\x8d\xf5'
tRp263
S'377'
p264
I1
ttRp265
sVhttp://pic.1fotonin.com/data/wallpapers/115/WDF_1581198.jpg
p266
g3
(g4
g5
(g6
(S'\x07\xe0\x05\x08\x08\x00\x0b\x05\xe9A'
tRp267
I-1
I1
ttRp268
sVhttp://www.goodlightscraps.com/content/good-morning/good-morning-16.gif
p269
g3
(g4
g5
(g6
(S'\x07\xe0\x02\x04\x0837\x0e\xd4O'
tRp270
S'16'
p271
I1
ttRp272
sVhttp://www.ecards4ever.com/uploads/GoodMorning_Lg31.jpg
p273
g3
(g4
g5
(g6
(S'\x07\xe0\x02\x06\x085\x17\t\xfe\xf9'
tRp274
S'252'
p275
I1
ttRp276
sVhttp://www.whatsapp99.com/wp-content/uploads/2014/08/Have-a-yummy-good-morning.jpg
p277
g3
(g4
g5
(g6
(S'\x07\xe0\x01\x0b\x08\x08\n\tUi'
tRp278
S'165'
p279
I1
ttRp280
sVhttp://www.searchyourchoice.com/wp-content/uploads/2016/01/073.jpg
p281
g3
(g4
g5
(g6
(S'\x07\xe0\x03\x0e\x08\x00.\x07\xe1\x80'
tRp282
I-1
I1
ttRp283
sVhttp://4.bp.blogspot.com/-_ssFgbk7S3w/VhMtsn0gaWI/AAAAAAAACQA/ovgYU9gP9Jw/s1600/Good%2BMorning%2BSon.jpg
p284
g3
(g4
g5
(g6
(S'\x07\xe0\x07\x15\t$#\x03\x8eN'
tRp285
S'446'
p286
I1
ttRp287
sVhttp://www.zemwallpapers.com/wp-content/uploads/2015/07/Good-Morning-Wallpaper-8.jpg
p288
g3
(g4
g5
(g6
(S'\x07\xe0\x02\x1a\t;\x1b\x05\xef\xa7'
tRp289
S'263'
p290
I1
ttRp291
sVhttps://f4.bcbits.com/img/0006107714_10.jpg
p292
g3
(g4
g5
(g6
(S'\x07\xe0\x06\x17\t7\x08\x068\xf1'
tRp293
S'442'
p294
I1
ttRp295
sVhttps://4.bp.blogspot.com/-TCw_PAB5WsM/VuOVJKvkVTI/AAAAAAAAHFE/-5Ubx3S2Xw8fpXPwydKJ6Ykd_1c2UYuRQ/s1600/Best%2BGood%2Bmorning%2BGreetings%2BHindi%2Bshayari.JPG
p296
g3
(g4
g5
(g6
(S'\x07\xe0\t\x16\t 6\x04\x97\xbc'
tRp297
S'618'
p298
I1
ttRp299
sVhttp://freepicsimg.com/wp-content/uploads/2015/12/Goodmorning-Goodmorning-Wallpapers-5.jpg
p300
g3
(g4
g5
(g6
(S'\x07\xe0\x01\x05\x08\x050\x06/\xaa'
tRp301
I-1
I1
ttRp302
sVhttp://e2ua.com/data/wallpapers/115/WDF_1581280.jpg
p303
g3
(g4
g5
(g6
(S'\x07\xe0\x05\x15\x08\x01\x1e\x05\xdei'
tRp304
I-1
I1
ttRp305
sVhttp://www.imgion.com/images/02/Wonderful-white-green-flowers-for-morning-greetings.jpg
p306
g3
(g4
g5
(g6
(S'\x07\xe0\x01\x1b\x08\x1a\x06\x07\xc0\xcb'
tRp307
S'202'
p308
I1
ttRp309
sVhttp://freepicsimg.com/wp-content/uploads/2015/12/Goodmorning-Dear-3.jpg
p310
g3
(g4
g5
(g6
(S'\x07\xdf\x0c\x1e\x08\x03:\x04\x99R'
tRp311
I-1
I1
ttRp312
sVhttp://science-all.com/images/wallpapers/good-morning-pic/good-morning-pic-17.jpg
p313
g3
(g4
g5
(g6
(S'\x07\xe0\t\x0c\t $\x02\xf3\x07'
tRp314
S'611'
p315
I1
ttRp316
sVhttp://www.lovethispic.com/uploaded_images/232143-Good-Morning-Today-Is-A-New-Day-Full-Of-Endless-Possibilities.jpg
p317
g3
(g4
g5
(g6
(S'\x07\xe0\n\x07\x08\x02"\x0e\xaa\x0f'
tRp318
S'271'
p319
I1
ttRp320
sVhttp://www.freshmorningquotes.com/wp-content/uploads/2015/10/sending-you-some-morning-love.jpg
p321
g3
(g4
g5
(g6
(S'\x07\xe0\n\x07\x08\x02"\x0e\xaa*'
tRp322
I-1
I1
ttRp323
sVhttp://www.allgraphics123.com/wp-content/uploads/2015/06/Have-A-Nice-Day.jpg
p324
g3
(g4
g5
(g6
(S'\x07\xdf\x0c\x18\x08\x03\t\x04b\xf6'
tRp325
S'168'
p326
I1
ttRp327
sVhttp://www.commentsyard.com/wp-content/uploads/2016/03/Good-Morning-It-Has-A-Silent-Message-cy108.jpg
p328
g3
(g4
g5
(g6
(S'\x07\xe0\x05\x1b\t.\x00\x02\xdf\xb1'
tRp329
S'416'
p330
I1
ttRp331
sVhttp://www.goodmorningquote.com/wp-content/uploads/2014/06/motivational-good-morning-quotes-when-you-start-each-day-with-a-grateful-heart.jpg?a8abaa
p332
g3
(g4
g5
(g6
(S'\x07\xdf\x0b\x08\x08\x01*\x0ch\x8a'
tRp333
I-1
I1
ttRp334
sVhttps://s-media-cache-ak0.pinimg.com/originals/0c/07/e9/0c07e9d155458e0e687870cdad001869.png
p335
g3
(g4
g5
(g6
(S'\x07\xe0\x02\x0e\x08:7\r\x9e_'
tRp336
S'283'
p337
I1
ttRp338
sVhttp://www.wallpapersandbackground.com/images/good-morning-100-new--wallpapers-and-backgrounds.jpg
p339
g3
(g4
g5
(g6
(S'\x07\xe0\t\x1c\t!\x14\x00\xf6\x08'
tRp340
S'589'
p341
I1
ttRp342
sVhttps://s-media-cache-ak0.pinimg.com/736x/8d/5e/b2/8d5eb247ba6c319e840b8b26f000b4c5.jpg
p343
g3
(g4
g5
(g6
(S'\x07\xe0\x07\x1b\t6/\x0c\x8e\xf0'
tRp344
S'354'
p345
I1
ttRp346
sVhttp://www.mofasalkhabar.com/wp-content/uploads/2015/12/good-morning-25216-1920x1200.jpg
p347
g3
(g4
g5
(g6
(S'\x07\xdf\x0c\x1c\x08\x03+\x02\xb2\xe2'
tRp348
I-1
I1
ttRp349
sVhttps://i.ytimg.com/vi/TFVjU-dsIM8/maxresdefault.jpg
p350
g3
(g4
g5
(g6
(S'\x07\xe0\t\x1c\t!\x14\x00\xf7\xc5'
tRp351
S'216'
p352
I2
ttRp353
sVhttp://cache.lovethispic.com/uploaded_images/230014-Good-Morning-Spread-The-Love.jpg
p354
g3
(g4
g5
(g6
(S'\x07\xe0\x02\x06\x085\x17\t\xfe~'
tRp355
S'249'
p356
I1
ttRp357
sVhttp://www.lovethispic.com/uploaded_images/231755-Cute-Good-Morning-Happy-Saturday-Cats.jpg
p358
g3
(g4
g5
(g6
(S'\x07\xe0\x02\x04\x0837\x0e\xd4\xb6'
tRp359
S'265'
p360
I1
ttRp361
sVhttp://www.wallpapersandbackground.com/images/good-morning-enjoy-tea--wallpapers-and-backgrounds.jpg
p362
g3
(g4
g5
(g6
(S'\x07\xe0\x08\x17\t9\x17\x02\xfa\xff'
tRp363
S'525'
p364
I1
ttRp365
sVhttps://wishaf-graphics.s3.amazonaws.com/goodmorning/4271-good-morning-quotes.jpg
p366
g3
(g4
g5
(g6
(S'\x07\xe0\x02\x06\x085\x17\t\xfe\x88'
tRp367
S'67'
p368
I1
ttRp369
sVhttp://science-all.com/images/wallpapers/morning-images/morning-images-10.jpg
p370
g3
(g4
g5
(g6
(S'\x07\xe0\x05\x19\t!\x06\t;\x18'
tRp371
S'492'
p372
I1
ttRp373
sVhttp://www.goodmorning.quotesms.com/images/good-morning-inspirational-quotes.jpg
p374
g3
(g4
g5
(g6
(S'\x07\xe0\x05\x19\t!\x06\t;M'
tRp375
S'481'
p376
I1
ttRp377
sVhttp://phoozer.net/wp-content/uploads/2015/03/free-good-morning-images-for-whatsapp.jpg
p378
g3
(g4
g5
(g6
(S'\x07\xe0\x05\x15\x08\x01\x1e\x05\xde\xb8'
tRp379
S'406'
p380
I1
ttRp381
sVhttp://www.goodmorningx.com/wp-content/uploads/2015/07/good-morning-pictures-for-friends.jpg
p382
g3
(g4
g5
(g6
(S'\x07\xdf\x0b\x1b\x08\x00\t\x03\xb6d'
tRp383
S'71'
p384
I1
ttRp385
sVhttp://www.10ism.com/wp-content/uploads/2015/12/Good-Morning-My-Lovely-Friends.jpg
p386
g3
(g4
g5
(g6
(S'\x07\xe0\n\x04\t7;\x0e\x99\xde'
tRp387
NI1
ttRp388
sVhttp://clipartix.com/wp-content/uploads/2016/05/Good-morning-smiley-face-clipart.jpeg
p389
g3
(g4
g5
(g6
(S'\x07\xe0\t\x0c\t $\x02\xf3\x86'
tRp390
S'592'
p391
I1
ttRp392
sVhttp://i.kinja-img.com/gawker-media/image/upload/kwasznuydboq7k875eti.jpg
p393
g3
(g4
g5
(g6
(S'\x07\xe0\x03\x02\t/\x07\x05~\xe7'
tRp394
S'17'
p395
I2
ttRp396
sVhttp://www.superhdfx.com/wp-content/uploads/2016/05/Good-Morning-Friend-Wallpaper.jpg
p397
g3
(g4
g5
(g6
(S'\x07\xe0\x08\x05\x08\x025\x01\x1fl'
tRp398
S'542'
p399
I1
ttRp400
sVhttp://media1.santabanta.com/full1/Miscellaneous/Good%20Morning/good-morning-41a.jpg
p401
g3
(g4
g5
(g6
(S'\x07\xe0\t\x16\t 6\x04\x99H'
tRp402
S'34'
p403
I1
ttRp404
sVhttp://science-all.com/images/wallpapers/good-morning-hd-image/good-morning-hd-image-11.jpg
p405
g3
(g4
g5
(g6
(S"\x07\xe0\x08\x19\t:'\x01\x15v"
tRp406
S'594'
p407
I1
ttRp408
sVhttp://www.commentsyard.com/wp-content/uploads/2015/04/Good-Morning-Friends.jpg
p409
g3
(g4
g5
(g6
(S'\x07\xe0\x05\x10\t\x05\x19\tU\x9d'
tRp410
S'398'
p411
I1
ttRp412
sVhttp://quotesideas.com/wp-content/uploads/2015/05/Good-morning-sweetheart-quote.jpg
p413
g3
(g4
g5
(g6
(S'\x07\xe0\x07\x0f\t#\x16\x08\x08\xcc'
tRp414
I-1
I1
ttRp415
sVhttp://www.goodmorningx.com/wp-content/uploads/2015/09/lovely-good-morning.jpg
p416
g3
(g4
g5
(g6
(S'\x07\xe0\t\x16\t 6\x04\x978'
tRp417
S'95'
p418
I1
ttRp419
sVhttp://3.bp.blogspot.com/-Gn-Ck284S9M/VWYFJJKJ9NI/AAAAAAAAA0s/5KFKBKeECRI/s400/Good-Morning-272.jpg
p420
g3
(g4
g5
(g6
(S"\x07\xe0\x02\x0c\x086'\r\xfdp"
tRp421
S'63'
p422
I1
ttRp423
sVhttp://funnyfamilywallpaper.com/wp-content/uploads/2015/08/wallpaper-good-morning-wallpapers-big-size.jpg
p424
g3
(g4
g5
(g6
(S'\x07\xdf\x0b\x0c\x08\x018\x0e\xbc\xa6'
tRp425
S'66'
p426
I1
ttRp427
sVhttp://urbanimagemagazine.com/wp-content/uploads/2015/07/good-morning79.jpg
p428
g3
(g4
g5
(g6
(S'\x07\xdf\x0b\x10\x08\x03\x1a\x07\x85\xf4'
tRp429
S'54'
p430
I1
ttRp431
sVhttp://www.lovethispic.com/uploaded_images/168662-Good-Morning-My-Lovely-Friends.jpg
p432
g3
(g4
g5
(g6
(S'\x07\xe0\x05\x1b\t.\x00\x02\xde\xde'
tRp433
S'183'
p434
I1
ttRp435
sVhttp://www.goodmorningx.com/wp-content/uploads/2015/09/good-morning-picture.jpg
p436
g3
(g4
g5
(g6
(S'\x07\xe0\x08\x17\t9\x17\x02\xfa{'
tRp437
S'524'
p438
I1
ttRp439
sVhttp://media1.santabanta.com/full1/Miscellaneous/Good%20Morning/good-morning-56a.jpg
p440
g3
(g4
g5
(g6
(S'\x07\xe0\n\x04\t7;\x0e\x99\x19'
tRp441
S'572'
p442
I1
ttRp443
sVhttp://www.wishafriend.com/goodmorning/uploads/9599-good-morning-greetings.jpg
p444
g3
(g4
g5
(g6
(S'\x07\xe0\n\x07\x08\x02"\x0e\xa8\xfa'
tRp445
S'637'
p446
I1
ttRp447
sVhttp://mylovestatus.com/wp-content/uploads/2015/09/good-morning-status.jpg
p448
g3
(g4
g5
(g6
(S'\x07\xdf\x0b\x14\x08\x03&\x06\xecF'
tRp449
S'81'
p450
I1
ttRp451
sVhttp://e2ua.com/data/wallpapers/60/WDF_1057959.jpg
p452
g3
(g4
g5
(g6
(S'\x07\xe0\x04\x18\x08\x00\x0f\rD\xb4'
tRp453
I-1
I1
ttRp454
sVhttp://zellox.com/wp-content/uploads/2016/02/good-morning-images-for-whatsapp.jpg
p455
g3
(g4
g5
(g6
(S'\x07\xe0\x04\x18\x08\x00\x0f\rC\xb7'
tRp456
S'466'
p457
I1
ttRp458
sVhttp://i1.wp.com/www.alltechguide.net/wp-content/uploads/2015/04/good-morning-images-for-whatsapp.jpg?resize=500%2C680
p459
g3
(g4
g5
(g6
(S'\x07\xe0\x05\x1b\t.\x00\x02\xdf\x1b'
tRp460
S'413'
p461
I1
ttRp462
sVhttp://www.hippoquotes.com/img/good-morning-funny-quotes-in-hindi/Good-Morning-quotes-hindi.jpg
p463
g3
(g4
g5
(g6
(S'\x07\xe0\x04\x03\x08\x02 \x01\xfd\xc6'
tRp464
I-1
I1
ttRp465
sVhttps://i.ytimg.com/vi/ITBhZ7yGztw/hqdefault.jpg
p466
g3
(g4
g5
(g6
(S'\x07\xe0\x05\x1b\t.\x00\x02\xe0{'
tRp467
I-1
I1
ttRp468
sVhttp://greetings-day.com/wp-content/uploads/2015/07/good-morning_9.jpg
p469
g3
(g4
g5
(g6
(S'\x07\xe0\x04\x03\x08\x02 \x01\xfd\t'
tRp470
I-1
I1
ttRp471
sVhttp://www.mrwallpaper.com/wallpapers/good-morning-assassins-failed.jpg
p472
g3
(g4
g5
(g6
(S'\x07\xdf\x0c\x18\x08\x03\t\x04b\xaf'
tRp473
S'156'
p474
I1
ttRp475
sVhttp://www.punjabigraphics.com/images/126/Good-Morning-Coffee-Cup-And-Heart-Wallpaper-Image.jpg
p476
g3
(g4
g5
(g6
(S'\x07\xe0\t\x12\t *\x0b6-'
tRp477
S'449'
p478
I1
ttRp479
sVhttp://www.goodmorningx.com/wp-content/uploads/2015/04/64b7e0bbae20e1030111a6319b4d77e5.jpg
p480
g3
(g4
g5
(g6
(S'\x07\xe0\x07\x0f\t#\x16\x08\t\x0b'
tRp481
S'487'
p482
I1
ttRp483
sVhttp://www.technewsonline.in/wp-content/uploads/2016/05/love-good-morning-image-1024x726.jpg
p484
g3
(g4
g5
(g6
(S'\x07\xe0\n\x1c\x17\t\x15\x04)\xdf'
tRp485
I-1
I1
ttRp486
sVhttp://www.hdwallpapersbee.com/wp-content/uploads/2014/05/good-morning.jpg
p487
g3
(g4
g5
(g6
(S'\x07\xe0\x01\x0b\x08\x08\n\tU\xdd'
tRp488
I-1
I1
ttRp489
sVhttp://www.imghans.com/wp-content/uploads/2015/05/Lovely-Good-Morning.jpg
p490
g3
(g4
g5
(g6
(S'\x07\xe0\x04\x03\x08\x02 \x01\xfd:'
tRp491
S'286'
p492
I1
ttRp493
sVhttp://kurld.com/images/wallpapers/good-morning-image/good-morning-image-15.jpg
p494
g3
(g4
g5
(g6
(S'\x07\xe0\n\x07\x08\x02"\x0e\xaa\xb1'
tRp495
S'648'
p496
I1
ttRp497
sVhttps://wishaf-graphics.s3.amazonaws.com/goodmorning/8341-good-morning-poems-for-her.jpg
p498
g3
(g4
g5
(g6
(S'\x07\xe0\x02\x06\x085\x17\t\xfd\xaa'
tRp499
S'262'
p500
I1
ttRp501
sVhttp://quotesstack.com/wp-content/uploads/2014/03/Good-Morning-Sweet-Wishes-Photos-53.jpg
p502
g3
(g4
g5
(g6
(S'\x07\xe0\x04\x03\x08\x02 \x01\xfdQ'
tRp503
S'360'
p504
I1
ttRp505
sVhttp://www.lovethispic.com/uploaded_images/77365-Have-A-Good-Morning.gif
p506
g3
(g4
g5
(g6
(S'\x07\xe0\x02\x06\x085\x17\t\xfe\x92'
tRp507
S'47'
p508
I1
ttRp509
sVhttp://goodmorningquotes.in/wp-content/uploads/2015/02/Best-Wishes-for-Good-Morning.jpg
p510
g3
(g4
g5
(g6
(S'\x07\xdf\n\x1f\x08\x01\x1e\x0b\r\xbc'
tRp511
I-1
I1
ttRp512
sVhttp://wallmanage.com/wp-content/uploads/2015/10/good-morning-hd-picture.jpg
p513
g3
(g4
g5
(g6
(S'\x07\xe0\x01\x17\x08\x14\x07\x02M~'
tRp514
I-1
I1
ttRp515
sVhttp://www.lovethispic.com/uploaded_images/245549-Good-Morning-Coffee-For-You.jpg
p516
g3
(g4
g5
(g6
(S'\x07\xe0\t\x0c\t $\x02\xf3L'
tRp517
S'500'
p518
I1
ttRp519
sVhttp://www.bestworldwallpapershd.com/wp-content/uploads/2015/10/good-morning-wallpapers-with-coffee-7.jpg
p520
g3
(g4
g5
(g6
(S'\x07\xe0\x01\x17\x08\x14\x07\x02M\x8a'
tRp521
I-1
I1
ttRp522
sVhttp://www.pixelstalk.net/wp-content/uploads/2016/05/Cute-Good-Morning-Wallpapers.jpg
p523
g3
(g4
g5
(g6
(S'\x07\xe0\n\x07\x08\x02"\x0e\xaa!'
tRp524
I-1
I1
ttRp525
sVhttp://wallpapercave.com/wp/raKIB5A.jpg
p526
g3
(g4
g5
(g6
(S'\x07\xdf\x0c\x18\x08\x03\t\x04c\x06'
tRp527
S'115'
p528
I1
ttRp529
sVhttp://www.goodmorningquote.com/wp-content/uploads/2014/06/good-morning-quotes-the-minute-you-think-of.jpg?1283de
p530
g3
(g4
g5
(g6
(S'\x07\xe0\x01\x05\x08\x050\x06/g'
tRp531
I-1
I1
ttRp532
sVhttp://www.commentsyard.com/wp-content/uploads/2015/06/Nice-Good-Morning-Friends.jpg
p533
g3
(g4
g5
(g6
(S'\x07\xdf\x0c\x18\x08\x03\t\x04b\xb4'
tRp534
S'154'
p535
I1
ttRp536
sVhttp://www.cnmuqi.com/data/out/60/good-morning-wallpaper-7705108.jpg
p537
g3
(g4
g5
(g6
(S'\x07\xe0\x08\x1c\x08\x01\x14\n\xa2\xf5'
tRp538
I-1
I1
ttRp539
sVhttp://www.imgion.com/images/02/Good-morning-a-cup-of-coffee.jpg
p540
g3
(g4
g5
(g6
(S'\x07\xe0\x03\x02\t/\x07\x05~\xc1'
tRp541
S'373'
p542
I1
ttRp543
sVhttp://media1.santabanta.com/full1/Miscellaneous/Good%20Morning/good-morning-46a.jpg
p544
g3
(g4
g5
(g6
(S'\x07\xdf\x0b\x14\x08\x03&\x06\xec\xe4'
tRp545
S'59'
p546
I1
ttRp547
sVhttp://www.mofasalkhabar.com/wp-content/uploads/2015/12/good-morning-21o22.jpg
p548
g3
(g4
g5
(g6
(S"\x07\xdf\x0c\x18\x08\x03\t\x04c'"
tRp549
I-1
I1
ttRp550
sVhttp://kurld.com/images/wallpapers/good-morning-wallpaper/good-morning-wallpaper-16.jpg
p551
g3
(g4
g5
(g6
(S'\x07\xe0\t\x16\t 6\x04\x97\xe0'
tRp552
S'627'
p553
I1
ttRp554
sVhttp://www.lovethispic.com/uploaded_images/166323-Good-Morning-Coffe-And-Chocolate.jpg
p555
g3
(g4
g5
(g6
(S'\x07\xe0\x07\x0f\t#\x16\x08\tq'
tRp556
S'278'
p557
I1
ttRp558
sVhttps://image.freepik.com/free-vector/good-morning-label-vector_23-2147497621.jpg
p559
g3
(g4
g5
(g6
(S'\x07\xe0\n\x07\x08\x02"\x0e\xaa\xa5'
tRp560
S'638'
p561
I1
ttRp562
sVhttp://pic.1fotonin.com/data/wallpapers/60/WDF_1058063.jpg
p563
g3
(g4
g5
(g6
(S'\x07\xe0\x05\x08\x08\x00\x0b\x05\xe9\xb0'
tRp564
S'393'
p565
I1
ttRp566
sVhttp://science-all.com/images/good-morning-clipart/good-morning-clipart-14.jpg
p567
g3
(g4
g5
(g6
(S'\x07\xe0\x04\x11\t95\x06\x8f\x87'
tRp568
S'383'
p569
I1
ttRp570
sVhttp://www.technewsonline.in/wp-content/uploads/2016/05/good-morning-whatsapp-image-1024x913.jpg
p571
g3
(g4
g5
(g6
(S'\x07\xe0\t\x1c\t!\x14\x00\xf8\x19'
tRp572
I-1
I1
ttRp573
sVhttp://lemerg.com/data/wallpapers/20/918138.jpg
p574
g3
(g4
g5
(g6
(S'\x07\xe0\x02\x12\t\x02#\x06p\x7f'
tRp575
I-1
I1
ttRp576
sVhttp://www.whatsappstatus100.com/wp-content/uploads/2015/11/nice-good-morning-quotes-with-picture.jpg
p577
g3
(g4
g5
(g6
(S'\x07\xdf\x0c\x18\x08\x03\t\x04cH'
tRp578
I-1
I1
ttRp579
sVhttp://www.desicomments.com/dc3/08/295004/295004.jpg
p580
g3
(g4
g5
(g6
(S'\x07\xe0\x03\x07\x08\x00 \x07oH'
tRp581
S'181'
p582
I1
ttRp583
sVhttp://www.desicomments.com/dc3/09/342069/342069.jpg
p584
g3
(g4
g5
(g6
(S'\x07\xe0\x05\x15\x08\x01\x1e\x05\xde\xd6'
tRp585
S'408'
p586
I1
ttRp587
sVhttp://desktopwallpapershd.in/wp-content/uploads/2016/04/Coffee-Cup-Good-Morning.jpg
p588
g3
(g4
g5
(g6
(S'\x07\xe0\x08\x17\t9\x17\x02\xfb:'
tRp589
S'514'
p590
I1
ttRp591
sVhttp://www.goodmorningquote.com/wp-content/uploads/2014/06/good-morning-inspirational-quotes-life-is-like-a-mirror.jpg?93df17
p592
g3
(g4
g5
(g6
(S'\x07\xdf\x0b\x1b\x08\x00\t\x03\xb6\x82'
tRp593
I-1
I1
ttRp594
sVhttp://www.goodmorningquote.com/wp-content/uploads/2014/06/motivational-good-morning-quotes-when-you-start-each-day-with-a-grateful-heart.jpg?2d7d09
p595
g3
(g4
g5
(g6
(S'\x07\xdf\x0b\x17\x08\x03+\x08\xcd\xd6'
tRp596
I-1
I1
ttRp597
sVhttp://fundilse.sanyamjain.in/wp-content/uploads/2014/02/Good-Morning-wishes-images.jpg
p598
g3
(g4
g5
(g6
(S'\x07\xe0\x06\x1d\t1)\x07:\xfc'
tRp599
S'567'
p600
I1
ttRp601
sVhttps://s-media-cache-ak0.pinimg.com/736x/2f/29/63/2f296336d57759f60ebf466eeafe2371.jpg
p602
g3
(g4
g5
(g6
(S"\x07\xe0\x08\x19\t:'\x01\x14\x9c"
tRp603
S'104'
p604
I1
ttRp605
sVhttp://www.letuspublish.com/wp-content/uploads/2014/10/Good-Morning-Have-a-Nice-Day-with-Coffee-Hd-Wallpaper.jpg
p606
g3
(g4
g5
(g6
(S'\x07\xe0\x01\x13\x08\x138\x02-\xd5'
tRp607
I-1
I1
ttRp608
sVhttps://s-media-cache-ak0.pinimg.com/originals/1d/4a/88/1d4a882afa72c5f405a7bdee2a1f6cfe.png
p609
g3
(g4
g5
(g6
(S'\x07\xe0\x02\x0e\x08:7\r\x9e\x86'
tRp610
S'314'
p611
I1
ttRp612
sVhttp://getlatestwallpapers.com/wp-content/uploads/2013/09/Good-Morning-Free-wallpaper1.jpg
p613
g3
(g4
g5
(g6
(S'\x07\xdf\x0c\x14\x08\x022\x03\xdbp'
tRp614
S'151'
p615
I1
ttRp616
sVhttp://www.allbesttricks.com/wp-content/uploads/2016/01/good-morning-image-4.jpg
p617
g3
(g4
g5
(g6
(S'\x07\xe0\x03\x04\t3;\x03\xfe\xbf'
tRp618
I-1
I1
ttRp619
sVhttp://7-themes.com/data_images/out/46/6926556-good-morning-love-wallpaper.jpg
p620
g3
(g4
g5
(g6
(S'\x07\xe0\x08\x01\x08\x02"\t&\xb3'
tRp621
I-1
I1
ttRp622
sVhttp://phoozer.com/wp-content/uploads/2015/03/free-good-morning-images-for-whatsapp.jpg
p623
g3
(g4
g5
(g6
(S'\x07\xe0\x02\x06\x085\x17\t\xfd8'
tRp624
I-1
I1
ttRp625
sVhttp://i.123g.us/c/gen_morning/card/319585.gif
p626
g3
(g4
g5
(g6
(S'\x07\xe0\n\x07\x08\x02"\x0e\xa9_'
tRp627
S'659'
p628
I1
ttRp629
sVhttp://media1.santabanta.com/full1/Miscellaneous/Good%20Morning/good-morning-17a.jpg
p630
g3
(g4
g5
(g6
(S'\x07\xe0\t\x1c\t!\x14\x00\xf5\xbb'
tRp631
S'33'
p632
I1
ttRp633
sVhttp://www.goodmorningx.com/wp-content/uploads/2015/04/good_morning_hd_wallpaper1.jpg
p634
g3
(g4
g5
(g6
(S'\x07\xe0\x01\x1b\x08\x1a\x06\x07\xc01'
tRp635
S'229'
p636
I1
ttRp637
sVhttp://girliegirlarmy.com/wp-content/uploads/2016/04/How-To-Have-A-Good-Morning-Every-Day.jpg
p638
g3
(g4
g5
(g6
(S'\x07\xe0\x08\x17\t9\x17\x02\xfax'
tRp639
S'539'
p640
I1
ttRp641
sVhttp://www.lovethispic.com/uploaded_images/232452-Good-Morning-Have-A-Beautiful-Blessed-Day.jpg
p642
g3
(g4
g5
(g6
(S'\x07\xe0\x05\x1b\t.\x00\x02\xdfC'
tRp643
S'336'
p644
I1
ttRp645
sVhttp://www.conversationsforabetterworld.com/wp-content/uploads/2015/08/img_1431691826_894.jpg
p646
g3
(g4
g5
(g6
(S'\x07\xe0\x01\x1b\x08\x1a\x06\x07\xc1\xa3'
tRp647
I-1
I1
ttRp648
sVhttp://www.hdwallpapers-3d.com/wp-content/uploads/2014/06/good-morning-pictures-hd-wallpaper-15.jpg
p649
g3
(g4
g5
(g6
(S'\x07\xdf\x0c\x10\x08\x00\x1f\x01\xbfa'
tRp650
S'107'
p651
I1
ttRp652
sVhttp://www.goodmorningx.com/wp-content/uploads/2015/09/Fresh-Morning-Images.jpg
p653
g3
(g4
g5
(g6
(S'\x07\xe0\x03\x07\x08\x00 \x07o:'
tRp654
S'327'
p655
I1
ttRp656
sVhttp://phoozer.com/wp-content/uploads/2015/03/free-good-morning-pictures-for-whatsapp.jpg
p657
g3
(g4
g5
(g6
(S'\x07\xe0\x02\x06\x085\x17\t\xfdf'
tRp658
S'251'
p659
I1
ttRp660
sVhttp://www.freshmorningquotes.com/wp-content/uploads/2015/11/good-morning-image.jpg
p661
g3
(g4
g5
(g6
(S'\x07\xe0\x05\x1b\t.\x00\x02\xdf-'
tRp662
I-1
I1
ttRp663
sVhttp://www.scrapsyard.com/wp-content/uploads/2015/05/Good-Morning-Have-Nice-Day.jpg
p664
g3
(g4
g5
(g6
(S'\x07\xe0\x05\x08\x08\x00\x0b\x05\xe9U'
tRp665
S'389'
p666
I1
ttRp667
sVhttp://www.desicomments.com/dc3/09/340029/340029.png
p668
g3
(g4
g5
(g6
(S'\x07\xe0\x05\x19\t!\x06\t:\xac'
tRp669
S'411'
p670
I1
ttRp671
sVhttp://www.searchyourchoice.com/wp-content/uploads/2016/03/Good-Morning.png
p672
g3
(g4
g5
(g6
(S'\x07\xe0\t\x12\t *\x0b6\x81'
tRp673
I-1
I1
ttRp674
sVhttp://www.ahdwallpaperstab.com/wp-content/uploads/2014/12/good_morning_coffee_cup.jpg
p675
g3
(g4
g5
(g6
(S'\x07\xe0\x01\x05\x08\x050\x06/\xf3'
tRp676
S'192'
p677
I1
ttRp678
sVhttp://www.lovethispic.com/uploaded_images/217299-Good-Morning-Thursday-Love.jpg
p679
g3
(g4
g5
(g6
(S'\x07\xe0\x05\x10\t\x05\x19\tU6'
tRp680
S'403'
p681
I1
ttRp682
sVhttp://www.letuspublish.com/wp-content/uploads/2014/10/1024x640xGood-Morning-HD-Photo-free-1024x640.jpg.pagespeed.ic.HnjMLQjOj3.jpg
p683
g3
(g4
g5
(g6
(S'\x07\xe0\x04\r\t9\n\nM\xdd'
tRp684
S'274'
p685
I1
ttRp686
sVhttp://2.bp.blogspot.com/-L5Dq7SOb3MM/VcYtr5MKGpI/AAAAAAAAA0E/v19LRVVflew/s1600/Every%2BSunrise%2Bgives%2Bme%2Ba%2Bnew%2Bday%2Bto%2Blove.png
p687
g3
(g4
g5
(g6
(S'\x07\xe0\x03\x17\t35\x0e\xd9\xcd'
tRp688
S'371'
p689
I1
ttRp690
sVhttps://i.ytimg.com/vi/GfoRTNKeGdQ/maxresdefault.jpg
p691
g3
(g4
g5
(g6
(S'\x07\xe0\x06\x1d\t1)\x07;\xa2'
tRp692
S'234'
p693
I1
ttRp694
sVhttp://allwishes.in/wp-content/uploads/2014/02/beautiful-good-morning-photos.jpg
p695
g3
(g4
g5
(g6
(S'\x07\xe0\t\x1c\t!\x14\x00\xf7/'
tRp696
S'205'
p697
I1
ttRp698
sVhttp://images.freeimages.com/images/premium/previews/1911/19116834-rooster-good-morning.jpg
p699
g3
(g4
g5
(g6
(S'\x07\xe0\t\x07\x08\x05\x15\x04d\xe1'
tRp700
S'486'
p701
I1
ttRp702
sVhttp://lovechq.com/wp-content/uploads/2015/06/good-morning-love-quotes-for-girlfriend.jpg
p703
g3
(g4
g5
(g6
(S'\x07\xe0\x03\x07\x08\x00 \x07o\xb2'
tRp704
I-1
I1
ttRp705
sVhttp://www.walldu.com/wp-content/uploads/2015/01/Best-Good-Morning-Wallpaper-in-HD.jpg
p706
g3
(g4
g5
(g6
(S'\x07\xdf\x0c\x12\x08\x01\x1d\x08\xde\xf4'
tRp707
S'116'
p708
I1
ttRp709
sVhttp://www.goodmorningx.com/wp-content/uploads/2015/09/Good-morning-Pics.jpg
p710
g3
(g4
g5
(g6
(S'\x07\xe0\t\x0c\t $\x02\xf3 '
tRp711
S'293'
p712
I1
ttRp713
sVhttp://www.goodmorningquote.com/wp-content/uploads/2014/06/motivational-good-morning-quotes-when-you-start-each-day-with-a-grateful-heart.jpg?3d1c9c
p714
g3
(g4
g5
(g6
(S'\x07\xdf\n\x1f\x08\x01\x1e\x0b\x0e\x0b'
tRp715
I-1
I1
ttRp716
sVhttp://www.imgion.com/images/02/Smiling-rose-for-you-in-morning.jpg
p717
g3
(g4
g5
(g6
(S'\x07\xe0\x04\x11\t95\x06\x8fg'
tRp718
S'199'
p719
I1
ttRp720
sVhttp://www.mofasalkhabar.com/wp-content/uploads/2015/12/Good-Morning-Wallpapers-With-Love-5.jpg
p721
g3
(g4
g5
(g6
(S'\x07\xe0\x01\x1b\x08\x1a\x06\x07\xc1v'
tRp722
I-1
I1
ttRp723
sVhttp://www.lovethispic.com/uploaded_images/246859-Oh-Hello-Good-Morning-Friends.jpg
p724
g3
(g4
g5
(g6
(S'\x07\xe0\x06\x17\t7\x08\x069\x88'
tRp725
S'477'
p726
I1
ttRp727
sVhttp://science-all.com/images/wallpapers/good-morning-hd-image/good-morning-hd-image-16.jpg
p728
g3
(g4
g5
(g6
(S'\x07\xe0\x08\x0f\x08\x003\x08\xef3'
tRp729
I-1
I1
ttRp730
sVhttp://alldayquotes.com/wp-content/uploads/2016/06/Good-Morning-Wishes-Images-For-Husband.jpg
p731
g3
(g4
g5
(g6
(S'\x07\xe0\x08\x0f\x08\x003\x08\xee\xa6'
tRp732
S'566'
p733
I1
ttRp734
sVhttps://s-media-cache-ak0.pinimg.com/originals/5a/e6/57/5ae65783c6d75c2a779d1f7eb8d96272.jpg
p735
g3
(g4
g5
(g6
(S'\x07\xdf\x0b\x1b\x08\x00\t\x03\xb5\xa7'
tRp736
S'35'
p737
I1
ttRp738
sVhttp://6iee.com/data/uploads/20/717307.jpg
p739
g3
(g4
g5
(g6
(S'\x07\xe0\x08\x01\x08\x02"\t\'K'
tRp740
I-1
I1
ttRp741
sVhttp://2.bp.blogspot.com/-5dNl43hyRmo/VlWZwtrbKwI/AAAAAAAACqA/s1pMglS16eI/s1600/good-morning-love-wallpaper.jpg
p742
g3
(g4
g5
(g6
(S'\x07\xe0\n\x07\x08\x02"\x0e\xaa\x9b'
tRp743
S'328'
p744
I1
ttRp745
sVhttp://e2ua.com/data/wallpapers/62/WDF_1080428.png
p746
g3
(g4
g5
(g6
(S'\x07\xe0\x05\x19\t!\x06\t;d'
tRp747
I-1
I1
ttRp748
sVhttps://wishaf-graphics.s3.amazonaws.com/goodmorning/8303-good-morning-messages-for-girlfriend.jpg
p749
g3
(g4
g5
(g6
(S'\x07\xe0\x02\x04\x0837\x0e\xd4\xc6'
tRp750
S'370'
p751
I1
ttRp752
sVhttps://s-media-cache-ak0.pinimg.com/564x/dd/5f/bd/dd5fbdce21ad3d2e54e373fcf35a1b45.jpg
p753
g3
(g4
g5
(g6
(S'\x07\xe0\n\x07\x08\x02"\x0e\xa9\x7f'
tRp754
S'641'
p755
I1
ttRp756
sVhttp://media1.santabanta.com/full1/Miscellaneous/Good%20Morning/good-morning-57a.jpg
p757
g3
(g4
g5
(g6
(S'\x07\xe0\t\x1c\t!\x14\x00\xf8!'
tRp758
S'605'
p759
I1
ttRp760
sVhttp://www.wallpaperswidefree.com/images/good-morning-coffee-beans-cup-wide-hd-wallpapers.jpg
p761
g3
(g4
g5
(g6
(S'\x07\xe0\n\x07\x08\x02"\x0e\xaa\xe3'
tRp762
S'649'
p763
I1
ttRp764
sVhttp://www.freelargeimages.com/wp-content/uploads/2015/11/Good_Morning_02.jpg
p765
g3
(g4
g5
(g6
(S'\x07\xe0\x04\x11\t95\x06\x8f\x9c'
tRp766
S'402'
p767
I2
ttRp768
sVhttps://wishaf-graphics.s3.amazonaws.com/goodmorning/8308-good-morning-messages-for-girlfriend.jpg
p769
g3
(g4
g5
(g6
(S'\x07\xe0\x02\x06\x085\x17\t\xff#'
tRp770
S'267'
p771
I1
ttRp772
sVhttp://www.thefreshquotes.com/wp-content/uploads/2015/07/I-Thank-God-For-Giving-Me-Eyes-To-See-The-Beauty-Of-The-Sunrise-Nose-To-Smell-The-Fragrance-Good-Morning.jpg
p773
g3
(g4
g5
(g6
(S'\x07\xe0\n\x07\x08\x02"\x0e\xab\x0e'
tRp774
S'538'
p775
I1
ttRp776
sVhttp://hdwallpaperssfree.com/wp-content/uploads/2013/05/good-morning-high-quality-hd-wallpaper.png
p777
g3
(g4
g5
(g6
(S'\x07\xe0\x01\x13\x08\x138\x02.\xa5'
tRp778
S'208'
p779
I1
ttRp780
sVhttp://www.goodmorning.quotesms.com/images/good-morning-my-friend.jpg
p781
g3
(g4
g5
(g6
(S'\x07\xe0\x05\x19\t!\x06\t;\x90'
tRp782
S'534'
p783
I1
ttRp784
sVhttp://www.messagescollection.com/wp-content/uploads/2015/02/good-morning-wallpaper.jpg
p785
g3
(g4
g5
(g6
(S'\x07\xe0\x08\x1c\x08\x01\x14\n\xa3Q'
tRp786
S'198'
p787
I1
ttRp788
sVhttp://hdwallpapersrocks.com/wp-content/uploads/2013/09/good-morning-have-a-nice-day-wallpapers.jpg
p789
g3
(g4
g5
(g6
(S'\x07\xe0\x08\x17\t9\x17\x02\xfa\xac'
tRp790
S'547'
p791
I1
ttRp792
sVhttp://hdwallpapersrocks.com/wp-content/uploads/2013/09/Good-morning-heart-draw-in-coffee-cup.jpg
p793
g3
(g4
g5
(g6
(S'\x07\xe0\x06\x17\t7\x08\x069\x13'
tRp794
S'461'
p795
I1
ttRp796
sVhttp://quotesideas.com/wp-content/uploads/2015/03/71997ab71ecf88b57208d38755511de8.jpg
p797
g3
(g4
g5
(g6
(S'\x07\xe0\x08\x1c\x08\x01\x14\n\xa3a'
tRp798
I-1
I1
ttRp799
sVhttp://www.goodmorningquote.com/wp-content/uploads/2014/06/motivational-good-morning-quotes-when-you-start-each-day-with-a-grateful-heart.jpg
p800
g3
(g4
g5
(g6
(S'\x07\xe0\x01\t\x08\x08\x01\x0bO\xa8'
tRp801
I-1
I1
ttRp802
sVhttp://cache.lovethispic.com/uploaded_images/231743-Good-Morning-God-Bless-Have-A-Lovely-Day.jpg
p803
g3
(g4
g5
(g6
(S'\x07\xe0\x02\x1a\t;\x1b\x05\xef\n'
tRp804
S'298'
p805
I1
ttRp806
sVhttp://www.relatably.com/q/img/funny-good-morning-love-quotes-for-him/Download-Goodmorning-Wallpapers-Saying-For-Your-Man2.jpg
p807
g3
(g4
g5
(g6
(S'\x07\xe0\x02\x0e\x08:7\r\x9d\xd0'
tRp808
I-1
I1
ttRp809
sVhttp://www.imgion.com/images/02/Sweet-pup-buddies-good-morning-ecard.gif
p810
g3
(g4
g5
(g6
(S'\x07\xe0\x05\x1b\t.\x00\x02\xdf\xe3'
tRp811
S'414'
p812
I1
ttRp813
sVhttp://www.lovethispic.com/uploaded_images/180917-Good-Morning-Sunday.jpg
p814
g3
(g4
g5
(g6
(S'\x07\xe0\t\x16\t 6\x04\x97\x1f'
tRp815
S'617'
p816
I1
ttRp817
sVhttp://imagesgoodmorning.com/wp-content/uploads/2016/03/Inspirational-Good-Morning-Quotes-Tumblr-1.jpg
p818
g3
(g4
g5
(g6
(S'\x07\xe0\x06\x1d\t1)\x07:\xc5'
tRp819
S'483'
p820
I1
ttRp821
sVhttp://www.goodmorningquote.com/wp-content/uploads/2014/06/motivational-good-morning-quotes-when-you-start-each-day-with-a-grateful-heart.jpg?93df17
p822
g3
(g4
g5
(g6
(S'\x07\xdf\x0b\x1b\x08\x00\t\x03\xb5\xcc'
tRp823
I-1
I1
ttRp824
sVhttp://graphicsheat.com/wp-content/uploads/2015/07/Wish-To-All-Good-Morning.jpg
p825
g3
(g4
g5
(g6
(S"\x07\xe0\x01\x0b\x08\x08\n\tU'"
tRp826
I-1
I1
ttRp827
sVhttp://www.imgion.com/images/02/Morning-wishes-with-healthy-meall.jpg
p828
g3
(g4
g5
(g6
(S'\x07\xe0\x04\x18\x08\x00\x0f\rD\xc2'
tRp829
S'124'
p830
I1
ttRp831
sVhttp://e2ua.com/data/wallpapers/115/WDF_1581198.jpg
p832
g3
(g4
g5
(g6
(S'\x07\xe0\x05\x10\t\x05\x19\tT\xd6'
tRp833
I-1
I1
ttRp834
sVhttp://www.goodmorning.quotesms.com/images/good-morning-my-love.jpg
p835
g3
(g4
g5
(g6
(S'\x07\xe0\n\x04\t7;\x0e\x99N'
tRp836
NI1
ttRp837
sVhttp://freewallpaperspictures.com/wp-content/uploads/2016/05/good-morning-images-for-whatsapp.jpg
p838
g3
(g4
g5
(g6
(S'\x07\xe0\x05\x19\t!\x06\t:r'
tRp839
S'456'
p840
I1
ttRp841
sVhttp://quotesideas.com/wp-content/uploads/2015/08/good-morning-love-wallpaper-for-him-3.jpg
p842
g3
(g4
g5
(g6
(S'\x07\xe0\x04\x11\t95\x06\x8f\x1c'
tRp843
I-1
I1
ttRp844
sVhttp://www.messages.oriza.net/good-morning-111115-1.jpg
p845
g3
(g4
g5
(g6
(S'\x07\xe0\x04\x03\x08\x02 \x01\xfd\x85'
tRp846
S'292'
p847
I1
ttRp848
sVhttp://imagesgoodmorning.com/wp-content/uploads/2015/12/Sweet-Good-Morning-Messages-for-Him-Tagalog-1.jpg
p849
g3
(g4
g5
(g6
(S'\x07\xe0\x01\x13\x08\x138\x02.,'
tRp850
S'217'
p851
I1
ttRp852
sVhttp://www.conversationsforabetterworld.com/wp-content/uploads/2015/06/good_morning_hd_wallpaper.jpg
p853
g3
(g4
g5
(g6
(S'\x07\xdf\x0c\x14\x08\x022\x03\xda\xe0'
tRp854
I-1
I1
ttRp855
sVhttp://fabimagepic.com/download.php?file=wp-content/gallery/good-morning/good-morning-with-love.jpg
p856
g3
(g4
g5
(g6
(S'\x07\xe0\x03\x0e\x08\x00.\x07\xe1{'
tRp857
S'409'
p858
I1
ttRp859
sVhttp://hdwallpaperstoke.com/wp-content/uploads/2015/05/Good-Morning-whatsapp-photos.jpg
p860
g3
(g4
g5
(g6
(S'\x07\xe0\x03\x17\t0\x08\x06bs'
tRp861
S'318'
p862
I1
ttRp863
sVhttp://media1.santabanta.com/full1/Miscellaneous/Good%20Morning/good-morning-52a.jpg
p864
g3
(g4
g5
(g6
(S'\x07\xe0\x04\r\t9\n\nM\x85'
tRp865
S'381'
p866
I1
ttRp867
sVhttp://theartmad.com/wp-content/uploads/2015/04/Good-Morning-Wallpapers-1.jpg
p868
g3
(g4
g5
(g6
(S'\x07\xe0\x02\x06\x085\x17\t\xfc\xa0'
tRp869
I-1
I1
ttRp870
sVhttp://www.desicomments.com/dc3/08/277729/277729.gif
p871
g3
(g4
g5
(g6
(S'\x07\xdf\x0c\x1e\x08\x03:\x04\x996'
tRp872
S'186'
p873
I1
ttRp874
sVhttp://hdwallpapersrocks.com/wp-content/uploads/2013/09/Good-morning-love-full-HD-wide-wallpaper.jpg
p875
g3
(g4
g5
(g6
(S'\x07\xe0\x08\x0f\x08\x003\x08\xee\xe2'
tRp876
S'529'
p877
I1
ttRp878
sVhttp://media1.santabanta.com/full1/Miscellaneous/Good%20Morning/good-morning-34a.jpg
p879
g3
(g4
g5
(g6
(S'\x07\xe0\x04\x18\x08\x00\x0f\rD@'
tRp880
S'46'
p881
I1
ttRp882
sVhttp://www.topely.com/wp-content/uploads/2015/07/Top-10-Free-Download-Good-Morning-Wallpapers-3.jpg
p883
g3
(g4
g5
(g6
(S'\x07\xe0\x04\x11\t95\x06\x8f='
tRp884
I-1
I1
ttRp885
sVhttp://www.lovethispic.com/uploaded_images/222992-Start-Each-Day-Happy-Good-Morning.jpg
p886
g3
(g4
g5
(g6
(S'\x07\xe0\x03\x17\t35\x0e\xd9D'
tRp887
S'422'
p888
I1
ttRp889
sVhttp://www.moso3a.net/thakafia/betterphoto/1001-good+morning+photos.jpg
p890
g3
(g4
g5
(g6
(S'\x07\xe0\x02\x04\x0837\x0e\xd4\x8c'
tRp891
S'83'
p892
I1
ttRp893
sVhttp://www.allgraphics123.com/wp-content/uploads/2015/06/Good-Morning-With-Coffee-And-Cupcakes.jpg
p894
g3
(g4
g5
(g6
(S'\x07\xdf\x0c\x10\x08\x00\x1f\x01\xbf\x91'
tRp895
S'123'
p896
I1
ttRp897
sVhttp://phoozer.com/wp-content/uploads/2015/08/good-morning-images-with-beautiful-flowers.jpg
p898
g3
(g4
g5
(g6
(S'\x07\xe0\x02\x0e\x08:7\r\x9eK'
tRp899
S'280'
p900
I1
ttRp901
sVhttp://www.imgion.com/images/02/I-do-love-you-good-morning.jpg
p902
g3
(g4
g5
(g6
(S'\x07\xe0\x01\x05\x08\x050\x06/\xe4'
tRp903
S'51'
p904
I1
ttRp905
sVhttp://www.lovethispic.com/uploaded_images/241573-Wednesday-Blessings-Good-Morning.jpg
p906
g3
(g4
g5
(g6
(S'\x07\xe0\x04\x03\x08\x02 \x01\xfd\x96'
tRp907
S'352'
p908
I1
ttRp909
sVhttp://www.freenewimages.com/wp-content/uploads/2015/12/good-morning-images.jpg
p910
g3
(g4
g5
(g6
(S'\x07\xe0\x01\x1b\x08\x1a\x06\x07\xc1]'
tRp911
S'212'
p912
I1
ttRp913
sVhttp://2.bp.blogspot.com/-urKiXQBjYbQ/VhKY9lvpDvI/AAAAAAAACV4/h2gkdRaNaNM/s1600/Good-Morning-With-Tea-And-Coffee.jpg
p914
g3
(g4
g5
(g6
(S'\x07\xe0\n\x07\x08\x02"\x0e\xa9\xbe'
tRp915
S'548'
p916
I2
ttRp917
sVhttp://www.freshmorningquotes.com/wp-content/uploads/2015/09/Good-Morning-Have-A-Good-Day-Images-HD-Wallpaper-6.jpg
p918
g3
(g4
g5
(g6
(S'\x07\xe0\n\x04\t7;\x0e\x99r'
tRp919
I-1
I1
ttRp920
sVhttp://1.bp.blogspot.com/-MoQRpvYtPJ8/VfY6_w_m1hI/AAAAAAAAH9A/vAhE8xc8N3I/s1600/Good%2Bmorning%2Bimages%2Bshayari%2B%25283%2529.jpg
p921
g3
(g4
g5
(g6
(S'\x07\xe0\x06\x1d\t1)\x07;<'
tRp922
S'355'
p923
I1
ttRp924
sVhttp://greetings-day.com/wp-content/uploads/2015/08/good-morning-flowers.jpg
p925
g3
(g4
g5
(g6
(S'\x07\xe0\t\x1c\t!\x14\x00\xf5\xa6'
tRp926
I-1
I1
ttRp927
sVhttps://www.whoa.in/20150417-Whoa/Good-Morning-Have-a-Nice-Day-with-Lord-Ganesha-HD-Wallpaper.jpg
p928
g3
(g4
g5
(g6
(S'\x07\xe0\x03\x17\t35\x0e\xda\x08'
tRp929
I-1
I1
ttRp930
sVhttp://139.59.25.161/wp-content/uploads/2015/09/good-morning-hd-wallpaper-high-definition-ras.jpg
p931
g3
(g4
g5
(g6
(S'\x07\xe0\n\x07\x08\x02"\x0e\xaa\xbb'
tRp932
S'657'
p933
I1
ttRp934
sVhttp://www.goodmorningquote.com/wp-content/uploads/2014/06/good-morning-inspirational-quotes-life-is-like-a-mirror.jpg?2d7d09
p935
g3
(g4
g5
(g6
(S'\x07\xdf\x0b\x14\x08\x03&\x06\xed\x04'
tRp936
I-1
I1
ttRp937
sVhttp://4.bp.blogspot.com/-IGHk-3Kpl4M/VkO0RSUBjQI/AAAAAAAAD3g/fMrmfOvbrRI/s1600/166706-Good-Morning-Coffee-For-You.jpg
p938
g3
(g4
g5
(g6
(S'\x07\xe0\x05\x1b\t.\x00\x02\xe0u'
tRp939
S'437'
p940
I1
ttRp941
sVhttp://www.thefreshquotes.com/wp-content/uploads/2015/07/Wakeup-Wink-Those-Teeny-Weeny-Eyes.-Stretch-Those-Inzy-Winzy-Bones-Wear-That-Jolly-Winning-Smile-Tell-Yourself-Today-Is-A-Beautiful-Day...Good-Morning.jpg
p942
g3
(g4
g5
(g6
(S'\x07\xe0\t\x1c\t!\x14\x00\xf89'
tRp943
S'599'
p944
I1
ttRp945
sVhttps://2.bp.blogspot.com/-QIEj7MY93rw/Vyd6tSoyqNI/AAAAAAAAXaA/S3Z48A4ftw4UbpzJs4UXXhXNgpEaynhdQCLcB/s1600/Good%2BMorning%2BImages%2BWith%2BFlowers1.jpg
p946
g3
(g4
g5
(g6
(S'\x07\xe0\t\x16\t 6\x04\x99i'
tRp947
S'471'
p948
I1
ttRp949
sVhttp://media.glamsham.com/download/wallpaper/quotes-and-movies/Good%20Morning/Good-Morning-Quotes-32-12x9.jpg
p950
g3
(g4
g5
(g6
(S'\x07\xe0\x01\x1b\x08\x1a\x06\x07\xc2#'
tRp951
S'230'
p952
I1
ttRp953
sVhttp://www.imgion.com/images/02/Thank-you-lord-for-this-new-morning.jpg
p954
g3
(g4
g5
(g6
(S'\x07\xdf\x0c\x1e\x08\x03:\x04\x99\x8c'
tRp955
S'60'
p956
I1
ttRp957
sVhttp://www.goodmorningx.com/wp-content/uploads/2015/07/good-morning-sms.jpg
p958
g3
(g4
g5
(g6
(S'\x07\xdf\x0c\x18\x08\x03\t\x04b\xab'
tRp959
S'158'
p960
I1
ttRp961
sVhttp://phoozer.org/wp-content/uploads/2015/08/good-morning-images-with-beautiful-flowers.jpg
p962
g3
(g4
g5
(g6
(S'\x07\xe0\x04\x0b\x08\x03\x1d\x0cW-'
tRp963
S'313'
p964
I1
ttRp965
sVhttps://theworldimage.files.wordpress.com/2014/07/good-morning-pics-1024x640.jpg
p966
g3
(g4
g5
(g6
(S'\x07\xe0\x02\x1a\t;\x1b\x05\xf0\x19'
tRp967
S'281'
p968
I1
ttRp969
sVhttp://vignette2.wikia.nocookie.net/onedirection/images/5/52/Good_Morning_America.png/revision/latest?cb=20150902032527
p970
g3
(g4
g5
(g6
(S'\x07\xe0\x02\x0e\x08:7\r\x9d\xc2'
tRp971
S'311'
p972
I1
ttRp973
sVhttp://www.imgnaly.com/wp-content/uploads/2015/04/Good-Morning-Picture...jpg
p974
g3
(g4
g5
(g6
(S'\x07\xe0\x05\x08\x08\x00\x0b\x05\xe9\xe4'
tRp975
S'279'
p976
I1
ttRp977
sVhttp://www.wishgoodmorning.org/wp-content/uploads/2016/03/Good-Morning-With-A-Cup-Of-Tea-mn1-wm1955.jpg
p978
g3
(g4
g5
(g6
(S'\x07\xe0\x05\x10\t\x05\x19\tT`'
tRp979
S'350'
p980
I1
ttRp981
sVhttp://greetings-day.com/wp-content/uploads/2015/07/good-morning-my-friend.jpg
p982
g3
(g4
g5
(g6
(S'\x07\xe0\x03\x17\t35\x0e\xd9-'
tRp983
I-1
I1
ttRp984
sVhttp://messages.365greetings.com/wp-content/uploads/2014/04/funny-good-morning-sms.jpg
p985
g3
(g4
g5
(g6
(S'\x07\xdf\x0c\x1e\x08\x03:\x04\x98\xe4'
tRp986
I-1
I1
ttRp987
sVhttp://www.lovethispic.com/uploaded_images/211539-Good-Morning-Beautiful.jpg
p988
g3
(g4
g5
(g6
(S'\x07\xe0\n\x1c\x17\t\x15\x04*\x07'
tRp989
S'85'
p990
I1
ttRp991
sVhttp://www.spyderonlines.com/images/wallpapers/good-morning-backgrounds/good-morning-backgrounds-14.jpg
p992
g3
(g4
g5
(g6
(S'\x07\xe0\t\x12\t *\x0b6\xa2'
tRp993
S'613'
p994
I1
ttRp995
sVhttp://hdwallpaperssfree.com/download.php?img=http://hdwallpaperssfree.com/wp-content/uploads/2013/05/subh-savar-hd-wallpapers.jpg&id=6755
p996
g3
(g4
g5
(g6
(S'\x07\xe0\x01\t\x08\x08\x01\x0bO\xd8'
tRp997
S'195'
p998
I1
ttRp999
sVhttp://www.allgraphics123.com/wp-content/uploads/2015/06/Very-Cute-Good-Morning-with-Puppies.gif
p1000
g3
(g4
g5
(g6
(S'\x07\xe0\n\x07\x08\x02"\x0e\xa9$'
tRp1001
S'643'
p1002
I1
ttRp1003
sVhttp://www.goodmorningx.com/wp-content/uploads/2015/09/Gud-morning-pics-collection.jpg
p1004
g3
(g4
g5
(g6
(S'\x07\xe0\x03\x02\t/\x07\x05~\xf5'
tRp1005
S'351'
p1006
I1
ttRp1007
sVhttp://pic.1fotonin.com/data/wallpapers/57/WDF_1034101.jpg
p1008
g3
(g4
g5
(g6
(S'\x07\xe0\x05\x08\x08\x00\x0b\x05\xe9\xc5'
tRp1009
S'399'
p1010
I1
ttRp1011
sVhttp://www.doesntgrowontrees.co.uk/wp-content/uploads/2016/01/Good-morning-wallpapers-with-coffee-3.jpg
p1012
g3
(g4
g5
(g6
(S'\x07\xe0\x05\x1b\t.\x00\x02\xdf5'
tRp1013
S'428'
p1014
I1
ttRp1015
sVhttp://www.lovethispic.com/uploaded_images/157739-Good-Morning-Have-A-Wonderful-Weekend.jpg
p1016
g3
(g4
g5
(g6
(S'\x07\xe0\x02\x06\x085\x17\t\xfdN'
tRp1017
S'14'
p1018
I1
ttRp1019
sVhttp://greetings-day.com/wp-content/uploads/2015/07/Good-morning-fun.jpg
p1020
g3
(g4
g5
(g6
(S'\x07\xe0\x05\x10\t\x05\x19\tU!'
tRp1021
I-1
I1
ttRp1022
sVhttp://goodmorningquotes.in/wp-content/uploads/2015/04/Zedge-good-morning-wallpaper1.jpg
p1023
g3
(g4
g5
(g6
(S'\x07\xdf\x0b\x08\x08\x01*\x0ch.'
tRp1024
I-1
I1
ttRp1025
sVhttp://www.oyegraphics.com/wp-content/uploads/2015/08/Wishing-You-A-Peaceful-Day-.jpg
p1026
g3
(g4
g5
(g6
(S'\x07\xe0\n\x07\x08\x02"\x0e\xa9U'
tRp1027
S'652'
p1028
I1
ttRp1029
sVhttp://hdwallpapersrocks.com/wp-content/uploads/2013/09/Good-morning-funny-wallpaper1.jpg
p1030
g3
(g4
g5
(g6
(S'\x07\xe0\x08\x17\t9\x17\x02\xfaR'
tRp1031
S'510'
p1032
I1
ttRp1033
sVhttp://www.freelargeimages.com/wp-content/uploads/2015/11/Good_Morning_05.jpg
p1034
g3
(g4
g5
(g6
(S'\x07\xe0\t\x1c\t!\x14\x00\xf5\xeb'
tRp1035
S'622'
p1036
I1
ttRp1037
sVhttp://itsmyfun.net/MyFiles/2014/01/Good-Morning-Teddy-Hd-Wallpapers.jpg
p1038
g3
(g4
g5
(g6
(S'\x07\xe0\x01\x13\x08\x138\x02./'
tRp1039
S'220'
p1040
I1
ttRp1041
sVhttp://www.dailypicsupdate.com/wp-content/uploads/2013/01/good-morning-cup-of-coffee.jpg
p1042
g3
(g4
g5
(g6
(S'\x07\xe0\x08\x05\x08\x025\x01\x1e]'
tRp1043
S'553'
p1044
I1
ttRp1045
sVhttp://1.bp.blogspot.com/-7C4j6NAOSHA/UX1ne3eRQgI/AAAAAAAAF1c/OVEN6uvtJNk/s1600/Good+Morning+gods+grace.jpg
p1046
g3
(g4
g5
(g6
(S'\x07\xdf\x0b\x14\x08\x03&\x06\xec\xc7'
tRp1047
S'30'
p1048
I1
ttRp1049
sVhttp://www.lovethispic.com/uploaded_images/122374-Coffee-Is-Ready-Good-Morning-.gif?1
p1050
g3
(g4
g5
(g6
(S'\x07\xe0\x01\x05\x08\x050\x06/\xa0'
tRp1051
I-1
I1
ttRp1052
sVhttp://www.hdwallpapersnew.net/wp-content/uploads/2015/12/good-morning-coffee-cup-full-screen-high-resolution-wallpaper-free-desktop-background-photos.jpg
p1053
g3
(g4
g5
(g6
(S'\x07\xe0\x03\x07\x08\x00 \x07oD'
tRp1054
S'227'
p1055
I1
ttRp1056
sVhttp://whatsappmessages.net/wp-content/uploads/2015/06/Good-Morning-eCards-398.jpg
p1057
g3
(g4
g5
(g6
(S'\x07\xe0\x04\x18\x08\x00\x0f\rD\x18'
tRp1058
I-1
I1
ttRp1059
sVhttp://www.wishespoint.com/wp-content/uploads/2013/02/A-very-special-Good-Morning.jpeg
p1060
g3
(g4
g5
(g6
(S'\x07\xdf\x0c\x1e\x08\x03:\x04\x99\x1e'
tRp1061
I-1
I1
ttRp1062
sVhttp://e2ua.com/data/wallpapers/85/WDF_1295900.jpg
p1063
g3
(g4
g5
(g6
(S'\x07\xe0\x04\x11\t95\x06\x8f\x11'
tRp1064
I-1
I1
ttRp1065
sVhttps://wishaf-graphics.s3.amazonaws.com/goodmorning/8415-motivational-good-morning-messages.jpg
p1066
g3
(g4
g5
(g6
(S'\x07\xe0\x05\x1b\t.\x00\x02\xdfg'
tRp1067
S'247'
p1068
I1
ttRp1069
sVhttp://www.desicomments.com/dc3/10/343840/343840.jpg
p1070
g3
(g4
g5
(g6
(S'\x07\xe0\x05\x1b\t.\x00\x02\xdfv'
tRp1071
S'430'
p1072
I1
ttRp1073
sVhttp://www.goodmorningimagesgreetings.com/wp-content/uploads/2015/09/good-morning-love-hd-wallpaper-high-quality-s74.jpg
p1074
g3
(g4
g5
(g6
(S'\x07\xe0\x08\x0f\x08\x003\x08\xee\xdd'
tRp1075
I-1
I1
ttRp1076
sVhttp://www.thequotepedia.com/images/46/the-minute-you-think-giving-up-any-relation-think-of-reason-why-you-held-it-so-long-good-morning-and-have-a-nice-day.jpg
p1077
g3
(g4
g5
(g6
(S'\x07\xe0\x02\x12\t\x02#\x06p^'
tRp1078
S'317'
p1079
I1
ttRp1080
sVhttp://hdwallpaperssfree.com/wp-content/uploads/2013/05/have-a-nice-day-good-morning-hd-wallpapers.jpg
p1081
g3
(g4
g5
(g6
(S'\x07\xdf\x0c\x18\x08\x03\t\x04b\xf9'
tRp1082
S'172'
p1083
I1
ttRp1084
sVhttp://desipoetry.com/wp-content/uploads/2015/04/1385788108_good_morning_love_wallpapers.jpg
p1085
g3
(g4
g5
(g6
(S'\x07\xe0\x07\x15\t$#\x03\x8ei'
tRp1086
I-1
I1
ttRp1087
sVhttp://www.freenewimages.com/wp-content/uploads/2015/12/good-morning-images-in-gujarati.jpg
p1088
g3
(g4
g5
(g6
(S'\x07\xe0\x02\x06\x085\x17\t\xfdf'
tRp1089
S'233'
p1090
I1
ttRp1091
sVhttp://www.lovethispic.com/uploaded_images/195457-Good-Morning-Friends-And-Family.jpg
p1092
g3
(g4
g5
(g6
(S'\x07\xe0\x02\x06\x085\x17\t\xfe\x14'
tRp1093
S'270'
p1094
I1
ttRp1095
sVhttp://www.goodlightscraps.com/content/good-morning/good-morning-20.gif
p1096
g3
(g4
g5
(g6
(S'\x07\xdf\x0c\x1e\x08\x03:\x04\x99\\'
tRp1097
I-1
I1
ttRp1098
sVhttp://wishesmessages.com/wp-content/uploads/2013/10/Inspirational-good-morning-quote.jpg
p1099
g3
(g4
g5
(g6
(S'\x07\xe0\x03\x07\x08\x00 \x07o\xb7'
tRp1100
S'41'
p1101
I1
ttRp1102
sVhttp://www.goodmorningquote.com/wp-content/uploads/2014/06/goodmorning-quotes-the-best-thing-about-waking-up.jpg?ce4a2f
p1103
g3
(g4
g5
(g6
(S'\x07\xdf\x0c\x18\x08\x03\t\x04c\x16'
tRp1104
I-1
I1
ttRp1105
sVhttp://love.catchsmile.com/wp-content/uploads/2014/05/Good-Morning-281.jpg
p1106
g3
(g4
g5
(g6
(S'\x07\xdf\x0c\x1e\x08\x03:\x04\x99\x89'
tRp1107
S'189'
p1108
I1
ttRp1109
sVhttp://previews.123rf.com/images/dkossar/dkossar1209/dkossar120900003/15107520-Good-morning-Stock-Photo-coffee.jpg
p1110
g3
(g4
g5
(g6
(S'\x07\xe0\x05\x1b\t.\x00\x02\xe0E'
tRp1111
S'65'
p1112
I1
ttRp1113
sVhttp://i.123g.us/c/gen_morning/card/312401.jpg
p1114
g3
(g4
g5
(g6
(S'\x07\xdf\n\x1e\x08\x01\x18\x0c\xc29'
tRp1115
S'6'
I1
ttRp1116
sVhttp://wallino.com/wp-content/uploads/2015/10/good-morning-desktop-wallpaper.jpg
p1117
g3
(g4
g5
(g6
(S'\x07\xdf\x0b\x14\x08\x03&\x06\xecK'
tRp1118
S'79'
p1119
I1
ttRp1120
sVhttp://newshaunt.com/wp-content/uploads/2015/09/Good-Morning-Sweet-Wishes-Photos-541.jpg?b4db58
p1121
g3
(g4
g5
(g6
(S'\x07\xe0\x06\x17\t7\x08\x069\x99'
tRp1122
S'445'
p1123
I1
ttRp1124
sVhttp://www.conversationsforabetterworld.com/wp-content/uploads/2015/06/beautiful-good-morning.jpg
p1125
g3
(g4
g5
(g6
(S'\x07\xe0\x03\x02\t/\x07\x05~\xd0'
tRp1126
I-1
I1
ttRp1127
sVhttp://www.iamalwayswithyou.com/wp-content/uploads/2015/09/good_morning_coffee_cup.jpg
p1128
g3
(g4
g5
(g6
(S'\x07\xe0\x03\x02\t/\x07\x05~\xcd'
tRp1129
I-1
I1
ttRp1130
sVhttp://www.topglitz.com/wp-content/uploads/2016/03/good-morning-images1.jpg
p1131
g3
(g4
g5
(g6
(S'\x07\xe0\t\x0c\t $\x02\xf3`'
tRp1132
S'367'
p1133
I1
ttRp1134
sVhttp://www.wishgoodmorning.org/wp-content/uploads/2016/03/Good-Morning-The-Glow-Of-Good-Health-wm6411.jpg
p1135
g3
(g4
g5
(g6
(S'\x07\xe0\x04\x18\x08\x00\x0f\rD\x87'
tRp1136
S'386'
p1137
I1
ttRp1138
sVhttp://1.bp.blogspot.com/-VnyEHv_haRQ/VlWZzFZU-FI/AAAAAAAACqQ/9pW2CYLYO6E/s1600/img_1431691826_894.jpg
p1139
g3
(g4
g5
(g6
(S'\x07\xe0\x05\x10\t\x05\x19\tU\x88'
tRp1140
S'288'
p1141
I1
ttRp1142
sVhttp://desktopbackgrounds4u.com/wp-content/gallery/good-morning-cute-images/good-morning-sweet-heart-cards-017.jpg
p1143
g3
(g4
g5
(g6
(S'\x07\xe0\x02\x12\t\x02#\x06m\x97'
tRp1144
S'282'
p1145
I1
ttRp1146
sVhttp://www.goodmorningquote.com/wp-content/uploads/2014/06/goodmorning-quotes-the-best-thing-about-waking-up.jpg
p1147
g3
(g4
g5
(g6
(S'\x07\xe0\x03\x07\x08\x00 \x07p\x02'
tRp1148
I-1
I1
ttRp1149
sVhttp://www.toptenpack.com/wp-content/uploads/2015/06/good-morning-wallpapers-with-coffee.jpg
p1150
g3
(g4
g5
(g6
(S'\x07\xe0\x01\x0b\x08\x08\n\tV3'
tRp1151
S'196'
p1152
I1
ttRp1153
sVhttp://www.newhdwallpapers.in/wp-content/uploads/2013/01/Good-Morning-with-Tea-Cup.jpg
p1154
g3
(g4
g5
(g6
(S'\x07\xe0\x08\x17\t9\x17\x02\xfa\xcf'
tRp1155
S'109'
p1156
I1
ttRp1157
sVhttp://www.wishgoodmorning.com/wp-content/uploads/2015/06/My-dear-sistergood-morning.jpg
p1158
g3
(g4
g5
(g6
(S'\x07\xe0\x01\x17\x08\x14\x07\x02M\xe7'
tRp1159
S'244'
p1160
I1
ttRp1161
sVhttp://goodmorningimageswithquotes.com/wp-content/uploads/2015/11/Download-Free-Good-Morning-Wallpapers-to-have-a-coffe-with-you.jpeg
p1162
g3
(g4
g5
(g6
(S'\x07\xdf\x0c\x14\x08\x022\x03\xda\x9c'
tRp1163
S'142'
p1164
I1
ttRp1165
sVhttp://hdwallpapershdfree.com/wp-content/uploads/2015/10/Good-Morning-Images-Download-5.jpg
p1166
g3
(g4
g5
(g6
(S'\x07\xdf\n\x1e\x08\x01\x18\x0c\xc2\x7f'
tRp1167
I-1
I1
ttRp1168
sVhttp://www.imgnaly.com/wp-content/uploads/2015/04/Lovely-Morning.jpg
p1169
g3
(g4
g5
(g6
(S'\x07\xe0\n\x04\t7;\x0e\x99\\'
tRp1170
S'666'
p1171
I1
ttRp1172
sVhttp://www.wiki-how.in/wp-content/uploads/2015/09/funny-good-morning-pic.jpg
p1173
g3
(g4
g5
(g6
(S'\x07\xe0\x07\x1b\t6/\x0c\x8f9'
tRp1174
I-1
I1
ttRp1175
sVhttp://image.shutterstock.com/z/stock-vector-vector-hand-draw-illustration-good-morning-293696297.jpg
p1176
g3
(g4
g5
(g6
(S'\x07\xe0\n\x07\x08\x02"\x0e\xa8s'
tRp1177
S'479'
p1178
I1
ttRp1179
sVhttp://www.wishgoodmorning.com/wp-content/uploads/2015/06/Hello-my-beautiful-good-morning.jpg
p1180
g3
(g4
g5
(g6
(S'\x07\xe0\t\x1c\t!\x14\x00\xf4\xd6'
tRp1181
S'385'
p1182
I1
ttRp1183
sVhttp://hdwallpaperssfree.com/wp-content/uploads/2013/05/good-morning-greeting-wishes-message-hd-wallpapers.jpg
p1184
g3
(g4
g5
(g6
(S'\x07\xe0\x01\x13\x08\x138\x02-\xe5'
tRp1185
S'215'
p1186
I1
ttRp1187
sVhttp://wallpapersshd.com/wp-content/uploads/2015/01/good-morning-have-a-nice-day-.jpg
p1188
g3
(g4
g5
(g6
(S'\x07\xdf\x0c\x14\x08\x022\x03\xdb-'
tRp1189
S'157'
p1190
I1
ttRp1191
sVhttp://www.lovethispic.com/uploaded_images/198719-Good-Morning-Puppies.gif
p1192
g3
(g4
g5
(g6
(S'\x07\xe0\x03\x07\x08\x00 \x07o\x0c'
tRp1193
S'173'
p1194
I1
ttRp1195
sVhttp://www.goodmorningimagesgreetings.com/wp-content/uploads/2015/09/Good-Morning-Coffee-HD-Wallpaper.jpg
p1196
g3
(g4
g5
(g6
(S'\x07\xe0\x08\x0f\x08\x003\x08\xee\xca'
tRp1197
I-1
I1
ttRp1198
sVhttp://www.relatably.com/q/img/good-morning-quotes-for-your-man/Download-Goodmorning-Wallpapers-Saying-For-Your-Man2.jpg
p1199
g3
(g4
g5
(g6
(S'\x07\xe0\x03\x0e\x08\x00.\x07\xe1+'
tRp1200
I-1
I1
ttRp1201
sVhttp://alldayquotes.com/wp-content/uploads/2016/05/Good-Morning-Love-Images-For-Mom.jpg
p1202
g3
(g4
g5
(g6
(S'\x07\xe0\x06\x17\t7\x08\x069z'
tRp1203
S'494'
p1204
I1
ttRp1205
sVhttps://2.bp.blogspot.com/-v44-Jr0aEso/Vu1JS46owKI/AAAAAAAAWsg/XFkqlbewPdsayp6lUCSE7YCiCMyHUFHMg/s1600/funny%2Bgood%2Bmorning%2Blove%2Bquotes%2B%25281%2529.jpg
p1206
g3
(g4
g5
(g6
(S'\x07\xe0\x08\x1c\x08\x01\x14\n\xa2\x8a'
tRp1207
S'465'
p1208
I2
ttRp1209
sVhttp://cache.lovethispic.com/uploaded_images/212206-Good-Morning-Friends-And-Family-Have-A-Good-Day.jpg
p1210
g3
(g4
g5
(g6
(S'\x07\xe0\x01\x05\x08\x050\x06/^'
tRp1211
I-1
I1
ttRp1212
sVhttp://www.relatably.com/q/img/good-morning-quotes-for-your-husband/Download-Goodmorning-Wallpapers-Saying-For-Your-Man2.jpg
p1213
g3
(g4
g5
(g6
(S'\x07\xe0\x05\x10\t\x05\x19\tU|'
tRp1214
I-1
I1
ttRp1215
sVhttp://media1.santabanta.com/full1/Miscellaneous/Good%20Morning/good-morning-12a.jpg
p1216
g3
(g4
g5
(g6
(S'\x07\xe0\t\x12\t *\x0b6\x96'
tRp1217
S'3'
I2
ttRp1218
sVhttp://cache.lovethispic.com/uploaded_images/198081-Good-Morning-Let-s-Get-The-Day-Started.jpg
p1219
g3
(g4
g5
(g6
(S'\x07\xe0\x03\x02\t/\x07\x05~o'
tRp1220
S'338'
p1221
I1
ttRp1222
sVhttp://designoval.com/wp-content/uploads/2015/04/good-morning-motivational-quotes-18.jpg
p1223
g3
(g4
g5
(g6
(S'\x07\xdf\x0c\x18\x08\x03\t\x04c3'
tRp1224
S'121'
p1225
I1
ttRp1226
sVhttp://4.bp.blogspot.com/-_cbPHqe5Vho/Vn9i5e6b3mI/AAAAAAAAPfc/2FvRXDylAHs/s1600/Good%2BMorning%2BInspiring%2BQuotes%2Band%2BWishes%2Bin%2BEnglish%2BLanguage%2B%2B%2B-%2BDEC27%2B-%2BQuotesAdda.jpg
p1227
g3
(g4
g5
(g6
(S'\x07\xe0\x05\x10\t\x05\x19\tU\xaa'
tRp1228
S'357'
p1229
I1
ttRp1230
sVhttps://wishyouthesame.files.wordpress.com/2014/02/good-morning-new-wallpaper.jpg
p1231
g3
(g4
g5
(g6
(S'\x07\xdf\x0c\x18\x08\x03\t\x04c<'
tRp1232
S'74'
p1233
I1
ttRp1234
sVhttps://lh3.ggpht.com/TqlpuTSPHobvu96yOdmfmWsZb4mkbpAlnJZ8RiTBv5kAZmgfzS-Kzk20hs5T-M9H5Q=h900
p1235
g3
(g4
g5
(g6
(S'\x07\xe0\x05\x19\t!\x06\t:\x90'
tRp1236
S'489'
p1237
I1
ttRp1238
sVhttp://www.pixelstalk.net/wp-content/uploads/2016/05/Good-Morning-Picture-Free-Download.jpg
p1239
g3
(g4
g5
(g6
(S'\x07\xe0\x08\x0f\x08\x003\x08\xee\xce'
tRp1240
I-1
I1
ttRp1241
sVhttp://cache.lovethispic.com/uploaded_images/238539-Good-Morning-May-God-Bless-You-Have-A-Lovely-Day.jpg
p1242
g3
(g4
g5
(g6
(S'\x07\xe0\x05\x19\t!\x06\t:\x9e'
tRp1243
S'425'
p1244
I1
ttRp1245
sVhttp://onehdwallpaper.com/wp-content/uploads/2015/07/Good-Morning.png
p1246
g3
(g4
g5
(g6
(S'\x07\xe0\t\x0c\t $\x02\xf2\xea'
tRp1247
S'223'
p1248
I1
ttRp1249
sVhttp://www.goodmorningquote.com/wp-content/uploads/2014/06/goodmorning-quotes-the-best-thing-about-waking-up.jpg?3d1c9c
p1250
g3
(g4
g5
(g6
(S'\x07\xdf\n\x1f\x08\x01\x1e\x0b\r\x94'
tRp1251
I-1
I1
ttRp1252
sVhttp://wallpaperz-hd.com/images/2015/good-morning-wallpaper/good-morning-wallpaper-05.jpg
p1253
g3
(g4
g5
(g6
(S'\x07\xdf\x0c\x14\x08\x022\x03\xdb\x04'
tRp1254
S'163'
p1255
I1
ttRp1256
sVhttp://quotesideas.com/wp-content/uploads/2015/07/Good-morning-wallpaper-with-a-beautiful-quote-and-picture-2015-2016.jpg
p1257
g3
(g4
g5
(g6
(S'\x07\xe0\x02\x12\t\x02#\x06oG'
tRp1258
I-1
I1
ttRp1259
sVhttp://www.imagefully.com/wp-content/uploads/2015/06/New-Style-Good-Morning-Wishes.jpg
p1260
g3
(g4
g5
(g6
(S'\x07\xdf\x0c\x18\x08\x03\t\x04b\xee'
tRp1261
S'119'
p1262
I1
ttRp1263
sVhttp://indiabright.com/wp-content/uploads/2015/12/good-morning-images-11.jpg
p1264
g3
(g4
g5
(g6
(S'\x07\xdf\x0c\x18\x08\x03\t\x04b\xf2'
tRp1265
S'113'
p1266
I1
ttRp1267
sVhttp://www.lovethispic.com/uploaded_images/204079-Good-Morning-Wishes.jpg
p1268
g3
(g4
g5
(g6
(S'\x07\xe0\n\x07\x08\x02"\x0e\xa9\xf2'
tRp1269
S'651'
p1270
I1
ttRp1271
sVhttp://www.lovethispic.com/uploaded_images/165719-Good-Morning-Coffee-Beans.jpg
p1272
g3
(g4
g5
(g6
(S'\x07\xe0\x03\x17\t0\x08\x06b\xb9'
tRp1273
S'289'
p1274
I1
ttRp1275
sVhttp://good-morning.hothungama.com/wp-content/uploads/2014/08/good-morning-wishes-images-1.jpg
p1276
g3
(g4
g5
(g6
(S'\x07\xe0\x05\x10\t\x05\x19\tUC'
tRp1277
S'395'
p1278
I1
ttRp1279
sVhttp://www.lovethispic.com/uploaded_images/194390-Good-Morning-Beautiful.jpg
p1280
g3
(g4
g5
(g6
(S'\x07\xdf\x0c\x1e\x08\x03:\x04\x99Y'
tRp1281
S'182'
p1282
I1
ttRp1283
sVhttp://www.pixelstalk.net/wp-content/uploads/2016/05/Good-Morning-HD-Photo.jpg
p1284
g3
(g4
g5
(g6
(S'\x07\xe0\x08\x17\t9\x17\x02\xfa\xc8'
tRp1285
I-1
I1
ttRp1286
sVhttp://phoozer.org/wp-content/uploads/2015/03/free-good-morning-images-for-whatsapp.jpg
p1287
g3
(g4
g5
(g6
(S'\x07\xe0\x04\r\t9\n\nM\xef'
tRp1288
I-1
I1
ttRp1289
sVhttp://hdwallpaperstab.com/wp-content/uploads/2015/07/wooden-heart-Good-Morning.jpg
p1290
g3
(g4
g5
(g6
(S'\x07\xdf\x0c\x14\x08\x022\x03\xdb3'
tRp1291
S'108'
p1292
I1
ttRp1293
sVhttp://pic.1fotonin.com/data/wallpapers/60/WDF_1058515.jpg
p1294
g3
(g4
g5
(g6
(S'\x07\xe0\x05\x15\x08\x01\x1e\x05\xde\x8d'
tRp1295
S'460'
p1296
I1
ttRp1297
sVhttp://www.topely.com/wp-content/uploads/2015/07/Top-10-Good-Morning-Wallpapers-With-Tea-2.gif
p1298
g3
(g4
g5
(g6
(S'\x07\xe0\x01\x1b\x08\x1a\x06\x07\xc1,'
tRp1299
S'219'
p1300
I1
ttRp1301
sVhttp://www.spyderonlines.com/images/wallpapers/good-morning-pic/good-morning-pic-16.jpg
p1302
g3
(g4
g5
(g6
(S'\x07\xe0\x07\n\x08\x009\x02\x0c\x1c'
tRp1303
S'476'
p1304
I1
ttRp1305
sVhttp://wishesmessages.com/wp-content/uploads/2013/03/Sweet-good-morning-message-for-friends-640x480.jpg
p1306
g3
(g4
g5
(g6
(S'\x07\xe0\x05\x1b\t.\x00\x02\xdfR'
tRp1307
S'56'
p1308
I1
ttRp1309
sVhttp://www.hdwallpaper.nu/wp-content/uploads/2015/04/good-morning-2015-6.jpg
p1310
g3
(g4
g5
(g6
(S'\x07\xe0\x08\x0f\x08\x003\x08\xef\x1f'
tRp1311
S'504'
p1312
I2
ttRp1313
sVhttp://hdwallpapersrocks.com/wp-content/uploads/2013/09/Good-Morning-coffee-cup-with-chocolate-chips.jpg
p1314
g3
(g4
g5
(g6
(S'\x07\xdf\x0c\x14\x08\x022\x03\xdb_'
tRp1315
S'159'
p1316
I1
ttRp1317
sVhttps://wishaf-graphics.s3.amazonaws.com/goodmorning/7414-cute-good-morning-messages.jpg
p1318
g3
(g4
g5
(g6
(S'\x07\xdf\x0c\x18\x08\x03\t\x04cj'
tRp1319
S'5'
I1
ttRp1320
sVhttp://www.wishwithlove.com/wp-content/uploads/2016/06/Good-Morning-Photo-HD-2.jpg
p1321
g3
(g4
g5
(g6
(S'\x07\xe0\x07\x0f\t#\x16\x08\x08\xfc'
tRp1322
S'575'
p1323
I1
ttRp1324
sVhttps://s-media-cache-ak0.pinimg.com/564x/86/09/3a/86093a0e9f4fbba038eecd3bc04471cc.jpg
p1325
g3
(g4
g5
(g6
(S'\x07\xe0\x02\x12\t\x02#\x06o\xfe'
tRp1326
S'276'
p1327
I1
ttRp1328
sVhttp://hdwallpapersrocks.com/wp-content/uploads/2013/09/good-morning-tea-flowers-nice-pictures.jpg
p1329
g3
(g4
g5
(g6
(S'\x07\xdf\x0c\x14\x08\x022\x03\xdb\x10'
tRp1330
S'162'
p1331
I1
ttRp1332
sVhttp://quotesideas.com/wp-content/uploads/2015/08/Love-quote-Good-morning-dear.jpg
p1333
g3
(g4
g5
(g6
(S'\x07\xe0\t\x1c\t!\x14\x00\xf7\xf5'
tRp1334
I-1
I1
ttRp1335
sVhttp://www.lovethispic.com/uploaded_images/209091-Good-Morning-Hump-Day-Camel.gif
p1336
g3
(g4
g5
(g6
(S'\x07\xe0\x03\x07\x08\x00 \x07or'
tRp1337
S'341'
p1338
I1
ttRp1339
sVhttps://static-2.gumroad.com/res/gumroad/5379993923488/asset_previews/95eb739608fea35349c91e9559e9ca3b/retina/GoodMorningSunshine_orange.jpg
p1340
g3
(g4
g5
(g6
(S'\x07\xe0\x04\x03\x08\x02 \x01\xfd\x9f'
tRp1341
S'363'
p1342
I1
ttRp1343
sVhttp://www.ambwallpapers.com/wp-content/uploads/2016/04/Download-Good-Morning-Coffee-Wallpaper.jpg
p1344
g3
(g4
g5
(g6
(S'\x07\xe0\x06\x1d\t1)\x07;\x96'
tRp1345
S'467'
p1346
I1
ttRp1347
sVhttp://www.lovethispic.com/uploaded_images/253093-Good-Morning-Have-A-Great-Day.jpg
p1348
g3
(g4
g5
(g6
(S'\x07\xe0\n\x07\x08\x02"\x0e\xa9\xe9'
tRp1349
S'653'
p1350
I1
ttRp1351
sVhttp://www.toptenpack.com/wp-content/uploads/2015/06/high-quailty-good-morning-wallpapers.jpg
p1352
g3
(g4
g5
(g6
(S"\x07\xe0\x08\x19\t:'\x01\x15Z"
tRp1353
S'401'
p1354
I1
ttRp1355
sVhttps://wishaf-graphics.s3.amazonaws.com/goodmorning/6020-good-morning-poems-for-him.jpg
p1356
g3
(g4
g5
(g6
(S'\x07\xdf\x0c\x1e\x08\x03:\x04\x98\xf0'
tRp1357
S'190'
p1358
I1
ttRp1359
sVhttps://pbs.twimg.com/profile_images/651923549909856256/RE690ojs.png
p1360
g3
(g4
g5
(g6
(S'\x07\xdf\n\x1f\x08\x01\x1e\x0b\r"'
tRp1361
S'21'
p1362
I1
ttRp1363
sVhttp://www.imagefully.com/wp-content/uploads/2015/06/Good-Morning-With-Indian-Nice-Cup-Of-Black-Tea.jpg
p1364
g3
(g4
g5
(g6
(S'\x07\xdf\x0c\x14\x08\x022\x03\xdb\x8f'
tRp1365
S'171'
p1366
I1
ttRp1367
sVhttps://s-media-cache-ak0.pinimg.com/736x/03/7c/76/037c76d152ad92f472fd77445b307a36.jpg
p1368
g3
(g4
g5
(g6
(S'\x07\xe0\x07\x0f\t#\x16\x08\t#'
tRp1369
S'475'
p1370
I1
ttRp1371
sVhttp://www.mystatus360.com/wp-content/uploads/2015/01/164.jpg
p1372
g3
(g4
g5
(g6
(S'\x07\xe0\x02\x06\x085\x17\t\xfe\xe0'
tRp1373
S'269'
p1374
I1
ttRp1375
sVhttp://www.lovethispic.com/uploaded_images/190005-Good-Morning-Wake-Up-And-Give-It-Your-Best-Shot.jpg
p1376
g3
(g4
g5
(g6
(S'\x07\xe0\x05\x19\t!\x06\t:\xf2'
tRp1377
S'38'
p1378
I1
ttRp1379
sVhttps://media1.popsugar-assets.com/files/2015/06/04/764/n/1922398/178362c0_POPSUGAR_03.27.15_ProductVignette_033_edit.xxxlarge_2x.jpg
p1380
g3
(g4
g5
(g6
(S'\x07\xe0\x08\x0f\x08\x003\x08\xefm'
tRp1381
S'493'
p1382
I1
ttRp1383
sVhttp://hdwallpaperssfree.com/wp-content/uploads/2013/05/download-natural-good-morning-free-hd-wallpapers.jpg
p1384
g3
(g4
g5
(g6
(S'\x07\xdf\x0c\x18\x08\x03\t\x04b\xdc'
tRp1385
S'120'
p1386
I1
ttRp1387
sVhttps://messageshub.com/wp-content/uploads/2016/07/Good-Morning-Puppies.gif
p1388
g3
(g4
g5
(g6
(S'\x07\xe0\n\x07\x08\x02"\x0e\xab@'
tRp1389
I-1
I1
ttRp1390
sVhttp://kurld.com/images/wallpapers/good-morning-pictures/good-morning-pictures-14.jpg
p1391
g3
(g4
g5
(g6
(S'\x07\xe0\n\x04\t7;\x0e\x9a\x01'
tRp1392
S'647'
p1393
I1
ttRp1394
sVhttp://www.dgreetings.com/newimages/goodmorning/hot-hello-good-morning-card.jpg
p1395
g3
(g4
g5
(g6
(S'\x07\xe0\x02\x04\x0837\x0e\xd4\xf8'
tRp1396
S'300'
p1397
I1
ttRp1398
sVhttp://media1.santabanta.com/full1/Miscellaneous/Good%20Morning/good-morning-2a.jpg
p1399
g3
(g4
g5
(g6
(S'\x07\xe0\x04\x11\t95\x06\x8f,'
tRp1400
S'23'
p1401
I2
ttRp1402
sVhttps://s3-eu-west-1.amazonaws.com/3tags-prod/article/55153547eced3/55153547f2dd9/original.jpg
p1403
g3
(g4
g5
(g6
(S'\x07\xe0\x05\x19\t!\x06\t:\x1a'
tRp1404
S'444'
p1405
I1
ttRp1406
sVhttp://img.wallpaperfolder.com/f/799614F75D1B/good-morning-messages-quotes-images.jpg
p1407
g3
(g4
g5
(g6
(S'\x07\xe0\x08\x1c\x08\x01\x14\n\xa2l'
tRp1408
S'579'
p1409
I1
ttRp1410
sVhttp://www.imgion.com/images/02/Red-tulips-for-lovely-morning.gif
p1411
g3
(g4
g5
(g6
(S'\x07\xe0\x02\x06\x085\x17\t\xfc\x8d'
tRp1412
S'27'
p1413
I1
ttRp1414
sVhttp://www.wishgoodmorning.org/wp-content/uploads/2016/03/Good-Morning-Happy-New-Year-wg017061.jpg
p1415
g3
(g4
g5
(g6
(S'\x07\xe0\x04\x03\x08\x02 \x01\xfdo'
tRp1416
S'362'
p1417
I1
ttRp1418
sVhttp://www.goodmorning.quotesms.com/images/good-morning-in-different-languages.jpg
p1419
g3
(g4
g5
(g6
(S'\x07\xe0\x05\x19\t!\x06\t;\x82'
tRp1420
S'427'
p1421
I1
ttRp1422
sVhttp://www.imagesbuddy.com/images/198/good-morning-you-have-to-get-up-every-morning-and-tell-yourself-i-can-do-this.jpg
p1423
g3
(g4
g5
(g6
(S'\x07\xe0\x02\x04\x0837\x0e\xd4('
tRp1424
S'303'
p1425
I1
ttRp1426
sVhttp://www.lovethispic.com/uploaded_images/122767-Good-Morning-Friends-And-Family.jpg
p1427
g3
(g4
g5
(g6
(S'\x07\xe0\x02\x1a\t;\x1b\x05\xeff'
tRp1428
S'114'
p1429
I1
ttRp1430
sVhttp://1.bp.blogspot.com/-qGqJrkMnQ1s/VMhkY-zGjmI/AAAAAAAACWA/YVX-Xmh5HDs/s1600/WhatsApp%2BGood%2BMorning%2BImage%2B2015%2Blatest%2Bfree%2B(7).jpg
p1431
g3
(g4
g5
(g6
(S'\x07\xe0\x02\x02\x08\x1a\x1f\x0b\xe0\x9e'
tRp1432
S'128'
p1433
I1
ttRp1434
sVhttps://pbs.twimg.com/profile_images/661157534107983877/wAKTiyA0_400x400.jpg
p1435
g3
(g4
g5
(g6
(S'\x07\xe0\x03\x07\x08\x00 \x07o\x90'
tRp1436
S'250'
p1437
I1
ttRp1438
sVhttp://www.birthdaywishes.expert/wp-content/uploads/2016/01/GoodMorning-4.jpg
p1439
g3
(g4
g5
(g6
(S'\x07\xe0\x05\x15\x08\x01\x1e\x05\xde1'
tRp1440
I-1
I1
ttRp1441
sVhttp://www.imgion.com/images/02/Start-your-morning-with-sweet-pastry.jpg
p1442
g3
(g4
g5
(g6
(S'\x07\xe0\x05\x1b\t.\x00\x02\xe0`'
tRp1443
S'26'
p1444
I1
ttRp1445
sVhttp://e2ua.com/data/wallpapers/143/WDF_1847726.jpg
p1446
g3
(g4
g5
(g6
(S'\x07\xe0\x05\x15\x08\x01\x1e\x05\xdeB'
tRp1447
I-1
I1
ttRp1448
sVhttp://rlv.zcache.com/good_morning_beautiful_inspirational_poster-rd56a7708c73549ffbb6352940ef91f70_i1ghw_8byvr_1024.jpg
p1449
g3
(g4
g5
(g6
(S'\x07\xe0\x02\x02\x08\x1a\x1f\x0b\xe0\xf8'
tRp1450
S'203'
p1451
I1
ttRp1452
sVhttps://i.ytimg.com/vi/IEUlOrBSxPc/maxresdefault.jpg
p1453
g3
(g4
g5
(g6
(S'\x07\xe0\x01\x1b\x08\x1a\x06\x07\xc0^'
tRp1454
S'224'
p1455
I1
ttRp1456
sVhttp://phoozer.org/wp-content/uploads/2015/03/good-morning-pics-for-whatsapp.jpg
p1457
g3
(g4
g5
(g6
(S'\x07\xe0\x03\x04\t3;\x03\xff\x12'
tRp1458
I-1
I1
ttRp1459
sVhttps://s-media-cache-ak0.pinimg.com/736x/07/d5/7c/07d57c845c3d0ea50d51a5fb29340fef.jpg
p1460
g3
(g4
g5
(g6
(S'\x07\xe0\t\x0c\t $\x02\xf2\xe1'
tRp1461
S'297'
p1462
I1
ttRp1463
sVhttp://www.imagefully.com/wp-content/uploads/2015/06/The-Beautiful-Scene-Good-Morning.png
p1464
g3
(g4
g5
(g6
(S'\x07\xe0\t\x1c\t!\x14\x00\xf5\xfe'
tRp1465
S'207'
p1466
I1
ttRp1467
sVhttp://www.wallpapersandbackground.com/images/good-morning-coffee-cup-beans-wallpapers-and-backgrounds.jpg
p1468
g3
(g4
g5
(g6
(S'\x07\xe0\x08\x0f\x08\x003\x08\xee\x93'
tRp1469
S'543'
p1470
I1
ttRp1471
sVhttps://s-media-cache-ak0.pinimg.com/originals/92/48/da/9248daae44fef62d59448129f52e50bf.jpg
p1472
g3
(g4
g5
(g6
(S'\x07\xe0\n\x04\t7;\x0e\x99\x99'
tRp1473
S'629'
p1474
I2
ttRp1475
sVhttp://www.lovethispic.com/uploaded_images/165733-Good-Morning-Tea.jpg
p1476
g3
(g4
g5
(g6
(S'\x07\xe0\x05\x19\t!\x06\t:<'
tRp1477
S'419'
p1478
I1
ttRp1479
sVhttp://phoozer.org/wp-content/uploads/2015/04/good-morning-images-for-whatsapp-free-download.png
p1480
g3
(g4
g5
(g6
(S'\x07\xe0\x03\x0e\x08\x00.\x07\xe1\x8b'
tRp1481
I-1
I1
ttRp1482
sVhttp://www.allbesttricks.com/wp-content/uploads/2016/01/good-morning-image-1.gif
p1483
g3
(g4
g5
(g6
(S'\x07\xe0\x02\x06\x085\x17\t\xfe!'
tRp1484
I-1
I1
ttRp1485
sVhttp://www.imgion.com/images/02/Look-a-new-day-to-enjoy.jpg
p1486
g3
(g4
g5
(g6
(S'\x07\xe0\x07\x1b\t6/\x0c\x8e\xdb'
tRp1487
S'89'
p1488
I1
ttRp1489
sVhttps://s-media-cache-ak0.pinimg.com/originals/dd/5f/bd/dd5fbdce21ad3d2e54e373fcf35a1b45.gif
p1490
g3
(g4
g5
(g6
(S'\x07\xe0\n\x07\x08\x02"\x0e\xaaT'
tRp1491
S'650'
p1492
I1
ttRp1493
sVhttp://www.goodmorningquote.com/wp-content/uploads/2014/06/motivational-good-morning-quotes-when-you-start-each-day-with-a-grateful-heart.jpg?1283de
p1494
g3
(g4
g5
(g6
(S'\x07\xdf\x0c\x1e\x08\x03:\x04\x99V'
tRp1495
I-1
I1
ttRp1496
sVhttp://phoozer.com/wp-content/uploads/2015/08/best-good-morning-quote.jpg
p1497
g3
(g4
g5
(g6
(S'\x07\xdf\x0b\x14\x08\x03&\x06\xec\xb8'
tRp1498
I-1
I1
ttRp1499
sVhttp://www.arenaworlds.com/wp-content/uploads/2016/07/good-morning-coffee-wallpaper.jpg
p1500
g3
(g4
g5
(g6
(S'\x07\xe0\n\x07\x08\x02"\x0e\xa9k'
tRp1501
S'518'
p1502
I1
ttRp1503
sVhttp://www.allbesttricks.com/wp-content/uploads/2016/01/good-morning-image-1.jpg
p1504
g3
(g4
g5
(g6
(S'\x07\xe0\x04\x18\x08\x00\x0f\rDJ'
tRp1505
I-1
I1
ttRp1506
sVhttp://www.lovethispic.com/uploaded_images/232892-Good-Morning-Smiles.jpg
p1507
g3
(g4
g5
(g6
(S'\x07\xe0\x03\x07\x08\x00 \x07oi'
tRp1508
S'253'
p1509
I1
ttRp1510
sVhttp://kurld.com/images/wallpapers/pic-of-good-morning/pic-of-good-morning-8.png
p1511
g3
(g4
g5
(g6
(S'\x07\xe0\n\x07\x08\x02"\x0e\xaaI'
tRp1512
S'640'
p1513
I1
ttRp1514
sVhttp://phoozer.net/wp-content/uploads/2016/02/good-morning-wallpapers-with-love.jpg
p1515
g3
(g4
g5
(g6
(S'\x07\xe0\n\x04\t7;\x0e\x99\xa7'
tRp1516
S'562'
p1517
I1
ttRp1518
sVhttp://hdwllpapers.com/wp-content/uploads/2016/01/Good-Morning-Wishes-Wallpapers-34-4.jpg
p1519
g3
(g4
g5
(g6
(S'\x07\xe0\x01\x0b\x08\x08\n\tU\xcc'
tRp1520
I-1
I1
ttRp1521
sVhttp://thelivepk.com/wp-content/uploads/2015/08/Superb-Good-Morning-Wallpaper.jpg
p1522
g3
(g4
g5
(g6
(S'\x07\xdf\x0b\x08\x08\x01*\x0ch\x87'
tRp1523
S'20'
p1524
I1
ttRp1525
sVhttp://paperpkblog.com/sms/wp-content/uploads/2015/04/Good-Morning-New-Style.jpg
p1526
g3
(g4
g5
(g6
(S'\x07\xe0\x03\x0e\x08\x00.\x07\xe1\xf7'
tRp1527
S'374'
p1528
I1
ttRp1529
sVhttp://www.w3mirchi.com/images/picture/16748-good-morning-wishes.jpg
p1530
g3
(g4
g5
(g6
(S'\x07\xe0\t\x0c\t $\x02\xf3-'
tRp1531
S'496'
p1532
I1
ttRp1533
sVhttp://cache.lovethispic.com/uploaded_images/242391-Happy-Leap-Year-Day-Good-Morning.jpg
p1534
g3
(g4
g5
(g6
(S'\x07\xe0\x04\x03\x08\x02 \x01\xfd\x92'
tRp1535
S'361'
p1536
I1
ttRp1537
sVhttp://previews.123rf.com/images/dkossar/dkossar1209/dkossar120900003/15107520-Good-morning-Stock-Photo.jpg
p1538
g3
(g4
g5
(g6
(S'\x07\xe0\t\x12\t *\x0b6\xf9'
tRp1539
S'468'
p1540
I1
ttRp1541
sVhttps://s-media-cache-ak0.pinimg.com/736x/cc/8b/70/cc8b70097682294943bec451695f7d31.jpg
p1542
g3
(g4
g5
(g6
(S'\x07\xe0\t\x0c\t $\x02\xf3C'
tRp1543
S'200'
p1544
I1
ttRp1545
sVhttp://good-morning.hothungama.com/wp-content/uploads/2014/08/1385788108_good_morning_love_wallpapers.jpg
p1546
g3
(g4
g5
(g6
(S'\x07\xe0\x08\x05\x08\x025\x01\x1fG'
tRp1547
S'482'
p1548
I1
ttRp1549
sVhttp://1.bp.blogspot.com/-CqDGFmp5T_g/VhKY460ODdI/AAAAAAAACVc/AG-KCzBeUmM/s1600/A-Lovely-Good-Morning.jpg
p1550
g3
(g4
g5
(g6
(S'\x07\xe0\t\x0c\t $\x02\xf3k'
tRp1551
S'232'
p1552
I1
ttRp1553
sVhttp://www.goodmorning.quotesms.com/images/cute-good-morning-sayings.jpg
p1554
g3
(g4
g5
(g6
(S'\x07\xe0\n\x07\x08\x02"\x0e\xaa\xd8'
tRp1555
S'417'
p1556
I1
ttRp1557
sVhttp://image.shutterstock.com/z/stock-photo-good-morning-cloud-massage-on-sky-131248247.jpg
p1558
g3
(g4
g5
(g6
(S'\x07\xe0\t\x1c\t!\x14\x00\xf5\xc4'
tRp1559
S'448'
p1560
I1
ttRp1561
sVhttps://s-media-cache-ak0.pinimg.com/564x/32/fa/b9/32fab97f34095bd8ca7218fba287ff93.jpg
p1562
g3
(g4
g5
(g6
(S'\x07\xe0\x03\x04\t3;\x03\xff\x0b'
tRp1563
S'347'
p1564
I1
ttRp1565
sVhttp://www.onsecrethunt.com/wallpaper/wp-content/uploads/2014/01/Good-Morning-2014-Wallpaper.jpg
p1566
g3
(g4
g5
(g6
(S'\x07\xdf\x0c\x18\x08\x03\t\x04c]'
tRp1567
S'122'
p1568
I1
ttRp1569
sVhttps://s-media-cache-ak0.pinimg.com/originals/03/7c/76/037c76d152ad92f472fd77445b307a36.jpg
p1570
g3
(g4
g5
(g6
(S'\x07\xe0\t\x1c\t!\x14\x00\xf8L'
tRp1571
S'635'
p1572
I1
ttRp1573
sVhttp://media1.santabanta.com/full1/Miscellaneous/Good%20Morning/good-morning-0v.jpg
p1574
g3
(g4
g5
(g6
(S'\x07\xe0\x04\x11\t95\x06\x8f\xc2'
tRp1575
S'69'
p1576
I1
ttRp1577
sVhttp://kurld.com/images/wallpapers/good-morning-hd-image/good-morning-hd-image-19.jpg
p1578
g3
(g4
g5
(g6
(S'\x07\xe0\t\x16\t 6\x04\x99\xb0'
tRp1579
S'626'
p1580
I1
ttRp1581
sVhttp://img1.gbpicsonline.com/gb/good-morning/good-morning_009.jpg
p1582
g3
(g4
g5
(g6
(S'\x07\xe0\x01\x05\x08\x050\x06/U'
tRp1583
S'72'
p1584
I1
ttRp1585
sVhttp://media1.santabanta.com/full1/Miscellaneous/Good%20Morning/good-morning-23a.jpg
p1586
g3
(g4
g5
(g6
(S'\x07\xe0\x03\x04\t3;\x03\xfe\x99'
tRp1587
S'13'
p1588
I1
ttRp1589
sVhttp://www.hdwallpaper.nu/wp-content/uploads/2015/04/Good-morning-greetings.jpg
p1590
g3
(g4
g5
(g6
(S'\x07\xe0\x07\x15\t$#\x03\x8eI'
tRp1591
S'88'
p1592
I1
ttRp1593
sVhttp://www.thefreshquotes.com/wp-content/uploads/2015/01/You%E2%80%99ll-be-OK-in-the-morning.jpg
p1594
g3
(g4
g5
(g6
(S'\x07\xe0\x04\x03\x08\x02 \x01\xfc\xec'
tRp1595
S'245'
p1596
I1
ttRp1597
sVhttp://wallpapercave.com/wp/XSN851U.jpg
p1598
g3
(g4
g5
(g6
(S'\x07\xe0\n\x07\x08\x02"\x0e\xa8\xea'
tRp1599
S'134'
p1600
I1
ttRp1601
sVhttp://www.siwallpaper.com/wp-content/uploads/2015/09/good_morning_hd_wallpaper.jpg
p1602
g3
(g4
g5
(g6
(S'\x07\xdf\x0c\x18\x08\x03\t\x04b\x88'
tRp1603
I-1
I1
ttRp1604
sVhttp://topfullhdwallpapers.com/wp-content/uploads/2015/06/Good-morning-green-tea-wallpapers.jpg
p1605
g3
(g4
g5
(g6
(S'\x07\xe0\x01\t\x08\x08\x01\x0bO\xd3'
tRp1606
S'160'
p1607
I1
ttRp1608
sVhttps://s-media-cache-ak0.pinimg.com/736x/43/c3/09/43c309f49b1e3466f8d6b2b01af10ef8.jpg
p1609
g3
(g4
g5
(g6
(S'\x07\xe0\x03\x17\t35\x0e\xd9\xb9'
tRp1610
S'379'
p1611
I1
ttRp1612
sVhttp://phoozer.com/wp-content/uploads/2015/03/good-morning-wallpaper-for-whatsapp.jpg
p1613
g3
(g4
g5
(g6
(S'\x07\xe0\x01\x13\x08\x138\x02-\xf6'
tRp1614
I-1
I1
ttRp1615
sVhttp://good-morning.hothungama.com/wp-content/uploads/2014/08/Good-Morning-images-for-lover.png
p1616
g3
(g4
g5
(g6
(S'\x07\xe0\x03\x0e\x08\x00.\x07\xe18'
tRp1617
S'40'
p1618
I1
ttRp1619
sVhttp://www.imagesbuddy.com/images/198/wish-you-all-friends-good-morning.jpg
p1620
g3
(g4
g5
(g6
(S'\x07\xdf\x0c\x14\x08\x022\x03\xda\xb4'
tRp1621
S'153'
p1622
I1
ttRp1623
sVhttp://newyearfun2016.com/wp-content/uploads/2016/01/Good-morning-wallpapers-with-coffee-3.jpg
p1624
g3
(g4
g5
(g6
(S'\x07\xe0\x01\x1b\x08\x1a\x06\x07\xbf\xa3'
tRp1625
S'240'
p1626
I1
ttRp1627
sVhttp://kurld.com/images/wallpapers/good-morning-picture/good-morning-picture-12.jpg
p1628
g3
(g4
g5
(g6
(S'\x07\xe0\n\x04\t7;\x0e\x99F'
tRp1629
NI1
ttRp1630
sVhttp://4.bp.blogspot.com/-fAwZ9HMT60w/VfUmv10hI5I/AAAAAAAABlY/WsKpMwbzt6M/s1600/Best%2BGood%2BMorning%2BImages%2BWith%2BFlowers%2B8.jpg
p1631
g3
(g4
g5
(g6
(S'\x07\xe0\x03\x17\t35\x0e\xd9_'
tRp1632
S'353'
p1633
I1
ttRp1634
sVhttp://www.10ism.com/wp-content/uploads/2015/12/Good-Morning-Pictures-With-Heart.jpg
p1635
g3
(g4
g5
(g6
(S'\x07\xe0\x02\x04\x0837\x0e\xd4n'
tRp1636
I-1
I1
ttRp1637
sVhttp://3.bp.blogspot.com/--oezMnYgTsw/VNBMX2mQniI/AAAAAAAAHAU/vbFDpZjHgok/s1600/Beautiful%2BGood%2BMOrning%2BEnglish%2BQuotations%2BOnline.jpg
p1638
g3
(g4
g5
(g6
(S'\x07\xe0\x02\x12\t\x02#\x06n\xb0'
tRp1639
S'294'
p1640
I1
ttRp1641
sVhttp://www.allindiayouth.com/wp-content/uploads/2014/09/str-ly.com1406963250975.jpg
p1642
g3
(g4
g5
(g6
(S'\x07\xdf\x0c\x1e\x08\x03:\x04\x99\x1b'
tRp1643
S'188'
p1644
I1
ttRp1645
sVhttps://mittrandacafe.files.wordpress.com/2015/01/goodmorning-love.jpg
p1646
g3
(g4
g5
(g6
(S'\x07\xe0\x02\x12\t\x02#\x06o\xbf'
tRp1647
S'302'
p1648
I1
ttRp1649
sVhttp://www.goodmorningx.com/wp-content/uploads/2015/04/Good-morning-with-fresh-red-apple.jpg
p1650
g3
(g4
g5
(g6
(S'\x07\xe0\x06\x1d\t1)\x07;\x01'
tRp1651
S'125'
p1652
I1
ttRp1653
sVhttp://www.allgraphics123.com/wp-content/uploads/2015/06/SunFlowery-Good-Morning.jpg
p1654
g3
(g4
g5
(g6
(S'\x07\xe0\x03\x02\t/\x07\x05~k'
tRp1655
S'61'
p1656
I1
ttRp1657
sVhttp://www.wallpapers16.com/wp-content/uploads/2016/05/Good-Morning-Rose-Images-HD-8.jpg
p1658
g3
(g4
g5
(g6
(S'\x07\xe0\x06\x1d\t1)\x07;\x8d'
tRp1659
S'455'
p1660
I1
ttRp1661
sVhttp://media.toxicfox.co.uk/media/catalog/product/cache/1/image/9df78eab33525d08d6e5fb8d27136e95/g/o/good-morning-handsome-1.jpg
p1662
g3
(g4
g5
(g6
(S'\x07\xe0\n\x04\t7;\x0e\x99+'
tRp1663
S'645'
p1664
I1
ttRp1665
sVhttp://photozup.com/wp-content/uploads/2015/09/Good-Morning-Images-With-Funny-Sayings.jpg
p1666
g3
(g4
g5
(g6
(S'\x07\xe0\x02\x0e\x08:7\r\x9e\x9b'
tRp1667
I-1
I1
ttRp1668
sVhttp://www.funnfun.in/wp-content/uploads/2014/06/good-morning-rose-600x329.jpg
p1669
g3
(g4
g5
(g6
(S'\x07\xdf\x0c\x1e\x08\x03:\x04\x99:'
tRp1670
I-1
I1
ttRp1671
sVhttp://kurld.com/images/good-morning-clipart/good-morning-clipart-15.jpg
p1672
g3
(g4
g5
(g6
(S'\x07\xe0\t\x1c\t!\x14\x00\xf64'
tRp1673
I-1
I1
ttRp1674
sVhttp://www.whatsapp360.com/wp-content/uploads/2015/01/164.jpg
p1675
g3
(g4
g5
(g6
(S'\x07\xe0\x02\x04\x0837\x0e\xd4J'
tRp1676
S'22'
p1677
I1
ttRp1678
sVhttp://www.lovethispic.com/uploaded_images/138788-Good-Morning-Enjoy-Your-Beautiful-Tuesday.jpg
p1679
g3
(g4
g5
(g6
(S'\x07\xe0\x08\x1c\x08\x01\x14\n\xa2\xbb'
tRp1680
S'290'
p1681
I1
ttRp1682
sVhttp://www.imagefully.com/wp-content/uploads/2015/06/Enjoy-With-Breakfast-Happy-Good-Morning.jpg
p1683
g3
(g4
g5
(g6
(S'\x07\xe0\x08\x17\t9\x17\x02\xfa\xb7'
tRp1684
S'135'
p1685
I1
ttRp1686
sVhttp://www.wishgoodmorning.org/wp-content/uploads/2016/04/Good-Morning-Love-Tea-wg16202.jpg
p1687
g3
(g4
g5
(g6
(S'\x07\xe0\n\x07\x08\x02"\x0e\xa9\xfc'
tRp1688
S'642'
p1689
I1
ttRp1690
sVhttp://www.lovethispic.com/uploaded_images/200066-Good-Morning-Coffee-And-Roses.jpg
p1691
g3
(g4
g5
(g6
(S'\x07\xe0\x03\x17\t35\x0e\xd9\x8b'
tRp1692
S'301'
p1693
I1
ttRp1694
sVhttp://dailysmspk.net/wp-content/uploads/Best-Good-Morning-SMS-Greetings-and-HD-Wallpaper.jpg
p1695
g3
(g4
g5
(g6
(S'\x07\xe0\x01\x05\x08\x050\x06/\xd4'
tRp1696
S'78'
p1697
I1
ttRp1698
sVhttp://backerart.com/wp-content/uploads/2015/02/good-morning-metal-wall-art.png
p1699
g3
(g4
g5
(g6
(S'\x07\xe0\t\x0c\t $\x02\xf3)'
tRp1700
S'423'
p1701
I1
ttRp1702
sVhttp://picscompany.com/wp-content/uploads/2015/01/good-morning-3.png
p1703
g3
(g4
g5
(g6
(S'\x07\xdf\x0c\x10\x08\x00\x1f\x01\xbf\xdc'
tRp1704
S'129'
p1705
I1
ttRp1706
sVhttp://previews.123rf.com/images/faitotoro/faitotoro1207/faitotoro120700007/14574620-Good-Morning--Stock-Vector-day.jpg
p1707
g3
(g4
g5
(g6
(S'\x07\xe0\x04\x18\x08\x00\x0f\rDT'
tRp1708
S'221'
p1709
I1
ttRp1710
sVhttp://www.hdwallpapernew.in/wp-content/uploads/2014/11/Good-Morning-3D-HD-Wallpapers.jpg
p1711
g3
(g4
g5
(g6
(S'\x07\xe0\x08\x0f\x08\x003\x08\xef\x1b'
tRp1712
S'501'
p1713
I1
ttRp1714
sVhttps://www.goodmorningquote.com/wp-content/uploads/2014/06/goodmorning-quotes-the-best-thing-about-waking-up.jpg
p1715
g3
(g4
g5
(g6
(S"\x07\xe0\x02\x0c\x086'\r\xfd!"
tRp1716
I-1
I1
ttRp1717
sVhttp://www.lovethispic.com/uploaded_images/210219-Good-Morning-Smiley-Kisses.jpg
p1718
g3
(g4
g5
(g6
(S'\x07\xe0\x05\x10\t\x05\x19\tU%'
tRp1719
S'310'
p1720
I1
ttRp1721
sVhttp://www.hdwallpaper.nu/wp-content/uploads/2015/04/Good-Morning-Images-Download-5.jpg
p1722
g3
(g4
g5
(g6
(S'\x07\xe0\x03\x02\t/\x07\x05~D'
tRp1723
S'52'
p1724
I1
ttRp1725
sVhttps://s-media-cache-ak0.pinimg.com/564x/73/c5/1f/73c51f87719d025327fd34cb6dde1f3d.jpg
p1726
g3
(g4
g5
(g6
(S'\x07\xe0\n\x04\t7;\x0e\x99\xb9'
tRp1727
S'639'
p1728
I1
ttRp1729
sVhttp://www.technewsonline.in/wp-content/uploads/2016/05/romantic-good-morning-pictures.jpg
p1730
g3
(g4
g5
(g6
(S'\x07\xe0\x08\x17\t9\x17\x02\xfa\xef'
tRp1731
I-1
I1
ttRp1732
sVhttp://www.memeornah.com/wp-content/uploads/2016/02/good-morning-1.png
p1733
g3
(g4
g5
(g6
(S"\x07\xe0\x02\x0c\x086'\r\xfd\\"
tRp1734
S'284'
p1735
I1
ttRp1736
sVhttp://www.lovethispic.com/uploaded_images/85900-Good-Morning-Tuesday.jpg
p1737
g3
(g4
g5
(g6
(S'\x07\xe0\n\x1c\x17\t\x15\x04*\x19'
tRp1738
S'372'
p1739
I1
ttRp1740
sVhttp://1.bp.blogspot.com/-Z6-kFxvo6zM/UbicIL_fqwI/AAAAAAAAADY/yDAmHHG-ulA/s1600/Good-Morning-Wishes-With-Quotes-Wallpaper.jpg
p1741
g3
(g4
g5
(g6
(S'\x07\xe0\t\x1c\t!\x14\x00\xf7y'
tRp1742
S'103'
p1743
I1
ttRp1744
sVhttp://findwallpapershd.com/wp-content/uploads/2013/11/Good-Morning-Love-Heart-With-Flowers.jpg
p1745
g3
(g4
g5
(g6
(S'\x07\xe0\x08\x05\x08\x025\x01\x1fU'
tRp1746
S'549'
p1747
I1
ttRp1748
sVhttp://hdwallpaperssfree.com/wp-content/uploads/2013/05/free-download-good-morning-wallpapes-hd.jpg
p1749
g3
(g4
g5
(g6
(S'\x07\xe0\x01\x0b\x08\x08\n\tU\xfb'
tRp1750
S'155'
p1751
I1
ttRp1752
sVhttps://lh3.ggpht.com/DHc_uPDA4K4zmX3OejQPbX__jF2q7mV0GlLjmSSxoBpYIkRsh50BY0WkR16-OOS_WQ=h310
p1753
g3
(g4
g5
(g6
(S'\x07\xe0\n\x04\t7;\x0e\x99\xed'
tRp1754
S'62'
p1755
I1
ttRp1756
sVhttp://www.superhdfx.com/wp-content/uploads/2016/05/Good-Morning-Dear-Image.jpg
p1757
g3
(g4
g5
(g6
(S'\x07\xe0\n\x07\x08\x02"\x0e\xab\x1a'
tRp1758
S'533'
p1759
I1
ttRp1760
sVhttp://1.bp.blogspot.com/-L9nlLdOMpPA/VZ-nUwZXArI/AAAAAAAAA8M/SLhn1E5le2I/s1600/good%2Bmorning1.jpg
p1761
g3
(g4
g5
(g6
(S'\x07\xe0\x06\x17\t7\x08\x06:\x00'
tRp1762
S'214'
p1763
I1
ttRp1764
sVhttp://weneedfun.com/wp-content/uploads/2016/09/Good-Morning-Wallpapers-72.jpg
p1765
g3
(g4
g5
(g6
(S'\x07\xe0\t\x16\t 6\x04\x99\x99'
tRp1766
S'606'
p1767
I1
ttRp1768
sVhttp://www.ihindishayari.in/wp-content/uploads/2015/10/Best-Good-Morning-2B-Shayari-in-Hindi.jpg
p1769
g3
(g4
g5
(g6
(S'\x07\xe0\t\x07\x08\x05\x15\x04e\x96'
tRp1770
S'590'
p1771
I1
ttRp1772
sVhttp://www.imageshunt.com/wp-content/uploads/2014/01/Good-morning-to-friends-and-family.jpg
p1773
g3
(g4
g5
(g6
(S'\x07\xdf\x0c\x1e\x08\x03:\x04\x99\xa7'
tRp1774
I-1
I1
ttRp1775
sVhttp://hdwallpapersbin.com/wp-content/uploads/2015/10/Good-Morning-Wallpapers-backgrounds.jpg
p1776
g3
(g4
g5
(g6
(S'\x07\xdf\x0c\x18\x08\x03\t\x04bQ'
tRp1777
S'130'
p1778
I1
ttRp1779
sVhttp://science-all.com/images/wallpapers/good-morning-image/good-morning-image-7.jpg
p1780
g3
(g4
g5
(g6
(S'\x07\xe0\x08\x0f\x08\x003\x08\xef\x7f'
tRp1781
S'560'
p1782
I1
ttRp1783
sVhttp://ehdwall.com/wp-content/uploads/2015/07/Good-Morning-Photos-2016.jpg
p1784
g3
(g4
g5
(g6
(S'\x07\xe0\x08\x0f\x08\x003\x08\xeew'
tRp1785
S'527'
p1786
I1
ttRp1787
sVhttp://media.glamsham.com/download/wallpaper/quotes-and-movies/Good%20Morning/Good-Morning-Quotes-315-12x9.jpg
p1788
g3
(g4
g5
(g6
(S'\x07\xe0\t\x1c\t!\x14\x00\xf4\xeb'
tRp1789
S'96'
p1790
I1
ttRp1791
sVhttp://indiabright.com/wp-content/uploads/2015/12/Have-a-Blessed-day.jpg
p1792
g3
(g4
g5
(g6
(S'\x07\xe0\x02\x02\x08\x1a\x1f\x0b\xe0\x90'
tRp1793
S'100'
p1794
I1
ttRp1795
sVhttp://www.greetingsfromheart.com/images/good_morning/goodmorning3.gif
p1796
g3
(g4
g5
(g6
(S'\x07\xe0\x02\x06\x085\x17\t\xfcs'
tRp1797
S'18'
p1798
I1
ttRp1799
sVhttp://1.bp.blogspot.com/-MdrSSnjurso/Uv0BVWBzdaI/AAAAAAAAMk0/cRrvTe2-brQ/s1600/Good-Morning-Wishes-Card-Butterfly-Image-with-Hindi-Urdu-SMS-Messages-Facebook-Status-Morning-.jpg
p1800
g3
(g4
g5
(g6
(S'\x07\xe0\t\x07\x08\x05\x15\x04d<'
tRp1801
S'577'
p1802
I1
ttRp1803
sVhttp://greetings-day.com/wp-content/uploads/2015/12/good-morning-Xmas.jpg
p1804
g3
(g4
g5
(g6
(S'\x07\xe0\x05\x10\t\x05\x19\tU\xba'
tRp1805
I-1
I1
ttRp1806
sVhttp://allwishes.in/wp-content/uploads/2014/02/Good-Morning-love-coffee-cup-breakfast-image-1024x576.jpg
p1807
g3
(g4
g5
(g6
(S'\x07\xe0\n\x1c\x17\t\x15\x04*,'
tRp1808
NI1
ttRp1809
sVhttp://www.goodmorning.quotesms.com/images/good-morning-spanish.jpg
p1810
g3
(g4
g5
(g6
(S'\x07\xe0\n\x04\t7;\x0e\x99J'
tRp1811
S'435'
p1812
I1
ttRp1813
sVhttp://phoozer.net/wp-content/uploads/2015/04/good-morning-images-for-whatsapp-free-download.png
p1814
g3
(g4
g5
(g6
(S'\x07\xe0\x05\x15\x08\x01\x1e\x05\xde>'
tRp1815
S'418'
p1816
I1
ttRp1817
sVhttp://e2ua.com/data/wallpapers/60/WDF_1058534.jpg
p1818
g3
(g4
g5
(g6
(S'\x07\xe0\x04\r\t9\n\nMs'
tRp1819
I-1
I1
ttRp1820
sVhttp://image.shutterstock.com/z/stock-photo-good-morning-105778163.jpg
p1821
g3
(g4
g5
(g6
(S'\x07\xe0\t\x1c\t!\x14\x00\xf5\xb1'
tRp1822
S'545'
p1823
I1
ttRp1824
sVhttp://www.hdwallpaper.nu/wp-content/uploads/2015/04/1956869.jpg
p1825
g3
(g4
g5
(g6
(S'\x07\xe0\x08\x0f\x08\x003\x08\xef_'
tRp1826
S'565'
p1827
I1
ttRp1828
sVhttp://www.conversationsforabetterworld.com/wp-content/uploads/2015/08/Good-morning-wishes-hd-images.jpg
p1829
g3
(g4
g5
(g6
(S'\x07\xe0\x03\x02\t/\x07\x05~u'
tRp1830
I-1
I1
ttRp1831
sVhttps://s-media-cache-ak0.pinimg.com/736x/05/07/09/05070970571dcd42575c7b1634e09336.jpg
p1832
g3
(g4
g5
(g6
(S'\x07\xe0\x05\x1b\t.\x00\x02\xdf\xaa'
tRp1833
S'426'
p1834
I1
ttRp1835
sVhttp://4.bp.blogspot.com/-BP0TlW4Auv8/VhKY7hM9l2I/AAAAAAAACVw/ROcxmpVqUJc/s1600/Good-Morning-Image.jpg
p1836
g3
(g4
g5
(g6
(S'\x07\xe0\n\x07\x08\x02"\x0e\xa9\xb4'
tRp1837
S'623'
p1838
I1
ttRp1839
sVhttp://goodmorningpics.com/wp-content/uploads/2015/12/Good_Morning.jpg
p1840
g3
(g4
g5
(g6
(S'\x07\xe0\x01\x1b\x08\x1a\x06\x07\xc0\x9e'
tRp1841
S'194'
p1842
I1
ttRp1843
sVhttp://girlterest.com/wp-content/uploads/2015/03/Good-Morning-lets-have-a-good-day1.jpg
p1844
g3
(g4
g5
(g6
(S'\x07\xe0\x05\x08\x08\x00\x0b\x05\xe9Q'
tRp1845
S'305'
p1846
I1
ttRp1847
sVhttp://science-all.com/images/wallpapers/good-morning-picture/good-morning-picture-21.jpg
p1848
g3
(g4
g5
(g6
(S'\x07\xe0\x05\x1b\t.\x00\x02\xdfn'
tRp1849
S'558'
p1850
I1
ttRp1851
sVhttp://www.barrmoss.com/wp-content/uploads/2016/06/Good-morning-cofee-wallpaper.jpg
p1852
g3
(g4
g5
(g6
(S'\x07\xe0\t\x1c\t!\x14\x00\xf6z'
tRp1853
S'632'
p1854
I1
ttRp1855
sVhttp://geniusquotes.org/wp-content/uploads/2014/03/new-quotes-hd-good-morning-with-flowers-free.jpg
p1856
g3
(g4
g5
(g6
(S'\x07\xdf\x0c\x12\x08\x01\x1d\x08\xdfM'
tRp1857
I-1
I1
ttRp1858
sVhttps://lh3.googleusercontent.com/-C2sP35M-xJA/V70O-1WQzQI/AAAAAAAAE9M/WFzjt1C_dQEompd2wNZFD95X8IiPFo7DgCJoC/w1024-h768/Good%2BMorning%2BFull%2BHD%2BImages%2B-%2B527.jpg
p1859
g3
(g4
g5
(g6
(S'\x07\xe0\t\x12\t *\x0b6:'
tRp1860
S'612'
p1861
I1
ttRp1862
sVhttp://wallino.com/wp-content/uploads/2015/10/good-morning-wallpapers-wide.jpg
p1863
g3
(g4
g5
(g6
(S'\x07\xdf\x0b\x08\x08\x01*\x0chb'
tRp1864
S'49'
p1865
I1
ttRp1866
sVhttp://data.whicdn.com/images/119371665/original.png
p1867
g3
(g4
g5
(g6
(S'\x07\xe0\x02\x1a\t;\x1b\x05\xef\xbd'
tRp1868
S'97'
p1869
I1
ttRp1870
sVhttp://www.thequotepedia.com/images/46/good-morning-faith-is-to-believe-what-we-do-not-see-and-the-reward-of-this-faith-is-to-see-what-we-believe.jpg
p1871
g3
(g4
g5
(g6
(S'\x07\xe0\x01\x17\x08\x14\x07\x02MH'
tRp1872
S'206'
p1873
I1
ttRp1874
sVhttp://www.imagefully.com/wp-content/uploads/2015/06/Good-Morning-Wishes-Three-Little-Cute-Cat-Sit-A-White-Cup.jpg
p1875
g3
(g4
g5
(g6
(S'\x07\xe0\x06\x1d\t1)\x07;I'
tRp1876
S'556'
p1877
I1
ttRp1878
sVhttp://www.desicomments.com/dc3/09/328319/328319.jpg
p1879
g3
(g4
g5
(g6
(S'\x07\xe0\x04\x0b\x08\x03\x1d\x0cW\x08'
tRp1880
S'315'
p1881
I1
ttRp1882
sVhttp://www.goodmorningtips.com/wp-content/uploads/2015/12/Good-Morning-Best-Cover-for-Facebook.jpg
p1883
g3
(g4
g5
(g6
(S'\x07\xe0\x03\x17\t35\x0e\xd9\xe5'
tRp1884
S'319'
p1885
I1
ttRp1886
sVhttp://livehdwallpaper.com/wp-content/uploads/2014/10/Good-Morning-Flowers-Pics.jpg
p1887
g3
(g4
g5
(g6
(S'\x07\xe0\x08\x1c\x08\x01\x14\n\xa2\xe0'
tRp1888
S'365'
p1889
I1
ttRp1890
sVhttp://www.goodmorningx.com/wp-content/uploads/2015/07/good-morning-to-gf-photo.jpg
p1891
g3
(g4
g5
(g6
(S'\x07\xe0\x02\x04\x0837\x0e\xd4\x81'
tRp1892
I-1
I1
ttRp1893
sVhttps://i.ytimg.com/vi/WEhTBlmpX8g/maxresdefault.jpg
p1894
g3
(g4
g5
(g6
(S"\x07\xe0\x04\x18\x08\x00\x0f\rD'"
tRp1895
S'235'
p1896
I1
ttRp1897
sVhttp://rawpl.com/wp-content/uploads/2015/11/good-morning-quotes-for-good-morning-quotes-collections-2015-47.jpg
p1898
g3
(g4
g5
(g6
(S'\x07\xdf\x0c\x18\x08\x03\t\x04c\x1b'
tRp1899
S'152'
p1900
I1
ttRp1901
sVhttp://www.wishwithlove.com/wp-content/uploads/2016/06/Good-Morning-Emoji-2.jpg
p1902
g3
(g4
g5
(g6
(S'\x07\xe0\x07\x0f\t#\x16\x08\tY'
tRp1903
I-1
I1
ttRp1904
sVhttp://www.wishafriend.com/goodmorning/uploads/7414-cute-good-morning-messages.jpg
p1905
g3
(g4
g5
(g6
(S'\x07\xe0\x02\x06\x085\x17\t\xfef'
tRp1906
I-1
I1
ttRp1907
sVhttp://www.fungistaan.com/wp-content/uploads/2015/11/20-Best-Good-Morning-Hindi-Shayari1.jpg
p1908
g3
(g4
g5
(g6
(S'\x07\xe0\x08\x05\x08\x025\x01\x1f@'
tRp1909
S'528'
p1910
I1
ttRp1911
sVhttp://www.desicomments.com/dc3/09/342055/342055.jpg
p1912
g3
(g4
g5
(g6
(S'\x07\xe0\t\x1c\t!\x14\x00\xf8D'
tRp1913
S'391'
p1914
I1
ttRp1915
sVhttps://s-media-cache-ak0.pinimg.com/originals/94/ff/0e/94ff0e745cc3492c1e3cba31306ce6f9.jpg
p1916
g3
(g4
g5
(g6
(S'\x07\xe0\x03\x07\x08\x00 \x07o\x02'
tRp1917
S'339'
p1918
I1
ttRp1919
sVhttp://www.allgraphics123.com/wp-content/uploads/2015/06/Nice-Good-Morning-Friends.jpg
p1920
g3
(g4
g5
(g6
(S'\x07\xe0\n\x07\x08\x02"\x0e\xaa\x91'
tRp1921
S'11'
p1922
I1
ttRp1923
sVhttps://wishaf-graphics.s3.amazonaws.com/goodmorning/7435-good-morning-messages-for-girlfriend.jpg
p1924
g3
(g4
g5
(g6
(S'\x07\xe0\x02\x06\x085\x17\t\xfd\xd3'
tRp1925
S'84'
p1926
I1
ttRp1927
sVhttp://www.wallpapersforu.com/wp-content/uploads/2016/08/Good-morning-best-wish.jpg
p1928
g3
(g4
g5
(g6
(S'\x07\xe0\x08\x0f\x08\x003\x08\xefI'
tRp1929
S'561'
p1930
I1
ttRp1931
sVhttp://cutewallpaper.org/wp-content/uploads/2016/08/good-morning-wallpaper-7.jpg
p1932
g3
(g4
g5
(g6
(S'\x07\xe0\n\x07\x08\x02"\x0e\xa9\x91'
tRp1933
S'655'
p1934
I1
ttRp1935
sVhttp://www.goodmorninghostels.com/wp-content/uploads/2011/05/bnn1-570x240.jpg
p1936
g3
(g4
g5
(g6
(S'\x07\xe0\x05\x1b\t.\x00\x02\xdf='
tRp1937
I-1
I1
ttRp1938
sVhttp://hdwallpapersrocks.com/wp-content/uploads/2013/09/Good-morning-wooden-heart-with-flower.jpg
p1939
g3
(g4
g5
(g6
(S'\x07\xe0\x08\x01\x08\x02"\t\'S'
tRp1940
S'519'
p1941
I1
ttRp1942
sVhttp://cache.lovethispic.com/uploaded_images/198719-Good-Morning-Puppies.gif
p1943
g3
(g4
g5
(g6
(S'\x07\xe0\x03\x04\t3;\x03\xff\xae'
tRp1944
S'348'
p1945
I1
ttRp1946
sVhttp://wallpapercave.com/wp/Dl4GwdJ.jpg
p1947
g3
(g4
g5
(g6
(S'\x07\xdf\x0b\x14\x08\x03&\x06\xec\x81'
tRp1948
S'82'
p1949
I1
ttRp1950
sVhttp://4.bp.blogspot.com/-2-nIu9BkE90/Vht8IaHWyjI/AAAAAAAACgU/UCHZo7rVmgI/s1600/sweet%2Bgood%2Bmorning.jpg
p1951
g3
(g4
g5
(g6
(S'\x07\xe0\x05\x10\t\x05\x19\tUf'
tRp1952
S'309'
p1953
I1
ttRp1954
sVhttp://www.lovethispic.com/uploaded_images/230014-Good-Morning-Spread-The-Love.jpg
p1955
g3
(g4
g5
(g6
(S'\x07\xe0\n\x07\x08\x02"\x0e\xaat'
tRp1956
S'342'
p1957
I1
ttRp1958
sVhttp://3.bp.blogspot.com/-l8Dr8frjRWk/VKomHfAXqOI/AAAAAAAABFY/5hSmN7V68uU/s1600/good-morning-greeting%2Bcup%2Btea%2Bwith%2Bchoco%2Bhd-wallpaper%2Bfree.gif
p1959
g3
(g4
g5
(g6
(S'\x07\xe0\x01\x0b\x08\x08\n\tV\r'
tRp1960
S'106'
p1961
I1
ttRp1962
sVhttp://www.goodmorningx.com/wp-content/uploads/2015/07/Good-Morning-Photo-for-husband.jpg
p1963
g3
(g4
g5
(g6
(S'\x07\xe0\x08\x0f\x08\x003\x08\xefw'
tRp1964
S'516'
p1965
I1
ttRp1966
sVhttp://kurld.com/images/wallpapers/good-morning-images/good-morning-images-13.jpg
p1967
g3
(g4
g5
(g6
(S'\x07\xe0\n\x07\x08\x02"\x0e\xa8\xd8'
tRp1968
I-1
I1
ttRp1969
sVhttp://www.goodmorningquote.com/wp-content/uploads/2014/06/good-morning-inspirational-quotes-life-is-like-a-mirror.jpg?3d1c9c
p1970
g3
(g4
g5
(g6
(S'\x07\xdf\n\x1f\x08\x01\x1e\x0b\x0e\x92'
tRp1971
I-1
I1
ttRp1972
sVhttp://www.technoven.com/wp-content/uploads/2015/05/top-Best-Good-Morning-Images-Pictures-For-Whatsapp.jpg
p1973
g3
(g4
g5
(g6
(S'\x07\xe0\x08\x05\x08\x025\x01\x1e\xd1'
tRp1974
S'499'
p1975
I1
ttRp1976
sVhttp://www.lovethispic.com/uploaded_images/227219-Happy-Saturday-Good-Morning-Friends.jpg
p1977
g3
(g4
g5
(g6
(S'\x07\xe0\x05\x08\x08\x00\x0b\x05\xe9\xe0'
tRp1978
S'550'
p1979
I1
ttRp1980
sVhttp://www.berryquotes.com/wp-content/uploads/2016/05/Good-morning-images-2.jpg
p1981
g3
(g4
g5
(g6
(S'\x07\xe0\t\x07\x08\x05\x15\x04e\x9c'
tRp1982
S'588'
p1983
I1
ttRp1984
sVhttp://www.jucoolimages.com/images/goodmorning/goodmorning_65.gif
p1985
g3
(g4
g5
(g6
(S'\x07\xdf\x0c\x1c\x08\x03+\x02\xb1\xdc'
tRp1986
S'179'
p1987
I1
ttRp1988
sVhttp://www.freelargeimages.com/wp-content/uploads/2015/11/Good_Morning_11.jpg
p1989
g3
(g4
g5
(g6
(S'\x07\xe0\t\x12\t *\x0b6c'
tRp1990
S'523'
p1991
I1
ttRp1992
sVhttps://thumbs.dreamstime.com/z/good-morning-message-tablet-computer-screen-office-table-49408226.jpg
p1993
g3
(g4
g5
(g6
(S'\x07\xe0\t\x1c\t!\x14\x00\xf52'
tRp1994
S'441'
p1995
I1
ttRp1996
sVhttp://www.yourwhatsappstatus.com/wp-content/uploads/2016/07/good-morning-whatsapp-image-good-morning-1-JolhmX-1.jpg
p1997
g3
(g4
g5
(g6
(S'\x07\xe0\x08\x05\x08\x025\x01\x1f\x1d'
tRp1998
I-1
I1
ttRp1999
sVhttp://www.jattsms.com/wp-content/uploads/2014/08/Romantic-Coffee-Good-Morning-Wallpaper.jpg
p2000
g3
(g4
g5
(g6
(S'\x07\xe0\x08\x17\t9\x17\x02\xfat'
tRp2001
S'513'
p2002
I1
ttRp2003
sVhttp://www.thequotepedia.com/images/46/there-is-always-something-to-be-thankful-for-each-and-every-day-when-you-see-the-beauty-of-being-alive-under-gods-grace-good-morning.jpg
p2004
g3
(g4
g5
(g6
(S'\x07\xe0\x07\x1b\t6/\x0c\x8e\x82'
tRp2005
S'554'
p2006
I1
ttRp2007
sVhttp://4.bp.blogspot.com/-lPxEtMu6TFg/VhKZDqv7g1I/AAAAAAAACWk/pI3TkMmc_l8/s1600/good-morning-quotes-funny.jpg
p2008
g3
(g4
g5
(g6
(S'\x07\xe0\n\x07\x08\x02"\x0e\xa91'
tRp2009
S'248'
p2010
I1
ttRp2011
sVhttp://ndl.mgccw.com/mu3/wallpaper/20141105/00/736a17c0a947be47ef22d34c441e9ea5/1874227-1280x1024-sy_65650017975.jpg
p2012
g3
(g4
g5
(g6
(S'\x07\xe0\x06\x1d\t1)\x07:\xdf'
tRp2013
S'255'
p2014
I1
ttRp2015
sVhttp://downloadimagesofflowers.com/wp-content/uploads/2015/12/images-of-good-morning-to-you.jpg
p2016
g3
(g4
g5
(g6
(S'\x07\xdf\x0c\x18\x08\x03\t\x04b\xa7'
tRp2017
S'167'
p2018
I1
ttRp2019
sVhttp://rahinz.com/wp-content/uploads/2015/11/good-morning-rose-600x329.jpg
p2020
g3
(g4
g5
(g6
(S'\x07\xe0\x02\x06\x085\x17\t\xfd&'
tRp2021
S'254'
p2022
I1
ttRp2023
sVhttp://www.lovethispic.com/uploaded_images/195770-Good-Morning-Gorgeous.jpg
p2024
g3
(g4
g5
(g6
(S'\x07\xe0\t\x07\x08\x05\x15\x04dl'
tRp2025
S'127'
p2026
I1
ttRp2027
sVhttp://www.thewallpapersfort.com/wp-content/uploads/2014/12/good_morning_coffee_cup.jpg
p2028
g3
(g4
g5
(g6
(S'\x07\xdf\x0c\x10\x08\x00\x1f\x01\xbfO'
tRp2029
S'102'
p2030
I1
ttRp2031
sVhttp://www.desicomments.com/dc3/10/350002/350002.jpg
p2032
g3
(g4
g5
(g6
(S'\x07\xe0\x07\n\x08\x009\x02\x0b\xd7'
tRp2033
S'474'
p2034
I1
ttRp2035
sVhttp://www.pluginsweb.com/wp-content/uploads/2016/05/romantic-good-morning-sms-5.jpg
p2036
g3
(g4
g5
(g6
(S'\x07\xe0\x06\x1d\t1)\x07;N'
tRp2037
I-1
I1
ttRp2038
sVhttp://www.wishgoodmorning.org/wp-content/uploads/2016/04/Aaj-Aur-Ek-Subah-Meri-Jholi-Me-Daal-Di-wg140045.jpg
p2039
g3
(g4
g5
(g6
(S'\x07\xe0\x05\x10\t\x05\x19\tT\xf6'
tRp2040
S'407'
p2041
I1
ttRp2042
sVhttp://goodmorningpics.com/wp-content/uploads/2015/11/Good-morning-6.jpg
p2043
g3
(g4
g5
(g6
(S'\x07\xe0\x02\x04\x0837\x0e\xd4F'
tRp2044
S'166'
p2045
I1
ttRp2046
sVhttp://www.happyholidaysimages.com/wp-content/uploads/2016/04/goodmorning-love.jpg
p2047
g3
(g4
g5
(g6
(S'\x07\xe0\x05\x10\t\x05\x19\tT\xff'
tRp2048
I-1
I1
ttRp2049
sVhttp://theartmad.com/wp-content/uploads/2015/04/Good-Morning-Images-9.jpg
p2050
g3
(g4
g5
(g6
(S'\x07\xdf\x0b\x08\x08\x01*\x0ch8'
tRp2051
I-1
I1
ttRp2052
sVhttp://www.letuspublish.com/wp-content/uploads/2014/10/1920x1200xGood-Morning-HD-Wallpaper-for-Desktop.jpg.pagespeed.ic.qyhmHbLl41.jpg
p2053
g3
(g4
g5
(g6
(S'\x07\xe0\x03\x02\t/\x07\x05~\xc9'
tRp2054
S'459'
p2055
I2
ttRp2056
sVhttp://media.glamsham.com/download/wallpaper/quotes-and-movies/Good%20Morning/Good-Morning-Quotes-311-12x9.jpg
p2057
g3
(g4
g5
(g6
(S'\x07\xe0\x06\x1d\t1)\x07;\x19'
tRp2058
S'515'
p2059
I1
ttRp2060
sVhttp://www.desiglitters.com/wp-content/uploads/2012/09/Wonderful-Good-Morning-Graphic1.gif
p2061
g3
(g4
g5
(g6
(S'\x07\xe0\x01\x05\x08\x050\x06/\xa7'
tRp2062
S'44'
p2063
I1
ttRp2064
sVhttp://p1.pichost.me/i/71/1956869.jpg
p2065
g3
(g4
g5
(g6
(S'\x07\xdf\x0c\x14\x08\x022\x03\xdb('
tRp2066
S'148'
p2067
I1
ttRp2068
sVhttp://hdwallpapershdpics.com/wp-content/uploads/2015/10/Zedge-good-morning-wallpaper1.jpg
p2069
g3
(g4
g5
(g6
(S'\x07\xe0\t\x07\x08\x05\x15\x04d\xa4'
tRp2070
I-1
I1
ttRp2071
sVhttp://www.goodmorningquote.com/wp-content/uploads/2014/06/good-morning-quotes-the-minute-you-think-of.jpg?2d7d09
p2072
g3
(g4
g5
(g6
(S'\x07\xdf\x0b\x14\x08\x03&\x06\xec\xeb'
tRp2073
I-1
I1
ttRp2074
sVhttp://www.goodmorning.quotesms.com/images/ways-to-say-good-morning.jpg
p2075
g3
(g4
g5
(g6
(S'\x07\xe0\n\x07\x08\x02"\x0e\xa9\xde'
tRp2076
S'451'
p2077
I1
ttRp2078
sVhttp://livehdwallpaper.com/wp-content/uploads/2016/01/Good-Morning-Desktop-Wallpaper-HD-Backgrounds.jpg
p2079
g3
(g4
g5
(g6
(S'\x07\xe0\x08\x0f\x08\x003\x08\xee\xf1'
tRp2080
S'526'
p2081
I1
ttRp2082
sVhttp://greetings-day.com/wp-content/uploads/2015/07/good-morning_quotes-3.jpg
p2083
g3
(g4
g5
(g6
(S"\x07\xe0\x02\x0c\x086'\r\xfd\x9b"
tRp2084
I-1
I1
ttRp2085
sVhttp://rishikajain.com/wp-content/uploads/2016/04/good-morning.jpg
p2086
g3
(g4
g5
(g6
(S'\x07\xe0\n\x07\x08\x02"\x0e\xaa\x05'
tRp2087
S'636'
p2088
I1
ttRp2089
sVhttp://www.goodmorningquote.com/wp-content/uploads/2014/06/good-morning-quotes-the-minute-you-think-of.jpg?3d1c9c
p2090
g3
(g4
g5
(g6
(S'\x07\xdf\n\x1f\x08\x01\x1e\x0b\r\xcb'
tRp2091
I-1
I1
ttRp2092
sVhttp://www.desicomments.com/dc3/10/359895/359895.jpg
p2093
g3
(g4
g5
(g6
(S'\x07\xe0\n\x07\x08\x02"\x0e\xa9\xaa'
tRp2094
S'660'
p2095
I1
ttRp2096
sVhttp://www.goodmorningx.com/wp-content/uploads/2015/04/latest-good-morning-wallpaper.jpg
p2097
g3
(g4
g5
(g6
(S'\x07\xe0\x07\x15\t$#\x03\x8ep'
tRp2098
S'94'
p2099
I1
ttRp2100
sVhttp://www.goodmorningimagesgreetings.com/wp-content/uploads/2015/09/good-morning-hd-wallpaper-high-definition-ras.jpg
p2101
g3
(g4
g5
(g6
(S'\x07\xe0\x08\x17\t9\x17\x02\xfa\xd8'
tRp2102
S'143'
p2103
I1
ttRp2104
sVhttp://wahbaloch.com/wp-content/uploads/2015/10/Good-Morning-HD-Wallpaper.jpg
p2105
g3
(g4
g5
(g6
(S'\x07\xdf\x0c\x14\x08\x022\x03\xdb\x95'
tRp2106
S'150'
p2107
I1
ttRp2108
sVhttp://www.mofasalkhabar.com/wp-content/uploads/2015/12/Good-Morning-Wallpapers-1.jpg
p2109
g3
(g4
g5
(g6
(S'\x07\xe0\x01\x05\x08\x050\x06/\xfa'
tRp2110
I-1
I1
ttRp2111
sVhttps://s-media-cache-ak0.pinimg.com/564x/cc/8b/70/cc8b70097682294943bec451695f7d31.jpg
p2112
g3
(g4
g5
(g6
(S'\x07\xe0\n\x07\x08\x02"\x0e\xa9J'
tRp2113
S'624'
p2114
I1
ttRp2115
sVhttp://www.lovethispic.com/uploaded_images/232389-Cute-Happy-Tuesday-Good-Morning.jpg
p2116
g3
(g4
g5
(g6
(S'\x07\xe0\x02\x0e\x08:7\r\x9em'
tRp2117
S'285'
p2118
I1
ttRp2119
sVhttp://smstosay.com/wp-content/uploads/2016/07/sms-to-say-good-morning.jpg
p2120
g3
(g4
g5
(g6
(S'\x07\xe0\x08\x05\x08\x025\x01\x1f\x08'
tRp2121
S'541'
p2122
I1
ttRp2123
sVhttps://s-media-cache-ak0.pinimg.com/originals/cc/8b/70/cc8b70097682294943bec451695f7d31.jpg
p2124
g3
(g4
g5
(g6
(S'\x07\xe0\n\x1c\x17\t\x15\x04*\x10'
tRp2125
S'540'
p2126
I1
ttRp2127
sVhttp://www.thefreshquotes.com/wp-content/uploads/2015/07/Being-In-Love-With-You-Makes-Every-Morning-Worth-Getting-Up-For...-Good-Morning-Sweetheart.jpg
p2128
g3
(g4
g5
(g6
(S'\x07\xe0\t\x1c\t!\x14\x00\xf5\x85'
tRp2129
S'239'
p2130
I1
ttRp2131
sVhttp://www.livethesheendream.com/wp-content/uploads/2016/04/good-morning-images.jpg
p2132
g3
(g4
g5
(g6
(S'\x07\xe0\x08\x0f\x08\x003\x08\xefV'
tRp2133
I-1
I1
ttRp2134
sVhttp://phoozer.org/wp-content/uploads/2015/03/good-morning-wallpaper-for-whatsapp.jpg
p2135
g3
(g4
g5
(g6
(S'\x07\xe0\x03\x02\t/\x07\x05~H'
tRp2136
I-1
I1
ttRp2137
sVhttp://139.59.25.161/wp-content/uploads/2015/08/beverage-orange-flowers.jpg
p2138
g3
(g4
g5
(g6
(S'\x07\xe0\n\x1c\x17\t\x15\x04*\x0c'
tRp2139
NI1
ttRp2140
sVhttp://media-cache-ak0.pinimg.com/originals/94/ff/0e/94ff0e745cc3492c1e3cba31306ce6f9.jpg
p2141
g3
(g4
g5
(g6
(S'\x07\xe0\x08\x1c\x08\x01\x14\n\xa3U'
tRp2142
S'587'
p2143
I1
ttRp2144
sVhttps://wishaf-graphics.s3.amazonaws.com/goodmorning/8407-motivational-good-morning-messages.jpg
p2145
g3
(g4
g5
(g6
(S'\x07\xe0\x03\x07\x08\x00 \x07p\x10'
tRp2146
S'257'
p2147
I1
ttRp2148
sVhttp://images.freeimages.com/images/premium/previews/5199/51996988-cup-of-tea-and-good-morning-note.jpg
p2149
g3
(g4
g5
(g6
(S'\x07\xe0\t\x0c\t $\x02\xf3\x82'
tRp2150
S'583'
p2151
I1
ttRp2152
sVhttp://www.desicomments.com/dc3/10/345584/345584.jpg
p2153
g3
(g4
g5
(g6
(S'\x07\xe0\x05\x1b\t.\x00\x02\xe0f'
tRp2154
S'434'
p2155
I1
ttRp2156
sVhttp://www.oyegraphics.com/wp-content/uploads/2015/08/Lovely-Morning.jpg
p2157
g3
(g4
g5
(g6
(S'\x07\xe0\t\x1c\t!\x14\x00\xf4\xc4'
tRp2158
S'345'
p2159
I1
ttRp2160
sVhttps://wishaf-graphics.s3.amazonaws.com/goodmorning/8476-inspirational-good-morning-messages.jpg
p2161
g3
(g4
g5
(g6
(S'\x07\xe0\x02\x06\x085\x17\t\xfb\xb7'
tRp2162
S'191'
p2163
I1
ttRp2164
sVhttp://wallpapercave.com/wp/aNzkaBg.jpg
p2165
g3
(g4
g5
(g6
(S'\x07\xe0\x03\x02\t/\x07\x05~x'
tRp2166
S'325'
p2167
I1
ttRp2168
sVhttp://media1.santabanta.com/full1/Miscellaneous/Good%20Morning/good-morning-16a.jpg
p2169
g3
(g4
g5
(g6
(S'\x07\xe0\x01\x1b\x08\x1a\x06\x07\xbf;'
tRp2170
S'226'
p2171
I1
ttRp2172
sVhttp://139.59.25.161/wp-content/uploads/2015/09/Good-Morning-Tea-Wallpaper-11.jpg
p2173
g3
(g4
g5
(g6
(S'\x07\xe0\t\x07\x08\x05\x15\x04d$'
tRp2174
I-1
I1
ttRp2175
sVhttps://thumb7.shutterstock.com/display_pic_with_logo/1467743/180051215/stock-vector-good-morning-illustration-with-coffee-cat-banana-cute-vector-background-180051215.jpg
p2176
g3
(g4
g5
(g6
(S'\x07\xe0\n\x04\t7;\x0e\x990'
tRp2177
NI1
ttRp2178
sVhttps://s-media-cache-ak0.pinimg.com/originals/2f/5c/5b/2f5c5b21698befafadb461234ed89ae9.jpg
p2179
g3
(g4
g5
(g6
(S'\x07\xe0\x08\x0f\x08\x003\x08\xef)'
tRp2180
S'118'
p2181
I1
ttRp2182
sVhttp://hdwallpaperssfree.com/wp-content/uploads/2013/05/good-morning-have-a-nice-day-hd-wallpaper.jpeg
p2183
g3
(g4
g5
(g6
(S'\x07\xe0\x01\x0b\x08\x08\n\tU1'
tRp2184
S'204'
p2185
I1
ttRp2186
sVhttp://timepassbaba.com/wp-content/uploads/2015/01/IMG-20140716-WA0005.jpg
p2187
g3
(g4
g5
(g6
(S'\x07\xe0\x03\x17\t35\x0e\xda '
tRp2188
S'356'
p2189
I1
ttRp2190
sVhttps://lh3.googleusercontent.com/3svEWxbkeX37I7-xTzRONebxH8iHJxAQlr1hN_slF7SXJmXzwClQoGD14dMibcw8Kw=h900
p2191
g3
(g4
g5
(g6
(S'\x07\xe0\x06\x1d\t1)\x07;p'
tRp2192
S'557'
p2193
I1
ttRp2194
sVhttp://www.rainboz.com/wp-content/uploads/2015/05/good-morning-and-keep-smiling-1.jpg
p2195
g3
(g4
g5
(g6
(S'\x07\xe0\n\x07\x08\x02"\x0e\xab\x04'
tRp2196
S'656'
p2197
I1
ttRp2198
sVhttps://i.ytimg.com/vi/U9Q7Y3t4m3g/maxresdefault.jpg
p2199
g3
(g4
g5
(g6
(S'\x07\xdf\x0c\x14\x08\x022\x03\xda\xff'
tRp2200
S'136'
p2201
I1
ttRp2202
sVhttp://e2ua.com/data/wallpapers/100/WDF_1435286.jpg
p2203
g3
(g4
g5
(g6
(S'\x07\xe0\x04\x18\x08\x00\x0f\rC\xe7'
tRp2204
I-1
I1
ttRp2205
sVhttp://3.bp.blogspot.com/-yXB4RwTGqVU/VI6X-OMHL_I/AAAAAAAABq8/rdLzQ-rEH-g/s1600/good%2Bmorning%2B2015%2B(14).jpg
p2206
g3
(g4
g5
(g6
(S'\x07\xe0\t\x1c\t!\x14\x00\xf5\xd7'
tRp2207
S'559'
p2208
I1
ttRp2209
sVhttp://www.goodmorningquote.com/wp-content/uploads/2014/06/motivational-good-morning-quotes-when-you-start-each-day-with-a-grateful-heart.jpg?ce4a2f
p2210
g3
(g4
g5
(g6
(S'\x07\xdf\x0c\x18\x08\x03\t\x04cU'
tRp2211
S'161'
p2212
I1
ttRp2213
sVhttp://media1.santabanta.com/full1/Miscellaneous/Good%20Morning/good-morning-44a.jpg
p2214
g3
(g4
g5
(g6
(S'\x07\xe0\x04\x18\x08\x00\x0f\rD\x0e'
tRp2215
S'8'
I1
ttRp2216
sVhttp://www.tpevent.com/wp-content/uploads/2016/02/good-morning-images-11.jpg
p2217
g3
(g4
g5
(g6
(S'\x07\xe0\x05\x19\t!\x06\t:\x97'
tRp2218
S'569'
p2219
I1
ttRp2220
sVhttp://www.wishesquotes.com/wp-content/uploads/2015/07/good-morning-smily-face-card.jpg
p2221
g3
(g4
g5
(g6
(S'\x07\xe0\n\x07\x08\x02"\x0e\xaa~'
tRp2222
S'664'
p2223
I1
ttRp2224
sVhttp://www.punjabigraphics.com/images/126/Good-Morning-Sunrise-Wallpaper.jpg
p2225
g3
(g4
g5
(g6
(S'\x07\xdf\x0c\x18\x08\x03\t\x04b\xe5'
tRp2226
S'111'
p2227
I1
ttRp2228
sVhttp://www.amusingfun.com/wp-content/uploads/2013/10/i-think-about-you-good-morning.jpg
p2229
g3
(g4
g5
(g6
(S'\x07\xdf\x0b\x1b\x08\x00\t\x03\xb6S'
tRp2230
S'80'
p2231
I1
ttRp2232
sVhttp://merfo.net/wp-content/gallery/good-morning-hd-wallpapers/12.jpg
p2233
g3
(g4
g5
(g6
(S'\x07\xdf\x0c\x14\x08\x022\x03\xdb\x7f'
tRp2234
S'140'
p2235
I1
ttRp2236
sVhttp://img.wallpaperfolder.com/f/5F075BFFFB88/sweet-good-morning.jpg
p2237
g3
(g4
g5
(g6
(S'\x07\xe0\t\x16\t 6\x04\x97\xc8'
tRp2238
S'600'
p2239
I1
ttRp2240
sVhttp://www.desicomments.com/dc3/10/351957/351957.jpg
p2241
g3
(g4
g5
(g6
(S'\x07\xe0\n\x07\x08\x02"\x0e\xaa\xee'
tRp2242
S'663'
p2243
I1
ttRp2244
sVhttp://www.lovethispic.com/uploaded_images/253144-Happy-Thursday-Wishing-All-My-Friends-And-Family-A-Good-Morning.jpg
p2245
g3
(g4
g5
(g6
(S'\x07\xe0\n\x07\x08\x02"\x0e\xaa?'
tRp2246
S'667'
p2247
I1
ttRp2248
sVhttps://www.goodmorningquote.com/wp-content/uploads/2014/06/goodmorning-quotes-the-best-thing-about-waking-up.jpg?e7cdc0
p2249
g3
(g4
g5
(g6
(S'\x07\xe0\x02\x02\x08\x1a\x1f\x0b\xe0\xf3'
tRp2250
I-1
I1
ttRp2251
sVhttp://cache.lovethispic.com/uploaded_images/219345-Good-Morning-Sunshine-Quote.jpg
p2252
g3
(g4
g5
(g6
(S'\x07\xe0\t\x16\t 6\x04\x98\n'
tRp2253
S'608'
p2254
I1
ttRp2255
sVhttp://www.lovethispic.com/uploaded_images/209935-Good-Morning-Faith.jpg
p2256
g3
(g4
g5
(g6
(S"\x07\xe0\x08\x19\t:'\x01\x14\xc5"
tRp2257
S'596'
p2258
I1
ttRp2259
sVhttp://www.lovethispic.com/uploaded_images/234720-Good-Morning-God-Bless-You-Wishing-You-A-Day-Filled-With-His-Peace.jpg
p2260
g3
(g4
g5
(g6
(S'\x07\xe0\n\x07\x08\x02"\x0e\xaa\xc4'
tRp2261
S'433'
p2262
I1
ttRp2263
sVhttp://www.dgreetings.com/newimages/goodmorning/a-good-day-good-morning-card.jpg
p2264
g3
(g4
g5
(g6
(S'\x07\xe0\n\x04\t7;\x0e\x99U'
tRp2265
NI1
ttRp2266
sVhttp://science-all.com/images/wallpapers/good-morning-pic/good-morning-pic-9.jpg
p2267
g3
(g4
g5
(g6
(S'\x07\xe0\x05\x1b\t.\x00\x02\xdf\xf0'
tRp2268
S'431'
p2269
I1
ttRp2270
sVhttp://science-all.com/images/wallpapers/good-morning-hd-image/good-morning-hd-image-19.jpg
p2271
g3
(g4
g5
(g6
(S'\x07\xe0\t\x0c\t $\x02\xf3<'
tRp2272
S'602'
p2273
I1
ttRp2274
sVhttp://www.wishguy.com/wp-content/uploads/2015/11/My-Sunrise-Is-Where-I-See-Smile-On-Your-Face-Good-Morning-A9.jpg
p2275
g3
(g4
g5
(g6
(S'\x07\xe0\x08\x05\x08\x025\x01\x1e\xa0'
tRp2276
S'520'
p2277
I1
ttRp2278
sVhttps://s-media-cache-ak0.pinimg.com/736x/0f/9e/cb/0f9ecb49d02adf3dc305569fd1963cc9.jpg
p2279
g3
(g4
g5
(g6
(S'\x07\xe0\x05\x1b\t.\x00\x02\xdf)'
tRp2280
S'436'
p2281
I1
ttRp2282
sVhttp://media1.santabanta.com/full1/Miscellaneous/Good%20Morning/good-morning-51a.jpg
p2283
g3
(g4
g5
(g6
(S'\x07\xe0\x06\x1d\t1)\x07;\x85'
tRp2284
S'380'
p2285
I1
ttRp2286
sVhttp://www.cfau-pd.net/images/good-morning-wallpapers/good-morning-wallpapers-4.jpg
p2287
g3
(g4
g5
(g6
(S'\x07\xe0\t\x0c\t $\x02\xf34'
tRp2288
S'610'
p2289
I1
ttRp2290
sVhttp://cache.lovethispic.com/uploaded_images/164703-Good-Morning-Jesus-Loves-You.jpg
p2291
g3
(g4
g5
(g6
(S'\x07\xe0\x08\x1c\x08\x01\x14\n\xa32'
tRp2292
S'268'
p2293
I1
ttRp2294
sVhttp://cutenet.in/wp-content/uploads/2016/02/good-morning-25.jpg
p2295
g3
(g4
g5
(g6
(S'\x07\xe0\x08\x17\t9\x17\x02\xfa['
tRp2296
S'570'
p2297
I1
ttRp2298
sVhttp://cdn.wallpapersafari.com/26/39/LVzyAv.jpg
p2299
g3
(g4
g5
(g6
(S'\x07\xe0\x08\x1c\x08\x01\x14\n\xa3?'
tRp2300
I-1
I1
ttRp2301
sVhttp://www.goodmorningquote.com/wp-content/uploads/2014/06/goodmorning-quotes-the-best-thing-about-waking-up.jpg?1283de
p2302
g3
(g4
g5
(g6
(S'\x07\xe0\x01\x05\x08\x050\x060\x08'
tRp2303
I-1
I1
ttRp2304
sVhttp://cache.lovethispic.com/uploaded_images/269686-Good-Morning-Wishing-You-A-Lovely-Day.jpg
p2305
g3
(g4
g5
(g6
(S'\x07\xe0\x07\x0f\t#\x16\x08\t.'
tRp2306
S'491'
p2307
I1
ttRp2308
sVhttp://indiabright.com/wp-content/uploads/2016/01/Facebook-Good-Morning-new-hd-wallpapers.jpg
p2309
g3
(g4
g5
(g6
(S'\x07\xe0\x02\x12\t\x02#\x06ph'
tRp2310
S'316'
p2311
I1
ttRp2312
sVhttp://e2ua.com/data/wallpapers/100/WDF_1435185.jpg
p2313
g3
(g4
g5
(g6
(S'\x07\xe0\x04\x0b\x08\x03\x1d\x0cW\x7f'
tRp2314
I-1
I1
ttRp2315
sVhttps://s-media-cache-ak0.pinimg.com/736x/7e/16/60/7e16605c2799bf8976f7c013ccc65d96.jpg
p2316
g3
(g4
g5
(g6
(S'\x07\xe0\n\x1c\x17\t\x15\x04*('
tRp2317
S'505'
p2318
I1
ttRp2319
sVhttp://cache.lovethispic.com/uploaded_images/190005-Good-Morning-Wake-Up-And-Give-It-Your-Best-Shot.jpg
p2320
g3
(g4
g5
(g6
(S"\x07\xe0\x02\x0c\x086'\r\xfd\xa6"
tRp2321
S'273'
p2322
I1
ttRp2323
sVhttp://www.hdwallpapersstylo.com/wp-content/uploads/2015/10/good-morning-wallpapers-with-coffee-7.jpg
p2324
g3
(g4
g5
(g6
(S'\x07\xe0\x05\x08\x08\x00\x0b\x05\xe8\xcf'
tRp2325
S'400'
p2326
I1
ttRp2327
sVhttp://www.jokescoff.com/wp-content/uploads/2016/03/Good-Morning-Quotes-in-Hindi.jpg
p2328
g3
(g4
g5
(g6
(S'\x07\xe0\x08\x1c\x08\x01\x14\n\xa2^'
tRp2329
I-1
I1
ttRp2330
sVhttps://wishaf-graphics.s3.amazonaws.com/goodmorning/7440-good-morning-messages-for-girlfriend.jpg
p2331
g3
(g4
g5
(g6
(S'\x07\xe0\x01\x05\x08\x050\x06/A'
tRp2332
S'184'
p2333
I1
ttRp2334
sVhttp://wishesmessages.com/wp-content/uploads/2013/11/Good-morning-coffee-greeting-for-girlfriend.jpg
p2335
g3
(g4
g5
(g6
(S'\x07\xe0\x02\x06\x085\x17\t\xfba'
tRp2336
S'32'
p2337
I1
ttRp2338
sVhttp://139.59.25.161/wp-content/uploads/2015/08/good_morning_hd_wallpaper.jpg
p2339
g3
(g4
g5
(g6
(S'\x07\xe0\n\x07\x08\x02"\x0e\xa9\n'
tRp2340
S'646'
p2341
I1
ttRp2342
sVhttp://jokescoff.com/wp-content/uploads/2015/04/Good-Morning-quotes-hindi.jpg
p2343
g3
(g4
g5
(g6
(S'\x07\xe0\x04\x0b\x08\x03\x1d\x0cV\x8e'
tRp2344
S'322'
p2345
I1
ttRp2346
sVhttp://www.letuspublish.com/wp-content/uploads/2014/10/xGood-Morning-HD-Photo-free-1024x640.jpg.pagespeed.ic.HnjMLQjOj3.jpg
p2347
g3
(g4
g5
(g6
(S'\x07\xe0\t\x0c\t $\x02\xf2\xa9'
tRp2348
S'397'
p2349
I1
ttRp2350
sVhttp://www.tumblr18.com/t18/2015/06/New-ambitions-and-great-success-good-morning.jpg
p2351
g3
(g4
g5
(g6
(S'\x07\xdf\x0c\x14\x08\x022\x03\xda\xaf'
tRp2352
S'139'
p2353
I1
ttRp2354
sVhttp://www.imagesbuddy.com/images/198/good-morning-hearts-wallpaper-for-desktop.jpg
p2355
g3
(g4
g5
(g6
(S'\x07\xe0\x01\x13\x08\x138\x02.\x02'
tRp2356
S'242'
p2357
I1
ttRp2358
sVhttp://cache.lovethispic.com/uploaded_images/245549-Good-Morning-Coffee-For-You.jpg
p2359
g3
(g4
g5
(g6
(S'\x07\xe0\x08\x17\t9\x17\x02\xfa\x8b'
tRp2360
S'591'
p2361
I1
ttRp2362
sVhttp://geniusquotes.org/wp-content/uploads/2014/01/Download-good-morning-wallpaper-with-quote.jpg
p2363
g3
(g4
g5
(g6
(S'\x07\xe0\x04\x03\x08\x02 \x01\xfd\xe9'
tRp2364
I-1
I1
ttRp2365
sVhttp://www.hdwallpapersbits.com/wp-content/uploads/2015/10/Cute-Good-Morning-Image-Wallpapers-HD.jpg
p2366
g3
(g4
g5
(g6
(S'\x07\xe0\x03\x17\t35\x0e\xd9x'
tRp2367
S'368'
p2368
I1
ttRp2369
sVhttp://media-cache-ec0.pinimg.com/736x/71/99/7a/71997ab71ecf88b57208d38755511de8.jpg
p2370
g3
(g4
g5
(g6
(S"\x07\xe0\x08\x19\t:'\x01\x14\xc2"
tRp2371
S'578'
p2372
I1
ttRp2373
sVhttp://statusnmessages.com/wp-content/uploads/2015/06/good-morning-with-breakfast-pics-1024x576.jpg
p2374
g3
(g4
g5
(g6
(S'\x07\xe0\x04\x03\x08\x02 \x01\xfd{'
tRp2375
I-1
I1
ttRp2376
sVhttp://quotespics.net/wp-content/uploads/2016/05/Beautiful-Good-Morning-Roses-2016.jpg
p2377
g3
(g4
g5
(g6
(S'\x07\xe0\t\x1c\t!\x14\x00\xf5\xce'
tRp2378
I-1
I1
ttRp2379
sVhttp://www.greetingsfromheart.com/images/good_morning/good-morning-9.jpg
p2380
g3
(g4
g5
(g6
(S'\x07\xdf\x0b\x10\x08\x03\x1a\x07\x85\xb3'
tRp2381
S'68'
p2382
I1
ttRp2383
sVhttp://photozup.com/wp-content/uploads/2015/09/Good-Morning-Images-For-My-Sister.jpg
p2384
g3
(g4
g5
(g6
(S'\x07\xe0\x01\x1b\x08\x1a\x06\x07\xc0\xbf'
tRp2385
I-1
I1
ttRp2386
sVhttp://quotesideas.com/wp-content/uploads/2015/07/good-morning-love-wallpaper-for-him-3.jpg
p2387
g3
(g4
g5
(g6
(S'\x07\xe0\t\x16\t 6\x04\x99y'
tRp2388
I-1
I1
ttRp2389
sVhttp://previews.123rf.com/images/anyaberkut/anyaberkut1306/anyaberkut130600058/20489334-good-morning-breakfast-in-cafe-Stock-Photo.jpg
p2390
g3
(g4
g5
(g6
(S'\x07\xe0\x06\x17\t7\x08\x068\xd0'
tRp2391
S'495'
p2392
I1
ttRp2393
sVhttp://greetings-day.com/wp-content/uploads/2015/11/good-morning-everyone.jpg
p2394
g3
(g4
g5
(g6
(S'\x07\xe0\x04\x11\t95\x06\x8e\xfa'
tRp2395
I-1
I1
ttRp2396
sVhttp://azdailytrends.com/wp-content/uploads/2015/09/Cute-Good-Morning-Pictures-7.jpg
p2397
g3
(g4
g5
(g6
(S'\x07\xe0\x04\x03\x08\x02 \x01\xfd5'
tRp2398
S'369'
p2399
I1
ttRp2400
sVhttp://www.lovethispic.com/uploaded_images/232138-Good-Morning-Have-A-Beautiful-Day.jpg
p2401
g3
(g4
g5
(g6
(S'\x07\xe0\x02\x04\x0837\x0e\xd4\\'
tRp2402
S'258'
p2403
I1
ttRp2404
sVhttp://rawpl.com/wp-content/uploads/2015/11/good-morning-quotes-for-good-morning-quotes-collections-2015-37.jpg
p2405
g3
(g4
g5
(g6
(S'\x07\xdf\x0c\x1c\x08\x03+\x02\xb2d'
tRp2406
I-1
I1
ttRp2407
sVhttp://cache.lovethispic.com/uploaded_images/239047-Good-Morning-Friends-Families.jpg
p2408
g3
(g4
g5
(g6
(S'\x07\xe0\x03\x04\t3;\x03\xfe\xaf'
tRp2409
S'366'
p2410
I1
ttRp2411
sVhttp://love.catchsmile.com/wp-content/uploads/2013/10/Good-Morning-158.jpg
p2412
g3
(g4
g5
(g6
(S'\x07\xdf\x0c\x1c\x08\x03+\x02\xb2|'
tRp2413
S'180'
p2414
I1
ttRp2415
sVhttp://memesvault.com/wp-content/uploads/Good-Morning-Images-20.jpg
p2416
g3
(g4
g5
(g6
(S'\x07\xe0\t\x1c\t!\x14\x00\xf6W'
tRp2417
S'604'
p2418
I1
ttRp2419
sVhttp://www.imagesschool.com/wp-content/uploads/2015/12/Good-Morning-Inspirational-Quotes-With-Pictures-4.jpg
p2420
g3
(g4
g5
(g6
(S'\x07\xe0\x01\x05\x08\x050\x06/9'
tRp2421
I-1
I1
ttRp2422
sVhttp://www.greetingsfromheart.com/good-morning/good-morning-with-cute-dog.jpg
p2423
g3
(g4
g5
(g6
(S'\x07\xe0\x07\x0f\t#\x16\x08\t2'
tRp2424
S'470'
p2425
I1
ttRp2426
sVhttp://www.lovethispic.com/uploaded_images/205589-Good-Morning-Handsome.jpg
p2427
g3
(g4
g5
(g6
(S'\x07\xe0\x02\x04\x0837\x0e\xd4\x0c'
tRp2428
S'264'
p2429
I1
ttRp2430
sVhttp://www.lovethispic.com/uploaded_images/132724-Good-Morning-Have-A-Beautiful-Thursday.jpg?1
p2431
g3
(g4
g5
(g6
(S'\x07\xe0\x05\x08\x08\x00\x0b\x05\xe9c'
tRp2432
S'321'
p2433
I1
ttRp2434
sVhttp://4.bp.blogspot.com/-M6OQ45XeVis/VkgVRQZl7AI/AAAAAAAAAHs/7t-QDM5GZe0/s1600/ngaynaytuvi12cunghoangdaongay2042015.jpg
p2435
g3
(g4
g5
(g6
(S'\x07\xe0\x01\x1b\x08\x1a\x06\x07\xc1\x96'
tRp2436
S'197'
p2437
I1
ttRp2438
sVhttp://hdwallpapersrocks.com/wp-content/uploads/2013/09/Good-morning-hot-tea-in-winter.jpg
p2439
g3
(g4
g5
(g6
(S'\x07\xe0\x08\x0f\x08\x003\x08\xee\xec'
tRp2440
S'326'
p2441
I1
ttRp2442
sVhttp://www.desicomments.com/dc3/09/297021/297021.jpg
p2443
g3
(g4
g5
(g6
(S'\x07\xe0\t\x12\t *\x0b7;'
tRp2444
S'231'
p2445
I1
ttRp2446
sVhttp://imagedunia.com/wp-content/uploads/2014/10/Nice-good-morning-friends.jpg
p2447
g3
(g4
g5
(g6
(S'\x07\xdf\x0c\x14\x08\x022\x03\xdb"'
tRp2448
S'145'
p2449
I1
ttRp2450
sVhttp://2.bp.blogspot.com/-JLcI4spclZI/UwXAUVCZZLI/AAAAAAAAGr4/MXu9ougyStY/s1600/Good-Morning-tea-with-wishes-images.jpg
p2451
g3
(g4
g5
(g6
(S'\x07\xe0\x01\x0b\x08\x08\n\tU\x91'
tRp2452
S'201'
p2453
I1
ttRp2454
sVhttp://kurld.com/images/wallpapers/good-morning-wallpaper/good-morning-wallpaper-10.jpg
p2455
g3
(g4
g5
(g6
(S'\x07\xe0\n\x07\x08\x02"\x0e\xaa\x18'
tRp2456
S'665'
p2457
I1
ttRp2458
sVhttps://s-media-cache-ak0.pinimg.com/originals/a6/0b/c9/a60bc990eb3a5d563a684d11e78dea9d.jpg
p2459
g3
(g4
g5
(g6
(S'\x07\xe0\n\x07\x08\x02"\x0e\xaa3'
tRp2460
S'633'
p2461
I1
ttRp2462
sVhttp://media1.santabanta.com/full1/Miscellaneous/Good%20Morning/good-morning-49a.jpg
p2463
g3
(g4
g5
(g6
(S'\x07\xe0\x06\x1d\t1)\x07;/'
tRp2464
S'12'
p2465
I1
ttRp2466
sVhttp://www.lovethispic.com/uploaded_images/179757-Good-Morning-Love.jpg
p2467
g3
(g4
g5
(g6
(S'\x07\xe0\n\x04\t7;\x0e\x99\xa3'
tRp2468
S'37'
p2469
I1
ttRp2470
sVhttp://media1.popsugar-assets.com/files/2015/06/04/764/n/1922398/178362c0_POPSUGAR_03.27.15_ProductVignette_033_edit.xxxlarge_2x.jpg
p2471
g3
(g4
g5
(g6
(S'\x07\xe0\x03\x02\t/\x07\x05\x7f\x01'
tRp2472
S'532'
p2473
I1
ttRp2474
sVhttp://www.goodmorning.quotesms.com/images/good-morning-beautiful-quotes.jpg
p2475
g3
(g4
g5
(g6
(S'\x07\xe0\n\x07\x08\x02"\x0e\xaaj'
tRp2476
S'415'
p2477
I1
ttRp2478
sVhttp://www.lyfaces.com/wallpaper/good/good-morning-wallpapers-images-good-morning-wallpaper-wallpapers-sites-for-mobile-facebook-iphone-pc-download-pictures-with-quotes-apps.jpg
p2479
g3
(g4
g5
(g6
(S'\x07\xdf\x0c\x10\x08\x00\x1f\x01\xbf\xad'
tRp2480
I-1
I1
ttRp2481
sVhttp://www.punjabigraphics.com/images/126/Wooden-Heart-Good-Morning-Picture.jpg
p2482
g3
(g4
g5
(g6
(S'\x07\xdf\x0c\x18\x08\x03\t\x04c\x1e'
tRp2483
S'174'
p2484
I1
ttRp2485
sVhttp://www.lovethispic.com/uploaded_images/239041-Hello-Friends-Good-Morning.jpg
p2486
g3
(g4
g5
(g6
(S'\x07\xe0\x03\x07\x08\x00 \x07o\xd1'
tRp2487
S'340'
p2488
I1
ttRp2489
sVhttp://phoozer.net/wp-content/uploads/2016/02/lovely-good-morning-wallpaper-1.jpg
p2490
g3
(g4
g5
(g6
(S'\x07\xe0\x08\x0f\x08\x003\x08\xefM'
tRp2491
S'509'
p2492
I1
ttRp2493
sVhttp://www.yourwhatsappstatus.com/wp-content/uploads/2016/07/1874227-1280x1024-sy_65650017975.jpg
p2494
g3
(g4
g5
(g6
(S'\x07\xe0\n\x04\t7;\x0e\x99\xcb'
tRp2495
I-1
I1
ttRp2496
sVhttps://s-media-cache-ak0.pinimg.com/736x/5a/63/9f/5a639ff1b113a9ff66f9880146eb1a89.jpg
p2497
g3
(g4
g5
(g6
(S'\x07\xe0\x04\x03\x08\x02 \x01\xfd,'
tRp2498
S'375'
p2499
I1
ttRp2500
sVhttp://goodmorningpics.com/wp-content/uploads/2016/03/Good-morning-love.jpg
p2501
g3
(g4
g5
(g6
(S'\x07\xe0\t\x12\t *\x0b7\x00'
tRp2502
S'601'
p2503
I1
ttRp2504
sVhttp://alldayquotes.com/wp-content/uploads/2016/05/Free-Good-Morning-Images-For-Wife.jpg
p2505
g3
(g4
g5
(g6
(S'\x07\xe0\x07\x0f\t#\x16\x08\tn'
tRp2506
S'595'
p2507
I1
ttRp2508
sVhttp://www.thefreshquotes.com/wp-content/uploads/2015/07/Good-Morning-Beautiful.jpg
p2509
g3
(g4
g5
(g6
(S'\x07\xe0\n\x04\t7;\x0e\x99\xdb'
tRp2510
S'228'
p2511
I1
ttRp2512
sVhttp://weneedfun.com/wp-content/uploads/2016/09/Good-Morning-Wallpapers-172.jpg
p2513
g3
(g4
g5
(g6
(S'\x07\xe0\t\x1c\t!\x14\x00\xf7\xec'
tRp2514
S'631'
p2515
I1
ttRp2516
sVhttp://www.allbesttricks.com/wp-content/uploads/2016/01/good-morning-image-3.jpg
p2517
g3
(g4
g5
(g6
(S'\x07\xe0\x03\x02\t/\x07\x05~\xd8'
tRp2518
I-1
I1
ttRp2519
sVhttp://www.lovethispic.com/uploaded_images/235701-Good-Morning-Smile-It-Changed-Everything.jpg
p2520
g3
(g4
g5
(g6
(S'\x07\xe0\x05\x1b\t.\x00\x02\xe0('
tRp2521
S'453'
p2522
I1
ttRp2523
sVhttps://well2day.files.wordpress.com/2015/05/good-morning.png
p2524
g3
(g4
g5
(g6
(S'\x07\xe0\x02\x12\t\x02#\x06p\x13'
tRp2525
S'312'
p2526
I1
ttRp2527
sVhttp://www.freshmorningquotes.com/wp-content/uploads/2015/07/Beautiful-Good-Morning-Have-a-Nice-Day-Wallpapers-HD-Images-11.jpg
p2528
g3
(g4
g5
(g6
(S'\x07\xe0\x08\x1c\x08\x01\x14\n\xa3k'
tRp2529
I-1
I1
ttRp2530
sVhttp://media1.santabanta.com/full1/Miscellaneous/Good%20Morning/good-morning-18a.jpg
p2531
g3
(g4
g5
(g6
(S'\x07\xe0\x01\x1b\x08\x1a\x06\x07\xc1\xe8'
tRp2532
S'55'
p2533
I1
ttRp2534
sVhttp://www.desktopbackgroundsi.net/wp-content/uploads/Good-Morning-6.jpg
p2535
g3
(g4
g5
(g6
(S'\x07\xdf\x0b\x10\x08\x03\x1a\x07\x85\xe2'
tRp2536
S'73'
p2537
I1
ttRp2538
sVhttp://www.newhdwallpapers.in/wp-content/uploads/2013/01/Good-Morning-Wishes.jpg
p2539
g3
(g4
g5
(g6
(S'\x07\xe0\x08\x17\t9\x17\x02\xfb#'
tRp2540
S'512'
p2541
I1
ttRp2542
sVhttp://www.goodmorningimagesquotes.com/wp-content/uploads/2015/11/good-morning-pictures-14.jpg
p2543
g3
(g4
g5
(g6
(S'\x07\xdf\x0b\x17\x08\x03+\x08\xcd\xea'
tRp2544
I-1
I1
ttRp2545
sVhttp://www.lovethispic.com/uploaded_images/121234-Good-Morning-Dropping-Off-Some-Sunshine.gif
p2546
g3
(g4
g5
(g6
(S'\x07\xdf\n\x1f\x08\x01\x1e\x0b\x0e{'
tRp2547
S'42'
p2548
I1
ttRp2549
sVhttp://phoozer.net/wp-content/uploads/2015/03/good-morning-pics-for-whatsapp.jpg
p2550
g3
(g4
g5
(g6
(S'\x07\xe0\x05\x15\x08\x01\x1e\x05\xde\xe7'
tRp2551
S'420'
p2552
I1
ttRp2553
sVhttp://www.w3mirchi.com/images/picture/17049-good-morning-baby-image.jpg
p2554
g3
(g4
g5
(g6
(S'\x07\xe0\t\x07\x08\x05\x15\x04d\xbf'
tRp2555
S'581'
p2556
I2
ttRp2557
sVhttp://kurld.com/images/wallpapers/good-morning-wallpapers/good-morning-wallpapers-15.jpg
p2558
g3
(g4
g5
(g6
(S'\x07\xe0\t\x16\t 6\x04\x97\xd6'
tRp2559
S'621'
p2560
I1
ttRp2561
sVhttp://geniusquotes.org/wp-content/uploads/2014/01/Good-morning-funny-wallpaper.jpg
p2562
g3
(g4
g5
(g6
(S'\x07\xdf\x0c\x18\x08\x03\t\x04cf'
tRp2563
I-1
I1
ttRp2564
sVhttp://top10wala.in/wp-content/uploads/2016/03/Good-Morning-Best-Greetings-456.jpg
p2565
g3
(g4
g5
(g6
(S'\x07\xe0\t\x12\t *\x0b6\x18'
tRp2566
S'473'
p2567
I1
ttRp2568
sVhttp://www.ecards4ever.com/uploads/GoodMorning_Lg66.jpg
p2569
g3
(g4
g5
(g6
(S'\x07\xe0\x03\x07\x08\x00 \x07n\xf2'
tRp2570
S'7'
I1
ttRp2571
sVhttp://www.goodmorningimagesgreetings.com/wp-content/uploads/2015/08/Good-Morning-Full-HD-Photos-272.jpg
p2572
g3
(g4
g5
(g6
(S'\x07\xdf\x0b\x1b\x08\x00\t\x03\xb5\xdb'
tRp2573
S'75'
p2574
I1
ttRp2575
sVhttp://i0.wp.com/3.bp.blogspot.com/-eZh5RPs9cn0/VXHRoJRMhgI/AAAAAAAAdMU/taQnEsY-rBQ/s1600/Good%2BMorning%2BBest%2BGreetings%2B-%2B456.jpg?w=150&h=150
p2576
g3
(g4
g5
(g6
(S'\x07\xe0\x06\x17\t7\x08\x067\xef'
tRp2577
S'552'
p2578
I1
ttRp2579
sVhttp://phoozer.net/wp-content/uploads/2016/02/beautiful-good-morning-wallpapers-1.jpg
p2580
g3
(g4
g5
(g6
(S'\x07\xe0\t\x12\t *\x0b6\xaf'
tRp2581
S'452'
p2582
I1
ttRp2583
sVhttp://www.goodmorningx.com/wp-content/uploads/2015/09/good-Morning-wallpapers.jpg
p2584
g3
(g4
g5
(g6
(S'\x07\xe0\x08\x17\t9\x17\x02\xfa\xf7'
tRp2585
S'498'
p2586
I1
ttRp2587
sVhttp://www.searchyourchoice.com/wp-content/uploads/2016/01/good-morning.jpg
p2588
g3
(g4
g5
(g6
(S'\x07\xe0\x08\x0f\x08\x003\x08\xee\xfa'
tRp2589
S'332'
p2590
I1
ttRp2591
sVhttp://www.imagefully.com/wp-content/uploads/2015/06/Nice-Animated-Graphic-Rose-Good-Morning-Wishes.jpg
p2592
g3
(g4
g5
(g6
(S'\x07\xdf\x0c\x14\x08\x022\x03\xda\xc4'
tRp2593
S'146'
p2594
I1
ttRp2595
sVhttps://s-media-cache-ak0.pinimg.com/originals/db/88/16/db88160fb237f6656601e99a80bcaab5.gif
p2596
g3
(g4
g5
(g6
(S'\x07\xdf\n\x1e\x08\x01\x18\x0c\xc1\x9d'
tRp2597
S'45'
p2598
I1
ttRp2599
sVhttp://www.lovethispic.com/uploaded_images/212206-Good-Morning-Friends-And-Family-Have-A-Good-Day.jpg
p2600
g3
(g4
g5
(g6
(S'\x07\xdf\x0c\x1c\x08\x03+\x02\xb2\x06'
tRp2601
I-1
I1
ttRp2602
sVhttps://upload.wikimedia.org/wikipedia/en/thumb/2/20/Good_Morning_Britain_logo.svg/1034px-Good_Morning_Britain_logo.svg.png
p2603
g3
(g4
g5
(g6
(S'\x07\xe0\x06\x1d\t1)\x07:\xd5'
tRp2604
S'98'
p2605
I1
ttRp2606
sVhttp://phoozer.net/wp-content/uploads/2016/02/good-morning-wallpaper-1.jpg
p2607
g3
(g4
g5
(g6
(S'\x07\xe0\x06\x1d\t1)\x07;}'
tRp2608
S'497'
p2609
I1
ttRp2610
sVhttp://goodmorningpics.lhxkadakp48l9kw4.netdna-cdn.com/wp-content/uploads/2016/05/coffee-and-flowers-good-morning-wallpaper.jpg
p2611
g3
(g4
g5
(g6
(S'\x07\xe0\n\x07\x08\x02"\x0e\xa9>'
tRp2612
S'644'
p2613
I1
ttRp2614
sVhttp://good-morning.hothungama.com/wp-content/uploads/2014/08/Good-Morning-Images.jpg
p2615
g3
(g4
g5
(g6
(S'\x07\xe0\x06\x1d\t1)\x07:\xe9'
tRp2616
S'457'
p2617
I1
ttRp2618
sVhttp://www.freelargeimages.com/wp-content/uploads/2015/11/Good_Morning_14.jpg
p2619
g3
(g4
g5
(g6
(S'\x07\xe0\x04\x18\x08\x00\x0f\rC\x9b'
tRp2620
S'213'
p2621
I1
ttRp2622
sVhttp://1.bp.blogspot.com/-bnjHmfolx4o/VQvq1HeSd7I/AAAAAAAAQEg/5liB9-18tFE/s1600/Good_Morning_Quotes_12.jpg
p2623
g3
(g4
g5
(g6
(S'\x07\xe0\x04\x03\x08\x02 \x01\xfd\xca'
tRp2624
S'320'
p2625
I1
ttRp2626
sVhttp://love.catchsmile.com/wp-content/uploads/2016/06/A-Very-Good-Morning.jpg
p2627
g3
(g4
g5
(g6
(S'\x07\xe0\t\x07\x08\x05\x15\x04d\x81'
tRp2628
S'571'
p2629
I1
ttRp2630
sVhttp://4.bp.blogspot.com/-sxGsA5PIZj0/VnVr8iKW8PI/AAAAAAAAQrU/_OoW8p-GkRo/s1600/Good%2Bmorning%2Bsms%2Bshayri%2B2016%2B%25286%2529.jpg
p2631
g3
(g4
g5
(g6
(S'\x07\xe0\t\x0c\t $\x02\xf2\xc3'
tRp2632
S'603'
p2633
I1
ttRp2634
sVhttp://www.hdwallpr.com/wp-content/uploads/2015/08/good-morning-message-bLvV.jpg
p2635
g3
(g4
g5
(g6
(S'\x07\xdf\x0b\x08\x08\x01*\x0ch_'
tRp2636
S'53'
p2637
I1
ttRp2638
sVhttp://www.goodmorningx.com/wp-content/uploads/2015/09/good-morning-pictures.jpg
p2639
g3
(g4
g5
(g6
(S'\x07\xe0\n\x07\x08\x02"\x0e\xa9u'
tRp2640
S'563'
p2641
I1
ttRp2642
sVhttp://www.lovethispic.com/uploaded_images/222194-Good-Morning-God-Has-Given-You-Another-Day.jpg
p2643
g3
(g4
g5
(g6
(S'\x07\xe0\x02\x04\x0837\x0e\xd4B'
tRp2644
S'261'
p2645
I1
ttRp2646
sVhttp://7-themes.com/data_images/out/55/6960034-good-morning-assassins-failed.jpg
p2647
g3
(g4
g5
(g6
(S'\x07\xdf\x0c\x12\x08\x01\x1d\x08\xdf\x80'
tRp2648
S'112'
p2649
I1
ttRp2650
sVhttp://www.birthdaywishes.expert/wp-content/uploads/2016/01/Good-Morning-1-2.jpg
p2651
g3
(g4
g5
(g6
(S'\x07\xe0\x05\x15\x08\x01\x1e\x05\xdeZ'
tRp2652
I-1
I1
ttRp2653
sVhttp://smszoo.com/wp-content/uploads/2015/04/lovely-good-morning-pictures-sms.jpg
p2654
g3
(g4
g5
(g6
(S'\x07\xe0\x02\x06\x085\x17\t\xfd\x95'
tRp2655
S'175'
p2656
I1
ttRp2657
sVhttp://www.lovethispic.com/uploaded_images/232145-Good-Morning-I-Wish-I-Could-Fly-Away-Until-Monday-Goes-Away.jpg
p2658
g3
(g4
g5
(g6
(S'\x07\xe0\x02\x06\x085\x17\t\xfd\xa0'
tRp2659
S'259'
p2660
I1
ttRp2661
sVhttp://wallpaperspicturesphotos.com/wp-content/uploads/2015/01/goodmorning-love.jpg
p2662
g3
(g4
g5
(g6
(S'\x07\xe0\x04\x03\x08\x02 \x01\xfdC'
tRp2663
S'132'
p2664
I1
ttRp2665
sVhttp://3.bp.blogspot.com/-VvkVnxyCCs4/UmqoC3gL3OI/AAAAAAAAB3s/N67FCOtNGhA/s1600/Good+Morning+SMS+For+Friend+Quotes+(3).jpg
p2666
g3
(g4
g5
(g6
(S'\x07\xe0\x06\x1d\t1)\x07; '
tRp2667
S'544'
p2668
I1
ttRp2669
sVhttp://media1.santabanta.com/full1/Miscellaneous/Good%20Morning/good-morning-58a.jpg
p2670
g3
(g4
g5
(g6
(S'\x07\xe0\n\x04\t7;\x0e\x99d'
tRp2671
S'593'
p2672
I1
ttRp2673
sVhttp://phoozer.com/wp-content/uploads/2015/04/good-morning-images-for-whatsapp-free-download.png
p2674
g3
(g4
g5
(g6
(S'\x07\xe0\x02\x06\x085\x17\t\xfd\xca'
tRp2675
I-1
I1
ttRp2676
sVhttp://www.goodmorningx.com/wp-content/uploads/2015/04/Good-Morning-Beautiful-wishes-sunrise-images.jpg
p2677
g3
(g4
g5
(g6
(S'\x07\xe0\x01\x1b\x08\x1a\x06\x07\xc2M'
tRp2678
S'237'
p2679
I1
ttRp2680
sVhttp://i.123g.us/c/gen_morning/card/308942.jpg
p2681
g3
(g4
g5
(g6
(S'\x07\xdf\x0c\x1e\x08\x03:\x04\x99\xa0'
tRp2682
S'178'
p2683
I1
ttRp2684
sVhttp://hdfreewallpaper.net/wp-content/uploads/2015/08/good-morning-best-greeting-free-hd-wallpapers.jpg
p2685
g3
(g4
g5
(g6
(S'\x07\xe0\x08\x0f\x08\x003\x08\xee\xf5'
tRp2686
I-1
I1
ttRp2687
sVhttp://www.punjabigraphics.com/images/126/Good-Morning-You-Have-To-Get-Up-Every-Morning-And-Tell-Yourself-I-Can-Do-This.jpg
p2688
g3
(g4
g5
(g6
(S'\x07\xdf\x0c\x1c\x08\x03+\x02\xb2\xa4'
tRp2689
S'176'
p2690
I1
ttRp2691
sVhttp://www.superhdfx.com/wp-content/uploads/2016/05/Good-Morning-Dear-Greetings.jpg
p2692
g3
(g4
g5
(g6
(S'\x07\xe0\x08\x0f\x08\x003\x08\xef\x0c'
tRp2693
S'564'
p2694
I1
ttRp2695
sVhttp://www.hdwalls.in/wp-content/uploads/2015/07/hd-wallpaper-good-morning-1.jpg
p2696
g3
(g4
g5
(g6
(S'\x07\xdf\x0c\x18\x08\x03\t\x04c\t'
tRp2697
S'170'
p2698
I1
ttRp2699
sVhttps://s-media-cache-ak0.pinimg.com/736x/28/17/f7/2817f7d3d6be81a9d1e4a50545720e00.jpg
p2700
g3
(g4
g5
(g6
(S'\x07\xe0\x05\x1b\t.\x00\x02\xe0S'
tRp2701
S'421'
p2702
I1
ttRp2703
sVhttp://img.wallpaperfolder.com/f/5E73FEC29C66/good-morning-coffee-com.jpg
p2704
g3
(g4
g5
(g6
(S'\x07\xe0\t\x12\t *\x0b6\xde'
tRp2705
S'614'
p2706
I1
ttRp2707
sVhttp://www.whatsapp99.com/wp-content/uploads/2016/05/17265102-Good-morning-sun-Stock-Vector.jpg
p2708
g3
(g4
g5
(g6
(S'\x07\xe0\x08\x1c\x08\x01\x14\n\xa2\xf1'
tRp2709
S'586'
p2710
I1
ttRp2711
sVhttp://www.wallpapersandbackground.com/images/good-morning-coffee-beans-cup-wallpapers-and-backgrounds.jpg
p2712
g3
(g4
g5
(g6
(S'\x07\xe0\x08\x0f\x08\x003\x08\xee\x89'
tRp2713
S'507'
p2714
I1
ttRp2715
sVhttp://www.allpriceweb.com/wp-content/uploads/2016/03/good-morning-25.jpg
p2716
g3
(g4
g5
(g6
(S'\x07\xe0\x08\x0f\x08\x003\x08\xef$'
tRp2717
S'506'
p2718
I1
ttRp2719
sVhttps://newquotesms.files.wordpress.com/2015/09/good-morning-my-love.jpg
p2720
g3
(g4
g5
(g6
(S'\x07\xe0\n\x07\x08\x02"\x0e\xa9\x88'
tRp2721
S'654'
p2722
I1
ttRp2723
sVhttp://www.imgnaly.com/wp-content/uploads/2015/10/My-Sunrise-Is-Where-I-See-Smile-On-Your-Face-Good-Morning-A97.jpg
p2724
g3
(g4
g5
(g6
(S'\x07\xe0\x08\x05\x08\x025\x01\x1f\xaa'
tRp2725
S'546'
p2726
I1
ttRp2727
sVhttp://wallpapersfr.com/wp-content/uploads/2016/09/good-morning-with-heart.jpg
p2728
g3
(g4
g5
(g6
(S'\x07\xe0\t\x1c\t!\x14\x00\xf7\xda'
tRp2729
S'615'
p2730
I1
ttRp2731
sVhttp://www.lovethispic.com/uploaded_images/211065-Good-Morning-Friends-Have-A-Good-Saturday.jpg
p2732
g3
(g4
g5
(g6
(S'\x07\xe0\x05\x1b\t.\x00\x02\xe0\x13'
tRp2733
I-1
I1
ttRp2734
sVhttp://phoozer.net/wp-content/uploads/2016/02/wallpaper-of-good-morning.jpg
p2735
g3
(g4
g5
(g6
(S'\x07\xe0\t\x12\t *\x0b7e'
tRp2736
S'488'
p2737
I2
ttRp2738
sVhttp://www.freelargeimages.com/wp-content/uploads/2015/11/Good_Morning_09.jpg
p2739
g3
(g4
g5
(g6
(S'\x07\xe0\t\x1c\t!\x14\x00\xf8,'
tRp2740
S'382'
p2741
I1
ttRp2742
sVhttps://messageshub.com/wp-content/uploads/2016/07/Happy-good-maorning-messages.jpg
p2743
g3
(g4
g5
(g6
(S'\x07\xe0\t\x07\x08\x05\x15\x04d\x1b'
tRp2744
I-1
I1
ttRp2745
sVhttp://e2ua.com/data/wallpapers/62/WDF_1080490.jpg
p2746
g3
(g4
g5
(g6
(S'\x07\xe0\x04\x11\t95\x06\x8f\xa1'
tRp2747
I-1
I1
ttRp2748
sVhttp://www.hdwallpaperspicture.net/wp-content/uploads/2015/10/good-morning-desktop-wallpaper.jpg
p2749
g3
(g4
g5
(g6
(S'\x07\xe0\x03\x02\t/\x07\x05~\xb0'
tRp2750
I-1
I1
ttRp2751
sVhttp://www.desicomments.com/user/2008/03/7730/goodmorning-520x411.jpg
p2752
g3
(g4
g5
(g6
(S'\x07\xdf\x0c\x1e\x08\x03:\x04\x99\x9d'
tRp2753
S'185'
p2754
I1
ttRp2755
sVhttp://www.goodmorningx.com/wp-content/uploads/2015/07/good-morning-girlfriend.jpg
p2756
g3
(g4
g5
(g6
(S'\x07\xe0\x03\x07\x08\x00 \x07o?'
tRp2757
S'272'
p2758
I1
ttRp2759
sVhttp://thumbs.dreamstime.com/z/good-morning-message-tablet-computer-screen-office-table-49408226.jpg
p2760
g3
(g4
g5
(g6
(S'\x07\xe0\x06\x17\t7\x08\x067o'
tRp2761
S'334'
p2762
I1
ttRp2763
sVhttp://www.dreamyquotes.com/wp-content/uploads/2016/03/lovely-good-morning-quotes.jpg
p2764
g3
(g4
g5
(g6
(S'\x07\xe0\x06\x1d\t1)\x07:\xe4'
tRp2765
I-1
I1
ttRp2766
sVhttp://www.freelargeimages.com/wp-content/uploads/2015/11/Good_Morning_08.jpg
p2767
g3
(g4
g5
(g6
(S'\x07\xe0\x04\r\t9\n\nN-'
tRp2768
S'131'
p2769
I1
ttRp2770
sVhttp://www.wishgoodmorning.org/wp-content/uploads/2016/03/Khushi-Ka-Har-Pal-Ho-Tumhara-Good-Morning-wg017152.jpg
p2771
g3
(g4
g5
(g6
(S'\x07\xe0\x05\x15\x08\x01\x1e\x05\xde\x02'
tRp2772
S'405'
p2773
I1
ttRp2774
sVhttp://phoozer.org/wp-content/uploads/2015/08/best-good-morning-quote.jpg
p2775
g3
(g4
g5
(g6
(S'\x07\xe0\x03\x07\x08\x00 \x07o\x07'
tRp2776
I-1
I1
ttRp2777
sVhttp://quotesideas.com/wp-content/uploads/2015/03/Good-Morning-With-Sunlight-Wishes-With-Quotes.jpg
p2778
g3
(g4
g5
(g6
(S'\x07\xdf\x0c\x14\x08\x022\x03\xdb9'
tRp2779
I-1
I1
ttRp2780
sVhttp://img1.sendscraps.com/se/008/073.jpg
p2781
g3
(g4
g5
(g6
(S'\x07\xe0\n\x04\t7;\x0e\x994'
tRp2782
S'24'
p2783
I1
ttRp2784
sVhttp://whatsappmessages.net/wp-content/uploads/2015/06/177846-Good-Morning-Lord.jpg
p2785
g3
(g4
g5
(g6
(S'\x07\xe0\x01\x05\x08\x050\x06/E'
tRp2786
I-1
I1
ttRp2787
sVhttp://www.goodmorningquoteswishes.com/wp-content/uploads/2015/06/Good-Morning-Hindi-Quotes-Messages-Images-Wallpapers-Photos.jpg
p2788
g3
(g4
g5
(g6
(S'\x07\xe0\x07\x1b\t6/\x0c\x8e\x8a'
tRp2789
S'277'
p2790
I1
ttRp2791
sVhttp://www.happyholidaysimages.com/wp-content/uploads/2016/04/Cute-images-to-say-good-morning-to-share.jpg
p2792
g3
(g4
g5
(g6
(S'\x07\xe0\x05\x15\x08\x01\x1e\x05\xde-'
tRp2793
I-1
I1
ttRp2794
sVhttp://www.goodmorningquoteswishes.com/wp-content/uploads/2014/11/Good-Morning-Spiritual-Quotes-Images-Wallpapers-Photos-Pictures-Download.jpg
p2795
g3
(g4
g5
(g6
(S'\x07\xe0\x04\x03\x08\x02 \x01\xfd\x05'
tRp2796
S'299'
p2797
I1
ttRp2798
sVhttp://www.whatsappdpstatus.com/wp-content/uploads/2015/10/Inspirational-Good-Morning-Quotes-with-Nature-Images-12.jpg
p2799
g3
(g4
g5
(g6
(S'\x07\xdf\x0b\x0c\x08\x018\x0e\xbct'
tRp2800
I-1
I1
ttRp2801
sVhttps://s-media-cache-ak0.pinimg.com/736x/dd/5f/bd/dd5fbdce21ad3d2e54e373fcf35a1b45.jpg
p2802
g3
(g4
g5
(g6
(S'\x07\xe0\x05\x1b\t.\x00\x02\xdf\x06'
tRp2803
S'410'
p2804
I1
ttRp2805
sVhttp://goodmorningwishesquotes.com/wp-content/uploads/2015/06/Good-Morning-Wishing-You-Lovely-Day-Images-Wallpapers-Photos-Pictures-Download.jpg
p2806
g3
(g4
g5
(g6
(S'\x07\xdf\x0b\x1b\x08\x00\t\x03\xb5\xa0'
tRp2807
S'1'
I1
ttRp2808
sVhttps://cdn1.vox-cdn.com/thumbor/G2dkLpSaAIsDAUWYVmeE7A6xysQ=/0x28:800x561/730x487/cdn0.vox-cdn.com/uploads/chorus_image/image/46516372/gmib.0.png
p2809
g3
(g4
g5
(g6
(S'\x07\xdf\x0b\x17\x08\x03+\x08\xcd\x00'
tRp2810
S'93'
p2811
I1
ttRp2812
sVhttp://www.mofasalkhabar.com/wp-content/uploads/2016/01/good-morning-and-sun-set-hd-wallpapers.jpg
p2813
g3
(g4
g5
(g6
(S'\x07\xe0\x01\x1b\x08\x1a\x06\x07\xc0\t'
tRp2814
I-1
I1
ttRp2815
sVhttp://e2ua.com/data/wallpapers/57/WDF_1034101.jpg
p2816
g3
(g4
g5
(g6
(S'\x07\xe0\x05\x15\x08\x01\x1e\x05\xdd\xed'
tRp2817
I-1
I1
ttRp2818
sVhttps://urbanimagemagazine.com/wp-content/uploads/2015/07/Good-Morning-726.jpg
p2819
g3
(g4
g5
(g6
(S'\x07\xdf\n\x1f\x08\x01\x1e\x0b\r2'
tRp2820
S'36'
p2821
I1
ttRp2822
sVhttp://4.bp.blogspot.com/-41StSmE4IDM/VlLWFJLsMmI/AAAAAAAADDQ/kQ9gPJ5Jv4I/s1600/good%2Bmorning%2B%25282%2529.jpg
p2823
g3
(g4
g5
(g6
(S'\x07\xe0\x02\x04\x0837\x0e\xd4?'
tRp2824
S'260'
p2825
I2
ttRp2826
sVhttp://quotesideas.com/wp-content/uploads/2015/03/Good-Morning-Wallpapers6.jpg
p2827
g3
(g4
g5
(g6
(S'\x07\xe0\x06\x17\t7\x08\x069\x0c'
tRp2828
I-1
I1
ttRp2829
sVhttp://www.thefreshquotes.com/wp-content/uploads/2015/07/Good-Morning-Hottie.jpg
p2830
g3
(g4
g5
(g6
(S'\x07\xe0\n\x04\t7;\x0e\x99Q'
tRp2831
S'241'
p2832
I1
ttRp2833
sVhttp://www.imagesgreetings.com/wp-content/uploads/2015/09/Good-Morning-Tea-Wallpaper-11.jpg
p2834
g3
(g4
g5
(g6
(S'\x07\xdf\x0c\x12\x08\x01\x1d\x08\xdf9'
tRp2835
S'9'
I1
ttRp2836
sVhttp://www.quoteslike.com/images/1348/cute-good-morning-poem-best-morning-poems-for-friends-images-sKzDJ4-quote.jpg
p2837
g3
(g4
g5
(g6
(S'\x07\xe0\x07\x0f\t#\x16\x08\t('
tRp2838
I-1
I1
ttRp2839
sVhttp://cache.lovethispic.com/uploaded_images/190467-Good-Morning-Keep-Smiling.jpg
p2840
g3
(g4
g5
(g6
(S'\x07\xe0\t\x1c\t!\x14\x00\xf6A'
tRp2841
S'630'
p2842
I1
ttRp2843
sVhttp://e2ua.com/data/wallpapers/60/WDF_1058063.jpg
p2844
g3
(g4
g5
(g6
(S'\x07\xe0\x04\x0b\x08\x03\x1d\x0cV\xcb'
tRp2845
I-1
I1
ttRp2846
sVhttp://phoozer.com/wp-content/uploads/2015/04/whatsapp-good-morning-images.jpg
p2847
g3
(g4
g5
(g6
(S'\x07\xe0\x02\x06\x085\x17\t\xfd\x8b'
tRp2848
I-1
I1
ttRp2849
sVhttp://cache.lovethispic.com/uploaded_images/232143-Good-Morning-Today-Is-A-New-Day-Full-Of-Endless-Possibilities.jpg
p2850
g3
(g4
g5
(g6
(S'\x07\xe0\t\x16\t 6\x04\x98\xbc'
tRp2851
S'619'
p2852
I1
ttRp2853
sVhttp://www.pleasantwalls.com/wp-content/uploads/2014/08/good-morning-wallpapers-hd-51.jpg
p2854
g3
(g4
g5
(g6
(S'\x07\xdf\x0c\x14\x08\x022\x03\xda\xee'
tRp2855
S'144'
p2856
I1
ttRp2857
sVhttp://www.punjabigraphics.com/images/126/Its-Healthy-Good-Morning-Strawberry-In-Milk-Wallpaper.jpg
p2858
g3
(g4
g5
(g6
(S'\x07\xe0\x08\x17\t9\x17\x02\xfa\x9b'
tRp2859
S'503'
p2860
I1
ttRp2861
sVhttps://s-media-cache-ak0.pinimg.com/originals/eb/ec/40/ebec4052147e32e785ccf67fd656d800.jpg
p2862
g3
(g4
g5
(g6
(S'\x07\xe0\x03\x07\x08\x00 \x07oQ'
tRp2863
S'337'
p2864
I1
ttRp2865
sVhttp://www.goodmorningx.com/wp-content/uploads/2015/09/gud-morning-pics.jpg
p2866
g3
(g4
g5
(g6
(S'\x07\xe0\x08\x0f\x08\x003\x08\xee\xd9'
tRp2867
S'517'
p2868
I1
ttRp2869
sVhttp://www.thefreshquotes.com/wp-content/uploads/2015/01/Do-good-and-forget.-It%E2%80%99ll-grow-some-day-600x600.png
p2870
g3
(g4
g5
(g6
(S'\x07\xe0\x02\x04\x0837\x0e\xd4y'
tRp2871
S'324'
p2872
I1
ttRp2873
sVhttps://s-media-cache-ak0.pinimg.com/originals/61/bf/61/61bf613d1604305575f6481a6d381a0d.jpg
p2874
g3
(g4
g5
(g6
(S'\x07\xe0\x03\x02\t/\x07\x05~\x8f'
tRp2875
S'330'
p2876
I1
ttRp2877
sVhttp://science-all.com/images/wallpapers/good-morning-images/good-morning-images-24.jpg
p2878
g3
(g4
g5
(g6
(S"\x07\xe0\x08\x19\t:'\x01\x15\x00"
tRp2879
S'576'
p2880
I1
ttRp2881
sVhttp://www.goodmorningx.com/wp-content/uploads/2015/07/very-good-morning-wallpapers.jpg
p2882
g3
(g4
g5
(g6
(S'\x07\xe0\x03\x17\t35\x0e\xd9\xd1'
tRp2883
S'291'
p2884
I1
ttRp2885
sVhttp://greetings-day.com/wp-content/uploads/2015/10/good-morning-sweetheart.jpg
p2886
g3
(g4
g5
(g6
(S'\x07\xe0\x04\x03\x08\x02 \x01\xfdg'
tRp2887
I-1
I1
ttRp2888
sVhttp://media1.santabanta.com/full1/Miscellaneous/Good%20Morning/good-morning-43a.jpg
p2889
g3
(g4
g5
(g6
(S'\x07\xe0\t\x16\t 6\x04\x98\x83'
tRp2890
S'4'
I1
ttRp2891
sVhttp://geniusquotes.org/wp-content/uploads/2014/04/Funny-good-morning-hd-wallpaper-top-minions.jpg
p2892
g3
(g4
g5
(g6
(S'\x07\xe0\x08\x0f\x08\x003\x08\xef\x11'
tRp2893
I-1
I1
ttRp2894
sVhttp://1.bp.blogspot.com/-Ne6L9rsDmoI/VhKY5FkXWHI/AAAAAAAACVg/QJ-ITbKN3zE/s1600/Good-Morning-Have-A-Nice-Day-Owl-Picture.jpg
p2895
g3
(g4
g5
(g6
(S'\x07\xe0\n\x07\x08\x02"\x0e\xaa_'
tRp2896
S'329'
p2897
I1
ttRp2898
sVhttp://www.mofasalkhabar.com/wp-content/uploads/2015/12/good-morning-hd-wallpaper.jpg
p2899
g3
(g4
g5
(g6
(S'\x07\xdf\x0c\x14\x08\x022\x03\xdam'
tRp2900
I-1
I1
ttRp2901
sVhttp://www.commentsyard.com/wp-content/uploads/2016/07/Wish-To-All-Good-Morning-CY1113.jpg
p2902
g3
(g4
g5
(g6
(S'\x07\xe0\x08\x1c\x08\x01\x14\n\xa2\xed'
tRp2903
S'574'
p2904
I1
ttRp2905
sVhttps://pbs.twimg.com/profile_images/1839233569/twitter_goodmorning_profile_400x400.jpg
p2906
g3
(g4
g5
(g6
(S'\x07\xe0\x03\x07\x08\x00 \x07o\xc9'
tRp2907
I-1
I1
ttRp2908
sVhttp://quotesfans.com/wp-content/uploads/2015/04/Good-Morning-Quotes-28.jpg
p2909
g3
(g4
g5
(g6
(S'\x07\xdf\x0b\x08\x08\x01*\x0ch\x8e'
tRp2910
S'19'
p2911
I1
ttRp2912
sVhttp://www.wishafriend.com/goodmorning/cute-good-morning-messages.php?pagenum=2
p2913
g3
(g4
g5
(g6
(S'\x07\xdf\x0b\x1b\x08\x00\t\x03\xb6O'
tRp2914
I-1
I1
ttRp2915
sVhttp://phoozer.net/wp-content/uploads/2016/02/good-morning-hd-wallpapers-1.jpg
p2916
g3
(g4
g5
(g6
(S'\x07\xe0\n\x07\x08\x02"\x0e\xaa\x87'
tRp2917
S'535'
p2918
I1
ttRp2919
sVhttp://quotesnhumor.com/wp-content/uploads/2015/11/Top-30-Funny-Good-Morning-Quotes-inpirational.jpg
p2920
g3
(g4
g5
(g6
(S'\x07\xe0\t\x07\x08\x05\x15\x04d+'
tRp2921
S'394'
p2922
I1
ttRp2923
sVhttps://s-media-cache-ak0.pinimg.com/736x/fa/69/34/fa6934f4f39c3b6efc4ff817a6fe0e4b.jpg
p2924
g3
(g4
g5
(g6
(S'\x07\xe0\x05\x1b\t.\x00\x02\xdf1'
tRp2925
S'432'
p2926
I1
ttRp2927
sVhttps://s-media-cache-ak0.pinimg.com/originals/8e/cb/10/8ecb106c5774525e9f1a7b0d1d59deb2.jpg
p2928
g3
(g4
g5
(g6
(S'\x07\xdf\x0b\x10\x08\x03\x1a\x07\x85C'
tRp2929
S'70'
p2930
I1
ttRp2931
sVhttp://www.cfau-pd.net/images/goodmorning-wallpaper/goodmorning-wallpaper-7.jpg
p2932
g3
(g4
g5
(g6
(S'\x07\xe0\t\x0c\t $\x02\xf3r'
tRp2933
S'609'
p2934
I1
ttRp2935
sVhttp://139.59.25.161/wp-content/uploads/2015/09/Romantic-Roses-good-morning-hd-wallpapers.jpg
p2936
g3
(g4
g5
(g6
(S'\x07\xe0\t\x16\t 6\x04\x98\x93'
tRp2937
S'607'
p2938
I1
ttRp2939
sVhttp://img.wallpaperfolder.com/f/48C041DCB719/good-morning-coffee-heart-get.jpg
p2940
g3
(g4
g5
(g6
(S'\x07\xe0\x08\x0f\x08\x003\x08\xefQ'
tRp2941
S'568'
p2942
I1
ttRp2943
sVhttp://cdn.superbwallpapers.com/wallpapers/typography/good-morning-25216-1920x1200.jpg
p2944
g3
(g4
g5
(g6
(S'\x07\xe0\x01\x13\x08\x138\x02.\x9d'
tRp2945
S'133'
p2946
I1
ttRp2947
sVhttp://www.goodmorningquoteswishes.com/wp-content/uploads/2014/11/Cute-Good-Morning-Poem-Best-Morning-Poems-for-Friends-Images-Wallpapers-photos-Pictures.jpg
p2948
g3
(g4
g5
(g6
(S'\x07\xe0\x05\x15\x08\x01\x1e\x05\xdeO'
tRp2949
S'349'
p2950
I1
ttRp2951
sVhttp://media1.santabanta.com/full1/Miscellaneous/Good%20Morning/good-morning-9a.jpg
p2952
g3
(g4
g5
(g6
(S'\x07\xe0\x04\x18\x08\x00\x0f\rD\x13'
tRp2953
S'31'
p2954
I1
ttRp2955
sVhttp://www.hdwallpapers.in/walls/good_morning_coffee-wide.jpg
p2956
g3
(g4
g5
(g6
(S'\x07\xdf\x0c\x14\x08\x022\x03\xdb\x92'
tRp2957
S'138'
p2958
I1
ttRp2959
sVhttp://www.imagesbuddy.com/images/198/good-morning-to-all-my-friends-and-family.jpg
p2960
g3
(g4
g5
(g6
(S'\x07\xdf\x0b\x17\x08\x03+\x08\xcdH'
tRp2961
S'90'
p2962
I1
ttRp2963
sVhttp://www.ambwallpapers.com/wp-content/uploads/2016/03/Good-Morning-HD-Wallpapers-1.jpg
p2964
g3
(g4
g5
(g6
(S'\x07\xe0\x05\x15\x08\x01\x1e\x05\xde\xdb'
tRp2965
S'364'
p2966
I1
ttRp2967
sVhttp://wishesmessages.com/wp-content/uploads/2013/10/Inspirational-good-morning-quote-positive-attitude-coffee-640x480.jpg
p2968
g3
(g4
g5
(g6
(S'\x07\xe0\n\x07\x08\x02"\x0e\xab$'
tRp2969
S'266'
p2970
I1
ttRp2971
sVhttp://www.desicomments.com/dc3/10/355804/355804.jpg
p2972
g3
(g4
g5
(g6
(S'\x07\xe0\n\x07\x08\x02"\x0e\xab+'
tRp2973
S'661'
p2974
I1
ttRp2975
sVhttp://image.shutterstock.com/z/stock-photo--good-morning-happy-new-year-is-written-on-opened-notepad-with-pen-small-earphone-and-a-cup-345837281.jpg
p2976
g3
(g4
g5
(g6
(S'\x07\xe0\t\x12\t *\x0b7X'
tRp2977
S'447'
p2978
I1
ttRp2979
sVhttp://cdn.goodmorningmylove.com/wp-content/uploads/photo-gallery/Good%20Morning%20Wallpapers%20With%20Quotes_Emme%20Woodhull-Bache.jpg
p2980
g3
(g4
g5
(g6
(S'\x07\xe0\x08\x1c\x08\x01\x14\n\xa3Y'
tRp2981
S'585'
p2982
I1
ttRp2983
sVhttp://www.freshmorningquotes.com/wp-content/uploads/2015/09/inspirational-good-morning-love-quotes.jpg
p2984
g3
(g4
g5
(g6
(S'\x07\xe0\x04\x18\x08\x00\x0f\rD\xb9'
tRp2985
I-1
I1
ttRp2986
sVhttp://www.letuspublish.com/wp-content/uploads/2014/10/Cute-good-morning-wallpaper-1.jpg
p2987
g3
(g4
g5
(g6
(S'\x07\xe0\x06\x1d\t1)\x07;\xbd'
tRp2988
S'454'
p2989
I1
ttRp2990
sVhttp://www.whoa.in/20150417-Whoa/Good-Morning-Have-a-Nice-Day-with-Lord-Ganesha-HD-Wallpaper.jpg
p2991
g3
(g4
g5
(g6
(S'\x07\xe0\x03\x0e\x08\x00.\x07\xe2F'
tRp2992
S'335'
p2993
I1
ttRp2994
sVhttp://www.10ism.com/wp-content/uploads/2015/12/Good-Morning-Quotes-Messages.png
p2995
g3
(g4
g5
(g6
(S'\x07\xe0\x05\x19\t!\x06\t;\xbf'
tRp2996
S'443'
p2997
I1
ttRp2998
sVhttp://itsevalicious.com/wp-content/uploads/2015/06/Simple-Good-Morning-Quote-Wallpaper-2015.jpg
p2999
g3
(g4
g5
(g6
(S'\x07\xdf\x0c\x14\x08\x022\x03\xdad'
tRp3000
S'147'
p3001
I1
ttRp3002
sVhttp://pic.1fotonin.com/data/wallpapers/60/WDF_1059445.jpg
p3003
g3
(g4
g5
(g6
(S'\x07\xe0\x05\x08\x08\x00\x0b\x05\xe8\xe8'
tRp3004
S'396'
p3005
I1
ttRp3006
sVhttps://s-media-cache-ak0.pinimg.com/originals/34/f5/a8/34f5a857e6a5f3b5a8591a14e2a25064.jpg
p3007
g3
(g4
g5
(g6
(S'\x07\xdf\x0c\x12\x08\x01\x1d\x08\xde\xfe'
tRp3008
S'2'
I1
ttRp3009
sVhttp://thumbs.dreamstime.com/z/good-morning-smile-coffee-cup-39488693.jpg
p3010
g3
(g4
g5
(g6
(S'\x07\xe0\x04\x18\x08\x00\x0f\rD1'
tRp3011
S'344'
p3012
I1
ttRp3013
sVhttp://img.wallpaperfolder.com/f/79625221DDB7/good-morning-sunrise-images.jpg
p3014
g3
(g4
g5
(g6
(S'\x07\xe0\t\x12\t *\x0b5\xf4'
tRp3015
S'616'
p3016
I1
ttRp3017
sVhttp://www.goodmorningquote.com/wp-content/uploads/2014/06/goodmorning-quotes-the-best-thing-about-waking-up.jpg?93df17
p3018
g3
(g4
g5
(g6
(S'\x07\xdf\x0b\x1b\x08\x00\t\x03\xb5\xc0'
tRp3019
I-1
I1
ttRp3020
sVhttp://rishikajain.com/wp-content/uploads/2016/05/Good-morning7.jpg
p3021
g3
(g4
g5
(g6
(S'\x07\xe0\n\x07\x08\x02"\x0e\xa9\xa2'
tRp3022
S'634'
p3023
I1
ttRp3024
sVhttp://imaginestobrigthenyourday.com/wp-content/uploads/2016/03/Cute-images-to-say-good-morning-to-share.jpg
p3025
g3
(g4
g5
(g6
(S'\x07\xe0\x03\x0e\x08\x00.\x07\xe1$'
tRp3026
I-1
I1
ttRp3027
sVhttp://www.technoven.com/wp-content/uploads/2015/05/Good-Morning-Whats-App-HD-images.jpg
p3028
g3
(g4
g5
(g6
(S'\x07\xe0\x01\x1b\x08\x1a\x06\x07\xbf\xb9'
tRp3029
S'209'
p3030
I1
ttRp3031
sVhttp://freewallpaperspictures.com/wp-content/uploads/2016/03/1024x640xGood-Morning-HD-Photo-free-1024x640.jpg.pagespeed.ic_.HnjMLQjOj3.jpg
p3032
g3
(g4
g5
(g6
(S'\x07\xe0\x05\x15\x08\x01\x1e\x05\xde\x1b'
tRp3033
S'387'
p3034
I1
ttRp3035
sVhttp://www.mofasalkhabar.com/wp-content/uploads/2015/11/Good-Morning-Wishes.jpg
p3036
g3
(g4
g5
(g6
(S'\x07\xdf\x0c\x18\x08\x03\t\x04cL'
tRp3037
I-1
I1
ttRp3038
sVhttps://s-media-cache-ak0.pinimg.com/564x/3b/2d/66/3b2d660656655207a113641dadc42017.jpg
p3039
g3
(g4
g5
(g6
(S'\x07\xe0\t\x16\t 6\x04\x96{'
tRp3040
S'628'
p3041
I1
ttRp3042
sVhttp://www.cfau-pd.net/images/good-morning-hd-image/good-morning-hd-image-4.jpg
p3043
g3
(g4
g5
(g6
(S'\x07\xe0\t\x07\x08\x05\x15\x04dI'
tRp3044
NI1
ttRp3045
sVhttp://hdwallpapersrocks.com/wp-content/uploads/2013/09/Good-morning-funny-panda-face-in-coffee.jpg
p3046
g3
(g4
g5
(g6
(S'\x07\xe0\x08\x17\t9\x17\x02\xfa\x88'
tRp3047
S'511'
p3048
I1
ttRp3049
sVhttp://www.yourwhatsappstatus.com/wp-content/uploads/2016/07/Good-morning-and-live-healthy-1024x768.jpg
p3050
g3
(g4
g5
(g6
(S'\x07\xe0\t\x16\t 6\x04\x96p'
tRp3051
I-1
I1
ttRp3052
sVhttp://science-all.com/images/wallpapers/good-morning-hd-images/good-morning-hd-images-16.jpg
p3053
g3
(g4
g5
(g6
(S'\x07\xe0\x08\x1c\x08\x01\x14\n\xa2\x9b'
tRp3054
S'580'
p3055
I1
ttRp3056
sVhttp://www.imgion.com/images/02/Romantic-morning-rose-with-tea.jpg
p3057
g3
(g4
g5
(g6
(S'\x07\xdf\x0c\x18\x08\x03\t\x04b\xb8'
tRp3058
S'110'
p3059
I1
ttRp3060
sVhttp://6iee.com/data/uploads/20/639632.jpg
p3061
g3
(g4
g5
(g6
(S'\x07\xe0\x04\x03\x08\x02 \x01\xfd#'
tRp3062
I-1
I1
ttRp3063
sVhttp://www.quotesgiant.com/wp-content/uploads/2016/02/Good-Morning-Positive-Thought-Quotes-Wallpaper.jpg
p3064
g3
(g4
g5
(g6
(S'\x07\xe0\x03\x02\t/\x07\x05~<'
tRp3065
I-1
I1
ttRp3066
sVhttp://www.messagescollection.com/wp-content/uploads/2015/02/good-morning.jpg
p3067
g3
(g4
g5
(g6
(S'\x07\xe0\x08\x05\x08\x025\x01\x1e\x8d'
tRp3068
I-1
I1
ttRp3069
sVhttps://img1.etsystatic.com/001/0/6670867/il_fullxfull.401025025_4mcm.jpg
p3070
g3
(g4
g5
(g6
(S'\x07\xe0\x01\x1b\x08\x1a\x06\x07\xc0\x92'
tRp3071
S'222'
p3072
I1
ttRp3073
sVhttp://www.wishgoodmorning.org/wp-content/uploads/2016/02/Good-Morning-With-Lovely-Rose-wm13080.jpg
p3074
g3
(g4
g5
(g6
(S"\x07\xe0\x08\x19\t:'\x01\x14\xde"
tRp3075
S'573'
p3076
I1
ttRp3077
sVhttp://www.allgraphics123.com/wp-content/uploads/2015/06/Good-Morning-Have-A-Beautiful-And-Joyful-Day.gif
p3078
g3
(g4
g5
(g6
(S'\x07\xdf\n\x1f\x08\x01\x1e\x0b\rN'
tRp3079
S'15'
p3080
I1
ttRp3081
sVhttp://www.yourwhatsappstatus.com/wp-content/uploads/2016/07/Good-Morning-wishes-images.jpg
p3082
g3
(g4
g5
(g6
(S'\x07\xe0\t\x16\t 6\x04\x97a'
tRp3083
S'598'
p3084
I1
ttRp3085
sVhttp://www.ahdwallpaperstab.com/wp-content/uploads/2015/10/good_morning_quotes_with_images-7.jpg
p3086
g3
(g4
g5
(g6
(S'\x07\xe0\x01\x05\x08\x050\x060\x0b'
tRp3087
S'193'
p3088
I1
ttRp3089
sVhttp://139.59.25.161/wp-content/uploads/2015/09/7641e1e79ec1c8fe0a87ec4baf734a54.jpg
p3090
g3
(g4
g5
(g6
(S'\x07\xe0\n\x1c\x17\t\x15\x04*\x14'
tRp3091
S'541'
p3092
I1
ttRp3093
sVhttp://freehd-images.com/wp-content/uploads/2015/09/Good-Morning-Wallpaper-120-4.jpg
p3094
g3
(g4
g5
(g6
(S'\x07\xe0\x02\x0e\x08:7\r\x9e)'
tRp3095
I-1
I1
ttRp3096
sVhttp://www.goodmorning.quotesms.com/images/good-morning-blessings.jpg
p3097
g3
(g4
g5
(g6
(S'\x07\xe0\n\x07\x08\x02"\x0e\xa9\xd1'
tRp3098
S'490'
p3099
I1
ttRp3100
sVhttps://s-media-cache-ak0.pinimg.com/736x/71/99/7a/71997ab71ecf88b57208d38755511de8.jpg
p3101
g3
(g4
g5
(g6
(S'\x07\xe0\t\x07\x08\x05\x15\x04d\xc6'
tRp3102
S'101'
p3103
I1
ttRp3104
sVhttp://www.mofasalkhabar.com/wp-content/uploads/2015/12/good_morning_hd_wallpaper1.jpg
p3105
g3
(g4
g5
(g6
(S'\x07\xe0\x01\x13\x08\x138\x02.\x0c'
tRp3106
I-1
I1
ttRp3107
sVhttp://www.hdwallpaper.nu/wp-content/uploads/2015/04/good-morning-with-flowers-hd-wallpaper.jpg
p3108
g3
(g4
g5
(g6
(S'\x07\xe0\x03\x02\t/\x07\x05~@'
tRp3109
S'343'
p3110
I1
ttRp3111
sVhttp://www.freelargeimages.com/wp-content/uploads/2015/11/Good_Morning_01.jpg
p3112
g3
(g4
g5
(g6
(S'\x07\xe0\t\x12\t *\x0b6\xb6'
tRp3113
S'57'
p3114
I1
ttRp3115
sVhttp://www.goodmorningquote.com/wp-content/uploads/2014/06/goodmorning-quotes-the-best-thing-about-waking-up.jpg?2d7d09
p3116
g3
(g4
g5
(g6
(S'\x07\xdf\x0b\x17\x08\x03+\x08\xcdz'
tRp3117
I-1
I1
ttRp3118
sVhttp://i.ytimg.com/vi/ITBhZ7yGztw/hqdefault.jpg
p3119
g3
(g4
g5
(g6
(S'\x07\xdf\n\x1f\x08\x01\x1e\x0b\rs'
tRp3120
S'25'
p3121
I1
ttRp3122
sVhttp://www.whatsapp99.com/wp-content/uploads/2016/05/funny-good-morning-pic.jpg
p3123
g3
(g4
g5
(g6
(S'\x07\xe0\t\x07\x08\x05\x15\x04d\xe7'
tRp3124
S'582'
p3125
I1
ttRp3126
sVhttp://3.bp.blogspot.com/-fm_AExeMVCo/VhKZAk9EYUI/AAAAAAAACWI/WiLbzhTxzlE/s1600/Good_Morning_03-copy.jpg
p3127
g3
(g4
g5
(g6
(S'\x07\xe0\x02\x06\x085\x17\t\xfdY'
tRp3128
S'304'
p3129
I1
ttRp3130
sVhttp://good-morning.hothungama.com/wp-content/uploads/2014/08/latest-good-morning-wallpaper.jpg
p3131
g3
(g4
g5
(g6
(S'\x07\xe0\x07\n\x08\x009\x02\x0c*'
tRp3132
S'438'
p3133
I1
ttRp3134
sVhttp://2.bp.blogspot.com/-TNLugsSDcBM/VRBNeA8XmAI/AAAAAAAABBU/0CLu0xRUssM/s1600/good%2Bmorning%2Bsweetheart%2Bimages%2B3.jpg
p3135
g3
(g4
g5
(g6
(S'\x07\xdf\x0b\x17\x08\x03+\x08\xcd\xe5'
tRp3136
S'64'
p3137
I1
ttRp3138
sVhttps://www.goodmorningquote.com/wp-content/uploads/2014/06/motivational-good-morning-quotes-when-you-start-each-day-with-a-grateful-heart.jpg
p3139
g3
(g4
g5
(g6
(S"\x07\xe0\x02\x0c\x086'\r\xfdP"
tRp3140
I-1
I1
ttRp3141
sVhttp://www.goodmorningx.com/wp-content/uploads/2015/04/good-morning-2a.jpg
p3142
g3
(g4
g5
(g6
(S'\x07\xe0\x04\x18\x08\x00\x0f\rC\xf2'
tRp3143
S'99'
p3144
I1
ttRp3145
sVhttp://www.wishgoodmorning.org/wp-content/uploads/2016/03/Good-Morning-Beautiful-I-Miss-You-fj52.png
p3146
g3
(g4
g5
(g6
(S'\x07\xe0\x05\x10\t\x05\x19\tU]'
tRp3147
S'376'
p3148
I1
ttRp3149
sVhttp://www.pixelstalk.net/wp-content/uploads/2016/05/Good-Morning-Desktop-Backgrounds.jpg
p3150
g3
(g4
g5
(g6
(S'\x07\xe0\x08\x17\t9\x17\x02\xfa\xfb'
tRp3151
I-1
I1
ttRp3152
sVhttp://www.goodmorningimagesquotes.com/wp-content/uploads/2015/11/Good-morning-love-images-1.jpg
p3153
g3
(g4
g5
(g6
(S'\x07\xdf\x0b\x1b\x08\x00\t\x03\xb6Z'
tRp3154
S'92'
p3155
I1
ttRp3156
sVhttp://allwishes.in/wp-content/uploads/2014/02/Best-Good-Morning-wishes-images-1024x640.jpg
p3157
g3
(g4
g5
(g6
(S'\x07\xe0\n\x1c\x17\t\x15\x04)\xf8'
tRp3158
S'485'
p3159
I1
ttRp3160
sVhttp://e2ua.com/data/wallpapers/115/WDF_1581442.jpg
p3161
g3
(g4
g5
(g6
(S'\x07\xe0\x04\x11\t95\x06\x8e\xcb'
tRp3162
I-1
I1
ttRp3163
sVhttps://www.goodmorningquote.com/wp-content/uploads/2014/06/motivational-good-morning-quotes-when-you-start-each-day-with-a-grateful-heart.jpg?e7cdc0
p3164
g3
(g4
g5
(g6
(S'\x07\xe0\x02\x02\x08\x1a\x1f\x0b\xe1r'
tRp3165
I-1
I1
ttRp3166
sVhttp://www.goodmorning.quotesms.com/images/funny-good-morning-quotes.jpg
p3167
g3
(g4
g5
(g6
(S'\x07\xe0\x05\x19\t!\x06\t;j'
tRp3168
S'555'
p3169
I1
ttRp3170
sVhttp://kurld.com/images/wallpapers/good-morning-image/good-morning-image-9.jpg
p3171
g3
(g4
g5
(g6
(S'\x07\xe0\n\x07\x08\x02"\x0e\xa9\x9a'
tRp3172
I-1
I1
ttRp3173
sVhttp://www.newhdwallpaper.in/wp-content/uploads/2014/07/Good-morning-fabulous-wide.jpg
p3174
g3
(g4
g5
(g6
(S'\x07\xe0\n\x07\x08\x02"\x0e\xaa\xf9'
tRp3175
S'540'
p3176
I2
ttRp3177
sVhttps://s-media-cache-ak0.pinimg.com/736x/1d/4a/88/1d4a882afa72c5f405a7bdee2a1f6cfe.jpg
p3178
g3
(g4
g5
(g6
(S'\x07\xe0\x08\x1c\x08\x01\x14\n\xa2\x8f'
tRp3179
S'358'
p3180
I1
ttRp3181
sVhttp://quotesideas.com/wp-content/uploads/2015/03/other-card-beauteous-purple-theme-good-morning-lettering-quotes-with-cuppa-and-fancy-white-flowers-decorations-beautiful-good-morning-greetings-design-ideas.jpg
p3182
g3
(g4
g5
(g6
(S'\x07\xe0\x08\x1c\x08\x01\x14\n\xa3D'
tRp3183
I-1
I1
ttRp3184
sVhttp://2.bp.blogspot.com/-u68qtkZ4cg4/Vbh--o42zhI/AAAAAAAABPI/MUyW4N7Nx_Q/s1600/morning.jpg
p3185
g3
(g4
g5
(g6
(S'\x07\xe0\t\x0c\t $\x02\xf3z'
tRp3186
S'472'
p3187
I2
ttRp3188
sVhttp://www.freeforshare.com/wp-content/uploads/2016/05/Good-Morning-Quotes-in-Hindi.jpg
p3189
g3
(g4
g5
(g6
(S'\x07\xe0\x07\x1b\t6/\x0c\x8e\xbc'
tRp3190
I-1
I1
ttRp3191
sVhttp://www.pennsylvaniamusicnews.com/wp-content/uploads/2015/11/good-morning-america-logo.png
p3192
g3
(g4
g5
(g6
(S'\x07\xe0\x02\x12\t\x02#\x06p{'
tRp3193
S'306'
p3194
I1
ttRp3195
sVhttp://www.thefreshquotes.com/wp-content/uploads/2015/07/I-Sent-You-A-Couple-Of-Hugs-In-My-Thoughts-Good-Morning-My-Sweet2.jpg
p3196
g3
(g4
g5
(g6
(S'\x07\xe0\n\x07\x08\x02"\x0e\xab5'
tRp3197
S'521'
p3198
I1
ttRp3199
sVhttp://photozup.com/wp-content/uploads/2015/09/Good-Morning-Images-For-Mom.jpg
p3200
g3
(g4
g5
(g6
(S'\x07\xe0\x02\x06\x085\x17\t\xfe\xca'
tRp3201
I-1
I1
ttRp3202
sVhttp://www.goodmorning.quotesms.com/images/funny-good-morning-pictures.jpg
p3203
g3
(g4
g5
(g6
(S'\x07\xe0\n\x07\x08\x02"\x0e\xabI'
tRp3204
S'412'
p3205
I1
ttRp3206
s.