(dp1
Vhttps://wellnessasrx.files.wordpress.com/2014/02/success-motivation.jpg
p2
ccopy_reg
_reconstructor
p3
(cbase.graph_fetch.fetcher
ImageSlot
p4
c__builtin__
tuple
p5
(cdatetime
datetime
p6
(S'\x07\xe0\n\x08\x134\x0f\n\xe0\x8f'
tRp7
NI1
ttRp8
sVhttps://az616578.vo.msecnd.net/files/responsive/cover/main/desktop/2015/12/20/6358625183398861921957087933_motivation2.jpg
p9
g3
(g4
g5
(g6
(S'\x07\xe0\t\x1a\r\x08(\x0eH\x8b'
tRp10
S'570'
p11
I1
ttRp12
sVhttp://i.imgur.com/3czig.jpg
p13
g3
(g4
g5
(g6
(S'\x07\xe0\n\x08\x134\x0f\n\xe0\xaf'
tRp14
S'37'
p15
I1
ttRp16
sVhttp://ok8v71rrcut3goqkf2ghhy21.wpengine.netdna-cdn.com/wp-content/uploads/sites/697/2015/04/motivate-yourself-71.jpg
p17
g3
(g4
g5
(g6
(S'\x07\xdf\x0b\x08\x16\n\x12\x00T\xb6'
tRp18
S'59'
p19
I1
ttRp20
sVhttps://pixabay.com/static/uploads/photo/2015/04/14/08/43/motivation-721825_960_720.jpg
p21
g3
(g4
g5
(g6
(S'\x07\xe0\x04\x13\x0f;&\x01\xf2R'
tRp22
S'301'
p23
I1
ttRp24
sVhttp://img08.deviantart.net/e2f2/i/2011/225/3/e/motivation_poster_by_captainjamesman-d46dlh8.png
p25
g3
(g4
g5
(g6
(S'\x07\xdf\x0c\x1a\x1362\x00\xd8\x8b'
tRp26
S'163'
p27
I1
ttRp28
sVhttp://thehealthyhostess.com/wp-content/uploads/2012/08/201208200520.jpg
p29
g3
(g4
g5
(g6
(S'\x07\xdf\x0c\x1a\x1362\x00\xd8\x90'
tRp30
I-1
I1
ttRp31
sVhttp://www.managementguru.net/wp-content/uploads/2014/03/self-motivation.jpg
p32
g3
(g4
g5
(g6
(S'\x07\xe0\x04\t\x0f/\x1a\x02\xe8z'
tRp33
S'110'
p34
I1
ttRp35
sVhttp://www.simplyshredded.com/wp-content/uploads/2014/01/74.jpg
p36
g3
(g4
g5
(g6
(S'\x07\xe0\x06\x06\r\x0f\x16\n\xa1\x80'
tRp37
I-1
I1
ttRp38
sVhttps://i.ytimg.com/vi/UtpOFj9aJZs/maxresdefault.jpg
p39
g3
(g4
g5
(g6
(S'\x07\xe0\x08\x13\x01\r\x01\x0e\x1c('
tRp40
S'369'
p41
I1
ttRp42
sVhttps://innogise.files.wordpress.com/2012/10/motivation.jpg
p43
g3
(g4
g5
(g6
(S'\x07\xe0\x08\x1b\x0208\x00\xa8\xe8'
tRp44
S'513'
p45
I1
ttRp46
sVhttp://mrthomasellis.com/wp-content/uploads/2012/03/motivation-and-productivity.jpg
p47
g3
(g4
g5
(g6
(S'\x07\xdf\x0b\x08\x16\n\x12\x00UE'
tRp48
S'65'
p49
I1
ttRp50
sVhttp://sf.co.ua/12/08/wallpaper-2136278.jpg
p51
g3
(g4
g5
(g6
(S'\x07\xe0\x03\x14\x0e\x1d\x16\x05\x1as'
tRp52
S'204'
p53
I3
ttRp54
sVhttp://webneel.com/wallpaper/sites/default/files/images/06-2013/1%20motivation%20wallpaper.jpg
p55
g3
(g4
g5
(g6
(S'\x07\xe0\x06\x1e\n0\x1b\x01\x8d\xbd'
tRp56
S'112'
p57
I1
ttRp58
sVhttp://news.rubstr.com/wp-content/uploads/2014/07/rubstr-motivation.jpg
p59
g3
(g4
g5
(g6
(S'\x07\xe0\x03\x04\n\x04\r\x07!\x87'
tRp60
S'248'
p61
I1
ttRp62
sVhttps://pbs.twimg.com/profile_images/437370728912912386/_KnjRCnl.jpeg
p63
g3
(g4
g5
(g6
(S'\x07\xe0\x03\x14\x0e\x1d\x16\x05\x1b\x1c'
tRp64
S'187'
p65
I1
ttRp66
sVhttp://addicted2success.com/wp-content/uploads/2013/08/Motivation-Picture-Quote-Motivation-Jim-Rohn.jpg
p67
g3
(g4
g5
(g6
(S"\x07\xe0\x02\x19\t1'\x04\x95`"
tRp68
I-1
I1
ttRp69
sVhttp://blogs.uww.edu/warhawkfitness/files/2016/04/motivation.jpg
p70
g3
(g4
g5
(g6
(S"\x07\xe0\x07\x03\x0f'\x1f\x08hg"
tRp71
S'440'
p72
I1
ttRp73
sVhttps://eightladieswriting.files.wordpress.com/2015/06/gotmotivation.jpg
p74
g3
(g4
g5
(g6
(S'\x07\xe0\x03\x0e\r;\x15\x0e\x89Q'
tRp75
S'270'
p76
I1
ttRp77
sVhttp://maorhan.com/wp-content/uploads/2012/10/motivation.png
p78
g3
(g4
g5
(g6
(S'\x07\xdf\x0c\x08\x10+#\x04\x03\x91'
tRp79
S'4'
I1
ttRp80
sVhttp://i.imgur.com/AmuCcfg.jpg
p81
g3
(g4
g5
(g6
(S'\x07\xe0\x01\r\x16\n\x16\x0e\xd68'
tRp82
S'52'
p83
I1
ttRp84
sVhttp://kurld.com/images/wallpapers/motivation-pics/motivation-pics-6.jpg
p85
g3
(g4
g5
(g6
(S'\x07\xe0\t\x1a\r\x08(\x0eJ['
tRp86
S'548'
p87
I1
ttRp88
sVhttp://www.edutopia.org/sites/default/files/styles/share_image/public/cover_media/ferlazzo-strategies-for-self-motivation-01.gif?itok=L0uSk4dM
p89
g3
(g4
g5
(g6
(S'\x07\xe0\t\x1a\r\x08(\x0eJ\x8b'
tRp90
S'391'
p91
I1
ttRp92
sVhttp://www.listenandlearn.org/the-teachers-handbook/wp-content/uploads/2014/01/motivation.jpg
p93
g3
(g4
g5
(g6
(S'\x07\xe0\n\x08\x134\x0f\n\xe1C'
tRp94
S'562'
p95
I1
ttRp96
sVhttp://educationequals.com/wp-content/uploads/2014/01/motivation.jpg
p97
g3
(g4
g5
(g6
(S'\x07\xe0\x01\r\x16\n\x16\x0e\xd5\xff'
tRp98
I-1
I1
ttRp99
sVhttp://www.wandtattoo.de/images/product_images/original_images/4107_2-sport-wandtattoo-motivation.jpg
p100
g3
(g4
g5
(g6
(S'\x07\xe0\t\x16\x0b*\x14\rzg'
tRp101
S'457'
p102
I1
ttRp103
sVhttps://learningperformancehollychandler.files.wordpress.com/2015/10/got-motivation.jpg
p104
g3
(g4
g5
(g6
(S'\x07\xe0\x02\t\x00\x10\x08\x05\x08\xa6'
tRp105
S'237'
p106
I1
ttRp107
sVhttps://s-media-cache-ak0.pinimg.com/736x/c6/b4/a3/c6b4a30fb03d657ae69abcb091541fed.jpg
p108
g3
(g4
g5
(g6
(S'\x07\xe0\t\x0c\t\x1b)\r\xdb\x04'
tRp109
S'526'
p110
I1
ttRp111
sVhttp://gabriellemaston.com/wp-content/uploads/2015/07/Motivation1.jpg
p112
g3
(g4
g5
(g6
(S'\x07\xdf\n\x15\x15\x14\x10\n\xe8\xd6'
tRp113
S'53'
p114
I1
ttRp115
sVhttp://previews.123rf.com/images/kbuntu/kbuntu1108/kbuntu110800157/10263582-Speech-bubble-with-the-word-motivation-on-white-background--Stock-Photo.jpg
p116
g3
(g4
g5
(g6
(S'\x07\xe0\x07\x11\x15-1\x0e\xb7\xb5'
tRp117
S'477'
p118
I1
ttRp119
sVhttp://www.hdwallpapers.in/walls/motivation-wide.jpg
p120
g3
(g4
g5
(g6
(S'\x07\xe0\n\x08\x134\x0f\n\xe1K'
tRp121
S'576'
p122
I1
ttRp123
sVhttps://evancpflock.files.wordpress.com/2015/09/evan-pflock-lion-of-motivation.jpg?w=1920&h=1080&crop=1
p124
g3
(g4
g5
(g6
(S'\x07\xe0\n\x08\x134\x0f\n\xe1R'
tRp125
S'516'
p126
I1
ttRp127
sVhttp://cdn.motivationgrid.com/wp-content/uploads/2016/01/How-to-stay-motivated-featured-image.jpg
p128
g3
(g4
g5
(g6
(S'\x07\xe0\x07\x11\x15-1\x0e\xb8&'
tRp129
S'380'
p130
I1
ttRp131
sVhttp://www.themillionairesecrets.net/images/2014/05/arnold-motivation.jpg
p132
g3
(g4
g5
(g6
(S'\x07\xdf\x0c\x1a\x1362\x00\xd9\xd2'
tRp133
S'164'
p134
I1
ttRp135
sVhttp://www.pixelstalk.net/wp-content/uploads/2016/06/Motivation-Image.jpg
p136
g3
(g4
g5
(g6
(S'\x07\xe0\n\x08\x134\x0f\n\xe1\x16'
tRp137
I-1
I1
ttRp138
sVhttp://0.media.dorkly.cvcdn.com/33/71/157ebf191b65db297f5a498d393e6575-motivation.jpg
p139
g3
(g4
g5
(g6
(S'\x07\xe0\x04\x03\x0f\x0f0\x00\x15\xd0'
tRp140
S'151'
p141
I1
ttRp142
sVhttp://addicted2success.com/wp-content/uploads/2013/08/Dont-Give-Up-Motivation-Picture-Quote.jpg
p143
g3
(g4
g5
(g6
(S'\x07\xe0\x08\r\x006\r\x01f\xc4'
tRp144
I-1
I1
ttRp145
sVhttp://www.motivationmodel.com/images/main.jpg
p146
g3
(g4
g5
(g6
(S'\x07\xe0\x04\x13\x0f;&\x01\xf3]'
tRp147
S'134'
p148
I1
ttRp149
sVhttp://cdn2.hubspot.net/hub/392717/file-2447137411-jpg/motivation_1.jpg?t=1447506215793
p150
g3
(g4
g5
(g6
(S'\x07\xdf\x0b\x10\x16\x11\x01\x00\x89\xaf'
tRp151
S'91'
p152
I1
ttRp153
sVhttp://cdn2.hubspot.net/hub/147314/file-236440333-jpg/images/business-motivation.jpg?t=1462391292305
p154
g3
(g4
g5
(g6
(S'\x07\xe0\x06\x06\r\x0f\x16\n\xa1M'
tRp155
S'381'
p156
I1
ttRp157
sVhttps://s-media-cache-ak0.pinimg.com/564x/27/d4/fd/27d4fd8efcf156139acd68e911ce572c.jpg
p158
g3
(g4
g5
(g6
(S'\x07\xe0\x02\x11\x04\x08.\x0b\xd9\x16'
tRp159
S'259'
p160
I1
ttRp161
sVhttp://www.hd-wallpapers9.com/Thumbnail-Gallery/Quotes/Motivation%20Wallpapers/Motivation%20Quote%20Pictures%20Gallery040.jpg
p162
g3
(g4
g5
(g6
(S'\x07\xe0\x06\x1e\n0\x1b\x01\x8d\x90'
tRp163
S'447'
p164
I1
ttRp165
sVhttps://ga-core.s3.amazonaws.com/production/uploads/program/default_image/1161/Management-Tools-for-Motivating-and-Retaining-Your-Team.jpg
p166
g3
(g4
g5
(g6
(S'\x07\xe0\x01\r\x16\n\x16\x0e\xd5\x8c'
tRp167
S'222'
p168
I1
ttRp169
sVhttps://pixabay.com/static/uploads/photo/2015/12/21/00/07/motivation-1101889_960_720.jpg
p170
g3
(g4
g5
(g6
(S'\x07\xe0\t\x16\x0b*\x14\ry\xc1'
tRp171
S'337'
p172
I1
ttRp173
sVhttp://www.jetts.com.au/uploads/contentFiles/files/14_02_12_Jetts_National_8WC_Wallpapers_FA7.jpg
p174
g3
(g4
g5
(g6
(S'\x07\xe0\x03\x14\x0e\x1d\x16\x05\x1a\xb0'
tRp175
S'111'
p176
I1
ttRp177
sVhttp://7-themes.com/data_images/out/69/7007124-motivation-art.jpg
p178
g3
(g4
g5
(g6
(S'\x07\xe0\x08\x1b\x0208\x00\xa8\xf5'
tRp179
S'1'
I1
ttRp180
sVhttp://africanleadership.co.uk/wp-content/uploads/2016/01/Motivation15its65.jpg
p181
g3
(g4
g5
(g6
(S'\x07\xe0\t\x16\x0b*\x14\ryo'
tRp182
I-1
I1
ttRp183
sVhttp://lagniappefitness.com/wp-content/uploads/2014/06/motivation.jpg
p184
g3
(g4
g5
(g6
(S'\x07\xe0\n\x08\x134\x0f\n\xe0\xf0'
tRp185
S'365'
p186
I2
ttRp187
sVhttps://qph.is.quoracdn.net/main-qimg-75aabc7d5861406e87e1d8002d31081c?convert_to_webp=true
p188
g3
(g4
g5
(g6
(S'\x07\xe0\x06\x06\r\x0f\x16\n\xa1t'
tRp189
S'407'
p190
I1
ttRp191
sVhttps://cdn2.omidoo.com/sites/default/files/imagecache/full_width/images/bydate/20140406/shutterstock155628296.jpg
p192
g3
(g4
g5
(g6
(S'\x07\xe0\x08\r\x006\r\x01f@'
tRp193
I-1
I1
ttRp194
sVhttp://www.teamrnbmusicblog.com/rell_boxx/images/96349/MOTIVATION-MUSIC-COVER.jpg
p195
g3
(g4
g5
(g6
(S'\x07\xe0\n\x02\x13\x18\x1b\x01BM'
tRp196
I-1
I1
ttRp197
sVhttp://web.utk.edu/~dhouston/images/WordCloudPSM3.jpg
p198
g3
(g4
g5
(g6
(S'\x07\xe0\n\x02\x13\x18\x1b\x01A\xcb'
tRp199
S'228'
p200
I1
ttRp201
sVhttp://toeflspeakingteacher.com/wp-content/uploads/2014/10/Motivation.jpg
p202
g3
(g4
g5
(g6
(S'\x07\xdf\x0c\x14\x11(\x1f\x05\xb5\xd2'
tRp203
S'81'
p204
I1
ttRp205
sVhttp://cdn2.hubspot.net/hub/147314/file-236440333-jpg/images/business-motivation.jpg?t=1419844977657
p206
g3
(g4
g5
(g6
(S'\x07\xdf\x0b\x1a\x16\x18;\x02\x8b\x01'
tRp207
S'5'
I1
ttRp208
sVhttp://www.my7daydiet.com/images/motivation-for-7-day-diet.jpg
p209
g3
(g4
g5
(g6
(S'\x07\xe0\t\x1a\r\x08(\x0eI\xd2'
tRp210
I-1
I1
ttRp211
sVhttp://cdn.emgn.com/wp-content/uploads/2016/02/daily-motivation-910.jpg
p212
g3
(g4
g5
(g6
(S'\x07\xe0\x03\x1e\x0e!\x07\x03\xef\xf0'
tRp213
S'251'
p214
I1
ttRp215
sVhttps://cristirae.files.wordpress.com/2013/06/nike-running-poster.jpg
p216
g3
(g4
g5
(g6
(S'\x07\xe0\t\x0c\t\x1b)\r\xda\xba'
tRp217
S'545'
p218
I1
ttRp219
sVhttp://robertjrgraham.com/wp-content/uploads/2013/09/how-to-stay-motivated-at-work.jpg
p220
g3
(g4
g5
(g6
(S'\x07\xe0\x03\x06\x0c/$\nZ\xb1'
tRp221
S'132'
p222
I1
ttRp223
sVhttp://1.bp.blogspot.com/-a6qC8Ie-1EU/VRAuoEjGKDI/AAAAAAAACM8/j1UvDN6mvzA/s1600/motivation.png
p224
g3
(g4
g5
(g6
(S'\x07\xe0\t\x0c\t\x1b)\r\xda\xc1'
tRp225
S'542'
p226
I1
ttRp227
sVhttps://s-media-cache-ak0.pinimg.com/736x/cb/6a/d8/cb6ad879cfceee93742d9f6808cb9b0f.jpg
p228
g3
(g4
g5
(g6
(S'\x07\xe0\t\x16\x0b*\x14\ry\xf6'
tRp229
S'529'
p230
I1
ttRp231
sVhttp://edmayermarketing.com/wp-content/uploads/2016/03/motivation_1.jpg
p232
g3
(g4
g5
(g6
(S'\x07\xe0\x08\x11\x01\x05\n\x04fX'
tRp233
S'511'
p234
I1
ttRp235
sVhttps://prod-academy-wp-content-uploads.s3.amazonaws.com/2015/02/MOT_Time.jpg
p236
g3
(g4
g5
(g6
(S'\x07\xe0\t\x1c\x13\x10$\x0e|\x84'
tRp237
S'522'
p238
I1
ttRp239
sVhttp://cdn1.theodysseyonline.com/files/2015/12/20/6358625183398861921957087933_motivation2.jpg
p240
g3
(g4
g5
(g6
(S"\x07\xe0\x03\x1e\x0e!\x07\x03\xf0'"
tRp241
S'232'
p242
I1
ttRp243
sVhttp://static1.squarespace.com/static/559c41c5e4b01baae9b438f2/t/55d9cf2be4b0d815d6c2030f/1440337708203/
p244
g3
(g4
g5
(g6
(S'\x07\xdf\x0b\x10\x16\x11\x01\x00\x89\xbe'
tRp245
S'90'
p246
I1
ttRp247
sVhttp://laganafitness.com/wp-content/uploads/2013/09/225508_n.png
p248
g3
(g4
g5
(g6
(S'\x07\xdf\x0c\x1a\x1362\x00\xd9Q'
tRp249
I-1
I1
ttRp250
sVhttps://s-media-cache-ak0.pinimg.com/736x/ac/60/d5/ac60d5560c98f2d0b066f8a732aa740c.jpg
p251
g3
(g4
g5
(g6
(S'\x07\xe0\x05\x18\x15,\x19\r\xe5\xa2'
tRp252
S'285'
p253
I1
ttRp254
sVhttps://ip.bitcointalk.org/?u=http%3A%2F%2Fattitudes4innovation.com%2Fwp-content%2Fuploads%2F2015%2F04%2Fwishing.jpg&t=562&c=Lqim8_aeQvLAIQ
p255
g3
(g4
g5
(g6
(S'\x07\xe0\x04\x03\x0f\x0f0\x00\x15\x97'
tRp256
S'329'
p257
I1
ttRp258
sVhttps://rockmyrun.files.wordpress.com/2013/12/depositphotos_2329232_original.jpg
p259
g3
(g4
g5
(g6
(S'\x07\xe0\n\x02\x13\x18\x1b\x01B('
tRp260
S'374'
p261
I1
ttRp262
sVhttp://thrivehive.com/wp-content/uploads/2015/10/employee-motivation-techniques-1.jpg
p263
g3
(g4
g5
(g6
(S'\x07\xe0\x04\t\x0f/\x1a\x02\xe9\x1f'
tRp264
I-1
I1
ttRp265
sVhttp://www.fearlessmotivation.com/wp-content/uploads/2015/04/Crossfit-Motivation-Videos.jpg
p266
g3
(g4
g5
(g6
(S'\x07\xe0\x08\r\x006\r\x01f\xb8'
tRp267
S'498'
p268
I2
ttRp269
sVhttp://cdn.emgn.com/wp-content/uploads/2016/02/motivate-yourself-71.jpg
p270
g3
(g4
g5
(g6
(S'\x07\xe0\x08\r\x006\r\x01f\xcc'
tRp271
S'346'
p272
I1
ttRp273
sVhttp://hardquotes.com/wp-content/plugins/nextgen-gallery/images/no-motvation-in-life/motivation4.jpeg
p274
g3
(g4
g5
(g6
(S'\x07\xe0\x03\x04\n\x04\r\x07!\x15'
tRp275
S'302'
p276
I2
ttRp277
sVhttp://www.wakingtimes.com/wp-content/uploads/2014/10/got-motivation.jpg
p278
g3
(g4
g5
(g6
(S'\x07\xe0\x01\x1f\x17/\x06\x04\xe8\xf7'
tRp279
S'241'
p280
I1
ttRp281
sVhttp://img.freepik.com/free-vector/minimalist-positive-message-retro-card-design_23-2147486852.jpg?size=338&ext=jpg
p282
g3
(g4
g5
(g6
(S'\x07\xe0\x02\x11\x04\x08.\x0b\xd9\xf2'
tRp283
S'280'
p284
I1
ttRp285
sVhttp://soshable.com/wp-content/uploads/2011/07/Motivation.jpg
p286
g3
(g4
g5
(g6
(S'\x07\xe0\x02\x11\x04\x08.\x0b\xd9\xf6'
tRp287
S'276'
p288
I1
ttRp289
sVhttp://previews.123rf.com/images/dirkercken/dirkercken1501/dirkercken150100849/35349484-motivation-letter-for-new-work-motivate-yourself-self-motivation-keep-trying-dont-give-up-make-thing-Stock-Photo.jpg
p290
g3
(g4
g5
(g6
(S'\x07\xe0\x07\x11\x15-1\x0e\xb9\x9b'
tRp291
S'437'
p292
I1
ttRp293
sVhttps://s.yimg.com/lm/ysbp/img/BzX9c3rJhzhp64_55ZTDDRdwOgyXCYcF3ekOB9Rk36SZlS6VPjYaF2LAfQ8q9ELh.jpg
p294
g3
(g4
g5
(g6
(S'\x07\xe0\x03\x1c\x0e .\x0f9\xd9'
tRp295
S'267'
p296
I2
ttRp297
sVhttp://www.aaiclinics.com/wp-content/uploads/2015/05/Motivation.png
p298
g3
(g4
g5
(g6
(S'\x07\xdf\x0b\x17\x16\x16\t\r\xb7\xca'
tRp299
I-1
I1
ttRp300
sVhttp://www.madelinemcqueen.com/wp-content/uploads/2015/05/motivation-1.jpg
p301
g3
(g4
g5
(g6
(S'\x07\xdf\x0b\x10\x16\x11\x01\x00\x89%'
tRp302
S'56'
p303
I1
ttRp304
sVhttps://b.fastcompany.net/multisite_files/fastcompany/imagecache/1280/poster/2014/02/3026089-poster-p-1-ask-the-experts-how-do-i-find-the-motivation-to-get-to-the-next-stage-of-my.jpg
p305
g3
(g4
g5
(g6
(S'\x07\xe0\t\x1c\x13\x10$\x0e{}'
tRp306
S'553'
p307
I1
ttRp308
sVhttps://pbs.twimg.com/media/CjpKDgEUUAAhYwI.jpg
p309
g3
(g4
g5
(g6
(S'\x07\xe0\x06\x06\r\x0f\x16\n\xa2\x18'
tRp310
S'418'
p311
I1
ttRp312
sVhttp://breakouttheskinnygir.fatcow.com/wp-content/uploads/2015/09/motivation.jpg
p313
g3
(g4
g5
(g6
(S'\x07\xe0\x05\x12\x12\x05\x10\x02\x87s'
tRp314
S'239'
p315
I1
ttRp316
sVhttp://beyondbreastcancer.files.wordpress.com/2012/06/motivation-steps.jpg
p317
g3
(g4
g5
(g6
(S'\x07\xe0\x01\x03\x16\x029\x05\xc42'
tRp318
S'51'
p319
I1
ttRp320
sVhttps://cdn.psychologytoday.com/sites/default/files/field_blog_entry_images/4504724163_277a8197ff_z.jpg
p321
g3
(g4
g5
(g6
(S'\x07\xe0\x06\x17\n\x08\x12\r\xbe\xa6'
tRp322
I-1
I1
ttRp323
sVhttp://garak.wimp.com/images/thumbs/2010/05/0d1819eb1fb074385a5efeb6570e1bd3_motivation_506_332.jpg
p324
g3
(g4
g5
(g6
(S'\x07\xe0\x08\r\x006\r\x01f\xd4'
tRp325
S'463'
p326
I1
ttRp327
sVhttps://s-media-cache-ak0.pinimg.com/564x/ac/60/d5/ac60d5560c98f2d0b066f8a732aa740c.jpg
p328
g3
(g4
g5
(g6
(S"\x07\xe0\x02\x19\t1'\x04\x95\x1b"
tRp329
I-1
I1
ttRp330
sVhttp://motivationfactor.com/wp-content/uploads/2013/09/group_line_key_stick_figure_1600_clr_5644.png
p331
g3
(g4
g5
(g6
(S'\x07\xe0\x07\x11\x15-1\x0e\xb7\x08'
tRp332
S'226'
p333
I1
ttRp334
sVhttp://www.theacornstash.com/wp-content/uploads/2010/12/Covey-Motivation-800x600.jpg
p335
g3
(g4
g5
(g6
(S'\x07\xe0\t\x0c\t\x1b)\r\xda\x9f'
tRp336
I-1
I1
ttRp337
sVhttp://b.fastcompany.net/multisite_files/fastcompany/imagecache/1280/poster/2014/02/3026089-poster-p-1-ask-the-experts-how-do-i-find-the-motivation-to-get-to-the-next-stage-of-my.jpg
p338
g3
(g4
g5
(g6
(S'\x07\xe0\x08\x03\x00\x16+\x00\xb2E'
tRp339
S'101'
p340
I1
ttRp341
sVhttps://theanxioushooker.files.wordpress.com/2015/07/motivation2.jpg
p342
g3
(g4
g5
(g6
(S'\x07\xdf\x0c\x14\x11(\x1f\x05\xb5\xc6'
tRp343
S'108'
p344
I1
ttRp345
sVhttp://www.musterlebenslauf.net/wp-content/uploads/2013/07/Motivation-Bewerbung.jpg
p346
g3
(g4
g5
(g6
(S'\x07\xe0\t\x0c\t\x1b)\r\xda\xaf'
tRp347
S'328'
p348
I1
ttRp349
sVhttps://learningperformancehollychandler.files.wordpress.com/2015/10/motivation2.jpg
p350
g3
(g4
g5
(g6
(S'\x07\xe0\n\x08\x134\x0f\n\xe0\xf7'
tRp351
S'96'
p352
I1
ttRp353
sVhttp://omgcutethings.com/wp-content/uploads/2014/03/tuesday-motivation-031014-03.jpg
p354
g3
(g4
g5
(g6
(S'\x07\xe0\t\x04\x04\x1f\x18\x02\x86\xbb'
tRp355
S'136'
p356
I1
ttRp357
sVhttp://justknow.me/wp-content/uploads/2016/02/motivation-quotes-justknow-me.jpg
p358
g3
(g4
g5
(g6
(S'\x07\xe0\x05\x07\x15#\x0c\x06\x9b\x08'
tRp359
S'422'
p360
I1
ttRp361
sVhttps://baharanooshahr.files.wordpress.com/2016/02/img_2005.jpeg
p362
g3
(g4
g5
(g6
(S'\x07\xe0\n\x02\x13\x18\x1b\x01A\xdb'
tRp363
S'568'
p364
I1
ttRp365
sVhttp://www.icebreaker-bd.com/wp-content/uploads/2016/02/motivation-1.jpg
p366
g3
(g4
g5
(g6
(S'\x07\xe0\x07\x15\x174\x12\x03\x0e\xd9'
tRp367
S'490'
p368
I1
ttRp369
sVhttp://static6.depositphotos.com/1034557/638/i/450/depositphotos_6382023-Speech-bubble-motivation.jpg
p370
g3
(g4
g5
(g6
(S'\x07\xe0\x08\x03\x00\x16+\x00\xb2\xc5'
tRp371
I-1
I1
ttRp372
sVhttp://science-all.com/images/wallpapers/motivation-pics/motivation-pics-7.jpg
p373
g3
(g4
g5
(g6
(S'\x07\xe0\x06\x06\r\x0f\x16\n\xa1\xc6'
tRp374
S'416'
p375
I1
ttRp376
sVhttp://blog.dougdvorak.com/wp-content/uploads/2013/02/motivation-98015.jpg
p377
g3
(g4
g5
(g6
(S'\x07\xe0\x05\x12\x12\x05\x10\x02\x87\x7f'
tRp378
S'396'
p379
I1
ttRp380
sVhttp://www.changeinseconds.com/wp-content/uploads/2013/10/weight-loss-motivation-1.jpg
p381
g3
(g4
g5
(g6
(S'\x07\xe0\t\x16\x0b*\x14\rz:'
tRp382
S'454'
p383
I2
ttRp384
sVhttp://image.slidesharecdn.com/the-secret-of-employee-motivation-150617203958-lva1-app6891/95/the-secret-to-employee-motivation-3-638.jpg?cb=1435100692
p385
g3
(g4
g5
(g6
(S'\x07\xe0\x06\x17\n\x08\x12\r\xbf\x17'
tRp386
S'258'
p387
I2
ttRp388
sVhttps://media.licdn.com/mpr/mpr/p/1/005/09e/1ee/1ad0ecc.jpg
p389
g3
(g4
g5
(g6
(S'\x07\xe0\t\x1a\r\x08(\x0eI['
tRp390
S'324'
p391
I2
ttRp392
sVhttp://www.rightattitudes.com/blogincludes/images/Seven_Ways_to_Motivate_Yourself.jpg
p393
g3
(g4
g5
(g6
(S'\x07\xe0\t\x1a\r\x08(\x0eH\xe9'
tRp394
S'554'
p395
I1
ttRp396
sVhttps://saraharkerblog.files.wordpress.com/2016/03/motivation.jpg?w=648
p397
g3
(g4
g5
(g6
(S'\x07\xe0\x08\r\x006\r\x01f\xa7'
tRp398
S'481'
p399
I1
ttRp400
sVhttps://mlsvc01-prod.s3.amazonaws.com/060fd29a001/165eb39e-fa30-4e41-b949-98673e7cbb5f.jpg?ver=1435857041000
p401
g3
(g4
g5
(g6
(S'\x07\xe0\x08\r\x006\r\x01fb'
tRp402
I-1
I1
ttRp403
sVhttps://c1.staticflickr.com/9/8749/16927430497_55f4c79846_b.jpg
p404
g3
(g4
g5
(g6
(S'\x07\xdf\x0c\x0c\x11\x1d!\x06\xcf\\'
tRp405
S'160'
p406
I1
ttRp407
sVhttps://www.academics.com/image-upload/letter_of_motivation_0.jpg
p408
g3
(g4
g5
(g6
(S'\x07\xe0\x02\x11\x04\x08.\x0b\xd9Q'
tRp409
S'115'
p410
I1
ttRp411
sVhttp://sportshealthscience.com/wp-content/uploads/2014/11/article3.jpg
p412
g3
(g4
g5
(g6
(S'\x07\xdf\x0b\x08\x16\n\x12\x00U\xdb'
tRp413
S'71'
p414
I1
ttRp415
sVhttp://www.liveinthezonetraining.com/wp-content/uploads/2015/03/how-to-stay-motivated-at-work.jpg
p416
g3
(g4
g5
(g6
(S'\x07\xdf\x0c\x1a\x1362\x00\xd8s'
tRp417
S'181'
p418
I1
ttRp419
sVhttp://www.careerealism.com/wp-content/uploads/2012/06/tips-creating-workplace-motivation.jpg
p420
g3
(g4
g5
(g6
(S'\x07\xe0\t\x04\x04\x1f\x18\x02\x87\xa9'
tRp421
S'137'
p422
I1
ttRp423
sVhttp://1.bp.blogspot.com/-fGw2i_HkUS8/VaNJSEhjfGI/AAAAAAACHRE/UGeKuPVaEJ8/s1600/motivation.jpg
p424
g3
(g4
g5
(g6
(S'\x07\xe0\n\x08\x134\x0f\n\xe1G'
tRp425
S'514'
p426
I1
ttRp427
sVhttp://blog.kaleidico.com/wp-content/uploads/sales-motivation.jpg
p428
g3
(g4
g5
(g6
(S'\x07\xe0\x01\x03\x16\x08!\x04\x00k'
tRp429
I-1
I1
ttRp430
sVhttp://bookboon.com/blog/wp-content/uploads/2013/05/11528993-motivate-word-on-laundry-hook-on-white-1024x540.jpg
p431
g3
(g4
g5
(g6
(S'\x07\xdf\x0c\x1a\x1362\x00\xd9\xe8'
tRp432
S'171'
p433
I1
ttRp434
sVhttp://1.bp.blogspot.com/-V0ugp8oIvEU/VRAupLWbFPI/AAAAAAAACNM/xXEb_DigU1E/s1600/motivation4.png
p435
g3
(g4
g5
(g6
(S'\x07\xe0\t\x16\x0b*\x14\rz\xc9'
tRp436
S'536'
p437
I1
ttRp438
sVhttp://www.mybeautygym.com/wp-content/uploads/2016/02/how-to-turn-on-your-motivation.jpg
p439
g3
(g4
g5
(g6
(S'\x07\xe0\x06\x1e\n0\x1b\x01\x8e$'
tRp440
S'444'
p441
I1
ttRp442
sVhttp://dailysocialsmedia.com/wp-content/uploads/2015/10/motivation-art.jpg
p443
g3
(g4
g5
(g6
(S'\x07\xdf\x0b\x1a\x16\x18;\x02\x8af'
tRp444
I-1
I1
ttRp445
sVhttps://www.mindtools.com/media/Resized-Images/Articles/Time_Management/25_IS_26073400_guvendemir_2x1.jpg
p446
g3
(g4
g5
(g6
(S'\x07\xe0\x08\x03\x00\x16+\x00\xb2\xcf'
tRp447
I-1
I1
ttRp448
sVhttp://elearningindustry.com/wp-content/uploads/2015/04/Enhance-Motivation-eLearning.jpg
p449
g3
(g4
g5
(g6
(S'\x07\xe0\x04\x13\x0f;&\x01\xf2D'
tRp450
I-1
I1
ttRp451
sVhttp://www.pixelstalk.net/wp-content/uploads/2016/06/Motivation-Background.jpg
p452
g3
(g4
g5
(g6
(S'\x07\xe0\n\x08\x134\x0f\n\xe0\x9d'
tRp453
I-1
I1
ttRp454
sVhttps://getyourpips.com/wp-content/uploads/2016/02/shit-gets-real.jpg
p455
g3
(g4
g5
(g6
(S'\x07\xe0\n\x08\x134\x0f\n\xe0\xa2'
tRp456
I-1
I1
ttRp457
sVhttp://cdn.fiboni.com/wp-content/uploads/2015/03/Get-Motivated.jpg?a0f395
p458
g3
(g4
g5
(g6
(S'\x07\xe0\x07\x11\x15-1\x0e\xb7y'
tRp459
S'214'
p460
I1
ttRp461
sVhttp://rhemacounseling.com/wp-content/uploads/2014/11/motivation.jpg
p462
g3
(g4
g5
(g6
(S'\x07\xe0\x05\x07\x15#\x0c\x06\x9ay'
tRp463
S'355'
p464
I1
ttRp465
sVhttp://jackcanfield.com/wp-content/uploads/2015/06/blog-5waysselfmotivatedlearnerswin.jpg
p466
g3
(g4
g5
(g6
(S'\x07\xe0\x04\x1d\x10\x02\n\t\xb5\xdf'
tRp467
S'357'
p468
I1
ttRp469
sVhttp://az616578.vo.msecnd.net/files/2016/07/11/636038000478285543165795068_8345770_orig.jpg
p470
g3
(g4
g5
(g6
(S'\x07\xe0\t\x16\x0b*\x14\ryf'
tRp471
I-1
I1
ttRp472
sVhttp://cdn.wallpapersafari.com/13/84/V1Rq8Y.png
p473
g3
(g4
g5
(g6
(S'\x07\xe0\n\x08\x134\x0f\n\xe0\xc1'
tRp474
NI1
ttRp475
sVhttp://cdn.emgn.com/wp-content/uploads/2016/02/motivation-steps1.jpg
p476
g3
(g4
g5
(g6
(S'\x07\xe0\x08\r\x006\r\x01f\x19'
tRp477
S'249'
p478
I1
ttRp479
sVhttps://elearningindustry.com/wp-content/uploads/2014/10/Superhero-learner-1024x716.png
p480
g3
(g4
g5
(g6
(S'\x07\xe0\t\x04\x04\x1f\x18\x02\x86i'
tRp481
I-1
I1
ttRp482
sVhttp://www.nexercise.com/wp-content/uploads/2013/06/20007282_xxl.jpg
p483
g3
(g4
g5
(g6
(S'\x07\xe0\n\x08\x134\x0f\n\xe1%'
tRp484
I-1
I1
ttRp485
sVhttps://standingstrongwellness.files.wordpress.com/2015/07/motivation1.jpg
p486
g3
(g4
g5
(g6
(S'\x07\xdf\x0b\x1a\x16\x18;\x02\x8a\xbb'
tRp487
S'57'
p488
I1
ttRp489
sVhttp://lifedblog.com/wp-content/uploads/2015/06/Motivation.jpg
p490
g3
(g4
g5
(g6
(S'\x07\xdf\x0b\x17\x16\x16\t\r\xb8\r'
tRp491
S'14'
p492
I1
ttRp493
sVhttp://motivationalletter.com/wp-content/uploads/2016/05/motivation_letter_phd-1.png
p494
g3
(g4
g5
(g6
(S'\x07\xe0\t\x1a\r\x08(\x0eIF'
tRp495
S'524'
p496
I1
ttRp497
sVhttp://image.shutterstock.com/z/stock-vector-fitness-motivation-quote-poster-gym-inspirational-banner-with-text-and-hand-drawing-sport-icons-413780152.jpg
p498
g3
(g4
g5
(g6
(S'\x07\xe0\n\x02\x13\x18\x1b\x01A\x8f'
tRp499
S'565'
p500
I1
ttRp501
sVhttp://i.huffpost.com/gen/1638409/images/o-WORK-MOTIVATION-facebook.jpg
p502
g3
(g4
g5
(g6
(S'\x07\xe0\n\x08\x134\x0f\n\xe0\xcf'
tRp503
S'351'
p504
I2
ttRp505
sVhttps://az616578.vo.msecnd.net/files/responsive/cover/main/desktop/2015/12/06/635849731893843794-971405915_motivation2.jpg
p506
g3
(g4
g5
(g6
(S'\x07\xe0\n\x02\x13\x18\x1b\x01A\xac'
tRp507
S'512'
p508
I1
ttRp509
sVhttp://www.pixelstalk.net/wp-content/uploads/2016/06/Motivation-Desktop-Backgrounds.jpg
p510
g3
(g4
g5
(g6
(S'\x07\xe0\x08\x11\x01\x05\n\x04e\xa2'
tRp511
I-1
I1
ttRp512
sVhttp://www.thestonerscookbook.com/wp-content/uploads/2016/01/Motivation-strain-type.jpg?f66d77
p513
g3
(g4
g5
(g6
(S'\x07\xe0\x03\x1e\x0e!\x07\x03\xef\xd2'
tRp514
I-1
I1
ttRp515
sVhttp://previews.123rf.com/images/nappelbaum/nappelbaum1507/nappelbaum150700029/43253281-Motivation-quote-Vector-illustration-with-hand-drawn-words-If-life-gives-you-lemons-make-lemonade-po-Stock-Vector.jpg
p516
g3
(g4
g5
(g6
(S'\x07\xe0\x07\x11\x15-1\x0e\xb74'
tRp517
S'475'
p518
I1
ttRp519
sVhttp://benguonline.com/wp-content/uploads/2015/05/Motivation-und-Zielsetzung-Erfolg-Success.jpg
p520
g3
(g4
g5
(g6
(S'\x07\xe0\x01\r\x16\n\x16\x0e\xd6\x08'
tRp521
I-1
I1
ttRp522
sVhttp://previews.123rf.com/images/kbuntu/kbuntu1205/kbuntu120500042/13498661-Hand-pointing-at-a-Motivation-word-cloud-on-blue-background--Stock-Photo.jpg
p523
g3
(g4
g5
(g6
(S'\x07\xe0\t\x1c\x13\x10$\x0e{\xdd'
tRp524
S'304'
p525
I1
ttRp526
sVhttp://strong.top.me/wp-content/uploads/2013/04/motivation-1024x679.jpg
p527
g3
(g4
g5
(g6
(S'\x07\xe0\x07\x15\x174\x12\x03\x0fM'
tRp528
S'174'
p529
I1
ttRp530
sVhttp://pic.1fotonin.com/data/wallpapers/23/WDF_712784.jpg
p531
g3
(g4
g5
(g6
(S'\x07\xe0\x05\x07\x15#\x0c\x06\x9a\xd8'
tRp532
S'373'
p533
I2
ttRp534
sVhttps://s-media-cache-ak0.pinimg.com/736x/92/a4/c5/92a4c5e0c66e069b3a5986903af46ef1.jpg
p535
g3
(g4
g5
(g6
(S'\x07\xe0\n\x1e\x15\x19%\x07\xe2\xa5'
tRp536
S'488'
p537
I2
ttRp538
sVhttps://thumbs.dreamstime.com/z/hand-word-motivation-isolated-white-background-34437237.jpg
p539
g3
(g4
g5
(g6
(S'\x07\xe0\x06\x1e\n0\x1b\x01\x8d|'
tRp540
S'448'
p541
I1
ttRp542
sVhttp://develite.com/wp-content/uploads/2016/01/steve-jobs-motivation-1-1.jpg
p543
g3
(g4
g5
(g6
(S'\x07\xe0\x05\x12\x12\x05\x10\x02\x87N'
tRp544
S'363'
p545
I1
ttRp546
sVhttp://www.mrwallpaper.com/wallpapers/motivation-1920x1080.jpg
p547
g3
(g4
g5
(g6
(S'\x07\xe0\n\x08\x134\x0f\n\xe0\xec'
tRp548
S'358'
p549
I1
ttRp550
sVhttp://xpotentialselling.com/wp-content/uploads/2016/03/motivation.jpg
p551
g3
(g4
g5
(g6
(S'\x07\xe0\t\x1c\x13\x10$\x0e|#'
tRp552
S'470'
p553
I1
ttRp554
sVhttp://daystofitness.com/wp-content/uploads/2015/04/motivation-for-21-day-fix-workout.jpg
p555
g3
(g4
g5
(g6
(S'\x07\xe0\t\x16\x0b*\x14\rz\x11'
tRp556
I-1
I1
ttRp557
sVhttp://blog.mapconsulting.com/wp-content/uploads/2014/04/Motivation.jpg
p558
g3
(g4
g5
(g6
(S'\x07\xdf\x0c\x1a\x1362\x00\xd9^'
tRp559
S'161'
p560
I1
ttRp561
sVhttp://uncoveries.com/wp-content/uploads/2016/02/favorite-exercise-to-stay-motivated.jpg
p562
g3
(g4
g5
(g6
(S'\x07\xe0\x07\x17\x175\x01\x06\\9'
tRp563
S'491'
p564
I1
ttRp565
sVhttps://realenglishconversations.files.wordpress.com/2015/01/change-today-motivational-monday.jpg
p566
g3
(g4
g5
(g6
(S'\x07\xdf\n\x15\x15\x14\x10\n\xe8\xba'
tRp567
S'11'
p568
I1
ttRp569
sVhttp://otgbootcamp.com/wp-content/uploads/2015/12/new-years-resolution-motivation.jpg
p570
g3
(g4
g5
(g6
(S'\x07\xe0\x06\x06\r\x0f\x16\n\xa1\xf9'
tRp571
S'399'
p572
I1
ttRp573
sVhttp://www.referenceforbusiness.com/photos/employee-motivation-148.jpg
p574
g3
(g4
g5
(g6
(S'\x07\xe0\x08\x03\x00\x16+\x00\xb2\xfa'
tRp575
S'350'
p576
I1
ttRp577
sVhttp://d.fastcompany.net/multisite_files/fastcompany/imagecache/1280/poster/2014/07/3033268-poster-1280-rediscover-motivation.jpg
p578
g3
(g4
g5
(g6
(S'\x07\xe0\x07\x11\x15-1\x0e\xb7\xab'
tRp579
I-1
I1
ttRp580
sVhttp://www.changeinseconds.com/wp-content/uploads/2015/03/weight-loss-motivation-65.jpg
p581
g3
(g4
g5
(g6
(S'\x07\xe0\t\x0c\t\x1b)\r\xdb\x07'
tRp582
S'487'
p583
I1
ttRp584
sVhttps://daleyus.files.wordpress.com/2014/12/motivation2.jpg
p585
g3
(g4
g5
(g6
(S'\x07\xe0\x03\x06\x0c/$\n[\x0b'
tRp586
S'180'
p587
I1
ttRp588
sVhttp://havingtime.com/wp-content/uploads/2012/12/Self-Motivation.jpeg
p589
g3
(g4
g5
(g6
(S"\x07\xdf\x0b\x14\x16\x15'\x03\xa2W"
tRp590
S'3'
I1
ttRp591
sVhttp://fitblogger.ca/wp-content/images/2012/01/Motivation.jpg
p592
g3
(g4
g5
(g6
(S'\x07\xdf\n\x15\x15\x14\x10\n\xe8\xe2'
tRp593
S'27'
p594
I1
ttRp595
sVhttp://tweakyourbiz.com/management/files/importance-of-employee-motivation.jpg
p596
g3
(g4
g5
(g6
(S'\x07\xe0\x03\x06\x0c/$\nZd'
tRp597
I-1
I1
ttRp598
sVhttp://mrstuartmarshall.com/wp-content/uploads/2016/03/7007124-motivation-art.jpg
p599
g3
(g4
g5
(g6
(S'\x07\xe0\n\x08\x134\x0f\n\xe1h'
tRp600
S'563'
p601
I2
ttRp602
sVhttps://s3-us-west-2.amazonaws.com/social-staticdata/uploads/2014/11/self-motivation-1415164869.jpg
p603
g3
(g4
g5
(g6
(S'\x07\xe0\x01\r\x16\n\x16\x0e\xd6\x87'
tRp604
S'192'
p605
I1
ttRp606
sVhttp://www.servicedesigntools.org/sites/default/files/res_images/MOTIVATION_MATRIX_01.jpg
p607
g3
(g4
g5
(g6
(S'\x07\xe0\n\x08\x134\x0f\n\xe1l'
tRp608
S'78'
p609
I1
ttRp610
sVhttp://www.fearlessmotivation.com/wp-content/uploads/2016/03/fearless-motivation-whatever-it-takes-track.jpg
p611
g3
(g4
g5
(g6
(S'\x07\xe0\x07\x0f\x10\x05!\n\xd7\xf6'
tRp612
S'394'
p613
I1
ttRp614
sVhttps://s3.amazonaws.com/images.wealthyaffiliate.com/uploads/456989/wysiwyg/blogs/0b4f4d9addbfb4dc46ed7c03b3288623_1462466404_cropped.jpg
p615
g3
(g4
g5
(g6
(S'\x07\xe0\x08\x11\x01\x05\n\x04g,'
tRp616
S'493'
p617
I1
ttRp618
sVhttps://az616578.vo.msecnd.net/files/responsive/cover/main/desktop/2016/05/31/636003122151125271-1986767656_635849731893843794-971405915_motivation2.jpg
p619
g3
(g4
g5
(g6
(S'\x07\xe0\n\x08\x134\x0f\n\xe1o'
tRp620
NI1
ttRp621
sVhttps://img1.steemit.com/0x0/https://learningperformancehollychandler.files.wordpress.com/2015/10/motivation2.jpg
p622
g3
(g4
g5
(g6
(S'\x07\xe0\x08\x1f\x04\x14\x13\x06\x00\xfc'
tRp623
S'508'
p624
I1
ttRp625
sVhttp://www.endorphincrossfit.com/wp-content/uploads/2014/10/focus-motivation.jpg
p626
g3
(g4
g5
(g6
(S'\x07\xe0\x07\x11\x15-1\x0e\xb6\xca'
tRp627
S'15'
p628
I1
ttRp629
sVhttp://webneel.com/wallpaper/sites/default/files/images/05-2013/13%20motivation%20wallpaper.jpg
p630
g3
(g4
g5
(g6
(S'\x07\xe0\x01\r\x16\n\x16\x0e\xd5k'
tRp631
S'194'
p632
I1
ttRp633
sVhttp://www.theloungetrader.com/wp-content/uploads/2015/08/motivated.jpg
p634
g3
(g4
g5
(g6
(S'\x07\xdf\x0b\x17\x16\x16\t\r\xb8J'
tRp635
S'84'
p636
I1
ttRp637
sVhttp://www.epibinursingpads.com/wp-content/uploads/2015/08/Motivation.jpg
p638
g3
(g4
g5
(g6
(S'\x07\xe0\t\x1a\r\x08(\x0eI\xdf'
tRp639
S'345'
p640
I1
ttRp641
sVhttp://img.medicalxpress.com/newman/gfx/news/hires/2015/newtheoryint.jpg
p642
g3
(g4
g5
(g6
(S'\x07\xe0\x07\x11\x15-1\x0e\xb7k'
tRp643
S'225'
p644
I1
ttRp645
sVhttps://c1.staticflickr.com/3/2848/10722725205_0b2fcd12cf_b.jpg
p646
g3
(g4
g5
(g6
(S'\x07\xe0\x03\x1e\x0e!\x07\x03\xef\x8b'
tRp647
S'333'
p648
I1
ttRp649
sVhttp://www.richgrof.com/wp-content/uploads/2014/09/Employee-Motivation1.jpg?7b4755
p650
g3
(g4
g5
(g6
(S'\x07\xdf\x0c\x08\x10*\x1f\to\x16'
tRp651
S'36'
p652
I1
ttRp653
sVhttp://kurld.com/images/wallpapers/motivation-wallpaper/motivation-wallpaper-16.jpg
p654
g3
(g4
g5
(g6
(S'\x07\xe0\t\x1c\x13\x10$\x0e{\x8b'
tRp655
S'557'
p656
I1
ttRp657
sVhttps://s-media-cache-ak0.pinimg.com/736x/69/31/0e/69310e0706a9b4f5aadb077f4d8e7840.jpg
p658
g3
(g4
g5
(g6
(S'\x07\xe0\t\x0c\t\x1b)\r\xdas'
tRp659
S'525'
p660
I1
ttRp661
sVhttp://cdn.yourarticlelibrary.com/wp-content/uploads/2013/11/motivation.jpg
p662
g3
(g4
g5
(g6
(S'\x07\xe0\t\x1a\r\x08(\x0eH\xf4'
tRp663
S'116'
p664
I1
ttRp665
sVhttps://allthingslearning.files.wordpress.com/2013/06/motivation-a-third-way.png
p666
g3
(g4
g5
(g6
(S'\x07\xdf\x0c\x1a\x1362\x00\xd8;'
tRp667
S'162'
p668
I1
ttRp669
sVhttp://pad1.whstatic.com/images/thumb/3/36/Improve-Motivation-Step-1.jpg/aid986234-704px-Improve-Motivation-Step-1.jpg
p670
g3
(g4
g5
(g6
(S'\x07\xe0\x08\r\x006\r\x01f\x86'
tRp671
S'404'
p672
I1
ttRp673
sVhttp://www.alliancemercantile.com.au/wp-content/uploads/2015/12/motivation-2-1024x819.jpg
p674
g3
(g4
g5
(g6
(S'\x07\xe0\x03\x0e\r;\x15\x0e\x89\xd1'
tRp675
S'238'
p676
I1
ttRp677
sVhttp://michellesegar.com/wp/wp-content/uploads/2015/12/you-can-stick-ever-green-e1462382262865.png
p678
g3
(g4
g5
(g6
(S'\x07\xe0\t\x1c\x13\x10$\x0e|V'
tRp679
S'431'
p680
I1
ttRp681
sVhttp://project-management.com/wp-content/uploads/2013/10/motivation.jpg
p682
g3
(g4
g5
(g6
(S'\x07\xe0\x01\x1f\x17/\x06\x04\xe8\x83'
tRp683
S'242'
p684
I1
ttRp685
sVhttp://vonblancofitness.com/wp-content/uploads/2011/10/monday-motivation-9.jpeg
p686
g3
(g4
g5
(g6
(S'\x07\xe0\n\x08\x134\x0f\n\xe0\xc4'
tRp687
NI1
ttRp688
sVhttp://previews.123rf.com/images/cubrazol/cubrazol1003/cubrazol100300071/6626346-The-word-motivation-written-with-cloud-letters-against-a-blue-sky--Stock-Photo.jpg
p689
g3
(g4
g5
(g6
(S'\x07\xe0\x06\x1e\n0\x1b\x01\x8d\x83'
tRp690
S'451'
p691
I1
ttRp692
sVhttp://30daystox.com/wp-content/uploads/2014/09/How-to-triple-your-motivation-notes.jpg
p693
g3
(g4
g5
(g6
(S'\x07\xe0\x04\r\x0f4*\x0b\xaf\xe4'
tRp694
S'299'
p695
I1
ttRp696
sVhttp://www.ssbinternationalschool.in/wp-content/uploads/2016/06/34.jpg
p697
g3
(g4
g5
(g6
(S'\x07\xe0\x06\x1e\n0\x1b\x01\x8d\x8d'
tRp698
S'449'
p699
I1
ttRp700
sVhttp://seanwes.com/wp-content/uploads/2014/02/motivation-2.jpg
p701
g3
(g4
g5
(g6
(S'\x07\xe0\x04\t\x0f/\x1a\x02\xe8~'
tRp702
S'165'
p703
I1
ttRp704
sVhttp://www.usfsp.edu/bishop/files/2015/08/4504724163_277a8197ff_z.jpg
p705
g3
(g4
g5
(g6
(S'\x07\xe0\x06\x06\r\x0f\x16\n\xa1|'
tRp706
S'24'
p707
I1
ttRp708
sVhttp://cdn.allwallpaper.in/wallpapers/1920x1080/13333/text-motivation-inspiration-1920x1080-wallpaper.jpg
p709
g3
(g4
g5
(g6
(S'\x07\xe0\x01\x1f\x17/\x06\x04\xe8\xad'
tRp710
I-1
I1
ttRp711
sVhttp://www.savemongolian.com/wp-content/uploads/2015/12/motivation.jpg
p712
g3
(g4
g5
(g6
(S'\x07\xe0\n\x02\x13\x18\x1b\x01A\xbe'
tRp713
S'561'
p714
I1
ttRp715
sVhttp://thumbs.dreamstime.com/z/hand-word-motivation-isolated-white-background-34437237.jpg
p716
g3
(g4
g5
(g6
(S'\x07\xe0\x03\x14\x0e\x1d\x16\x05\x1bv'
tRp717
S'140'
p718
I1
ttRp719
sVhttp://f3y.com/wp-content/uploads/2010/11/App_Themes_LSCTheme_Images_Motivation.jpg
p720
g3
(g4
g5
(g6
(S'\x07\xdf\x0b\x1a\x16\x18;\x02\x8b\x10'
tRp721
I-1
I1
ttRp722
sVhttps://pbs.twimg.com/media/By60s-AIIAAxdvA.jpg
p723
g3
(g4
g5
(g6
(S'\x07\xe0\x04\x03\x0f\x0f0\x00\x14\xf5'
tRp724
S'269'
p725
I1
ttRp726
sVhttp://www.nootropicsinfo.com/wp-content/uploads/2014/09/typography_inspirational_motivational_posters_motivation_desktop_1280x1024_hd-wallpaper-558620.jpg
p727
g3
(g4
g5
(g6
(S'\x07\xe0\x07\x11\x15-1\x0e\xb7\xa5'
tRp728
S'19'
p729
I1
ttRp730
sVhttp://www.invistaperforms.org/wp-content/uploads/2014/09/self_motivation1.jpg
p731
g3
(g4
g5
(g6
(S'\x07\xdf\x0c\x1a\x1362\x00\xd8\xfe'
tRp732
S'141'
p733
I1
ttRp734
sVhttp://artiden.com/img/motivation-i-will.jpg
p735
g3
(g4
g5
(g6
(S'\x07\xe0\n\x08\x134\x0f\n\xe0\xff'
tRp736
S'9'
I2
ttRp737
sVhttp://merl.nie.edu.sg/images/motivation.jpg
p738
g3
(g4
g5
(g6
(S'\x07\xe0\n\x1e\x15\x19%\x07\xe2\x8d'
tRp739
S'154'
p740
I1
ttRp741
sVhttp://www.changeinseconds.com/wp-content/uploads/2015/03/weight-loss-motivation-79.jpg
p742
g3
(g4
g5
(g6
(S'\x07\xe0\t\x0c\t\x1b)\r\xda\x90'
tRp743
S'544'
p744
I1
ttRp745
sVhttp://www.scary-dvd.com/wp-content/uploads/2015/12/ed1914_5_tipps_motivation_banner_960x400_c_.jpg
p746
g3
(g4
g5
(g6
(S'\x07\xe0\x07\x07\x10\x04\x1e\x0bx\x7f'
tRp747
I-1
I1
ttRp748
sVhttp://thumb9.shutterstock.com/display_pic_with_logo/590002/267961712/stock-photo-inspirational-motivating-quote-on-notebook-and-coffee-with-retro-filter-effect-267961712.jpg
p749
g3
(g4
g5
(g6
(S'\x07\xe0\x06\x06\r\x0f\x16\n\xa1\xa8'
tRp750
S'414'
p751
I1
ttRp752
sVhttp://runenc.blogs.jdnews.com/files/2015/02/nike-running-poster.jpg
p753
g3
(g4
g5
(g6
(S'\x07\xe0\x07\x15\x174\x12\x03\x0e\xc9'
tRp754
S'342'
p755
I2
ttRp756
sVhttps://allthingslearning.files.wordpress.com/2013/06/motivation-and-fishing.png
p757
g3
(g4
g5
(g6
(S'\x07\xe0\x04\x03\x0f\x0f0\x00\x15K'
tRp758
S'294'
p759
I1
ttRp760
sVhttp://www.sempergrow.com/wp-content/uploads/2016/02/motivate-content-2.jpg
p761
g3
(g4
g5
(g6
(S'\x07\xe0\x06\x17\n\x08\x12\r\xbf\x0c'
tRp762
I-1
I1
ttRp763
sVhttps://i.ytimg.com/vi/KSTKheVpEq4/maxresdefault.jpg
p764
g3
(g4
g5
(g6
(S'\x07\xdf\x0c\x1a\x1362\x00\xd9H'
tRp765
S'100'
p766
I1
ttRp767
sVhttps://pixabay.com/static/uploads/photo/2014/06/04/08/08/motivation-361783_960_720.jpg
p768
g3
(g4
g5
(g6
(S'\x07\xe0\t\x16\x0b*\x14\rz\x80'
tRp769
S'240'
p770
I1
ttRp771
sVhttps://s-media-cache-ak0.pinimg.com/236x/e7/1f/11/e71f11a628bf9ccf847cafdde3ee7430.jpg
p772
g3
(g4
g5
(g6
(S'\x07\xe0\x04\x03\x0f\x0f0\x00\x15\x92'
tRp773
I-1
I1
ttRp774
sVhttps://i.ytimg.com/vi/pZT-FZqfxZA/maxresdefault.jpg
p775
g3
(g4
g5
(g6
(S'\x07\xe0\n\x08\x134\x0f\n\xe10'
tRp776
S'347'
p777
I1
ttRp778
sVhttps://thumbs.dreamstime.com/z/motivation-hand-writing-blue-mark-transparent-board-46336968.jpg
p779
g3
(g4
g5
(g6
(S'\x07\xe0\x07\x11\x15-1\x0e\xb7\xa0'
tRp780
S'476'
p781
I1
ttRp782
sVhttp://www.jetts.co.nz/uploads/contentFiles/files/14_02_12_Jetts_National_8WC_Wallpapers_FA7.jpg
p783
g3
(g4
g5
(g6
(S'\x07\xe0\x03\x1c\x0e .\x0f8\xfa'
tRp784
S'255'
p785
I1
ttRp786
sVhttp://previews.123rf.com/images/svanhorn/svanhorn0910/svanhorn091000013/5771446-Male-executive-drawing-a-puzzle-of-a-business-motivation-concept-Stock-Photo.jpg
p787
g3
(g4
g5
(g6
(S'\x07\xe0\x06\x1e\n0\x1b\x01\x8d\xf9'
tRp788
S'186'
p789
I1
ttRp790
sVhttps://s-media-cache-ak0.pinimg.com/736x/bd/66/83/bd668304394c0149c192b330cce0908a.jpg
p791
g3
(g4
g5
(g6
(S'\x07\xe0\x03\x06\x0c/$\n[\x07'
tRp792
S'295'
p793
I1
ttRp794
sVhttp://www.jetts.co.nz/uploads/contentFiles/images/14_02_12_Jetts_National_8WC_Wallpapers_FA7.jpg
p795
g3
(g4
g5
(g6
(S'\x07\xe0\x02\x11\x04\x08.\x0b\xd9\xcc'
tRp796
S'268'
p797
I1
ttRp798
sVhttps://i.ytimg.com/vi/wQDdbJbu_Sc/maxresdefault.jpg
p799
g3
(g4
g5
(g6
(S'\x07\xe0\t\x1c\x13\x10$\x0e|\xbb'
tRp800
S'434'
p801
I1
ttRp802
sVhttp://7-themes.com/data_images/out/72/7018894-motivation.jpg
p803
g3
(g4
g5
(g6
(S"\x07\xe0\x08\x1b\x0208\x00\xaa'"
tRp804
I-1
I1
ttRp805
sVhttp://monicabundy.com/wp-content/uploads/2014/10/08-16-10-five-steps-to-self-motivation.jpg
p806
g3
(g4
g5
(g6
(S'\x07\xe0\n\x08\x134\x0f\n\xe0\xb7'
tRp807
S'147'
p808
I2
ttRp809
sVhttps://public-media.interaction-design.org/images/books/gamification_at_work/Fig5.1_Intrinsic_extinsic_motivation.jpg
p810
g3
(g4
g5
(g6
(S'\x07\xe0\x05\x12\x12\x05\x10\x02\x87\x15'
tRp811
S'236'
p812
I1
ttRp813
sVhttp://40.media.tumblr.com/744a5631056c84d8bed0425068f14e71/tumblr_mjrzfajkCh1rqbp73o2_1280.png
p814
g3
(g4
g5
(g6
(S'\x07\xe0\x03\x06\x0c/$\nZ\x9b'
tRp815
S'313'
p816
I1
ttRp817
sVhttp://www.theplushcyclist.com/wp-content/uploads/2015/12/wishing.jpg
p818
g3
(g4
g5
(g6
(S'\x07\xe0\x04\x13\x0f;&\x01\xf2\xc7'
tRp819
S'340'
p820
I1
ttRp821
sVhttp://cdn-media-2.lifehack.org/wp-content/files/2015/12/14132806/MotivationChart.jpg
p822
g3
(g4
g5
(g6
(S'\x07\xe0\x01\x1f\x17/\x06\x04\xe9}'
tRp823
S'230'
p824
I1
ttRp825
sVhttps://s-media-cache-ak0.pinimg.com/736x/0e/5f/f9/0e5ff9c686e5667b5f6d39a83ebec1b1.jpg
p826
g3
(g4
g5
(g6
(S'\x07\xe0\x03\x06\x0c/$\n[:'
tRp827
S'310'
p828
I1
ttRp829
sVhttp://motivationearth.com/wp-content/uploads/2016/03/motivation2.jpg
p830
g3
(g4
g5
(g6
(S'\x07\xe0\x05\x16\x14(\x0b\x03*\x10'
tRp831
S'377'
p832
I1
ttRp833
sVhttp://3vxsjq3roj103wlhf71jhh7t.wpengine.netdna-cdn.com/wp-content/uploads/2012/12/motivation.jpg
p834
g3
(g4
g5
(g6
(S'\x07\xe0\x08\x03\x00\x16+\x00\xb2\x89'
tRp835
S'260'
p836
I1
ttRp837
sVhttp://lifefitnessbydane.files.wordpress.com/2013/12/motivation.jpg
p838
g3
(g4
g5
(g6
(S'\x07\xdf\x0c\x08\x10*\x1f\to\xd0'
tRp839
S'130'
p840
I1
ttRp841
sVhttp://www.danegeld.org/wp-content/uploads/2015/10/today-motivation.jpg
p842
g3
(g4
g5
(g6
(S'\x07\xdf\x0b\x1a\x16\x18;\x02\x8a\x89'
tRp843
S'73'
p844
I1
ttRp845
sVhttps://thumbs.dreamstime.com/z/i-can-self-motivation-quote-cutting-letter-t-written-word-t-says-52295841.jpg
p846
g3
(g4
g5
(g6
(S'\x07\xe0\x07\x11\x15-1\x0e\xb6\xa7'
tRp847
S'479'
p848
I1
ttRp849
sVhttps://elearningindustry.com/wp-content/uploads/2015/04/Enhance-Motivation-eLearning.jpg
p850
g3
(g4
g5
(g6
(S'\x07\xe0\n\x1e\x15\x19%\x07\xe2\x97'
tRp851
I-1
I1
ttRp852
sVhttp://career-intelligence.com/wp-content/uploads/2014/01/motivating-your-employees.jpg
p853
g3
(g4
g5
(g6
(S'\x07\xdf\x0b\x08\x16\n\x12\x00T\x94'
tRp854
S'41'
p855
I1
ttRp856
sVhttps://s-media-cache-ak0.pinimg.com/736x/0a/dd/55/0add5561b60d2fc940d5ae43c9ef4b51.jpg
p857
g3
(g4
g5
(g6
(S'\x07\xe0\x03\x06\x0c/$\nZ\xab'
tRp858
S'307'
p859
I1
ttRp860
sVhttps://trustworks.files.wordpress.com/2015/02/got-motivation.jpg
p861
g3
(g4
g5
(g6
(S'\x07\xe0\x03\x14\x0e\x1d\x16\x05\x1a\xcb'
tRp862
S'316'
p863
I1
ttRp864
sVhttps://www.motivationalpicturequotes.com/wp-content/uploads/457/motivation-quotes.jpg
p865
g3
(g4
g5
(g6
(S'\x07\xe0\x05\x07\x15#\x0c\x06\x9a\xfd'
tRp866
S'372'
p867
I1
ttRp868
sVhttps://elearningindustry.com/wp-content/uploads/2015/05/Intrinsic-Motivation-Online-Training.jpg
p869
g3
(g4
g5
(g6
(S'\x07\xe0\n\x1e\x15\x19%\x07\xe2\xaf'
tRp870
I-1
I1
ttRp871
sVhttp://cdn1.theodysseyonline.com/files/2016/02/07/635904038909502605-1234189086_you-cant-create-motivation-writetojoncook-1j901wa.jpg
p872
g3
(g4
g5
(g6
(S'\x07\xe0\x06\x02\t7\x1a\r\xdb.'
tRp873
S'359'
p874
I1
ttRp875
sVhttp://www.success.com/sites/default/files/styles/article_main/public/main/articles/DoTheseThingstoGetMotivated.jpg?itok=jjtBSZaT
p876
g3
(g4
g5
(g6
(S'\x07\xe0\t\x1a\r\x08(\x0eI0'
tRp877
S'550'
p878
I1
ttRp879
sVhttp://www.simplicant.com/wp-content/uploads/2015/04/10-11-How-to-motivate-employees1.jpg
p880
g3
(g4
g5
(g6
(S'\x07\xe0\t\x16\x0b*\x14\ry\x88'
tRp881
S'148'
p882
I1
ttRp883
sVhttps://thumbs.dreamstime.com/z/motivation-pulls-man-22847827.jpg
p884
g3
(g4
g5
(g6
(S'\x07\xe0\x07\x11\x15-1\x0e\xb6\xf2'
tRp885
S'483'
p886
I1
ttRp887
sVhttp://cdn.emgn.com/wp-content/uploads/2016/02/motivation.jpg
p888
g3
(g4
g5
(g6
(S'\x07\xe0\x06\x06\r\x0f\x16\n\xa1g'
tRp889
S'408'
p890
I1
ttRp891
sVhttp://previews.123rf.com/images/macx/macx1003/macx100300061/6640944-Motivation-Success-Incentive-Stock-Photo-motivation.jpg
p892
g3
(g4
g5
(g6
(S'\x07\xe0\x06\x1e\n0\x1b\x01\x8d\x8a'
tRp893
S'319'
p894
I1
ttRp895
sVhttp://athleticsmotivation.com/wp-content/uploads/2014/12/74.jpg
p896
g3
(g4
g5
(g6
(S'\x07\xdf\x0b\x1a\x16\x18;\x02\x8a\xd8'
tRp897
S'29'
p898
I1
ttRp899
sVhttps://s-media-cache-ak0.pinimg.com/originals/c0/22/e5/c022e54930921bcf2f79443b1a622aef.jpg
p900
g3
(g4
g5
(g6
(S'\x07\xe0\n\x1e\x15\x19%\x07\xe2r'
tRp901
NI1
ttRp902
sVhttp://cdn.yourarticlelibrary.com/wp-content/uploads/2012/07/602.jpg
p903
g3
(g4
g5
(g6
(S'\x07\xe0\x08\x03\x00\x16+\x00\xb3C'
tRp904
S'178'
p905
I1
ttRp906
sVhttp://cdn2.business2community.com/wp-content/uploads/2015/05/All-our-plans-and-goals-are-but-daydreaming-Doc-www.MartinaMcGowan.com_-e1432046270399.png.png
p907
g3
(g4
g5
(g6
(S'\x07\xe0\x03\x1c\x0e .\x0f8\xd5'
tRp908
S'261'
p909
I1
ttRp910
sVhttps://diplolearn.files.wordpress.com/2014/06/motivation_15.jpg
p911
g3
(g4
g5
(g6
(S'\x07\xe0\x03\x1e\x0e!\x07\x03\xef\xe8'
tRp912
S'48'
p913
I1
ttRp914
sVhttp://science-all.com/images/wallpapers/motivation-pics/motivation-pics-6.jpg
p915
g3
(g4
g5
(g6
(S'\x07\xe0\t\x0c\t\x1b)\r\xdb\x0f'
tRp916
S'527'
p917
I1
ttRp918
sVhttp://az616578.vo.msecnd.net/files/2016/05/15/6359893115537910231601370765_Motivation.jpg
p919
g3
(g4
g5
(g6
(S'\x07\xe0\x07\x17\x175\x01\x06\\\x87'
tRp920
S'482'
p921
I1
ttRp922
sVhttps://fearmastery.files.wordpress.com/2016/01/motivation-1.jpg
p923
g3
(g4
g5
(g6
(S'\x07\xe0\x05\x16\x14(\x0b\x03*\x08'
tRp924
S'266'
p925
I1
ttRp926
sVhttp://www.charlesstone.com/images/uploads/hiresimages/motivation_kick.jpg
p927
g3
(g4
g5
(g6
(S'\x07\xe0\x01\x1f\x17/\x06\x04\xe8*'
tRp928
S'233'
p929
I1
ttRp930
sVhttp://ragtagriot.com/wp-content/uploads/2014/10/motivation13.jpg
p931
g3
(g4
g5
(g6
(S"\x07\xdf\x0b\x14\x16\x15'\x03\xa2$"
tRp932
S'95'
p933
I1
ttRp934
sVhttp://www.mrwallpaper.com/wallpapers/Motivation-Background.jpg
p935
g3
(g4
g5
(g6
(S'\x07\xe0\n\x08\x134\x0f\n\xe0\xb3'
tRp936
S'569'
p937
I1
ttRp938
sVhttp://michaelsseaver.com/wp-content/uploads/2016/01/Team-Motivation.jpg
p939
g3
(g4
g5
(g6
(S'\x07\xe0\x01\x1f\x17/\x06\x04\xe9\x0e'
tRp940
I-1
I1
ttRp941
sVhttps://s-media-cache-ak0.pinimg.com/736x/dc/e0/58/dce058a4da592cbd818311679cb91cd1.jpg
p942
g3
(g4
g5
(g6
(S'\x07\xdf\x0c\x1a\x1362\x00\xd9-'
tRp943
S'135'
p944
I1
ttRp945
sVhttps://s-media-cache-ak0.pinimg.com/736x/83/e0/67/83e06726ae3f901db986acf081697e9e.jpg
p946
g3
(g4
g5
(g6
(S'\x07\xdf\x0c\x1a\x1362\x00\xd9:'
tRp947
S'175'
p948
I1
ttRp949
sVhttp://www4.uwm.edu/learningobjects/images/happy_individualism_trs3-me_1.jpg
p950
g3
(g4
g5
(g6
(S'\x07\xe0\n\x08\x134\x0f\n\xe1!'
tRp951
S'35'
p952
I1
ttRp953
sVhttps://shechive.files.wordpress.com/2016/02/daily-motivation-1510.jpg?quality=80&strip=info
p954
g3
(g4
g5
(g6
(S'\x07\xe0\x03\x1c\x0e .\x0f9d'
tRp955
S'331'
p956
I1
ttRp957
sVhttp://dougleschan.com/the-recruitment-guru/wp-content/uploads/2015/03/adventure-time-motivation-28003-1366x768.jpg
p958
g3
(g4
g5
(g6
(S'\x07\xdf\x0c\x08\x10*\x1f\too'
tRp959
S'138'
p960
I1
ttRp961
sVhttp://funandfit.org/wp-content/uploads/2010/12/Motivation-2-e1292825352173.jpg
p962
g3
(g4
g5
(g6
(S'\x07\xe0\x03\x1e\x0e!\x07\x03\xf0_'
tRp963
I-1
I1
ttRp964
sVhttp://i.ytimg.com/vi/YpSi2rW4oHk/maxresdefault.jpg
p965
g3
(g4
g5
(g6
(S'\x07\xdf\n\x15\x15\x14\x10\n\xe8\xc4'
tRp966
S'28'
p967
I1
ttRp968
sVhttp://www.deliveringhappiness.com/wp-content/uploads/2013/07/bigstock-motivational-concept-got-mot-30228101.jpg
p969
g3
(g4
g5
(g6
(S'\x07\xdf\x0c\x0c\x11\x1d!\x06\xce\xca'
tRp970
S'32'
p971
I1
ttRp972
sVhttp://www.newenglandspahtens.com/wp-content/uploads/2015/01/20007282_xxl.jpg
p973
g3
(g4
g5
(g6
(S"\x07\xdf\x0b\x14\x16\x15'\x03\xa2T"
tRp974
S'6'
I1
ttRp975
sVhttp://www.hzpadvisors.com/wp-content/uploads/2015/09/motivation-800x600.jpg
p976
g3
(g4
g5
(g6
(S'\x07\xe0\x07\x15\x174\x12\x03\x0f-'
tRp977
S'502'
p978
I1
ttRp979
sVhttp://www.sparkpeople.com/news/rc/title_image/inspiringstories.jpg
p980
g3
(g4
g5
(g6
(S'\x07\xe0\x08\x03\x00\x16+\x00\xb2\xd9'
tRp981
S'500'
p982
I1
ttRp983
sVhttp://thumbs.dreamstime.com/z/word-cloud-motivation-27079180.jpg
p984
g3
(g4
g5
(g6
(S'\x07\xe0\x03\x14\x0e\x1d\x16\x05\x1b\x9d'
tRp985
S'128'
p986
I1
ttRp987
sVhttps://tedcdnpi-a.akamaihd.net/r/tedcdnpe-a.akamaihd.net/images/ted/110884_800x600.jpg?quality=89&w=800
p988
g3
(g4
g5
(g6
(S'\x07\xe0\x04\x13\x0f;&\x01\xf2\xa2'
tRp989
S'288'
p990
I1
ttRp991
sVhttp://i0.wp.com/www.5minutelanguage.com/wp-content/uploads/2015/07/language-learning-motivation.jpg?resize=640%2C424
p992
g3
(g4
g5
(g6
(S'\x07\xe0\x08\x03\x00\x16+\x00\xb3>'
tRp993
S'393'
p994
I1
ttRp995
sVhttp://science-all.com/images/wallpapers/motivation-pics/motivation-pics-17.jpg
p996
g3
(g4
g5
(g6
(S'\x07\xe0\x06\x02\t7\x1a\r\xdc\x18'
tRp997
S'415'
p998
I1
ttRp999
sVhttp://previews.123rf.com/images/pixelsaway/pixelsaway1110/pixelsaway111000014/10819265-motivation-word-in-white-chalk-handwriting-on-blackboard-Stock-Photo.jpg
p1000
g3
(g4
g5
(g6
(S'\x07\xe0\x06\x1e\n0\x1b\x01\x8e\x1d'
tRp1001
S'442'
p1002
I1
ttRp1003
sVhttps://buildingthenewdotcom.files.wordpress.com/2013/07/qstloej.jpg
p1004
g3
(g4
g5
(g6
(S'\x07\xdf\x0c\x1a\x1362\x00\xd82'
tRp1005
S'169'
p1006
I1
ttRp1007
sVhttp://addicted2success.com/wp-content/uploads/2013/08/Motivation-Picture-Quote-Get-Started-Motivation.jpg
p1008
g3
(g4
g5
(g6
(S'\x07\xe0\x08\r\x006\r\x01e\xf4'
tRp1009
I-1
I1
ttRp1010
sVhttp://www.eoi.es/blogs/imsd/files/2015/05/Motivation1.jpg
p1011
g3
(g4
g5
(g6
(S'\x07\xdf\x0b\x1a\x16\x18;\x02\x8a\xa8'
tRp1012
S'94'
p1013
I1
ttRp1014
sVhttp://blog.dougdvorak.com/wp-content/uploads/2015/02/get-motivated-stay-motivated.jpg
p1015
g3
(g4
g5
(g6
(S'\x07\xe0\n\x08\x134\x0f\n\xe0\xba'
tRp1016
S'551'
p1017
I1
ttRp1018
sVhttp://www.sparkpeople.com/news/genericpictures/bigpictures/SPforum_staying_motivated.jpg
p1019
g3
(g4
g5
(g6
(S'\x07\xdf\x0b\x05\x15\x15\x01\r\n]'
tRp1020
S'31'
p1021
I1
ttRp1022
sVhttp://dougleschan.com/the-recruitment-guru/wp-content/uploads/2014/04/motivation-free-desktop-backgrounds-with-succeed-1788715.jpg
p1023
g3
(g4
g5
(g6
(S'\x07\xe0\n\x02\x13\x18\x1b\x01A\x9b'
tRp1024
S'573'
p1025
I1
ttRp1026
sVhttps://innogise.files.wordpress.com/2013/01/got-motivation.jpg
p1027
g3
(g4
g5
(g6
(S'\x07\xe0\n\x08\x134\x0f\n\xe0\xcb'
tRp1028
S'510'
p1029
I1
ttRp1030
sVhttps://s-media-cache-ak0.pinimg.com/736x/ff/a6/08/ffa60872d52a576493868fca44e2311b.jpg
p1031
g3
(g4
g5
(g6
(S'\x07\xe0\x05\x18\x15,\x19\r\xe6\x0e'
tRp1032
S'397'
p1033
I1
ttRp1034
sVhttp://science-all.com/images/wallpapers/motivation-pics/motivation-pics-20.jpg
p1035
g3
(g4
g5
(g6
(S'\x07\xe0\x08\x13\x01\r\x01\x0e\x1c\x15'
tRp1036
S'515'
p1037
I1
ttRp1038
sVhttp://www.strategiesinlanguagelearning.com/wp-content/uploads/2014/12/motivation.jpg
p1039
g3
(g4
g5
(g6
(S'\x07\xe0\x06\x17\n\x08\x12\r\xbf"'
tRp1040
S'425'
p1041
I1
ttRp1042
sVhttp://www.dailyhaha.com/_pics/motivation.jpg
p1043
g3
(g4
g5
(g6
(S'\x07\xe0\n\x1e\x15\x19%\x07\xe2\x9c'
tRp1044
S'229'
p1045
I1
ttRp1046
sVhttp://s1.picswalls.com/wallpapers/2015/11/21/beautiful-motivation-wallpaper_10342177_288.jpg
p1047
g3
(g4
g5
(g6
(S'\x07\xe0\x05\x07\x15#\x0c\x06\x9a\xad'
tRp1048
S'376'
p1049
I2
ttRp1050
sVhttp://www.top.me/wp-content/uploads/2013/04/motivation-1024x679.jpg
p1051
g3
(g4
g5
(g6
(S'\x07\xe0\t\x0c\t\x1b)\r\xda('
tRp1052
S'543'
p1053
I1
ttRp1054
sVhttp://abhinavpmp.com/wp-content/uploads/what-is-motivation.jpg
p1055
g3
(g4
g5
(g6
(S'\x07\xe0\x06\x17\n\x08\x12\r\xbe\xcc'
tRp1056
S'106'
p1057
I1
ttRp1058
sVhttp://motivationfactor.com/wp-content/uploads/2012/11/BoblerUS_jan13.png
p1059
g3
(g4
g5
(g6
(S'\x07\xe0\x07\x11\x15-1\x0e\xb7.'
tRp1060
S'120'
p1061
I3
ttRp1062
sVhttp://cdn2.stylecraze.com/wp-content/uploads/2013/08/4580-10-Super-Effective-Weight-Loss-Motivation-Tips-And-Tricks.jpg
p1063
g3
(g4
g5
(g6
(S'\x07\xe0\t\x0c\t\x1b)\r\xda\xb7'
tRp1064
S'546'
p1065
I1
ttRp1066
sVhttp://steamboatfriday.com/wp-content/uploads/2013/04/motivation.jpg
p1067
g3
(g4
g5
(g6
(S'\x07\xdf\x0b\x05\x15\x15\x01\r\n\x85'
tRp1068
S'68'
p1069
I1
ttRp1070
sVhttps://littlebluederbymonster.files.wordpress.com/2015/04/positive-motivation.jpg
p1071
g3
(g4
g5
(g6
(S'\x07\xe0\x01\r\x16\n\x16\x0e\xd6\x0c'
tRp1072
S'208'
p1073
I1
ttRp1074
sVhttps://media.licdn.com/mpr/mpr/p/7/005/056/1fb/09a4ab6.jpg
p1075
g3
(g4
g5
(g6
(S'\x07\xe0\x06\x06\r\x0f\x16\n\xa1H'
tRp1076
S'409'
p1077
I1
ttRp1078
sVhttp://svetdimitrov.com/wp-content/uploads/2015/11/Motivation.jpg
p1079
g3
(g4
g5
(g6
(S'\x07\xe0\x04\t\x0f/\x1a\x02\xe8\xa4'
tRp1080
S'334'
p1081
I1
ttRp1082
sVhttp://s1.picswalls.com/wallpapers/2015/11/21/hd-motivation_103422965_288.jpg
p1083
g3
(g4
g5
(g6
(S'\x07\xe0\n\x08\x134\x0f\n\xe1\x12'
tRp1084
S'349'
p1085
I1
ttRp1086
sVhttp://tstoaddicts.files.wordpress.com/2014/03/einstein.jpg
p1087
g3
(g4
g5
(g6
(S'\x07\xdf\x0b\x08\x16\n\x12\x00U\x8f'
tRp1088
S'76'
p1089
I1
ttRp1090
sVhttps://media.licdn.com/mpr/mpr/p/2/005/097/054/12aebbc.jpg
p1091
g3
(g4
g5
(g6
(S'\x07\xe0\x08\x03\x00\x16+\x00\xb2\xdd'
tRp1092
S'246'
p1093
I1
ttRp1094
sVhttp://opip0g.blu.livefilestore.com/y1pD9fNxakXgd2Xr-pNCCtypZTVUFTt4Qba0TwJWv7_E9XQ-vcgHUwpw8ygxnHusGSS4aVeZNEaxgN5_Nf_JD3zOmljVt023xHF/motivation%20wordle.jpg
p1095
g3
(g4
g5
(g6
(S"\x07\xe0\x02\x19\t1'\x04\x95\x85"
tRp1096
S'263'
p1097
I1
ttRp1098
sVhttp://www.mrwallpaper.com/wallpapers/motivation-art-1680x1050.jpg
p1099
g3
(g4
g5
(g6
(S'\x07\xe0\x06\x1e\n0\x1b\x01\x8du'
tRp1100
S'445'
p1101
I1
ttRp1102
sVhttp://jmfitnessuk.com/wp-content/uploads/2014/06/daily-motivation-910.jpg
p1103
g3
(g4
g5
(g6
(S'\x07\xe0\x01\x03\x16\x029\x05\xc4\xbc'
tRp1104
S'167'
p1105
I1
ttRp1106
sVhttp://cdn.superbwallpapers.com/wallpapers/quotes/adventure-time-motivation-28003-1366x768.jpg
p1107
g3
(g4
g5
(g6
(S'\x07\xe0\x03\x14\x0e\x1d\x16\x05\x1bS'
tRp1108
S'195'
p1109
I1
ttRp1110
sVhttp://www.mycity-web.com/wp-content/uploads/2015/04/Motivation.jpg
p1111
g3
(g4
g5
(g6
(S'\x07\xe0\x07\x11\x15-1\x0e\xb7\x9b'
tRp1112
S'21'
p1113
I1
ttRp1114
sVhttp://192.163.240.212/~careerk8/wp-content/uploads/2014/01/motivating-your-employees.jpg
p1115
g3
(g4
g5
(g6
(S'\x07\xe0\n\x08\x134\x0f\n\xe14'
tRp1116
S'231'
p1117
I1
ttRp1118
sVhttp://www.dailyfitnesspro.com/wp-content/uploads/2016/02/download.jpg
p1119
g3
(g4
g5
(g6
(S'\x07\xe0\x04\x13\x0f;&\x01\xf3\x1e'
tRp1120
S'292'
p1121
I1
ttRp1122
sVhttp://1stwdcdn-31d9.kxcdn.com/wp-content/uploads/2014/05/motivation-in-two-parts.jpg
p1123
g3
(g4
g5
(g6
(S'\x07\xe0\x08\r\x006\r\x01f\xab'
tRp1124
I-1
I1
ttRp1125
sVhttp://www.changeinseconds.com/wp-content/uploads/2015/03/weight-loss-motivation-80.jpg
p1126
g3
(g4
g5
(g6
(S'\x07\xe0\t\x16\x0b*\x14\rz-'
tRp1127
S'306'
p1128
I1
ttRp1129
sVhttps://wallpaperscraft.com/image/shakespeare_time_title_motivation_85147_3840x2160.jpg
p1130
g3
(g4
g5
(g6
(S'\x07\xe0\x05\x07\x15#\x0c\x06\x9bT'
tRp1131
I-1
I1
ttRp1132
sVhttp://www.flreads.org/adolescent_lit/Motivation/MotivationMatters.jpg
p1133
g3
(g4
g5
(g6
(S"\x07\xe0\x02\x19\t1'\x04\x95\xab"
tRp1134
S'278'
p1135
I1
ttRp1136
sVhttp://omgcutethings.com/wp-content/uploads/2014/03/tuesday-motivation-031014-01.jpg
p1137
g3
(g4
g5
(g6
(S'\x07\xdf\x0c\x1a\x1362\x00\xd8m'
tRp1138
I-1
I1
ttRp1139
sVhttp://image.slidesharecdn.com/motivative-quotes-1233317750110411-1/95/self-motivation-quotes-1-728.jpg?cb=1233548837
p1140
g3
(g4
g5
(g6
(S'\x07\xe0\x02\x11\x04\x08.\x0b\xd9\xd5'
tRp1141
S'274'
p1142
I1
ttRp1143
sVhttp://www.integritymarketing-grp.com/wp-content/uploads/2016/03/get-motivated-stay-motivated.jpg
p1144
g3
(g4
g5
(g6
(S'\x07\xe0\x08\x13\x01\r\x01\x0e\x1c!'
tRp1145
S'521'
p1146
I1
ttRp1147
sVhttp://veritasatlanta.com/wp-content/uploads/2015/02/motivation1.jpg
p1148
g3
(g4
g5
(g6
(S'\x07\xdf\x0b\x17\x16\x16\t\r\xb8>'
tRp1149
S'46'
p1150
I1
ttRp1151
sVhttps://i.ytimg.com/vi/ZTy2i4lo7qQ/maxresdefault.jpg
p1152
g3
(g4
g5
(g6
(S'\x07\xe0\x07\x11\x15-1\x0e\xb8K'
tRp1153
S'478'
p1154
I1
ttRp1155
sVhttp://3.bp.blogspot.com/-PUEWfMWVnKg/TlZkFWcRCVI/AAAAAAAABVg/DkMAucQipmc/s1600/Fresh%2Bweek%2B4.jpg
p1156
g3
(g4
g5
(g6
(S'\x07\xe0\x03\x06\x0c/$\n[6'
tRp1157
S'109'
p1158
I1
ttRp1159
sVhttp://ragtagriot.com/wp-content/uploads/2014/10/motivation6.jpg
p1160
g3
(g4
g5
(g6
(S"\x07\xdf\x0b\x14\x16\x15'\x03\xa1\xd3"
tRp1161
S'75'
p1162
I1
ttRp1163
sVhttp://fitmarkbags.com/blog/wp-content/uploads/2014/01/Motivation.jpg
p1164
g3
(g4
g5
(g6
(S'\x07\xe0\x02\t\x00\x10\x08\x05\x08\xae'
tRp1165
S'45'
p1166
I1
ttRp1167
sVhttp://jeffshore.com/wp-content/uploads/2014/03/motivation.jpg
p1168
g3
(g4
g5
(g6
(S'\x07\xe0\t\x1a\r\x08(\x0eH-'
tRp1169
S'430'
p1170
I1
ttRp1171
sVhttps://media.licdn.com/mpr/mpr/p/2/005/055/073/14e4973.jpg
p1172
g3
(g4
g5
(g6
(S'\x07\xe0\t\x16\x0b*\x14\ry^'
tRp1173
S'34'
p1174
I1
ttRp1175
sVhttp://e2ua.com/data/wallpapers/23/WDF_712178.jpg
p1176
g3
(g4
g5
(g6
(S'\x07\xe0\x04\t\x0f/\x1a\x02\xe8c'
tRp1177
I-1
I1
ttRp1178
sVhttps://shechive.files.wordpress.com/2016/04/daily-motivation-1014.jpg?quality=80&strip=info
p1179
g3
(g4
g5
(g6
(S'\x07\xe0\t\x1a\r\x08(\x0eJ5'
tRp1180
S'379'
p1181
I1
ttRp1182
sVhttp://www.stepbystep.com/wp-content/uploads/2013/09/Motivation.jpg
p1183
g3
(g4
g5
(g6
(S'\x07\xe0\x07\x11\x15-1\x0e\xb9\x86'
tRp1184
S'480'
p1185
I1
ttRp1186
sVhttp://7-themes.com/data_images/out/72/7017897-motivation-background.jpg
p1187
g3
(g4
g5
(g6
(S'\x07\xe0\x05\x07\x15#\x0c\x06\x9a\x96'
tRp1188
I-1
I1
ttRp1189
sVhttp://cdn.business2community.com/wp-content/uploads/2015/05/Affirmation-Motivation-Doc-www.MartinaMcGowan.com_-e1432046784959.png.png
p1190
g3
(g4
g5
(g6
(S"\x07\xe0\x02\x19\t1'\x04\x95\xc3"
tRp1191
S'272'
p1192
I1
ttRp1193
sVhttp://insta-capital.com/uploads/images/lzgia920160205185021.jpg
p1194
g3
(g4
g5
(g6
(S'\x07\xe0\x06\x1e\n0\x1b\x01\x8d_'
tRp1195
S'450'
p1196
I1
ttRp1197
sVhttps://i.ytimg.com/vi/4EiM_-oSWzI/hqdefault.jpg
p1198
g3
(g4
g5
(g6
(S'\x07\xe0\x03\x1e\x0e!\x07\x03\xef\xdb'
tRp1199
S'79'
p1200
I1
ttRp1201
sVhttp://theglobalsuccessacademy.com/wp-content/uploads/2016/03/butt-kick.jpg
p1202
g3
(g4
g5
(g6
(S'\x07\xe0\x08\x13\x01\r\x01\x0e\x1c4'
tRp1203
S'318'
p1204
I1
ttRp1205
sVhttps://c1.staticflickr.com/3/2848/10722725205_0b2fcd12cf_c.jpg
p1206
g3
(g4
g5
(g6
(S'\x07\xe0\x03\x0e\r;\x15\x0e\x89$'
tRp1207
S'173'
p1208
I2
ttRp1209
sVhttp://ragtagriot.com/wp-content/uploads/2014/10/motivation16.jpg
p1210
g3
(g4
g5
(g6
(S'\x07\xe0\x01\x01\x138\t\x0f)\xa5'
tRp1211
S'114'
p1212
I1
ttRp1213
sVhttp://e2ua.com/data/wallpapers/172/WDF_2116907.jpg
p1214
g3
(g4
g5
(g6
(S'\x07\xe0\x04\r\x0f4*\x0b\xb0<'
tRp1215
I-1
I1
ttRp1216
sVhttp://www.breakouttheskinnygirl.com/wp-content/uploads/2015/09/motivation.jpg
p1217
g3
(g4
g5
(g6
(S'\x07\xe0\t\x1a\r\x08(\x0eI\xfb'
tRp1218
NI1
ttRp1219
sVhttps://ip.bitcointalk.org/?u=http%3A%2F%2Fattitudes4innovation.com%2Fwp-content%2Fuploads%2F2015%2F04%2Fwishing.jpg&t=557&c=mPbzAOgaKEPtpA
p1220
g3
(g4
g5
(g6
(S'\x07\xdf\n\x14\x15\x13,\ra_'
tRp1221
S'23'
p1222
I1
ttRp1223
sVhttp://www.davepartners.com/wp-content/uploads/2015/11/cash-motivation.png
p1224
g3
(g4
g5
(g6
(S'\x07\xe0\x06\x02\t7\x1a\r\xdb~'
tRp1225
I-1
I1
ttRp1226
sVhttp://theshawnstevensonmodel.com/wp-content/uploads/2013/04/11-non-stop-exercise-motivation-tips.jpg
p1227
g3
(g4
g5
(g6
(S'\x07\xe0\x06\x1e\n0\x1b\x01\x8e\x1a'
tRp1228
S'201'
p1229
I1
ttRp1230
sVhttp://rappingmanual.com/wp-content/uploads/2013/02/Motivate-self.jpg
p1231
g3
(g4
g5
(g6
(S"\x07\xdf\x0b\x14\x16\x15'\x03\xa1\xa8"
tRp1232
I-1
I1
ttRp1233
sVhttp://omgcutethings.com/wp-content/uploads/2014/03/tuesday-motivation-031014-feat-630x350.jpg
p1234
g3
(g4
g5
(g6
(S'\x07\xe0\t\x1a\r\x08(\x0eJg'
tRp1235
S'63'
p1236
I1
ttRp1237
sVhttp://www.coachingpositiveperformance.com/wp-content/uploads/2014/08/The-importance-of-motivation-1020x510.jpg
p1238
g3
(g4
g5
(g6
(S'\x07\xe0\t\x16\x0b*\x14\rz\x03'
tRp1239
I-1
I1
ttRp1240
sVhttp://thewellnessdoer.com/wp-content/uploads/2014/03/20131206_163024-copy.jpg
p1241
g3
(g4
g5
(g6
(S'\x07\xe0\x04\x1d\x10\x02\n\t\xb6P'
tRp1242
S'367'
p1243
I1
ttRp1244
sVhttp://rozsavagecoaching.com/wp-content/uploads/2015/09/motivation_pictures_15.jpg
p1245
g3
(g4
g5
(g6
(S'\x07\xe0\x06\x06\r\x0f\x16\n\xa1\xe8'
tRp1246
S'43'
p1247
I2
ttRp1248
sVhttp://m.c.lnkd.licdn.com/mpr/mpr/p/1/005/09e/1ee/1ad0ecc.jpg
p1249
g3
(g4
g5
(g6
(S'\x07\xe0\x06\x06\r\x0f\x16\n\xa2\x06'
tRp1250
S'417'
p1251
I1
ttRp1252
sVhttp://www.eduleadership.org/wp-content/cash-motivation.png
p1253
g3
(g4
g5
(g6
(S'\x07\xe0\x06\x06\r\x0f\x16\n\xa1\x84'
tRp1254
S'18'
p1255
I1
ttRp1256
sVhttp://www.motivation.com/assets/uploads/img/mobile/quote-discovery.png
p1257
g3
(g4
g5
(g6
(S'\x07\xe0\t\x04\x04\x1f\x18\x02\x87s'
tRp1258
S'530'
p1259
I1
ttRp1260
sVhttp://darleneneilsen.com/wp-content/uploads/2015/12/Employee-Motivation1.jpg
p1261
g3
(g4
g5
(g6
(S'\x07\xe0\x05\x16\x14(\x0b\x03)\xf7'
tRp1262
S'370'
p1263
I1
ttRp1264
sVhttp://www.holisticwellnessproject.com/wp-content/uploads/2014/09/motivation-success.jpg
p1265
g3
(g4
g5
(g6
(S'\x07\xe0\t\x0c\t\x1b)\r\xda\xc5'
tRp1266
S'528'
p1267
I1
ttRp1268
sVhttp://www.interviewstrategies.com/wp-content/uploads/2014/09/motivation.jpg
p1269
g3
(g4
g5
(g6
(S'\x07\xe0\x01\x03\x16\x08!\x04\x00z'
tRp1270
I-1
I1
ttRp1271
sVhttp://inspiration4fitness.de/wp-content/uploads/2014/04/Motivation.jpg
p1272
g3
(g4
g5
(g6
(S'\x07\xe0\x03\x06\x0c/$\n[)'
tRp1273
S'312'
p1274
I1
ttRp1275
sVhttps://lifestyleapex.files.wordpress.com/2015/11/motivation.jpg
p1276
g3
(g4
g5
(g6
(S"\x07\xe0\x07\x01\x0f\x00'\x02Z\xe6"
tRp1277
S'184'
p1278
I1
ttRp1279
sVhttps://s-media-cache-ak0.pinimg.com/originals/f6/6c/2e/f66c2ef5d129e418a88c836aaf5f5ccd.jpg
p1280
g3
(g4
g5
(g6
(S'\x07\xe0\n\x02\x13\x18\x1b\x01Bd'
tRp1281
S'558'
p1282
I1
ttRp1283
sVhttp://f.tqn.com/y/psychology/1/W/t/M/82126956.jpg
p1284
g3
(g4
g5
(g6
(S'\x07\xe0\x04\x13\x0f;&\x01\xf3Y'
tRp1285
I-1
I1
ttRp1286
sVhttp://askmesuccess.com/wp-content/uploads/2016/02/self.jpg
p1287
g3
(g4
g5
(g6
(S'\x07\xe0\x03\x14\x0e\x1d\x16\x05\x1a\xc1'
tRp1288
S'320'
p1289
I1
ttRp1290
sVhttp://www.thestonerscookbook.com/wp-content/uploads/2016/01/Motivation-strain-type.jpg?314b25
p1291
g3
(g4
g5
(g6
(S'\x07\xe0\x04\x03\x0f\x0f0\x00\x147'
tRp1292
I-1
I1
ttRp1293
sVhttp://yuppielove.org/wp-content/uploads/2012/08/158400111863410248_YjgyjElj_f.jpg
p1294
g3
(g4
g5
(g6
(S'\x07\xe0\x03\x0e\r;\x15\x0e\x88\xb0'
tRp1295
S'308'
p1296
I1
ttRp1297
sVhttp://mypain.ca/wp-content/uploads/2016/05/Motivation-4.jpg
p1298
g3
(g4
g5
(g6
(S'\x07\xe0\t\x16\x0b*\x14\ryU'
tRp1299
S'462'
p1300
I1
ttRp1301
sVhttp://www.mrwallpaper.com/wallpapers/motivation-1280x960.jpg
p1302
g3
(g4
g5
(g6
(S'\x07\xe0\x07\x11\x15-1\x0e\xb7\x88'
tRp1303
S'191'
p1304
I1
ttRp1305
sVhttp://cdn2.hubspot.net/hub/392717/file-2447137411-jpg/motivation_1.jpg?t=1444849637922
p1306
g3
(g4
g5
(g6
(S'\x07\xdf\n\x15\x15\x14\x10\n\xe8*'
tRp1307
S'64'
p1308
I1
ttRp1309
sVhttps://standingstrongwellness.files.wordpress.com/2015/07/motivation2.jpg
p1310
g3
(g4
g5
(g6
(S'\x07\xdf\x0b\x10\x16\x11\x01\x00\x89E'
tRp1311
S'13'
p1312
I1
ttRp1313
sVhttp://www.successpraxis.com/wp-content/uploads/2016/04/Learn-the-Skill-of-Self-Motivation.jpg
p1314
g3
(g4
g5
(g6
(S'\x07\xe0\x05\x07\x15#\x0c\x06\x9a}'
tRp1315
S'375'
p1316
I1
ttRp1317
sVhttp://elearningindustry.com/wp-content/uploads/2015/05/Extrinsic-Motivation-Online-Training.jpg
p1318
g3
(g4
g5
(g6
(S'\x07\xe0\x05\x12\x12\x05\x10\x02\x87\x07'
tRp1319
I-1
I1
ttRp1320
sVhttp://www.feelgoodreads.in/wp-content/uploads/2015/12/Motivation.jpg
p1321
g3
(g4
g5
(g6
(S"\x07\xdf\x0c\x08\x10*\x1f\to'"
tRp1322
S'129'
p1323
I1
ttRp1324
sVhttp://cdn2.hubspot.net/hub/392717/file-2447137411-jpg/motivation_1.jpg?t=1441375757881
p1325
g3
(g4
g5
(g6
(S'\x07\xdf\n\x0f\x081\x19\x0b-\xaf'
tRp1326
S'42'
p1327
I1
ttRp1328
sVhttps://psychometricsforumblog.files.wordpress.com/2013/10/motivation.jpg
p1329
g3
(g4
g5
(g6
(S'\x07\xe0\x07\x11\x15-1\x0e\xb6\xed'
tRp1330
S'205'
p1331
I1
ttRp1332
sVhttp://superhd.pics/walls/anime-manga/minimalistic-motivation-quotes-2532350-1920x1080.jpg
p1333
g3
(g4
g5
(g6
(S'\x07\xe0\x05\x07\x15#\x0c\x06\x9a\xb9'
tRp1334
I-1
I1
ttRp1335
sVhttp://image.shutterstock.com/z/stock-vector-workout-gym-sport-and-fitness-motivation-vector-design-elements-on-grunge-background-257136724.jpg
p1336
g3
(g4
g5
(g6
(S'\x07\xe0\n\x02\x13\x18\x1b\x01A\xd8'
tRp1337
S'572'
p1338
I1
ttRp1339
sVhttp://www.danielgoleman.info/a/wp-content/uploads/2014/04/14e4973.jpg
p1340
g3
(g4
g5
(g6
(S'\x07\xe0\t\x1a\r\x08(\x0eIq'
tRp1341
S'497'
p1342
I1
ttRp1343
sVhttp://www.motionfitness.co.za/wp-content/uploads/2013/11/motivation-steps1.jpg
p1344
g3
(g4
g5
(g6
(S'\x07\xdf\x0c\x08\x10+#\x04\x038'
tRp1345
S'72'
p1346
I1
ttRp1347
sVhttps://static.securityintelligence.com/uploads/2016/03/Money-Is-Often-the-Motivation-Behind-Attacks-938x535.jpg
p1348
g3
(g4
g5
(g6
(S"\x07\xe0\x07\x03\x0f'\x1f\x08h~"
tRp1349
S'474'
p1350
I1
ttRp1351
sVhttp://runenc.blogs.jdnews.com/files/2015/03/MotivationMonday_HowtoMotivateYourselftoGoRunning1.jpg
p1352
g3
(g4
g5
(g6
(S'\x07\xe0\x03\x06\x0c/$\nZ\x97'
tRp1353
S'296'
p1354
I2
ttRp1355
sVhttp://omgcutethings.com/wp-content/uploads/2013/04/motivation-018-04292013.jpg
p1356
g3
(g4
g5
(g6
(S'\x07\xdf\x0c\x1a\x1362\x00\xd8^'
tRp1357
S'172'
p1358
I2
ttRp1359
sVhttp://meghashyam.com/wp-content/uploads/2016/01/motivation.jpg
p1360
g3
(g4
g5
(g6
(S'\x07\xe0\x04\x1b\x0f;3\x0b\x1b\xaf'
tRp1361
S'353'
p1362
I1
ttRp1363
sVhttp://3.bp.blogspot.com/-VaNMfHd8hc0/TlRYvBdAypI/AAAAAAAAAG4/slX4NuRcgyI/s1600/Motivation.png
p1364
g3
(g4
g5
(g6
(S'\x07\xdf\x0b\x1a\x16\x18;\x02\x8a\xfd'
tRp1365
S'105'
p1366
I1
ttRp1367
sVhttps://katherinemgotthardt.files.wordpress.com/2014/11/motivation.jpg
p1368
g3
(g4
g5
(g6
(S'\x07\xe0\x03\x0e\r;\x15\x0e\x89\xb0'
tRp1369
S'289'
p1370
I1
ttRp1371
sVhttps://oht-webcontent.s3.amazonaws.com/field/image/motivation-clip-art1.jpg
p1372
g3
(g4
g5
(g6
(S'\x07\xe0\x01\r\x16\n\x16\x0e\xd6G'
tRp1373
S'216'
p1374
I1
ttRp1375
sVhttp://www.icebreaker-bd.com/wp-content/uploads/2011/11/motivation.jpg
p1376
g3
(g4
g5
(g6
(S'\x07\xe0\x02\x11\x04\x08.\x0b\xd9q'
tRp1377
S'257'
p1378
I1
ttRp1379
sVhttp://ragtagriot.com/wp-content/uploads/2014/10/motivation41.jpg
p1380
g3
(g4
g5
(g6
(S'\x07\xe0\x03\x14\x0e\x1d\x16\x05\x1aA'
tRp1381
S'123'
p1382
I1
ttRp1383
sVhttp://thumbs.dreamstime.com/z/solution-motivation-inspiration-sign-illustration-design-over-white-background-35970696.jpg
p1384
g3
(g4
g5
(g6
(S'\x07\xe0\x01\r\x16\n\x16\x0e\xd5q'
tRp1385
S'212'
p1386
I1
ttRp1387
sVhttp://www.mattersight.com/wp-content/uploads/2014/08/personality-matters-motivation-large.jpg
p1388
g3
(g4
g5
(g6
(S'\x07\xe0\x08\x03\x00\x16+\x00\xb2\xb7'
tRp1389
I-1
I1
ttRp1390
sVhttps://cdn.shopify.com/s/files/1/0535/6917/products/motivationdemotivator.jpeg?v=1414011398
p1391
g3
(g4
g5
(g6
(S'\x07\xe0\t\x1a\r\x08(\x0eH\xd4'
tRp1392
NI1
ttRp1393
sVhttp://attitudes4innovation.com/wp-content/uploads/2015/04/wishing.jpg
p1394
g3
(g4
g5
(g6
(S'\x07\xe0\x07\x17\x175\x01\x06\\{'
tRp1395
S'60'
p1396
I1
ttRp1397
sVhttp://s1.picswalls.com/wallpapers/2015/11/21/motivation-background_103423755_288.jpg
p1398
g3
(g4
g5
(g6
(S'\x07\xe0\n\x08\x134\x0f\n\xe1\x1a'
tRp1399
S'398'
p1400
I2
ttRp1401
sVhttp://bookboon.com/thumbnail/720/39496e0d-5fb7-4cba-ab95-9f0500a7b42d/495eed07-fa5c-40b4-9667-a5d400e1a9ca/getting-motivation-right.jpg
p1402
g3
(g4
g5
(g6
(S'\x07\xe0\n\x1e\x15\x19%\x07\xe2\xaa'
tRp1403
S'546'
p1404
I1
ttRp1405
sVhttps://hdwallpapers.cat/wallpaper_3840x1080/test_motivation_humor_best_quote_sayings_3840x1080_hd-wallpaper-1590115.jpg
p1406
g3
(g4
g5
(g6
(S'\x07\xe0\x01\x03\x16\x08!\x04\x00\xc4'
tRp1407
I-1
I1
ttRp1408
sVhttp://www.funonline.in/wp-content/uploads/2012/01/Motivating-Quote1-e1327569468395.jpg
p1409
g3
(g4
g5
(g6
(S'\x07\xe0\x01\r\x16\n\x16\x0e\xd6D'
tRp1410
S'221'
p1411
I2
ttRp1412
sVhttp://timedummy.com/wp-content/uploads/2016/02/tips-to-boost-your-motivation.png
p1413
g3
(g4
g5
(g6
(S'\x07\xe0\t\x1c\x13\x10$\x0e|\x99'
tRp1414
S'360'
p1415
I2
ttRp1416
sVhttp://rockmyrun.files.wordpress.com/2013/12/depositphotos_2329232_original.jpg
p1417
g3
(g4
g5
(g6
(S'\x07\xe0\x03\x12\x0e\x03\x0b\x00\xec\x8f'
tRp1418
S'117'
p1419
I1
ttRp1420
sVhttps://i.ytimg.com/vi/mwBPoMnDTV8/hqdefault.jpg
p1421
g3
(g4
g5
(g6
(S'\x07\xe0\x06\x06\r\x0f\x16\n\xa1k'
tRp1422
I-1
I1
ttRp1423
sVhttp://www.picserver.org/images/highway/phrases/motivation.jpg
p1424
g3
(g4
g5
(g6
(S"\x07\xe0\x02\x19\t1'\x04\x95\x9c"
tRp1425
S'283'
p1426
I1
ttRp1427
sVhttp://recoveryhelpnow.com/wordpress/wp-content/uploads/2011/10/motivation11.jpg
p1428
g3
(g4
g5
(g6
(S'\x07\xe0\x04\x13\x0f;&\x01\xf2\xb8'
tRp1429
S'146'
p1430
I1
ttRp1431
sVhttps://wallpaperscraft.com/image/shakespeare_time_title_motivation_85147_2560x1440.jpg
p1432
g3
(g4
g5
(g6
(S'\x07\xe0\n\x08\x134\x0f\n\xe1<'
tRp1433
I-1
I1
ttRp1434
sVhttp://salveopartners.com/wp-content/uploads/2014/07/Motivation-Color-2.jpg
p1435
g3
(g4
g5
(g6
(S'\x07\xe0\x08\x13\x01\r\x01\x0e\x1c\x93'
tRp1436
S'49'
p1437
I1
ttRp1438
sVhttps://usercontent2.hubstatic.com/7814843_f520.jpg
p1439
g3
(g4
g5
(g6
(S'\x07\xe0\x08\r\x006\r\x01f\xb4'
tRp1440
I-1
I1
ttRp1441
sVhttps://mckayschooleducators.files.wordpress.com/2014/03/image-27k3ar4.jpg
p1442
g3
(g4
g5
(g6
(S'\x07\xe0\t\x16\x0b*\x14\rz\x87'
tRp1443
S'156'
p1444
I1
ttRp1445
sVhttp://vonblancofitness.com/wp-content/uploads/2012/06/36-lion-vs-sheep-motivation.png
p1446
g3
(g4
g5
(g6
(S'\x07\xe0\t\x16\x0b*\x14\rz\xa1'
tRp1447
S'121'
p1448
I2
ttRp1449
sVhttp://kurld.com/images/motivation-wallpapers/motivation-wallpapers-14.jpg
p1450
g3
(g4
g5
(g6
(S'\x07\xe0\n\x08\x134\x0f\n\xe1Z'
tRp1451
NI1
ttRp1452
sVhttp://www.joegym.ca/wp-content/uploads/2013/11/Gym-Motivation.jpg
p1453
g3
(g4
g5
(g6
(S'\x07\xe0\x04\x03\x0f\x0f0\x00\x15\xc4'
tRp1454
S'133'
p1455
I2
ttRp1456
sVhttp://blog.vistage.com/wp-content/uploads/2013/07/Employee-Motivation.jpg
p1457
g3
(g4
g5
(g6
(S'\x07\xe0\x01\r\x16\n\x16\x0e\xd6<'
tRp1458
I-1
I1
ttRp1459
sVhttp://www.losingweightdone.com/wp-content/uploads/2014/06/motivation-succeed-964054.jpg
p1460
g3
(g4
g5
(g6
(S'\x07\xe0\x08\x1b\x0208\x00\xaaT'
tRp1461
S'368'
p1462
I1
ttRp1463
sVhttps://s-media-cache-ak0.pinimg.com/736x/56/56/1d/56561d6f3d6179224c667509cfe9d4cf.jpg
p1464
g3
(g4
g5
(g6
(S'\x07\xe0\t\x1a\r\x08(\x0eK1'
tRp1465
S'460'
p1466
I1
ttRp1467
sVhttp://www.mrwallpaper.com/wallpapers/motivation-1600x900.jpg
p1468
g3
(g4
g5
(g6
(S'\x07\xe0\x01\r\x16\n\x16\x0e\xd6o'
tRp1469
S'219'
p1470
I1
ttRp1471
sVhttp://topperguru.com/wp-content/uploads/2015/09/Motivation-students-bacho-follows-steps-tips-images-full-details.jpg
p1472
g3
(g4
g5
(g6
(S'\x07\xe0\t\x16\x0b*\x14\rz\xcf'
tRp1473
S'311'
p1474
I1
ttRp1475
sVhttp://image.shutterstock.com/z/stock-vector-push-yourself-because-no-one-else-is-going-to-do-it-for-you-creative-grunge-motivation-quote-198183143.jpg
p1476
g3
(g4
g5
(g6
(S'\x07\xe0\n\x08\x134\x0f\n\xe1\x0b'
tRp1477
S'234'
p1478
I1
ttRp1479
sVhttp://www.shredfat.com/wp-content/uploads/2012/02/Motivation.jpg
p1480
g3
(g4
g5
(g6
(S'\x07\xdf\x0b\x08\x16\n\x12\x00V\r'
tRp1481
S'50'
p1482
I1
ttRp1483
sVhttp://mysolutionsmagazine.com/wp-content/uploads/2015/07/Are_You_Motivating_Your_Team.jpg
p1484
g3
(g4
g5
(g6
(S'\x07\xe0\x07\x11\x15-1\x0e\xb6\xb4'
tRp1485
S'435'
p1486
I1
ttRp1487
sVhttps://i.ytimg.com/vi/nPcoew6oXqQ/maxresdefault.jpg
p1488
g3
(g4
g5
(g6
(S'\x07\xe0\n\x08\x134\x0f\n\xe0\xa5'
tRp1489
S'560'
p1490
I1
ttRp1491
sVhttp://www.wallpaperswide.us/wp-content/uploads/2016/02/believe-in-yourself-motivation-wallpaper.jpg
p1492
g3
(g4
g5
(g6
(S'\x07\xe0\n\x02\x13\x18\x1b\x01BQ'
tRp1493
S'566'
p1494
I1
ttRp1495
sVhttps://i.ytimg.com/vi/sWlXsEj1RpM/maxresdefault.jpg
p1496
g3
(g4
g5
(g6
(S'\x07\xe0\x07\x11\x15-1\x0e\xb6\xcf'
tRp1497
S'235'
p1498
I1
ttRp1499
sVhttp://www.trophyfitnessclub.com/wp-content/uploads/2014/07/health-and-fitness-motivation-by-elisa.jpg
p1500
g3
(g4
g5
(g6
(S'\x07\xe0\x07\x17\x175\x01\x06\\Z'
tRp1501
S'336'
p1502
I1
ttRp1503
sVhttps://shechive.files.wordpress.com/2016/04/daily-motivation-1014.jpg?quality=80&strip=info&w=600
p1504
g3
(g4
g5
(g6
(S'\x07\xe0\x08\r\x006\r\x01f\x15'
tRp1505
S'406'
p1506
I2
ttRp1507
sVhttp://previews.123rf.com/images/mazirama/mazirama1304/mazirama130400173/19255219-Motivation-text-Do-it-with-a-hand-pointing-to-it-on-a-blackboard-Stock-Photo.jpg
p1508
g3
(g4
g5
(g6
(S'\x07\xe0\x07\x11\x15-1\x0e\xb6\xde'
tRp1509
S'439'
p1510
I1
ttRp1511
sVhttp://4.bp.blogspot.com/-FdG9amUfdGY/T2uRisQggYI/AAAAAAAABbo/3PLiPgh4U0s/s1600/motivation+2.JPG
p1512
g3
(g4
g5
(g6
(S'\x07\xe0\t\x0c\t\x1b)\r\xda\x95'
tRp1513
S'540'
p1514
I2
ttRp1515
sVhttps://a2ua.com/motivation/motivation-010.jpg
p1516
g3
(g4
g5
(g6
(S'\x07\xe0\n\x02\x13\x18\x1b\x01A\x97'
tRp1517
I-1
I1
ttRp1518
sVhttps://writetojoncook.files.wordpress.com/2015/05/you-cant-create-motivation-writetojoncook.jpg
p1519
g3
(g4
g5
(g6
(S'\x07\xe0\x02\x11\x04\x08.\x0b\xd98'
tRp1520
S'16'
p1521
I1
ttRp1522
sVhttp://blogs.ubc.ca/amanthind/files/2015/11/Employee-Motivation1.jpg
p1523
g3
(g4
g5
(g6
(S'\x07\xe0\x04\x13\x0f;&\x01\xf2y'
tRp1524
S'245'
p1525
I1
ttRp1526
sVhttps://ka-perseus-images.s3.amazonaws.com/8fad5a85019926d9e667978a1bc26001e32f616d.png
p1527
g3
(g4
g5
(g6
(S'\x07\xe0\n\x08\x134\x0f\n\xe0\xd3'
tRp1528
S'388'
p1529
I2
ttRp1530
sVhttp://www.spotebi.com/wp-content/uploads/2015/03/be-confident-workout-motivation-quote.jpg
p1531
g3
(g4
g5
(g6
(S'\x07\xe0\n\x08\x134\x0f\n\xe0\xd6'
tRp1532
I-1
I1
ttRp1533
sVhttp://wyseproperties.com/wp-content/uploads/sites/697/2015/04/motivate-yourself-71.jpg
p1534
g3
(g4
g5
(g6
(S"\x07\xe0\x02\x19\t1'\x04\x95 "
tRp1535
I-1
I1
ttRp1536
sVhttps://www.motivation.hu/sites/default/files/imagecache/slide/motiv-missionpossible%202-web.JPG
p1537
g3
(g4
g5
(g6
(S'\x07\xe0\x06\x17\n\x08\x12\r\xbe\xbb'
tRp1538
S'277'
p1539
I1
ttRp1540
sVhttps://s-media-cache-ak0.pinimg.com/originals/c7/8f/ff/c78fff456c24c3fa3042b973660f979d.jpg
p1541
g3
(g4
g5
(g6
(S'\x07\xe0\n\x08\x134\x0f\n\xe0\xde'
tRp1542
S'552'
p1543
I1
ttRp1544
sVhttps://img1.steemit.com/0x0/https://i.ytimg.com/vi/YpSi2rW4oHk/maxresdefault.jpg
p1545
g3
(g4
g5
(g6
(S'\x07\xe0\n\x08\x134\x0f\n\xe0\xe2'
tRp1546
S'505'
p1547
I1
ttRp1548
sVhttp://previews.123rf.com/images/alexmillos/alexmillos1404/alexmillos140400397/27389510-motivation-tree-illustration-design-over-a-white-background-Stock-Vector.jpg
p1549
g3
(g4
g5
(g6
(S'\x07\xe0\x03\x14\x0e\x1d\x16\x05\x1b0'
tRp1550
S'144'
p1551
I1
ttRp1552
sVhttp://www.smartsandstamina.com/wp-content/uploads/2013/12/Motivation1.jpg
p1553
g3
(g4
g5
(g6
(S'\x07\xe0\x03\x1c\x0e .\x0f8l'
tRp1554
S'80'
p1555
I2
ttRp1556
sVhttp://f.fastcompany.net/multisite_files/fastcompany/poster/2014/02/3026089-poster-p-1-ask-the-experts-how-do-i-find-the-motivation-to-get-to-the-next-stage-of-my.jpg
p1557
g3
(g4
g5
(g6
(S'\x07\xe0\x02\t\x00\x10\x08\x05\x07\xe2'
tRp1558
S'12'
p1559
I1
ttRp1560
sVhttp://ragtagriot.com/wp-content/uploads/2015/01/motivation-18.jpg
p1561
g3
(g4
g5
(g6
(S'\x07\xdf\x0c\x08\x10+#\x04\x03!'
tRp1562
S'66'
p1563
I1
ttRp1564
sVhttp://sm-images-cdn.suburbanmen.com/wp-content/uploads/2015/06/monday-workout-motivation-20150622-3.jpg
p1565
g3
(g4
g5
(g6
(S'\x07\xe0\x04\t\x0f/\x1a\x02\xe8\xad'
tRp1566
S'303'
p1567
I1
ttRp1568
sVhttp://themuddpartnership.com/wp-content/uploads/2013/09/The-Mudd-Partnership-How-Do-You-Engage-and-Motivate.png
p1569
g3
(g4
g5
(g6
(S'\x07\xe0\x01\x1d\x17\x1f0\x0f?m'
tRp1570
S'224'
p1571
I2
ttRp1572
sVhttps://www.indoindians.com/wp-content/uploads/2015/08/Motivation.jpg?dc8e95
p1573
g3
(g4
g5
(g6
(S'\x07\xe0\x07\x17\x175\x01\x06\\\x8c'
tRp1574
S'466'
p1575
I1
ttRp1576
sVhttp://edudemic.com/wp-content/uploads/2013/04/motivation-board.jpg
p1577
g3
(g4
g5
(g6
(S'\x07\xdf\n\x0c\x13\x0e7\x00U\xd1'
tRp1578
S'8'
I2
ttRp1579
sVhttp://cdn.shopify.com/s/files/1/0535/6917/products/motivationdemotivator.jpeg?v=1414011398
p1580
g3
(g4
g5
(g6
(S'\x07\xe0\t\x16\x0b*\x14\ry\xee'
tRp1581
S'99'
p1582
I2
ttRp1583
sVhttps://i.ytimg.com/vi/j72ofovvrX0/maxresdefault.jpg
p1584
g3
(g4
g5
(g6
(S'\x07\xe0\n\x02\x13\x18\x1b\x01A\xec'
tRp1585
S'555'
p1586
I1
ttRp1587
sVhttp://e2ua.com/data/wallpapers/172/WDF_2116921.jpg
p1588
g3
(g4
g5
(g6
(S'\x07\xe0\x05\x16\x14(\x0b\x03)L'
tRp1589
I-1
I1
ttRp1590
sVhttps://www.workitdaily.com/wp-content/uploads/2012/02/job-search-motivation.jpg
p1591
g3
(g4
g5
(g6
(S'\x07\xe0\t\x16\x0b*\x14\ry\x9e'
tRp1592
S'547'
p1593
I1
ttRp1594
sVhttps://pixabay.com/static/uploads/photo/2014/06/04/08/08/motivation-361783_640.jpg
p1595
g3
(g4
g5
(g6
(S'\x07\xe0\x08\x03\x00\x16+\x00\xb2\xd4'
tRp1596
S'85'
p1597
I1
ttRp1598
sVhttp://supervisoressentials.vantagepath.com/wp-content/uploads/2012/12/motivating_employees_how_to_become_a_motivating_supervisor.jpg
p1599
g3
(g4
g5
(g6
(S'\x07\xe0\t\x0c\t\x1b)\r\xdb!'
tRp1600
S'532'
p1601
I1
ttRp1602
sVhttp://ragtagriot.com/wp-content/uploads/2015/02/motivation-20.jpg
p1603
g3
(g4
g5
(g6
(S'\x07\xe0\x01\r\x16\n\x16\x0e\xd6h'
tRp1604
S'199'
p1605
I2
ttRp1606
sVhttp://image.slidesharecdn.com/salesmotivation-120131090658-phpapp01/95/sales-motivation-22-638.jpg?cb=1422630996
p1607
g3
(g4
g5
(g6
(S'\x07\xe0\x06\x06\r\x0f\x16\n\xa1\xe4'
tRp1608
S'405'
p1609
I1
ttRp1610
sVhttp://www.mycity-web.com/wp-content/uploads/2016/01/image01.jpg
p1611
g3
(g4
g5
(g6
(S'\x07\xe0\t\x1c\x13\x10$\x0e{\xf9'
tRp1612
I-1
I1
ttRp1613
sVhttp://scitechconnect.elsevier.com/wp-content/uploads/2015/04/motivation-sun.jpg
p1614
g3
(g4
g5
(g6
(S'\x07\xdf\x0c\x08\x10*\x1f\to\r'
tRp1615
S'25'
p1616
I1
ttRp1617
sVhttp://www.sewcialbutterfly.com/wp-content/uploads/2011/09/MotivationMonday92611.jpg
p1618
g3
(g4
g5
(g6
(S'\x07\xdf\x0c\x1a\x1362\x00\xd8\xed'
tRp1619
S'177'
p1620
I1
ttRp1621
sVhttp://science-all.com/images/wallpapers/motivation-wallpaper/motivation-wallpaper-16.jpg
p1622
g3
(g4
g5
(g6
(S'\x07\xe0\x08\x03\x00\x16+\x00\xb31'
tRp1623
S'496'
p1624
I1
ttRp1625
sVhttp://www.emekanobis.com/wp-content/uploads/2015/07/Motivation-.jpg
p1626
g3
(g4
g5
(g6
(S'\x07\xe0\x06\x06\r\x0f\x16\n\xa2\x01'
tRp1627
S'413'
p1628
I1
ttRp1629
sVhttp://accent-technologies.com/wp-content/uploads/2015/09/sales-team-motivation.jpg
p1630
g3
(g4
g5
(g6
(S'\x07\xe0\x04\x13\x0f;&\x01\xf3)'
tRp1631
S'286'
p1632
I1
ttRp1633
sVhttp://www.lakediary.com/wp-content/uploads/2016/03/motivation.jpg
p1634
g3
(g4
g5
(g6
(S'\x07\xe0\t\x0c\t\x1b)\r\xdap'
tRp1635
I-1
I1
ttRp1636
sVhttp://www.mrwallpaper.com/wallpapers/motivation-2560x1600.jpg
p1637
g3
(g4
g5
(g6
(S'\x07\xe0\n\x08\x134\x0f\n\xe1?'
tRp1638
S'361'
p1639
I1
ttRp1640
sVhttp://buddymantra.com/wp-content/uploads/2015/12/motivation.jpg
p1641
g3
(g4
g5
(g6
(S'\x07\xe0\x01\x1f\x17/\x06\x04\xe9u'
tRp1642
S'218'
p1643
I1
ttRp1644
sVhttps://media.licdn.com/mpr/mpr/shrinknp_800_800/AAEAAQAAAAAAAAOOAAAAJGYzZDZhYWJjLTM2Y2ItNGJmMi1iZGM3LWIwODMyMWQ3MjQwZQ.jpg
p1645
g3
(g4
g5
(g6
(S'\x07\xe0\x03\x02\t51\x0b\xf8\x04'
tRp1646
S'7'
I1
ttRp1647
sVhttps://motivationearth.files.wordpress.com/2016/03/motivation2.jpg
p1648
g3
(g4
g5
(g6
(S'\x07\xe0\x05\x07\x15#\x0c\x06\x9b\x01'
tRp1649
S'344'
p1650
I1
ttRp1651
sVhttp://www.thecompulab.com/wp-content/uploads/2015/10/motivation-1.jpg
p1652
g3
(g4
g5
(g6
(S'\x07\xe0\x08\x03\x00\x16+\x00\xb3\x1a'
tRp1653
S'265'
p1654
I1
ttRp1655
sVhttp://www.positivekinetics.co.uk/wp-content/uploads/2015/06/motivation-ebook-cover.jpg
p1656
g3
(g4
g5
(g6
(S'\x07\xe0\x02\x0f\x03\x08\x19\r&\xfc'
tRp1657
S'254'
p1658
I1
ttRp1659
sVhttps://seanwes.com/wp-content/uploads/2014/02/motivation-2.jpg
p1660
g3
(g4
g5
(g6
(S'\x07\xe0\t\x0c\t\x1b)\r\xda\xab'
tRp1661
S'489'
p1662
I1
ttRp1663
sVhttp://geniusquotes.org/wp-content/uploads/2014/02/Motivation-words-with-dreams.jpg
p1664
g3
(g4
g5
(g6
(S'\x07\xe0\x03\x06\x0c/$\n[%'
tRp1665
I-1
I1
ttRp1666
sVhttp://drjohngkuna.com/communities/4/000/001/347/024/images/11926095.jpg
p1667
g3
(g4
g5
(g6
(S"\x07\xe0\x07\x01\x0f\x00'\x02Z\xe2"
tRp1668
S'227'
p1669
I1
ttRp1670
sVhttp://havingtime.com/wp-content/uploads/2012/12/8318295525_726fbe9606_b.jpg
p1671
g3
(g4
g5
(g6
(S'\x07\xe0\x07\x11\x15-1\x0e\xb7~'
tRp1672
S'185'
p1673
I1
ttRp1674
sVhttp://thumb9.shutterstock.com/display_pic_with_logo/1596431/309246776/stock-vector-in-the-end-we-only-regret-the-chances-we-didn-t-take-inspiring-motivation-quote-design-vector-309246776.jpg
p1675
g3
(g4
g5
(g6
(S'\x07\xe0\x07\x07\x10\x04\x1e\x0bx\xfe'
tRp1676
S'395'
p1677
I1
ttRp1678
sVhttp://stevekrivda.com/wp-content/uploads/2016/04/Inspiration-vs-Motivation.jpg
p1679
g3
(g4
g5
(g6
(S'\x07\xe0\n\x08\x134\x0f\n\xe1s'
tRp1680
S'403'
p1681
I1
ttRp1682
sVhttp://s3.weddbook.com/t4/2/0/5/2053611/fitness-motivation-work-that-body-pinterest.jpg
p1683
g3
(g4
g5
(g6
(S'\x07\xe0\x03\x06\x0c/$\nZ3'
tRp1684
S'119'
p1685
I1
ttRp1686
sVhttps://prod-academy-wp-content-uploads.s3.amazonaws.com/2015/03/MOT_BecomeMore.jpg
p1687
g3
(g4
g5
(g6
(S'\x07\xe0\t\x1c\x13\x10$\x0e{>'
tRp1688
S'520'
p1689
I1
ttRp1690
sVhttp://theunboundedspirit.com/wp-content/uploads/2014/12/motivated-man.jpg
p1691
g3
(g4
g5
(g6
(S'\x07\xe0\x04\t\x0f/\x1a\x02\xe9\x10'
tRp1692
I-1
I1
ttRp1693
sVhttps://pixabay.com/static/uploads/photo/2016/02/03/12/12/motivation-1176916_960_720.jpg
p1694
g3
(g4
g5
(g6
(S'\x07\xe0\t\x0c\t\x1b)\r\xdac'
tRp1695
S'341'
p1696
I1
ttRp1697
sVhttp://www.drjoedispenza.com/blog/wp-content/uploads/2016/04/motivate.jpg
p1698
g3
(g4
g5
(g6
(S'\x07\xe0\n\x08\x134\x0f\n\xe0\x96'
tRp1699
S'354'
p1700
I1
ttRp1701
sVhttp://previews.123rf.com/images/artiomp/artiomp0909/artiomp090900092/5563933-direction-sign-tree-of-success-motivation-and-career-Stock-Photo.jpg
p1702
g3
(g4
g5
(g6
(S'\x07\xe0\x06\x1e\n0\x1b\x01\x8dZ'
tRp1703
S'441'
p1704
I1
ttRp1705
sVhttp://justearnmoneyonline.com/wp-content/uploads/2015/10/Motivation-photo-for-blog-.jpg
p1706
g3
(g4
g5
(g6
(S'\x07\xe0\x06\x1e\n0\x1b\x01\x8do'
tRp1707
S'433'
p1708
I2
ttRp1709
sVhttp://innovativelearning.com/educational_psychology/images/internalizingmotivation.jpg
p1710
g3
(g4
g5
(g6
(S'\x07\xe0\x03\x1c\x0e .\x0f8O'
tRp1711
S'256'
p1712
I1
ttRp1713
sVhttps://pbs.twimg.com/profile_images/496786612265566208/A0bPRbBz.png
p1714
g3
(g4
g5
(g6
(S'\x07\xdf\n\x14\x15\x13,\ra\xf5'
tRp1715
S'61'
p1716
I1
ttRp1717
sVhttps://tstoaddicts.files.wordpress.com/2014/03/einstein.jpg
p1718
g3
(g4
g5
(g6
(S'\x07\xe0\x08\x03\x00\x16+\x00\xb2Y'
tRp1719
S'86'
p1720
I1
ttRp1721
sVhttp://believeinthebeast.com/wp-content/uploads/2015/09/shit-gets-real.jpg
p1722
g3
(g4
g5
(g6
(S'\x07\xdf\x0c\x08\x10*\x1f\to2'
tRp1723
S'30'
p1724
I2
ttRp1725
sVhttp://list.abodo.com/wp-content/uploads/2014/11/Motivation-e1384914360703.png
p1726
g3
(g4
g5
(g6
(S'\x07\xdf\x0b\x1a\x16\x18;\x02\x8a\xbf'
tRp1727
S'88'
p1728
I1
ttRp1729
sVhttps://laetitiastuder.files.wordpress.com/2014/12/motivation.jpg
p1730
g3
(g4
g5
(g6
(S'\x07\xe0\x03\x14\x0e\x1d\x16\x05\x1bE'
tRp1731
S'197'
p1732
I1
ttRp1733
sVhttps://i.ytimg.com/vi/YpSi2rW4oHk/maxresdefault.jpg
p1734
g3
(g4
g5
(g6
(S'\x07\xe0\x07\x17\x175\x01\x06\\Q'
tRp1735
S'74'
p1736
I1
ttRp1737
sVhttps://quotefancy.com/media/wallpaper/3840x2160/14657-Jim-Rohn-Quote-Motivation-alone-is-not-enough-If-you-have-an-idiot.jpg
p1738
g3
(g4
g5
(g6
(S'\x07\xe0\n\x08\x134\x0f\n\xe0\xda'
tRp1739
S'517'
p1740
I1
ttRp1741
sVhttp://www.motivationalmemo.com/wp-content/uploads/2011/10/motivation.jpg
p1742
g3
(g4
g5
(g6
(S'\x07\xe0\x06\x06\r\x0f\x16\n\xa1\x8d'
tRp1743
I-1
I1
ttRp1744
sVhttps://i.ytimg.com/vi/04S9a8pcPTM/maxresdefault.jpg
p1745
g3
(g4
g5
(g6
(S'\x07\xe0\t\x1c\x13\x10$\x0e{\xc3'
tRp1746
S'327'
p1747
I1
ttRp1748
sVhttp://welloffforever.com/wp-content/uploads/2016/04/michael-jordan-failure-832x350.jpg
p1749
g3
(g4
g5
(g6
(S'\x07\xe0\x08\r\x006\r\x01fr'
tRp1750
S'423'
p1751
I2
ttRp1752
sVhttp://wayoflifebootcamp.com/wp-content/uploads/2016/04/bbbofj.jpg
p1753
g3
(g4
g5
(g6
(S'\x07\xe0\n\x08\x134\x0f\n\xe1N'
tRp1754
S'378'
p1755
I1
ttRp1756
sVhttps://spotio.com/blog/wp-content/uploads/2015/12/Motivation-Main-Image-1138x493.jpg
p1757
g3
(g4
g5
(g6
(S'\x07\xe0\t\x04\x04\x1f\x18\x02\x86\xc1'
tRp1758
S'535'
p1759
I1
ttRp1760
sVhttps://ip.bitcointalk.org/?u=http%3A%2F%2Fwww.mrwallpaper.com%2Fwallpapers%2Fmotivation-1280x1024.jpg&t=565&c=hiYi7LhOy9vEOQ
p1761
g3
(g4
g5
(g6
(S'\x07\xe0\x06\x1b\r+\x0f\x03aR'
tRp1762
S'436'
p1763
I1
ttRp1764
sVhttp://www.mrwallpaper.com/wallpapers/motivation-2560x1440.jpg
p1765
g3
(g4
g5
(g6
(S'\x07\xe0\n\x08\x134\x0f\n\xe1\x02'
tRp1766
S'578'
p1767
I1
ttRp1768
sVhttp://fitnessedge.net/wp-content/uploads/2016/03/Weight-Loss-Motivation-Patience.jpg
p1769
g3
(g4
g5
(g6
(S'\x07\xe0\x08\x11\x01\x05\n\x04f\x01'
tRp1770
S'459'
p1771
I1
ttRp1772
sVhttp://blogs.rhsmith.umd.edu/creatingvalue/files/2012/12/Motivation-Clip-Art1.jpg
p1773
g3
(g4
g5
(g6
(S'\x07\xe0\x01\x03\x16\x08!\x04\x00g'
tRp1774
I-1
I1
ttRp1775
sVhttps://jomatthewsfitness.files.wordpress.com/2014/06/daily-motivation-910.jpg
p1776
g3
(g4
g5
(g6
(S'\x07\xdf\x0b\x1a\x16\x18;\x02\x8b\x1f'
tRp1777
S'38'
p1778
I1
ttRp1779
sVhttp://bestquote2015.co/wp-content/uploads/2015/11/self-motivation-quotes-for-best-self-motivation-quotes-collections-2015-171.jpg
p1780
g3
(g4
g5
(g6
(S'\x07\xe0\x01\x03\x16\x08!\x04\x00\xaf'
tRp1781
S'206'
p1782
I1
ttRp1783
sVhttps://i.ytimg.com/vi/XNj_KDPp_iM/hqdefault.jpg
p1784
g3
(g4
g5
(g6
(S'\x07\xe0\t\x1a\r\x08(\x0eJO'
tRp1785
S'427'
p1786
I1
ttRp1787
sVhttp://elearningindustry.com/wp-content/uploads/2015/05/Intrinsic-Motivation-Online-Training.jpg
p1788
g3
(g4
g5
(g6
(S'\x07\xe0\x04\x13\x0f;&\x01\xf2\xf9'
tRp1789
I-1
I1
ttRp1790
sVhttp://inspiredhygiene.com/wp-content/uploads/2016/02/got-motivation.jpg
p1791
g3
(g4
g5
(g6
(S"\x07\xe0\x07\x01\x0f\x00'\x02Zt"
tRp1792
S'348'
p1793
I1
ttRp1794
sVhttp://boomboxcrossfit.com/wp-content/uploads/2013/12/motivationmonday.jpg
p1795
g3
(g4
g5
(g6
(S'\x07\xe0\x03\x02\t51\x0b\xf7\xdf'
tRp1796
S'243'
p1797
I1
ttRp1798
sVhttp://kozzaja.com/wp-content/uploads/2016/06/sales-team-motivation.jpg
p1799
g3
(g4
g5
(g6
(S'\x07\xe0\t\x16\x0b*\x14\rz@'
tRp1800
S'549'
p1801
I1
ttRp1802
sVhttps://defyingobesity.files.wordpress.com/2014/10/motivation.jpg
p1803
g3
(g4
g5
(g6
(S'\x07\xe0\x05\x18\x15,\x19\r\xe6%'
tRp1804
S'390'
p1805
I1
ttRp1806
sVhttp://timedummy.com/wp-content/uploads/2016/02/tips-to-boost-your-motivation-1170x460.png
p1807
g3
(g4
g5
(g6
(S'\x07\xe0\t\x0c\t\x1b)\r\xda\xed'
tRp1808
S'305'
p1809
I1
ttRp1810
sVhttp://s3.amazonaws.com/media.eremedia.com/uploads/2012/10/15180215/Motivation11.jpg
p1811
g3
(g4
g5
(g6
(S"\x07\xe0\x02\x19\t1'\x04\x95\xa0"
tRp1812
S'264'
p1813
I1
ttRp1814
sVhttp://300poundsandrunning.com/blog/wp-content/uploads/Whats-Your-Motivation.jpg
p1815
g3
(g4
g5
(g6
(S'\x07\xe0\t\x16\x0b*\x14\rz\n'
tRp1816
S'107'
p1817
I1
ttRp1818
sVhttps://media.licdn.com/mpr/mpr/p/5/005/072/241/03eaca9.jpg
p1819
g3
(g4
g5
(g6
(S'\x07\xdf\n\x15\x15\x14\x10\n\xe8\x1a'
tRp1820
S'39'
p1821
I1
ttRp1822
sVhttp://users.rowan.edu/~sheppa86/motivation1.jpg
p1823
g3
(g4
g5
(g6
(S'\x07\xe0\n\x1e\x15\x19%\x07\xe2\xb7'
tRp1824
S'118'
p1825
I1
ttRp1826
sVhttp://cliparts.co/cliparts/pT5/oRd/pT5oRdyac.jpg
p1827
g3
(g4
g5
(g6
(S'\x07\xe0\n\x08\x134\x0f\n\xe1a'
tRp1828
NI1
ttRp1829
sVhttp://deliveringhappiness.com/wp-content/uploads/2013/07/bigstock-motivational-concept-got-mot-30228101.jpg
p1830
g3
(g4
g5
(g6
(S'\x07\xe0\n\x08\x134\x0f\n\xe1d'
tRp1831
I-1
I1
ttRp1832
sVhttps://shechive.files.wordpress.com/2016/02/daily-motivation-910.jpg?quality=80&strip=info&w=600&h=399&crop=1
p1833
g3
(g4
g5
(g6
(S"\x07\xe0\x02\x19\t1'\x04\x95\x8d"
tRp1834
S'281'
p1835
I1
ttRp1836
sVhttps://owbaz.com/blog/wp-content/uploads/2016/02/Work-Motivation.jpg
p1837
g3
(g4
g5
(g6
(S'\x07\xe0\x06\x17\n\x08\x12\r\xbe\xaa'
tRp1838
I-1
I1
ttRp1839
sVhttp://closed-copy.flywheelsites.com/wp-content/uploads/2014/11/motivation.jpg
p1840
g3
(g4
g5
(g6
(S'\x07\xe0\x04\x13\x0f;&\x01\xf2^'
tRp1841
S'330'
p1842
I1
ttRp1843
sVhttp://cdn.wallpapersafari.com/62/11/qmlkDf.png
p1844
g3
(g4
g5
(g6
(S'\x07\xe0\n\x08\x134\x0f\n\xe0t'
tRp1845
NI1
ttRp1846
sVhttp://blogs-images.forbes.com/vanessaloder/files/2015/02/motivation-square.jpg
p1847
g3
(g4
g5
(g6
(S'\x07\xe0\t\x16\x0b*\x14\rz\x95'
tRp1848
S'456'
p1849
I1
ttRp1850
sVhttp://cdn2.omidoo.com/sites/default/files/imagecache/full_width/images/bydate/20140406/shutterstock155628296.jpg
p1851
g3
(g4
g5
(g6
(S'\x07\xe0\x08\x03\x00\x16+\x00\xb2^'
tRp1852
I-1
I1
ttRp1853
sVhttp://www.zastavki.com/pictures/originals/2014/_Be_motivated_and_remain_so_089723_.jpg
p1854
g3
(g4
g5
(g6
(S'\x07\xe0\n\x02\x13\x18\x1b\x01A\\'
tRp1855
S'559'
p1856
I1
ttRp1857
sVhttp://themindofsteel.com/wp-content/uploads/50-Best-Motivation.jpg
p1858
g3
(g4
g5
(g6
(S'\x07\xe0\n\x08\x134\x0f\n\xe1\x0e'
tRp1859
S'402'
p1860
I2
ttRp1861
sVhttp://biologydecoded.com/wp-content/uploads/2015/01/tumblr_murtxoK9a21rbyu6jo1_1280.jpg
p1862
g3
(g4
g5
(g6
(S'\x07\xdf\x0b\x17\x16\x16\t\r\xb8y'
tRp1863
I-1
I1
ttRp1864
sVhttp://www.teamafterburn.com/wp-content/uploads/2016/05/motivation.jpg
p1865
g3
(g4
g5
(g6
(S'\x07\xe0\x08\r\x006\r\x01f\xbc'
tRp1866
S'384'
p1867
I1
ttRp1868
sVhttps://pixabay.com/static/uploads/photo/2016/05/19/12/44/motivation-1402852_960_720.jpg
p1869
g3
(g4
g5
(g6
(S'\x07\xe0\t\x0c\t\x1b)\r\xda~'
tRp1870
S'531'
p1871
I1
ttRp1872
sVhttp://www.motivateplay.com/wp-content/uploads/2013/04/motivation.jpg
p1873
g3
(g4
g5
(g6
(S'\x07\xe0\x08\x03\x00\x16+\x00\xb2\x80'
tRp1874
S'469'
p1875
I1
ttRp1876
sVhttps://s3.amazonaws.com/tribeca_cms_production/uploads/film/photo_1/53208b38c07f5df7d20008a9/Zero_Motivation_web_1.jpg
p1877
g3
(g4
g5
(g6
(S'\x07\xe0\x05\x07\x15#\x0c\x06\x9a\x8d'
tRp1878
S'362'
p1879
I1
ttRp1880
sVhttp://img05.deviantart.net/761e/i/2005/018/f/a/motivation_for_school_by_pcxrs.jpg
p1881
g3
(g4
g5
(g6
(S'\x07\xe0\x01\r\x16\n\x16\x0e\xd6\x03'
tRp1882
S'215'
p1883
I1
ttRp1884
sVhttp://pantheonuk.org/wp-content/uploads/2013/10/tips-creating-workplace-motivation.jpg
p1885
g3
(g4
g5
(g6
(S'\x07\xdf\x0b\x1a\x16\x18;\x02\x8a\xd1'
tRp1886
S'22'
p1887
I1
ttRp1888
sVhttp://www.eleganceandenchantment.com/wp-content/uploads/2015/12/Featured-Images-Motivation-Monday-104-500x330.jpg
p1889
g3
(g4
g5
(g6
(S'\x07\xe0\x02\t\x00\x10\x08\x05\x07\x94'
tRp1890
S'253'
p1891
I1
ttRp1892
sVhttp://blog.alexdevero.com/wp-content/uploads/2015/10/Motivation-blog.jpg
p1893
g3
(g4
g5
(g6
(S'\x07\xe0\n\x02\x13\x18\x1b\x01B$'
tRp1894
S'523'
p1895
I1
ttRp1896
sVhttp://kurld.com/images/wallpapers/motivation-pics/motivation-pics-20.jpg
p1897
g3
(g4
g5
(g6
(S'\x07\xe0\n\x08\x134\x0f\n\xe0\xfb'
tRp1898
S'556'
p1899
I1
ttRp1900
sVhttps://jassyfit24.files.wordpress.com/2015/08/motivation-picture-quote-motivation-be-an-expert.jpg
p1901
g3
(g4
g5
(g6
(S"\x07\xdf\x0b\x14\x16\x15'\x03\xa2L"
tRp1902
S'10'
p1903
I2
ttRp1904
sVhttp://teravertical.com/wp-content/uploads/2015/11/motivation.jpg
p1905
g3
(g4
g5
(g6
(S'\x07\xdf\x0b\x17\x16\x16\t\r\xb8X'
tRp1906
S'92'
p1907
I1
ttRp1908
sVhttp://www.candoprojects.de/wp-content/uploads/2013/11/Motivation-WordCloud.jpg
p1909
g3
(g4
g5
(g6
(S'\x07\xe0\x01\x03\x16\x029\x05\xc4\x7f'
tRp1910
S'213'
p1911
I1
ttRp1912
sVhttp://youcandomore1.files.wordpress.com/2013/04/motivation.jpg
p1913
g3
(g4
g5
(g6
(S'\x07\xe0\x01\x1d\x17\x1f0\x0f?~'
tRp1914
S'104'
p1915
I1
ttRp1916
sVhttps://cdn.psychologytoday.com/sites/default/files/styles/image-article_inline_full/public/blogs/110287/2014/08/156882-161051.jpg?itok=jHPwbZPa
p1917
g3
(g4
g5
(g6
(S'\x07\xe0\x08\x03\x00\x16+\x00\xb2\xa8'
tRp1918
I-1
I1
ttRp1919
sVhttp://www.mortylefkoe.com/wp-content/uploads/bigstock-Motivate-020513.jpg
p1920
g3
(g4
g5
(g6
(S'\x07\xe0\x06\x1e\n0\x1b\x01\x8d\xce'
tRp1921
S'150'
p1922
I1
ttRp1923
sVhttp://previews.123rf.com/images/dskdesign/dskdesign1211/dskdesign121100019/16248075-business-hand-writing-person-or-employee-motivation-concept-Stock-Photo.jpg
p1924
g3
(g4
g5
(g6
(S'\x07\xe0\x07\x11\x15-1\x0e\xb6\xbe'
tRp1925
S'196'
p1926
I1
ttRp1927
sVhttp://lam-network.com/wp-content/uploads/2014/03/work-motivation1.jpg
p1928
g3
(g4
g5
(g6
(S'\x07\xe0\x01\r\x16\n\x16\x0e\xd6,'
tRp1929
I-1
I1
ttRp1930
sVhttp://www.earlyyearscareers.com/eyc/wp-content/uploads/2015/10/10722725205_0b2fcd12cf_b.jpg
p1931
g3
(g4
g5
(g6
(S'\x07\xe0\x07\x07\x10\x04\x1e\x0bx\x8c'
tRp1932
S'126'
p1933
I1
ttRp1934
sVhttp://sm-images-cdn.suburbanmen.com/wp-content/uploads/2015/07/monday-workout-motivation-20150720-5.jpg
p1935
g3
(g4
g5
(g6
(S'\x07\xe0\x04\r\x0f4*\x0b\xb0-'
tRp1936
S'338'
p1937
I1
ttRp1938
sVhttp://images.clipartpanda.com/motivation-clipart-motivation-pulls-man-22847827.jpg
p1939
g3
(g4
g5
(g6
(S'\x07\xe0\x06\x1e\n0\x1b\x01\x8d\xe0'
tRp1940
S'464'
p1941
I1
ttRp1942
sVhttp://www.thekissagency.com/wp-content/uploads/2014/10/Motivation.jpg
p1943
g3
(g4
g5
(g6
(S'\x07\xdf\x0c\x08\x10*\x1f\toL'
tRp1944
S'70'
p1945
I1
ttRp1946
sVhttp://40.media.tumblr.com/7b635d6205f4bc77bd45447f85bea2d4/tumblr_n4wmy6mufI1qz7sw8o1_1280.jpg
p1947
g3
(g4
g5
(g6
(S"\x07\xe0\x02\x19\t1'\x04\x95\xe6"
tRp1948
S'20'
p1949
I1
ttRp1950
sVhttp://uprisefit.com/wp-content/uploads/Motivation.jpg
p1951
g3
(g4
g5
(g6
(S'\x07\xe0\n\x08\x134\x0f\n\xe1-'
tRp1952
S'503'
p1953
I1
ttRp1954
sVhttp://mbanogmat.com/files/2013/01/How-to-Stay-Motivated.jpg
p1955
g3
(g4
g5
(g6
(S'\x07\xdf\x0c\x1a\x1362\x00\xd9{'
tRp1956
S'157'
p1957
I1
ttRp1958
sVhttps://zeitgeistfilms.com/zeromotivation/images/ZeroMotivation_home3.jpg
p1959
g3
(g4
g5
(g6
(S'\x07\xe0\x01\r\x16\n\x16\x0e\xd6S'
tRp1960
S'139'
p1961
I1
ttRp1962
sVhttp://lepetitcoach.com/wp-content/uploads/2015/11/motivation.jpg
p1963
g3
(g4
g5
(g6
(S'\x07\xe0\x05\x07\x15#\x0c\x06\x9b\x14'
tRp1964
S'364'
p1965
I1
ttRp1966
sVhttps://upload.wikimedia.org/wikipedia/en/6/63/Overjustification_Effect_Rewards_and_Motivation.jpg
p1967
g3
(g4
g5
(g6
(S'\x07\xe0\x04\r\x0f4*\x0b\xb0\x86'
tRp1968
S'131'
p1969
I1
ttRp1970
sVhttps://thrivehive.com/wp-content/uploads/2015/10/employee-motivation-techniques-1.jpg
p1971
g3
(g4
g5
(g6
(S'\x07\xe0\t\x16\x0b*\x14\rzs'
tRp1972
I-1
I1
ttRp1973
sVhttp://cdn2.hubspot.net/hub/392717/file-2447137411-jpg/motivation_1.jpg
p1974
g3
(g4
g5
(g6
(S'\x07\xdf\n\x11\t5\x03\x02\xc8H'
tRp1975
S'62'
p1976
I1
ttRp1977
sVhttp://thumbs.dreamstime.com/z/i-can-self-motivation-quote-cutting-letter-t-written-word-t-says-52295841.jpg
p1978
g3
(g4
g5
(g6
(S'\x07\xe0\x06\x1e\n0\x1b\x01\x8d\xfd'
tRp1979
S'244'
p1980
I1
ttRp1981
sVhttp://thumb7.shutterstock.com/display_pic_with_logo/1479299/273624035/stock-vector-motivation-concept-chart-with-keywords-and-icons-273624035.jpg
p1982
g3
(g4
g5
(g6
(S'\x07\xe0\x06\x17\n\x08\x12\r\xbfA'
tRp1983
S'247'
p1984
I1
ttRp1985
sVhttps://the-other-f-word.com/wp-content/uploads/2015/08/Workout-motivation-tips.jpg
p1986
g3
(g4
g5
(g6
(S'\x07\xe0\x07\x0f\x10\x05!\n\xd7\xd7'
tRp1987
S'183'
p1988
I2
ttRp1989
sVhttp://hdwallpapers.cat/wallpaper/test_motivation_humor_best_quote_sayings_hd-wallpaper-1590115.jpg
p1990
g3
(g4
g5
(g6
(S'\x07\xdf\x0b\x17\x16\x16\t\r\xb8\xb7'
tRp1991
S'67'
p1992
I1
ttRp1993
sVhttps://c6.staticflickr.com/3/2848/10722725205_0b2fcd12cf_c.jpg
p1994
g3
(g4
g5
(g6
(S'\x07\xe0\t\x04\x04\x1f\x18\x02\x87\x90'
tRp1995
S'332'
p1996
I1
ttRp1997
sVhttp://shapyn.de/wp-content/uploads/2015/05/fitness-motivation-wallpaper.png
p1998
g3
(g4
g5
(g6
(S'\x07\xe0\x04\x1b\x0f;3\x0b\x1b='
tRp1999
S'383'
p2000
I2
ttRp2001
sVhttp://image.slidesharecdn.com/motivationletter-12647583132846-phpapp02/95/motivation-letter-1-728.jpg?cb=1264736940
p2002
g3
(g4
g5
(g6
(S'\x07\xdf\x0c\x14\x11(\x1f\x05\xb6\xaf'
tRp2003
S'176'
p2004
I1
ttRp2005
sVhttps://pbs.twimg.com/profile_images/496464086775775232/nBwrtyYo.jpeg
p2006
g3
(g4
g5
(g6
(S'\x07\xe0\x06\x17\n\x08\x12\r\xbf*'
tRp2007
S'262'
p2008
I1
ttRp2009
sVhttp://malonemediagroup.com/wp-content/uploads/2013/05/motivation.jpg
p2010
g3
(g4
g5
(g6
(S'\x07\xe0\x05\x18\x15,\x19\r\xe6\x8a'
tRp2011
S'17'
p2012
I1
ttRp2013
sVhttps://s-media-cache-ak0.pinimg.com/736x/6e/55/cf/6e55cfca401a2ae5eae0ae040ae22f5c.jpg
p2014
g3
(g4
g5
(g6
(S'\x07\xe0\x04\x03\x0f\x0f0\x00\x14\n'
tRp2015
S'335'
p2016
I1
ttRp2017
sVhttps://eloisebeeching.files.wordpress.com/2015/01/motivate-yourself-71.jpg
p2018
g3
(g4
g5
(g6
(S'\x07\xdf\x0b\x1a\x16\x18;\x02\x8bu'
tRp2019
S'97'
p2020
I1
ttRp2021
sVhttp://www.crossfitlongbeach.com/sites/crossfitlongbeach.com/files/motivation.jpg?1466552568
p2022
g3
(g4
g5
(g6
(S'\x07\xe0\x07\x17\x175\x01\x06\\s'
tRp2023
S'473'
p2024
I1
ttRp2025
sVhttp://tone-and-tighten.com/wp-content/uploads/2014/06/fitness-motivation-gym-inspiration-exercise-quote-saying-crowded-at-the-top.jpg.jpg
p2026
g3
(g4
g5
(g6
(S'\x07\xe0\t\x0c\t\x1b)\r\xda_'
tRp2027
S'539'
p2028
I1
ttRp2029
sVhttps://elearningindustry.com/wp-content/uploads/2015/05/Extrinsic-Motivation-Online-Training.jpg
p2030
g3
(g4
g5
(g6
(S'\x07\xe0\n\x08\x134\x0f\n\xe0\xab'
tRp2031
I-1
I1
ttRp2032
sVhttp://www.changeinseconds.com/wp-content/uploads/2013/10/weight-loss-motivation-14.jpg
p2033
g3
(g4
g5
(g6
(S'\x07\xe0\t\x04\x04\x1f\x18\x02\x86M'
tRp2034
S'290'
p2035
I1
ttRp2036
sVhttp://www.flourishthriveacademy.com/wp-content/uploads/2013/03/motivation-1.jpg
p2037
g3
(g4
g5
(g6
(S'\x07\xe0\x01\r\x16\n\x16\x0e\xd5\xa6'
tRp2038
S'200'
p2039
I1
ttRp2040
sVhttp://edmayermarketing.com/wp-content/uploads/2016/03/motivation-2.jpg
p2041
g3
(g4
g5
(g6
(S'\x07\xe0\x08\r\x006\r\x01f\x06'
tRp2042
S'507'
p2043
I1
ttRp2044
sVhttps://xercises.files.wordpress.com/2015/05/fitness-motivation-work-that-body-pinterest.jpg
p2045
g3
(g4
g5
(g6
(S'\x07\xe0\x04\r\x0f4*\x0b\xb0\x11'
tRp2046
S'153'
p2047
I1
ttRp2048
sVhttp://www.mattmcwilliams.com/wp-content/uploads/2015/01/purpose-over-profits-motivation.jpg
p2049
g3
(g4
g5
(g6
(S'\x07\xe0\t\x0c\t\x1b)\r\xda\x9b'
tRp2050
S'155'
p2051
I1
ttRp2052
sVhttp://accidental-hr.com/wp-content/uploads/2010/08/bigstock_Self_Motivation_Golden_Dollar_2032755.jpg
p2053
g3
(g4
g5
(g6
(S'\x07\xe0\x01\r\x16\n\x16\x0e\xd5\xdf'
tRp2054
I-1
I1
ttRp2055
sVhttp://i.kinja-img.com/gawker-media/image/upload/s--BhjKrjHY--/zwy5x7jgb7tun6nl04qj.jpg
p2056
g3
(g4
g5
(g6
(S'\x07\xdf\x0b\x05\x15\x15\x01\r\nL'
tRp2057
S'77'
p2058
I1
ttRp2059
sVhttp://blog.aurionlearning.com/wp-content/uploads/2015/06/E-Learning-Motivation-Image.png
p2060
g3
(g4
g5
(g6
(S'\x07\xe0\n\x02\x13\x18\x1b\x01A>'
tRp2061
S'567'
p2062
I1
ttRp2063
sVhttp://gazettereview.com/wp-content/uploads/2015/05/Motivation.jpg
p2064
g3
(g4
g5
(g6
(S'\x07\xdf\x0c\x1a\x1362\x00\xd9\x04'
tRp2065
S'47'
p2066
I1
ttRp2067
sVhttp://www.prolificliving.com/wp-content/uploads/2015/01/faith-yourself.jpg
p2068
g3
(g4
g5
(g6
(S'\x07\xe0\x03\x04\n\x04\r\x07!\xa0'
tRp2069
S'300'
p2070
I2
ttRp2071
sVhttps://img1.steemit.com/0x0/https://s14-eu5.ixquick.com/cgi-bin/serveimage?url=http:%2F%2Fblogs.ubc.ca%2Famanthind%2Ffiles%2F2015%2F11%2FEmployee-Motivation1.jpg&sp=fa13bb4fdb5420dfcaea2bee359ae94e
p2072
g3
(g4
g5
(g6
(S'\x07\xe0\n\x08\x134\x0f\n\xe1\x06'
tRp2073
S'506'
p2074
I1
ttRp2075
sVhttp://image.slidesharecdn.com/theoriesofmotivation-asg-120929141425-phpapp02/95/theories-of-motivation-asg-1-728.jpg?cb=1348928104
p2076
g3
(g4
g5
(g6
(S'\x07\xe0\x06\x06\r\x0f\x16\n\xa1\x9a'
tRp2077
S'421'
p2078
I1
ttRp2079
sVhttps://www.menschen-im-vertrieb.at/blog/wp-content/uploads/2010/11/Motivation.jpg
p2080
g3
(g4
g5
(g6
(S'\x07\xdf\x0c\x1a\x1362\x00\xd9\x98'
tRp2081
S'170'
p2082
I1
ttRp2083
sVhttps://fitfabcities.files.wordpress.com/2011/11/today-motivation.jpg
p2084
g3
(g4
g5
(g6
(S'\x07\xdf\n\x11\t5\x03\x02\xc9\x92'
tRp2085
S'26'
p2086
I1
ttRp2087
sVhttp://e2ua.com/data/wallpapers/23/WDF_712784.jpg
p2088
g3
(g4
g5
(g6
(S'\x07\xe0\x05\x12\x12\x05\x10\x02\x87/'
tRp2089
I-1
I1
ttRp2090
sVhttps://www.talentsquare.com/wp-content/uploads/2013/03/Make_Happen.jpg
p2091
g3
(g4
g5
(g6
(S'\x07\xe0\n\x1e\x15\x19%\x07\xe2\xa1'
tRp2092
I-1
I1
ttRp2093
sVhttp://tamsenmcmahon.com/wp-content/uploads/2010/03/Motivation-Triangle.jpg
p2094
g3
(g4
g5
(g6
(S'\x07\xe0\x01\r\x16\n\x16\x0e\xd6@'
tRp2095
S'190'
p2096
I1
ttRp2097
sVhttp://www.adelecyuboco.com/wp-content/uploads/2015/06/football-motivation.jpg
p2098
g3
(g4
g5
(g6
(S'\x07\xe0\x06\x1e\n0\x1b\x01\x8d\xe3'
tRp2099
I-1
I1
ttRp2100
sVhttps://s3.amazonaws.com/WisdomPlanet/wisdomtimes/wp-content/uploads/2012/07/Self-motivation-how-to-get-self-motivated.jpg
p2101
g3
(g4
g5
(g6
(S'\x07\xe0\x08\r\x006\r\x01f\x02'
tRp2102
S'386'
p2103
I1
ttRp2104
sVhttp://rosalieledda.com/wp-content/uploads/2014/11/IntrinsicMotivation.png
p2105
g3
(g4
g5
(g6
(S'\x07\xdf\x0c\x14\x11(\x1f\x05\xb6['
tRp2106
S'168'
p2107
I1
ttRp2108
sVhttp://www.businessproductivity.com/wp-content/uploads/2012/07/01-Constructive-advice-for-motivating-employees.png
p2109
g3
(g4
g5
(g6
(S'\x07\xe0\t\x1a\r\x08(\x0eJ\xaf'
tRp2110
I-1
I1
ttRp2111
sVhttp://cosmic-fitness.com/wp-content/uploads/2015/05/11-12-12-Monday-Motivation1.jpg
p2112
g3
(g4
g5
(g6
(S'\x07\xe0\x02\x11\x04\x08.\x0b\xd9\x89'
tRp2113
S'273'
p2114
I1
ttRp2115
sVhttp://certainlyher.com/wp-content/uploads/2015/02/tumblr_murtxoK9a21rbyu6jo1_1280.jpg
p2116
g3
(g4
g5
(g6
(S'\x07\xe0\x03\x0e\r;\x15\x0e\x89\x9d'
tRp2117
S'298'
p2118
I1
ttRp2119
sVhttp://www.askwhyguy.com/wp-content/uploads/2015/04/motivation.jpg
p2120
g3
(g4
g5
(g6
(S'\x07\xdf\x0b\x1a\x16\x18;\x02\x8a\xb0'
tRp2121
S'40'
p2122
I1
ttRp2123
sVhttps://s-media-cache-ak0.pinimg.com/736x/71/2f/43/712f43b1863fff6c0d664e98470d8859.jpg
p2124
g3
(g4
g5
(g6
(S'\x07\xe0\t\x04\x04\x1f\x18\x02\x87m'
tRp2125
S'538'
p2126
I1
ttRp2127
sVhttps://pi.tedcdn.com/r/pf.tedcdn.com/images/playlists/why_we_do_what_we_do_1200x627.jpg?c=1050%2C550&w=1050
p2128
g3
(g4
g5
(g6
(S"\x07\xe0\x07\x03\x0f'\x1f\x08h\xf7"
tRp2129
S'455'
p2130
I1
ttRp2131
sVhttp://thumb7.shutterstock.com/display_pic_with_logo/1059320/381851365/stock-vector-motivation-design-and-concept-background-with-rocket-project-motivation-concepts-for-web-banner-381851365.jpg
p2132
g3
(g4
g5
(g6
(S'\x07\xe0\x06\x17\n\x08\x12\r\xbfL'
tRp2133
S'453'
p2134
I1
ttRp2135
sVhttp://images.fitnessmagazine.mdpcdn.com/sites/fitnessmagazine.com/files/styles/facebook_og_image/public/monday-motivation-sweat-more-bitch-less_0.jpg?itok=aoi_AGeZ
p2136
g3
(g4
g5
(g6
(S'\x07\xe0\n\x08\x134\x0f\n\xe18'
tRp2137
S'401'
p2138
I1
ttRp2139
sVhttp://www.spyderonlines.com/images/wallpapers/motivation-wallpaper/motivation-wallpaper-16.jpg
p2140
g3
(g4
g5
(g6
(S'\x07\xe0\x07\x0f\x10\x05!\n\xd71'
tRp2141
S'461'
p2142
I2
ttRp2143
sVhttps://cdn.shopify.com/s/files/1/0815/1807/files/blog_Motivation-Monday-Menu1.jpg?5002197569620289024
p2144
g3
(g4
g5
(g6
(S'\x07\xe0\x03\x12\x0e\x03\x0b\x00\xec-'
tRp2145
S'198'
p2146
I1
ttRp2147
sVhttp://static1.squarespace.com/static/5511a3cbe4b0748e8e710ce3/t/56bd1913d210b88e65adbbdb/1455233301066/
p2148
g3
(g4
g5
(g6
(S'\x07\xe0\x06\x17\n\x08\x12\r\xbe\xaf'
tRp2149
S'389'
p2150
I1
ttRp2151
sVhttp://www.strictly-stress-management.com/images/motivation-crop-620x250.jpg
p2152
g3
(g4
g5
(g6
(S'\x07\xe0\x06\x17\n\x08\x12\r\xbf\x7f'
tRp2153
S'484'
p2154
I1
ttRp2155
sVhttp://previews.123rf.com/images/violin/violin1104/violin110400148/9410645-Hand-and-word-Motivation-isolated-on-white-background-Stock-Photo.jpg
p2156
g3
(g4
g5
(g6
(S'\x07\xe0\x01\r\x16\n\x16\x0e\xd5C'
tRp2157
S'210'
p2158
I1
ttRp2159
sVhttp://www.caloriesecrets.net/wp-content/uploads/2014/09/100-percent-effort.jpg
p2160
g3
(g4
g5
(g6
(S'\x07\xe0\x02\x11\x04\x08.\x0b\xd9\x1f'
tRp2161
S'275'
p2162
I1
ttRp2163
sVhttp://az616578.vo.msecnd.net/files/2016/03/31/635950634795151336967118572_you-cant-create-motivation-writetojoncook-1j901wa.jpg
p2164
g3
(g4
g5
(g6
(S'\x07\xe0\x08\x03\x00\x16+\x00\xb3\r'
tRp2165
S'392'
p2166
I1
ttRp2167
sVhttp://www.careerealism.com/wp-content/uploads/2012/02/job-search-motivation.jpg
p2168
g3
(g4
g5
(g6
(S'\x07\xe0\x08\x1f\x04\x14\x13\x06\x01 '
tRp2169
S'287'
p2170
I1
ttRp2171
sVhttps://tetyanalivedotcom.files.wordpress.com/2015/06/motivation.jpg
p2172
g3
(g4
g5
(g6
(S'\x07\xdf\x0c\x0c\x11\x1d!\x06\xcf='
tRp2173
S'55'
p2174
I1
ttRp2175
sVhttp://brotherword.org/wp-content/uploads/2013/05/brotherword-motivational-monday.jpg
p2176
g3
(g4
g5
(g6
(S'\x07\xe0\x08\x03\x00\x16+\x00\xb2\xad'
tRp2177
S'102'
p2178
I1
ttRp2179
sVhttp://cfapogee.com/wp-content/uploads/2013/09/rocky-stuff.jpg
p2180
g3
(g4
g5
(g6
(S'\x07\xe0\x01\r\x16\n\x16\x0e\xd5\x9c'
tRp2181
S'203'
p2182
I1
ttRp2183
sVhttp://dailyhealthtipz.com/wp-content/uploads/2016/07/how-to-motivate-yourself.jpg
p2184
g3
(g4
g5
(g6
(S'\x07\xe0\t\x1c\x13\x10$\x0e{\x94'
tRp2185
S'571'
p2186
I1
ttRp2187
sVhttp://bigbudsmag.com/wp-content/uploads/marijuana_hydroponics_2.jpg
p2188
g3
(g4
g5
(g6
(S'\x07\xe0\n\x08\x134\x0f\n\xe0\xbe'
tRp2189
NI1
ttRp2190
sVhttp://www.pixelstalk.net/wp-content/uploads/2016/06/Motivation-Wallpapers-HD.jpg
p2191
g3
(g4
g5
(g6
(S'\x07\xe0\n\x02\x13\x18\x1b\x01A\x93'
tRp2192
I-1
I1
ttRp2193
sVhttp://ragtagriot.com/wp-content/uploads/2015/01/motivation-111.jpg
p2194
g3
(g4
g5
(g6
(S'\x07\xdf\x0b\x1a\x16\x18;\x02\x8a\xcd'
tRp2195
I-1
I1
ttRp2196
sVhttp://science-all.com/images/wallpapers/motivation-pics/motivation-pics-13.jpg
p2197
g3
(g4
g5
(g6
(S'\x07\xe0\x08\x13\x01\r\x01\x0e\x1c8'
tRp2198
S'518'
p2199
I1
ttRp2200
sVhttp://theunbelievable.me/wp-content/uploads/2015/05/motivating-your-employees.jpg
p2201
g3
(g4
g5
(g6
(S'\x07\xdf\x0c\x0c\x11\x1d!\x06\xce\xd8'
tRp2202
S'87'
p2203
I1
ttRp2204
sVhttp://blog.jobsinsocialmedia.com/wp-content/uploads/2015/10/monday-motivation.png
p2205
g3
(g4
g5
(g6
(S'\x07\xe0\t\x16\x0b*\x14\ry\xb3'
tRp2206
S'252'
p2207
I2
ttRp2208
sVhttp://fitglutenfree.co.uk/wp-content/uploads/2015/12/keep-going-fitness-motivation.jpg
p2209
g3
(g4
g5
(g6
(S'\x07\xe0\t\x16\x0b*\x14\ry\xc8'
tRp2210
S'486'
p2211
I1
ttRp2212
sVhttp://www.refreshleadership.com/wp-content/uploads/2013/12/1557580883.jpg
p2213
g3
(g4
g5
(g6
(S'\x07\xe0\n\x08\x134\x0f\n\xe1]'
tRp2214
S'356'
p2215
I1
ttRp2216
sVhttp://randallmilner.com/wp/wp-content/uploads/2016/03/start.jpg
p2217
g3
(g4
g5
(g6
(S'\x07\xe0\x08\r\x006\r\x01fQ'
tRp2218
S'504'
p2219
I1
ttRp2220
sVhttp://mommysavers.com/wp-content/uploads/2015/10/Motivation-to-Get-Healthy.jpg
p2221
g3
(g4
g5
(g6
(S'\x07\xe0\n\x08\x134\x0f\n\xe0\xf3'
tRp2222
I-1
I1
ttRp2223
sVhttp://www.benthethird.com/wp-content/uploads/2015/08/motivation13.jpg
p2224
g3
(g4
g5
(g6
(S'\x07\xdf\x0b\x10\x16\x11\x01\x00\x89\x9f'
tRp2225
S'82'
p2226
I1
ttRp2227
sVhttp://bodyonept.com/wp-content/uploads/2015/05/motivation.jpg
p2228
g3
(g4
g5
(g6
(S'\x07\xe0\t\x1c\x13\x10$\x0e|\xd8'
tRp2229
S'58'
p2230
I1
ttRp2231
sVhttp://positivepsychologynews.com/ppnd_wp/wp-content/uploads/2009/04/motivation-hierarchy3.jpg
p2232
g3
(g4
g5
(g6
(S'\x07\xe0\x04\x03\x0f\x0f0\x00\x15/'
tRp2233
S'122'
p2234
I1
ttRp2235
sVhttps://upload.wikimedia.org/wikipedia/commons/a/af/Door_with_both_push_and_pull_signs.jpg
p2236
g3
(g4
g5
(g6
(S'\x07\xe0\x05\x16\x14(\x0b\x03*\x0c'
tRp2237
S'44'
p2238
I1
ttRp2239
sVhttp://www.businessjunkee.com/wp-content/uploads/2015/02/gym-motivation-mohammad-ali.jpg
p2240
g3
(g4
g5
(g6
(S'\x07\xe0\x06\x1e\n0\x1b\x01\x8d\xdd'
tRp2241
I-1
I1
ttRp2242
sVhttp://www.goinflippincrazy.com/wp-content/uploads/2014/03/motivationbubble.jpg
p2243
g3
(g4
g5
(g6
(S'\x07\xe0\x06\x1b\r+\x0f\x03b\xc9'
tRp2244
S'446'
p2245
I1
ttRp2246
sVhttp://static3.depositphotos.com/1003857/178/i/950/depositphotos_1780723-Business-slogan-Motivation-Roadsign.jpg
p2247
g3
(g4
g5
(g6
(S'\x07\xdf\x0c\x1a\x1362\x00\xd9W'
tRp2248
S'159'
p2249
I1
ttRp2250
sVhttp://static1.squarespace.com/static/569bd7671115e0984d2308c1/t/56a3f97b57eb8d5bf3a2282a/1453586812683/motivate
p2251
g3
(g4
g5
(g6
(S'\x07\xe0\x07\x11\x15-1\x0e\xb7?'
tRp2252
S'429'
p2253
I1
ttRp2254
sVhttp://teameckenrode.com/wp-content/uploads/2014/11/Monday-motivation.png
p2255
g3
(g4
g5
(g6
(S'\x07\xdf\x0c\x1a\x1362\x00\xd9e'
tRp2256
S'179'
p2257
I1
ttRp2258
sVhttp://addicted2success.com/wp-content/uploads/2013/08/Motivation-Picture-Quote-Motivation-Be-An-Expert.jpg
p2259
g3
(g4
g5
(g6
(S'\x07\xdf\x0b\x1a\x16\x18;\x02\x8b\x05'
tRp2260
I-1
I1
ttRp2261
sVhttp://78.109.164.169/~femalecoaching/concrete/uploads/2015/10/motivation-1.jpg
p2262
g3
(g4
g5
(g6
(S'\x07\xdf\x0c\x08\x10+#\x04\x03\xbe'
tRp2263
I-1
I1
ttRp2264
sVhttp://uncommonconsulting.com/wp-content/uploads/2011/11/hierarchy_of_motivation_hom_2011.png
p2265
g3
(g4
g5
(g6
(S'\x07\xe0\x01\r\x16\n\x16\x0e\xd6_'
tRp2266
S'193'
p2267
I1
ttRp2268
sVhttps://pixabay.com/static/uploads/photo/2016/05/12/19/35/motivation-1388479_960_720.jpg
p2269
g3
(g4
g5
(g6
(S'\x07\xe0\t\x16\x0b*\x14\rz4'
tRp2270
S'485'
p2271
I1
ttRp2272
sVhttp://www.thebluediamondgallery.com/pictures/motivation.jpg
p2273
g3
(g4
g5
(g6
(S'\x07\xe0\x05\x18\x15,\x19\r\xe6}'
tRp2274
I-1
I1
ttRp2275
sVhttp://www.fearlessmotivation.com/wp-content/uploads/2015/11/fear-less-dominate-more-14001.jpg
p2276
g3
(g4
g5
(g6
(S'\x07\xe0\n\x08\x134\x0f\n\xe1\x1d'
tRp2277
S'575'
p2278
I1
ttRp2279
sVhttp://addicted2success.com/wp-content/uploads/2014/09/motivation-by-michael-jordan-quote.jpg
p2280
g3
(g4
g5
(g6
(S'\x07\xe0\t\x1a\r\x08(\x0eJ\xe1'
tRp2281
I-1
I1
ttRp2282
sVhttps://allthingslearning.files.wordpress.com/2011/12/motivation-road-sign.jpg
p2283
g3
(g4
g5
(g6
(S'\x07\xe0\t\x04\x04\x1f\x18\x02\x87\xb0'
tRp2284
S'166'
p2285
I1
ttRp2286
sVhttp://blogs.bsj.sch.id/karmun/files/2015/09/you-cant-create-motivation-writetojoncook-1j901wa.jpg
p2287
g3
(g4
g5
(g6
(S'\x07\xe0\x04\x13\x0f;&\x01\xf3A'
tRp2288
S'93'
p2289
I1
ttRp2290
sVhttps://i.ytimg.com/vi/OPl6WUlIG9g/maxresdefault.jpg
p2291
g3
(g4
g5
(g6
(S'\x07\xe0\n\x08\x134\x0f\n\xe1V'
tRp2292
S'69'
p2293
I2
ttRp2294
sVhttp://images.huffingtonpost.com/2016-04-04-1459788040-8182035-REACHacronymTreatmentsREV21_72dpi-thumb.jpg
p2295
g3
(g4
g5
(g6
(S'\x07\xe0\x06\x06\r\x0f\x16\n\xa2$'
tRp2296
S'420'
p2297
I1
ttRp2298
sVhttps://i.ytimg.com/vi/E9kpZhAM5Dk/hqdefault.jpg
p2299
g3
(g4
g5
(g6
(S'\x07\xe0\x08\r\x006\r\x01f\xd0'
tRp2300
S'499'
p2301
I1
ttRp2302
sVhttp://image.slidesharecdn.com/theoriesofmotivation-130824223005-phpapp01/95/theories-of-motivation-overview-of-the-content-theories-of-motivation-2-638.jpg?cb=1379125011
p2303
g3
(g4
g5
(g6
(S'\x07\xe0\x06\x17\n\x08\x12\r\xbfT'
tRp2304
S'142'
p2305
I1
ttRp2306
sVhttp://us.123rf.com/450wm/vectorscore/vectorscore1510/vectorscore151000020/46503027-motivation-template--design-bear-attack.jpg?ver=6
p2307
g3
(g4
g5
(g6
(S'\x07\xe0\x08\r\x006\r\x01f\x8f'
tRp2308
I-1
I1
ttRp2309
sVhttps://pbs.twimg.com/profile_images/209253976/motivate.jpg
p2310
g3
(g4
g5
(g6
(S"\x07\xe0\x02\x19\t1'\x04\x95\xd7"
tRp2311
S'89'
p2312
I1
ttRp2313
sVhttps://c1.staticflickr.com/5/4003/4504724163_277a8197ff_z.jpg
p2314
g3
(g4
g5
(g6
(S'\x07\xe0\x08\x03\x00\x16+\x00\xb3Q'
tRp2315
S'103'
p2316
I1
ttRp2317
sVhttp://iscreamsundae.com/wp-content/uploads/2016/02/Self-motivation-how-to-get-self-motivated.jpg
p2318
g3
(g4
g5
(g6
(S'\x07\xe0\x06\x02\t7\x1a\r\xdb\x1d'
tRp2319
S'282'
p2320
I1
ttRp2321
sVhttps://upload.wikimedia.org/wikipedia/commons/f/f0/Which_step_have_you_reached_today.jpg
p2322
g3
(g4
g5
(g6
(S'\x07\xe0\x04\t\x0f/\x1a\x02\xe8R'
tRp2323
S'314'
p2324
I1
ttRp2325
sVhttp://www.businessbanter.com/wp-content/uploads/2013/11/motivate-content-2.jpg
p2326
g3
(g4
g5
(g6
(S'\x07\xdf\x0b\x1a\x16\x18;\x02\x8a\xf5'
tRp2327
S'98'
p2328
I1
ttRp2329
sVhttp://www.lovethispic.com/uploaded_images/22842-Workout-Motivation.jpg
p2330
g3
(g4
g5
(g6
(S'\x07\xe0\x04\r\x0f4*\x0b\xaf\xed'
tRp2331
S'145'
p2332
I1
ttRp2333
sVhttps://media.licdn.com/mpr/mpr/shrinknp_800_800/AAEAAQAAAAAAAAJuAAAAJGJlYzExODdhLTJmY2MtNDA1NS1iNmY3LTE1ZDg3ZjAwMTNjZA.png
p2334
g3
(g4
g5
(g6
(S'\x07\xe0\t\x16\x0b*\x14\ry\x8f'
tRp2335
S'284'
p2336
I2
ttRp2337
sVhttp://beastmotivation.com/wp-content/uploads/2013/03/motivation-98015.jpg
p2338
g3
(g4
g5
(g6
(S'\x07\xe0\t\x1a\r\x08(\x0eH\x9c'
tRp2339
S'317'
p2340
I1
ttRp2341
sVhttp://fewpict.com/images/motivation/motivation-03.jpg
p2342
g3
(g4
g5
(g6
(S'\x07\xe0\x01\r\x16\n\x16\x0e\xd5\xaa'
tRp2343
S'217'
p2344
I1
ttRp2345
sVhttp://kurld.com/images/wallpapers/motivation-pics/motivation-pics-13.jpg
p2346
g3
(g4
g5
(g6
(S'\x07\xe0\n\x08\x134\x0f\n\xe1)'
tRp2347
S'574'
p2348
I1
ttRp2349
sVhttps://accent-technologies.com/wp-content/uploads/2015/09/sales-team-motivation.jpg
p2350
g3
(g4
g5
(g6
(S'\x07\xe0\x08\x11\x01\x05\n\x04eb'
tRp2351
S'371'
p2352
I1
ttRp2353
sVhttps://tedcdnpi-a.akamaihd.net/r/tedcdnpf-a.akamaihd.net/images/playlists/why_we_do_what_we_do_1200x627.jpg?c=1050%2C550&w=1050
p2354
g3
(g4
g5
(g6
(S'\x07\xe0\x04\x13\x0f;&\x01\xf2\x89'
tRp2355
S'297'
p2356
I1
ttRp2357
sVhttp://image.slidesharecdn.com/motivation-agilebulusmalar-160413063704/95/happy-developers-guide-to-the-galaxy-thinking-about-motivation-of-developers-11-638.jpg?cb=1460529454
p2358
g3
(g4
g5
(g6
(S'\x07\xe0\t\x1a\r\x08(\x0eI\x98'
tRp2359
S'432'
p2360
I4
ttRp2361
sVhttp://1.bp.blogspot.com/-VwHOaoLh5Ow/Ump0dL58O0I/AAAAAAAAEK0/uNZRYMeQkSw/s1600/fresh+motivations.JPG
p2362
g3
(g4
g5
(g6
(S'\x07\xe0\x01\r\x16\n\x16\x0e\xd5\xef'
tRp2363
S'207'
p2364
I1
ttRp2365
sVhttp://liveforthepump.de/sites/default/files/Motivation%20und%20Zielsetzung%20-%20Erfolg%20-%20Success.jpg
p2366
g3
(g4
g5
(g6
(S'\x07\xe0\x02\t\x00\x10\x08\x05\x07\xd8'
tRp2367
S'143'
p2368
I1
ttRp2369
sVhttp://www.scififantasynetwork.com/wp-content/uploads/2016/02/motivation.jpg
p2370
g3
(g4
g5
(g6
(S'\x07\xe0\x08\r\x006\r\x01fL'
tRp2371
S'323'
p2372
I1
ttRp2373
sVhttp://pureella.com/wp-content/uploads/Pure-Ella-There-is-always-something-to-be-thankful-for-Inspiration-Motivation-Quote.jpg
p2374
g3
(g4
g5
(g6
(S'\x07\xe0\x03\x1c\x0e .\x0f8\xa3'
tRp2375
S'250'
p2376
I1
ttRp2377
sVhttp://www.incimages.com/uploaded_files/image/1940x900/inner-motivation_19918.jpg
p2378
g3
(g4
g5
(g6
(S'\x07\xe0\x06\x1e\n0\x1b\x01\x8d\xa7'
tRp2379
S'465'
p2380
I1
ttRp2381
sVhttps://rsastories.files.wordpress.com/2011/10/motivation.jpg
p2382
g3
(g4
g5
(g6
(S'\x07\xe0\t\x16\x0b*\x14\ry\x80'
tRp2383
S'291'
p2384
I1
ttRp2385
sVhttp://previews.123rf.com/images/drx/drx1010/drx101000006/8092645-Word-impossible-transformed-into-possible-Motivation-philosophy-concept-Stock-Photo.jpg
p2386
g3
(g4
g5
(g6
(S'\x07\xe0\x06\x1e\n0\x1b\x01\x8d\xca'
tRp2387
S'452'
p2388
I1
ttRp2389
sVhttp://www.christophgrizzard.eu/wp-content/uploads/2014/09/Motivation_V1_01.jpg
p2390
g3
(g4
g5
(g6
(S'\x07\xe0\n\x08\x134\x0f\n\xe0\xe7'
tRp2391
S'2'
I1
ttRp2392
sVhttp://blogs.ubc.ca/amanthind/files/2015/11/motivation-1.jpg
p2393
g3
(g4
g5
(g6
(S'\x07\xe0\x06\x17\n\x08\x12\r\xbe\xdc'
tRp2394
S'321'
p2395
I1
ttRp2396
sVhttp://www.monitae.com/wp-content/uploads/2015/06/motivation-1080x675.jpg
p2397
g3
(g4
g5
(g6
(S'\x07\xe0\x03\x04\n\x04\r\x07!\x7f'
tRp2398
S'158'
p2399
I1
ttRp2400
sVhttps://s-media-cache-ak0.pinimg.com/736x/30/c6/00/30c6001dda69aec7359b3af321ec871f.jpg
p2401
g3
(g4
g5
(g6
(S'\x07\xe0\t\x0c\t\x1b)\r\xda\xf9'
tRp2402
S'541'
p2403
I1
ttRp2404
sVhttp://www.cultofpedagogy.com/wp-content/uploads/2016/02/Motivation-Pin.png
p2405
g3
(g4
g5
(g6
(S'\x07\xe0\t\x16\x0b*\x14\ry\xdf'
tRp2406
S'325'
p2407
I1
ttRp2408
sVhttp://rosalieledda.com/wp-content/uploads/2014/11/IntrinsicMotivation1.png
p2409
g3
(g4
g5
(g6
(S'\x07\xdf\x0c\x0c\x11\x1d!\x06\xcf\x16'
tRp2410
S'152'
p2411
I1
ttRp2412
sVhttps://pbs.twimg.com/profile_images/554760316869820416/98_V3OXJ.jpeg
p2413
g3
(g4
g5
(g6
(S"\x07\xe0\x02\x19\t1'\x04\x95h"
tRp2414
S'124'
p2415
I1
ttRp2416
sVhttp://thumbs.dreamstime.com/z/motivation-hand-writing-blue-mark-transparent-board-46336968.jpg
p2417
g3
(g4
g5
(g6
(S'\x07\xe0\x06\x1e\n0\x1b\x01\x8d\xd9'
tRp2418
S'438'
p2419
I1
ttRp2420
sVhttp://cdn-media-1.lifehack.org/wp-content/files/2013/11/20-Ways-To-Wake-Up-With-Motivation.jpg
p2421
g3
(g4
g5
(g6
(S'\x07\xe0\t\x0c\t\x1b)\r\xda\xb4'
tRp2422
S'533'
p2423
I1
ttRp2424
sVhttp://52dietplan.org/wp-content/uploads/2015/09/motivation-to-lose-weight.jpg
p2425
g3
(g4
g5
(g6
(S'\x07\xe0\x05\x16\x14(\x0b\x03)\xaf'
tRp2426
S'387'
p2427
I1
ttRp2428
sVhttp://detechter.com/wp-content/uploads/2015/04/1-motivation-wallpaper1.jpg
p2429
g3
(g4
g5
(g6
(S'\x07\xe0\x01\x1f\x17/\x06\x04\xe8\xe9'
tRp2430
I-1
I1
ttRp2431
sVhttp://thumbs.dreamstime.com/z/motivation-pulls-man-22847827.jpg
p2432
g3
(g4
g5
(g6
(S'\x07\xe0\x06\x1b\r+\x0f\x03aq'
tRp2433
S'467'
p2434
I1
ttRp2435
sVhttp://image.slidesharecdn.com/motivation-150415080316-conversion-gate01/95/motivation-and-theries-of-motivation-4-638.jpg?cb=1429085177
p2436
g3
(g4
g5
(g6
(S'\x07\xe0\x08\r\x006\r\x01f\x8a'
tRp2437
S'494'
p2438
I1
ttRp2439
sVhttp://www.spyderonlines.com/images/wallpapers/motivation-pics/motivation-pics-17.jpg
p2440
g3
(g4
g5
(g6
(S'\x07\xe0\n\x08\x134\x0f\n\xe0\xc8'
tRp2441
S'579'
p2442
I1
ttRp2443
sVhttp://lukeroland.com/wp-content/uploads/2014/01/motivation.jpg
p2444
g3
(g4
g5
(g6
(S'\x07\xe0\x06\x1e\n0\x1b\x01\x8dk'
tRp2445
S'472'
p2446
I1
ttRp2447
sVhttp://cdn-media-1.lifehack.org/wp-content/files/2009/10/20091022-motivation-380x254.jpg
p2448
g3
(g4
g5
(g6
(S'\x07\xe0\x08\r\x006\r\x01f\x93'
tRp2449
S'495'
p2450
I1
ttRp2451
sVhttp://rozsavagecoaching.com/wp-content/uploads/2015/09/Motivation-1080x675.jpg
p2452
g3
(g4
g5
(g6
(S'\x07\xe0\t\x16\x0b*\x14\rzm'
tRp2453
S'534'
p2454
I1
ttRp2455
sVhttps://pixabay.com/static/uploads/photo/2015/09/27/00/22/incentive-960045_960_720.jpg
p2456
g3
(g4
g5
(g6
(S'\x07\xe0\t\x16\x0b*\x14\rz\x8e'
tRp2457
S'343'
p2458
I1
ttRp2459
sVhttp://cdn2.hubspot.net/hub/147314/file-236440333-jpg/images/business-motivation.jpg?t=1449469208171
p2460
g3
(g4
g5
(g6
(S'\x07\xe0\x03\x1c\x0e .\x0f9\xa9'
tRp2461
S'149'
p2462
I1
ttRp2463
sVhttp://vonblancofitness.com/wp-content/uploads/2012/05/29-exercise-cheaper-than-bills.png
p2464
g3
(g4
g5
(g6
(S'\x07\xe0\x03\x0e\r;\x15\x0e\x88\xc7'
tRp2465
S'315'
p2466
I1
ttRp2467
sVhttp://cdn-media-2.lifehack.org/wp-content/files/2013/11/20-Ways-To-Wake-Up-With-Motivation.jpg
p2468
g3
(g4
g5
(g6
(S'\x07\xe0\t\x16\x0b*\x14\rz\xae'
tRp2469
S'537'
p2470
I1
ttRp2471
sVhttps://www.karriere-suedwestfalen.de/upload/bilder/redaktionell/Motivation.jpg
p2472
g3
(g4
g5
(g6
(S'\x07\xe0\x06\x1b\r+\x0f\x03a\xf6'
tRp2473
S'428'
p2474
I1
ttRp2475
sVhttp://makeyourbodywork.com/wp-content/uploads//2014/05/fitness-motivation.jpg
p2476
g3
(g4
g5
(g6
(S'\x07\xe0\x08\x1b\x0208\x00\xaag'
tRp2477
S'352'
p2478
I1
ttRp2479
sVhttp://study.com/cimages/videopreview/achievement-motivation_112874.jpg
p2480
g3
(g4
g5
(g6
(S'\x07\xe0\t\x1a\r\x08(\x0eK;'
tRp2481
S'492'
p2482
I1
ttRp2483
sVhttp://holmesplace.ch/_public/files/e/d/ed1914_5_tipps_motivation_banner.jpg_960x400_c_.jpg
p2484
g3
(g4
g5
(g6
(S'\x07\xe0\x06\x17\n\x08\x12\r\xbfp'
tRp2485
S'426'
p2486
I1
ttRp2487
sVhttps://www.jetts.com.au/uploads/contentFiles/files/14_02_12_Jetts_National_8WC_Wallpapers_FA7.jpg
p2488
g3
(g4
g5
(g6
(S'\x07\xe0\x07\x11\x15-1\x0e\xb6\xc5'
tRp2489
S'382'
p2490
I1
ttRp2491
sVhttp://refitfamily.com/wp-content/uploads/2015/02/Motivation-11.jpg
p2492
g3
(g4
g5
(g6
(S'\x07\xe0\x01\r\x16\n\x16\x0e\xd5\x87'
tRp2493
S'202'
p2494
I1
ttRp2495
sVhttp://www.trophyfitnessclub.com/wp-content/uploads/2014/09/dd39c304-6ab2-4027-9413-e2b48bf6a0bf.jpg
p2496
g3
(g4
g5
(g6
(S'\x07\xe0\x04\x13\x0f;&\x01\xf2M'
tRp2497
S'113'
p2498
I1
ttRp2499
sVhttp://thewritepractice.com/wp-content/uploads/2012/01/Character-Motivation.jpg
p2500
g3
(g4
g5
(g6
(S'\x07\xe0\x08\x03\x00\x16+\x00\xb3\x08'
tRp2501
S'501'
p2502
I1
ttRp2503
sVhttp://cabrerainsights.com/wp-content/uploads/2016/09/Fact-checking-motivation.jpg
p2504
g3
(g4
g5
(g6
(S'\x07\xe0\n\x1e\x15\x19%\x07\xe2\xb3'
tRp2505
NI1
ttRp2506
sVhttp://ibutler-world.biz/wp-content/uploads/2015/10/2GEgo6M.jpg
p2507
g3
(g4
g5
(g6
(S'\x07\xe0\x03\x14\x0e\x1d\x16\x05\x1b\x8d'
tRp2508
S'223'
p2509
I1
ttRp2510
sVhttp://thumb7.shutterstock.com/display_pic_with_logo/2486383/264221285/stock-photo-i-can-self-motivation-cutting-the-letter-t-of-the-written-word-i-can-t-so-it-says-i-can-264221285.jpg
p2511
g3
(g4
g5
(g6
(S'\x07\xe0\x08\r\x006\r\x01f$'
tRp2512
S'509'
p2513
I1
ttRp2514
sVhttps://s-media-cache-ak0.pinimg.com/originals/bb/27/b2/bb27b23a6d0c6b7eaa1be22c92673369.jpg
p2515
g3
(g4
g5
(g6
(S'\x07\xe0\t\x1c\x13\x10$\x0e{\x98'
tRp2516
S'564'
p2517
I1
ttRp2518
sVhttp://officialjohnhowell.com/wp-content/uploads/2014/03/motivation.jpg
p2519
g3
(g4
g5
(g6
(S'\x07\xe0\t\x1a\r\x08(\x0eI;'
tRp2520
S'468'
p2521
I1
ttRp2522
sVhttps://cdn.powerofpositivity.com/wp-content/uploads/2015/06/morning-motivation-habits-1024x1024.jpg
p2523
g3
(g4
g5
(g6
(S'\x07\xe0\x06\x1e\n0\x1b\x01\x8d\x86'
tRp2524
S'471'
p2525
I1
ttRp2526
sVhttp://www.soulschooltoday.com/wp-content/uploads/2015/09/motivation-how-to-stay-motivated.jpg
p2527
g3
(g4
g5
(g6
(S'\x07\xe0\n\x02\x13\x18\x1b\x01B\x05'
tRp2528
I-1
I1
ttRp2529
sVhttp://herb.co/wp-content/uploads/2016/01/Motivation-strain-type.jpg?751974
p2530
g3
(g4
g5
(g6
(S'\x07\xe0\x06\x06\r\x0f\x16\n\xa1p'
tRp2531
I-1
I1
ttRp2532
sVhttp://athleticsmotivation.com/wp-content/uploads/2014/12/running-motivation.jpg
p2533
g3
(g4
g5
(g6
(S'\x07\xdf\x0b\x1a\x16\x18;\x02\x8b\x81'
tRp2534
S'33'
p2535
I1
ttRp2536
sVhttps://i.ytimg.com/vi/m52Xi-nRVd0/hqdefault.jpg
p2537
g3
(g4
g5
(g6
(S"\x07\xe0\x07\x03\x0f'\x1f\x08hn"
tRp2538
I-1
I1
ttRp2539
sVhttp://cdn.simplyshredded.com/wp-content/uploads/2014/01/74.jpg
p2540
g3
(g4
g5
(g6
(S'\x07\xe0\x08\r\x006\r\x01f\x11'
tRp2541
S'279'
p2542
I1
ttRp2543
sVhttps://s-media-cache-ak0.pinimg.com/736x/2a/a3/f9/2aa3f952eecce77cb491993438f784b6.jpg
p2544
g3
(g4
g5
(g6
(S'\x07\xe0\x04\t\x0f/\x1a\x02\xe8\x8f'
tRp2545
S'339'
p2546
I1
ttRp2547
sVhttp://www.changeinseconds.com/wp-content/uploads/2013/10/weight-loss-motivation-19.jpg
p2548
g3
(g4
g5
(g6
(S'\x07\xe0\t\x0c\t\x1b)\r\xdb,'
tRp2549
S'309'
p2550
I1
ttRp2551
sVhttps://elearningindustry.com/wp-content/uploads/2015/08/rethinking-employee-motivation.jpg
p2552
g3
(g4
g5
(g6
(S'\x07\xe0\x07\x11\x15-1\x0e\xb7\x1a'
tRp2553
I-1
I1
ttRp2554
sVhttp://pre03.deviantart.net/4017/th/pre/f/2009/352/9/b/motivation_for_exams_by_my_office.jpg
p2555
g3
(g4
g5
(g6
(S'\x07\xe0\x01\r\x16\n\x16\x0e\xd6v'
tRp2556
S'209'
p2557
I2
ttRp2558
sVhttp://www.vitecinc.com/wp-content/uploads/2016/04/Motivation.jpg
p2559
g3
(g4
g5
(g6
(S'\x07\xe0\x07\x11\x15-1\x0e\xb79'
tRp2560
I-1
I1
ttRp2561
sVhttp://www.aniotaoftruth.com/wp-content/uploads/2013/08/A-dream-plus-motivation-becomes-reality-8x10.jpg
p2562
g3
(g4
g5
(g6
(S'\x07\xe0\x05\x12\x12\x05\x10\x02\x87\xc4'
tRp2563
I-1
I1
ttRp2564
sVhttp://faithworklife.com/wp-content/uploads/2015/06/Inspiration-vs-Motivation.jpg
p2565
g3
(g4
g5
(g6
(S'\x07\xe0\x05\x07\x15#\x0c\x06\x9a\xa2'
tRp2566
S'400'
p2567
I1
ttRp2568
sVhttp://childdevelopmentinfo.com/wp-content/uploads/2015/09/Untitled-design-39.jpg
p2569
g3
(g4
g5
(g6
(S'\x07\xe0\x04\x13\x0f;&\x01\xf37'
tRp2570
S'293'
p2571
I2
ttRp2572
sVhttp://drdivaphd.files.wordpress.com/2012/11/what-is-your-motivation-dr-diva-verdun.jpg
p2573
g3
(g4
g5
(g6
(S'\x07\xe0\x01\r\x16\n\x16\x0e\xd6\x1c'
tRp2574
S'189'
p2575
I1
ttRp2576
sVhttps://shechive.files.wordpress.com/2016/02/daily-motivation-513.jpg?quality=80&strip=info
p2577
g3
(g4
g5
(g6
(S'\x07\xe0\x04\x03\x0f\x0f0\x00\x15"'
tRp2578
S'322'
p2579
I1
ttRp2580
sVhttps://cdn.hashdoc.com/docs/d4d96ac22d674c8eb10ad0ee5e081058/images/728x/motivation-letter-for-erasmus-1.png
p2581
g3
(g4
g5
(g6
(S'\x07\xdf\x0c\x1a\x1362\x00\xd9\x17'
tRp2582
S'182'
p2583
I1
ttRp2584
sVhttps://i.ytimg.com/vi/sP7CChezoN4/hqdefault.jpg
p2585
g3
(g4
g5
(g6
(S'\x07\xe0\x08\r\x006\r\x01fv'
tRp2586
S'419'
p2587
I1
ttRp2588
sVhttps://i.ytimg.com/vi/FI7PeSNVWmE/maxresdefault.jpg
p2589
g3
(g4
g5
(g6
(S'\x07\xe0\x04\x1d\x10\x02\n\t\xb6M'
tRp2590
S'366'
p2591
I2
ttRp2592
sVhttp://www.fearlessmotivation.com/wp-content/uploads/2016/03/Fearless-Motivation-Motivational-Music-TODAY-IS-THE-DAY.jpg
p2593
g3
(g4
g5
(g6
(S'\x07\xe0\x08\r\x006\r\x01f\xdf'
tRp2594
S'412'
p2595
I1
ttRp2596
sVhttps://lh5.googleusercontent.com/-zP-0anOLznA/UwHj3cHHyGI/AAAAAAAAATA/CwN1KyC4-jw/w375-h502-no/most-motivation-quotes.jpeg
p2597
g3
(g4
g5
(g6
(S'\x07\xe0\x08\r\x006\r\x01f)'
tRp2598
S'458'
p2599
I1
ttRp2600
sVhttp://www.eleganceandenchantment.com/wp-content/uploads/2015/11/Featured-Images-Motivation-Monday-101-500x330.png
p2601
g3
(g4
g5
(g6
(S'\x07\xe0\x03\x1c\x0e .\x0f9\x81'
tRp2602
S'326'
p2603
I1
ttRp2604
sVhttp://www.tattoogen.com/tattoo/Respective_Slanted/404.45000000000005/000000/Motivation.jpg
p2605
g3
(g4
g5
(g6
(S'\x07\xe0\x01\r\x16\n\x16\x0e\xd6\x18'
tRp2606
S'211'
p2607
I1
ttRp2608
sVhttp://e2ua.com/data/wallpapers/172/WDF_2116595.jpg
p2609
g3
(g4
g5
(g6
(S'\x07\xe0\x05\x07\x15#\x0c\x06\x9b#'
tRp2610
I-1
I1
ttRp2611
sVhttps://prod-academy-wp-content-uploads.s3.amazonaws.com/2015/03/MOT_FitIn.jpg
p2612
g3
(g4
g5
(g6
(S'\x07\xe0\t\x1c\x13\x10$\x0e|\xf1'
tRp2613
S'519'
p2614
I1
ttRp2615
sVhttps://shechive.files.wordpress.com/2016/04/daily-motivation-138.jpg?quality=80&strip=info
p2616
g3
(g4
g5
(g6
(S'\x07\xe0\x06\x17\n\x08\x12\r\xbf<'
tRp2617
S'411'
p2618
I1
ttRp2619
sVhttp://flicksleak.com/wp-content/uploads/2015/03/motivation-get-over-depression-m.jpg
p2620
g3
(g4
g5
(g6
(S'\x07\xe0\x03\x0e\r;\x15\x0e\x89\xc8'
tRp2621
I-1
I1
ttRp2622
sVhttp://operationmotivation.com/wp-content/uploads/2014/01/20140105-112120.jpg
p2623
g3
(g4
g5
(g6
(S'\x07\xe0\x02\x11\x04\x08.\x0b\xd9\xa7'
tRp2624
S'125'
p2625
I1
ttRp2626
sVhttp://www.cricketnewsworld.com/img/937/motivation-and-self-confidence-in-sports.jpg
p2627
g3
(g4
g5
(g6
(S'\x07\xe0\t\x16\x0b*\x14\rz\xa8'
tRp2628
S'127'
p2629
I1
ttRp2630
sVhttp://www.wpaperhd.com/uploads/originals/2016/02/26/motivation-inscriptions-funny-o6jL.jpg
p2631
g3
(g4
g5
(g6
(S'\x07\xe0\x07\x11\x15-1\x0e\xb9z'
tRp2632
S'424'
p2633
I1
ttRp2634
sVhttp://rlv.zcache.com/you_dont_need_motivation_postcard-r19c952add9124d93a97da2f7ffc5d074_vgbaq_8byvr_324.jpg
p2635
g3
(g4
g5
(g6
(S'\x07\xe0\x03\x1c\x0e .\x0f9\xc6'
tRp2636
S'271'
p2637
I1
ttRp2638
sVhttp://www.mkbconseil.ch/wp-content/uploads/2014/06/Business-Motivation.jpg
p2639
g3
(g4
g5
(g6
(S'\x07\xe0\x03\x12\x0e\x03\x0b\x00\xeb/'
tRp2640
S'220'
p2641
I1
ttRp2642
sVhttps://quotefancy.com/media/wallpaper/3840x2160/23820-Jim-Rohn-Quote-Motivation-is-what-gets-you-started-Habit-is-what.jpg
p2643
g3
(g4
g5
(g6
(S'\x07\xe0\x05\x07\x15#\x0c\x06\x9b1'
tRp2644
S'385'
p2645
I1
ttRp2646
sVhttp://previews.123rf.com/images/designaart/designaart1212/designaart121200372/17218988-Motivation-Word-In-Hand-Stock-Vector-Stock-Vector.jpg
p2647
g3
(g4
g5
(g6
(S'\x07\xe0\x06\x1e\n0\x1b\x01\x8d\xa0'
tRp2648
S'443'
p2649
I1
ttRp2650
s.