(dp1
Vhttps://wellnessasrx.files.wordpress.com/2014/02/success-motivation.jpg
p2
ccopy_reg
_reconstructor
p3
(cbase.graph_fetch.fetcher
ImageSlot
p4
c__builtin__
tuple
p5
(cdatetime
datetime
p6
(S'\x07\xe0\n\x08\x134\x0f\n\xe0\x8f'
tRp7
NI1
ttRp8
sVhttps://az616578.vo.msecnd.net/files/responsive/cover/main/desktop/2015/12/20/6358625183398861921957087933_motivation2.jpg
p9
g3
(g4
g5
(g6
(S'\x07\xe0\t\x1a\r\x08(\x0eH\x8b'
tRp10
S'570'
p11
I1
ttRp12
sVhttp://i.imgur.com/3czig.jpg
p13
g3
(g4
g5
(g6
(S'\x07\xe0\n\x08\x134\x0f\n\xe0\xaf'
tRp14
S'37'
p15
I1
ttRp16
sVhttp://ok8v71rrcut3goqkf2ghhy21.wpengine.netdna-cdn.com/wp-content/uploads/sites/697/2015/04/motivate-yourself-71.jpg
p17
g3
(g4
g5
(g6
(S'\x07\xdf\x0b\x08\x16\n\x12\x00T\xb6'
tRp18
S'59'
p19
I1
ttRp20
sVhttps://pixabay.com/static/uploads/photo/2015/04/14/08/43/motivation-721825_960_720.jpg
p21
g3
(g4
g5
(g6
(S'\x07\xe0\x04\x13\x0f;&\x01\xf2R'
tRp22
S'301'
p23
I1
ttRp24
sVhttp://img08.deviantart.net/e2f2/i/2011/225/3/e/motivation_poster_by_captainjamesman-d46dlh8.png
p25
g3
(g4
g5
(g6
(S'\x07\xdf\x0c\x1a\x1362\x00\xd8\x8b'
tRp26
S'163'
p27
I1
ttRp28
sVhttp://thehealthyhostess.com/wp-content/uploads/2012/08/201208200520.jpg
p29
g3
(g4
g5
(g6
(S'\x07\xdf\x0c\x1a\x1362\x00\xd8\x90'
tRp30
I-1
I1
ttRp31
sVhttp://www.managementguru.net/wp-content/uploads/2014/03/self-motivation.jpg
p32
g3
(g4
g5
(g6
(S'\x07\xe0\x04\t\x0f/\x1a\x02\xe8z'
tRp33
S'110'
p34
I1
ttRp35
sVhttp://www.simplyshredded.com/wp-content/uploads/2014/01/74.jpg
p36
g3
(g4
g5
(g6
(S'\x07\xe0\x06\x06\r\x0f\x16\n\xa1\x80'
tRp37
I-1
I1
ttRp38
sVhttps://i.ytimg.com/vi/UtpOFj9aJZs/maxresdefault.jpg
p39
g3
(g4
g5
(g6
(S'\x07\xe0\x08\x13\x01\r\x01\x0e\x1c('
tRp40
S'369'
p41
I1
ttRp42
sVhttp://mrthomasellis.com/wp-content/uploads/2012/03/motivation-and-productivity.jpg
p43
g3
(g4
g5
(g6
(S'\x07\xdf\x0b\x08\x16\n\x12\x00UE'
tRp44
S'65'
p45
I1
ttRp46
sVhttp://sf.co.ua/12/08/wallpaper-2136278.jpg
p47
g3
(g4
g5
(g6
(S'\x07\xe0\x03\x14\x0e\x1d\x16\x05\x1as'
tRp48
S'204'
p49
I3
ttRp50
sVhttp://webneel.com/wallpaper/sites/default/files/images/06-2013/1%20motivation%20wallpaper.jpg
p51
g3
(g4
g5
(g6
(S'\x07\xe0\x06\x1e\n0\x1b\x01\x8d\xbd'
tRp52
S'112'
p53
I1
ttRp54
sVhttp://news.rubstr.com/wp-content/uploads/2014/07/rubstr-motivation.jpg
p55
g3
(g4
g5
(g6
(S'\x07\xe0\x03\x04\n\x04\r\x07!\x87'
tRp56
S'248'
p57
I1
ttRp58
sVhttps://pbs.twimg.com/profile_images/437370728912912386/_KnjRCnl.jpeg
p59
g3
(g4
g5
(g6
(S'\x07\xe0\x03\x14\x0e\x1d\x16\x05\x1b\x1c'
tRp60
S'187'
p61
I1
ttRp62
sVhttp://addicted2success.com/wp-content/uploads/2013/08/Motivation-Picture-Quote-Motivation-Jim-Rohn.jpg
p63
g3
(g4
g5
(g6
(S"\x07\xe0\x02\x19\t1'\x04\x95`"
tRp64
I-1
I1
ttRp65
sVhttp://blogs.uww.edu/warhawkfitness/files/2016/04/motivation.jpg
p66
g3
(g4
g5
(g6
(S"\x07\xe0\x07\x03\x0f'\x1f\x08hg"
tRp67
S'440'
p68
I1
ttRp69
sVhttps://eightladieswriting.files.wordpress.com/2015/06/gotmotivation.jpg
p70
g3
(g4
g5
(g6
(S'\x07\xe0\x03\x0e\r;\x15\x0e\x89Q'
tRp71
S'270'
p72
I1
ttRp73
sVhttp://maorhan.com/wp-content/uploads/2012/10/motivation.png
p74
g3
(g4
g5
(g6
(S'\x07\xdf\x0c\x08\x10+#\x04\x03\x91'
tRp75
S'4'
I1
ttRp76
sVhttp://i.imgur.com/AmuCcfg.jpg
p77
g3
(g4
g5
(g6
(S'\x07\xe0\x01\r\x16\n\x16\x0e\xd68'
tRp78
S'52'
p79
I1
ttRp80
sVhttp://kurld.com/images/wallpapers/motivation-pics/motivation-pics-6.jpg
p81
g3
(g4
g5
(g6
(S'\x07\xe0\t\x1a\r\x08(\x0eJ['
tRp82
S'548'
p83
I1
ttRp84
sVhttp://www.edutopia.org/sites/default/files/styles/share_image/public/cover_media/ferlazzo-strategies-for-self-motivation-01.gif?itok=L0uSk4dM
p85
g3
(g4
g5
(g6
(S'\x07\xe0\t\x1a\r\x08(\x0eJ\x8b'
tRp86
S'391'
p87
I1
ttRp88
sVhttps://jassyfit24.files.wordpress.com/2015/08/motivation-picture-quote-motivation-be-an-expert.jpg
p89
g3
(g4
g5
(g6
(S"\x07\xdf\x0b\x14\x16\x15'\x03\xa2L"
tRp90
S'10'
p91
I2
ttRp92
sVhttp://educationequals.com/wp-content/uploads/2014/01/motivation.jpg
p93
g3
(g4
g5
(g6
(S'\x07\xe0\x01\r\x16\n\x16\x0e\xd5\xff'
tRp94
I-1
I1
ttRp95
sVhttp://www.wandtattoo.de/images/product_images/original_images/4107_2-sport-wandtattoo-motivation.jpg
p96
g3
(g4
g5
(g6
(S'\x07\xe0\t\x16\x0b*\x14\rzg'
tRp97
S'457'
p98
I1
ttRp99
sVhttps://learningperformancehollychandler.files.wordpress.com/2015/10/got-motivation.jpg
p100
g3
(g4
g5
(g6
(S'\x07\xe0\x02\t\x00\x10\x08\x05\x08\xa6'
tRp101
S'237'
p102
I1
ttRp103
sVhttps://s-media-cache-ak0.pinimg.com/736x/c6/b4/a3/c6b4a30fb03d657ae69abcb091541fed.jpg
p104
g3
(g4
g5
(g6
(S'\x07\xe0\t\x0c\t\x1b)\r\xdb\x04'
tRp105
S'526'
p106
I1
ttRp107
sVhttp://gabriellemaston.com/wp-content/uploads/2015/07/Motivation1.jpg
p108
g3
(g4
g5
(g6
(S'\x07\xdf\n\x15\x15\x14\x10\n\xe8\xd6'
tRp109
S'53'
p110
I1
ttRp111
sVhttp://previews.123rf.com/images/kbuntu/kbuntu1108/kbuntu110800157/10263582-Speech-bubble-with-the-word-motivation-on-white-background--Stock-Photo.jpg
p112
g3
(g4
g5
(g6
(S'\x07\xe0\x07\x11\x15-1\x0e\xb7\xb5'
tRp113
S'477'
p114
I1
ttRp115
sVhttp://www.hdwallpapers.in/walls/motivation-wide.jpg
p116
g3
(g4
g5
(g6
(S'\x07\xe0\n\x08\x134\x0f\n\xe1K'
tRp117
S'576'
p118
I1
ttRp119
sVhttps://elearningindustry.com/wp-content/uploads/2015/05/Intrinsic-Motivation-Online-Training.jpg
p120
g3
(g4
g5
(g6
(S'\x07\xe0\t\x16\x0b*\x14\rz\x9b'
tRp121
I-1
I1
ttRp122
sVhttp://cdn.motivationgrid.com/wp-content/uploads/2016/01/How-to-stay-motivated-featured-image.jpg
p123
g3
(g4
g5
(g6
(S'\x07\xe0\x07\x11\x15-1\x0e\xb8&'
tRp124
S'380'
p125
I1
ttRp126
sVhttp://www.themillionairesecrets.net/images/2014/05/arnold-motivation.jpg
p127
g3
(g4
g5
(g6
(S'\x07\xdf\x0c\x1a\x1362\x00\xd9\xd2'
tRp128
S'164'
p129
I1
ttRp130
sVhttp://www.pixelstalk.net/wp-content/uploads/2016/06/Motivation-Image.jpg
p131
g3
(g4
g5
(g6
(S'\x07\xe0\n\x08\x134\x0f\n\xe1\x16'
tRp132
I-1
I1
ttRp133
sVhttp://0.media.dorkly.cvcdn.com/33/71/157ebf191b65db297f5a498d393e6575-motivation.jpg
p134
g3
(g4
g5
(g6
(S'\x07\xe0\x04\x03\x0f\x0f0\x00\x15\xd0'
tRp135
S'151'
p136
I1
ttRp137
sVhttp://addicted2success.com/wp-content/uploads/2013/08/Dont-Give-Up-Motivation-Picture-Quote.jpg
p138
g3
(g4
g5
(g6
(S'\x07\xe0\x08\r\x006\r\x01f\xc4'
tRp139
I-1
I1
ttRp140
sVhttp://www.motivationmodel.com/images/main.jpg
p141
g3
(g4
g5
(g6
(S'\x07\xe0\x04\x13\x0f;&\x01\xf3]'
tRp142
S'134'
p143
I1
ttRp144
sVhttp://cdn2.hubspot.net/hub/392717/file-2447137411-jpg/motivation_1.jpg?t=1447506215793
p145
g3
(g4
g5
(g6
(S'\x07\xdf\x0b\x10\x16\x11\x01\x00\x89\xaf'
tRp146
S'91'
p147
I1
ttRp148
sVhttp://cdn2.hubspot.net/hub/147314/file-236440333-jpg/images/business-motivation.jpg?t=1462391292305
p149
g3
(g4
g5
(g6
(S'\x07\xe0\x06\x06\r\x0f\x16\n\xa1M'
tRp150
S'381'
p151
I1
ttRp152
sVhttps://s-media-cache-ak0.pinimg.com/564x/27/d4/fd/27d4fd8efcf156139acd68e911ce572c.jpg
p153
g3
(g4
g5
(g6
(S'\x07\xe0\x02\x11\x04\x08.\x0b\xd9\x16'
tRp154
S'259'
p155
I1
ttRp156
sVhttp://www.hd-wallpapers9.com/Thumbnail-Gallery/Quotes/Motivation%20Wallpapers/Motivation%20Quote%20Pictures%20Gallery040.jpg
p157
g3
(g4
g5
(g6
(S'\x07\xe0\x06\x1e\n0\x1b\x01\x8d\x90'
tRp158
S'447'
p159
I1
ttRp160
sVhttps://ga-core.s3.amazonaws.com/production/uploads/program/default_image/1161/Management-Tools-for-Motivating-and-Retaining-Your-Team.jpg
p161
g3
(g4
g5
(g6
(S'\x07\xe0\x01\r\x16\n\x16\x0e\xd5\x8c'
tRp162
S'222'
p163
I1
ttRp164
sVhttps://pixabay.com/static/uploads/photo/2015/12/21/00/07/motivation-1101889_960_720.jpg
p165
g3
(g4
g5
(g6
(S'\x07\xe0\t\x16\x0b*\x14\ry\xc1'
tRp166
S'337'
p167
I1
ttRp168
sVhttp://www.jetts.com.au/uploads/contentFiles/files/14_02_12_Jetts_National_8WC_Wallpapers_FA7.jpg
p169
g3
(g4
g5
(g6
(S'\x07\xe0\x03\x14\x0e\x1d\x16\x05\x1a\xb0'
tRp170
S'111'
p171
I1
ttRp172
sVhttp://7-themes.com/data_images/out/69/7007124-motivation-art.jpg
p173
g3
(g4
g5
(g6
(S'\x07\xe0\x08\x1b\x0208\x00\xa8\xf5'
tRp174
S'1'
I1
ttRp175
sVhttp://africanleadership.co.uk/wp-content/uploads/2016/01/Motivation15its65.jpg
p176
g3
(g4
g5
(g6
(S'\x07\xe0\t\x16\x0b*\x14\ryo'
tRp177
I-1
I1
ttRp178
sVhttp://lagniappefitness.com/wp-content/uploads/2014/06/motivation.jpg
p179
g3
(g4
g5
(g6
(S'\x07\xe0\n\x08\x134\x0f\n\xe0\xf0'
tRp180
S'365'
p181
I2
ttRp182
sVhttps://qph.is.quoracdn.net/main-qimg-75aabc7d5861406e87e1d8002d31081c?convert_to_webp=true
p183
g3
(g4
g5
(g6
(S'\x07\xe0\x06\x06\r\x0f\x16\n\xa1t'
tRp184
S'407'
p185
I1
ttRp186
sVhttps://cdn2.omidoo.com/sites/default/files/imagecache/full_width/images/bydate/20140406/shutterstock155628296.jpg
p187
g3
(g4
g5
(g6
(S'\x07\xe0\x08\r\x006\r\x01f@'
tRp188
I-1
I1
ttRp189
sVhttp://www.teamrnbmusicblog.com/rell_boxx/images/96349/MOTIVATION-MUSIC-COVER.jpg
p190
g3
(g4
g5
(g6
(S'\x07\xe0\n\x02\x13\x18\x1b\x01BM'
tRp191
I-1
I1
ttRp192
sVhttp://web.utk.edu/~dhouston/images/WordCloudPSM3.jpg
p193
g3
(g4
g5
(g6
(S'\x07\xe0\n\x02\x13\x18\x1b\x01A\xcb'
tRp194
S'228'
p195
I1
ttRp196
sVhttp://toeflspeakingteacher.com/wp-content/uploads/2014/10/Motivation.jpg
p197
g3
(g4
g5
(g6
(S'\x07\xdf\x0c\x14\x11(\x1f\x05\xb5\xd2'
tRp198
S'81'
p199
I1
ttRp200
sVhttp://cdn2.hubspot.net/hub/147314/file-236440333-jpg/images/business-motivation.jpg?t=1419844977657
p201
g3
(g4
g5
(g6
(S'\x07\xdf\x0b\x1a\x16\x18;\x02\x8b\x01'
tRp202
S'5'
I1
ttRp203
sVhttp://www.my7daydiet.com/images/motivation-for-7-day-diet.jpg
p204
g3
(g4
g5
(g6
(S'\x07\xe0\t\x1a\r\x08(\x0eI\xd2'
tRp205
I-1
I1
ttRp206
sVhttp://cdn.emgn.com/wp-content/uploads/2016/02/daily-motivation-910.jpg
p207
g3
(g4
g5
(g6
(S'\x07\xe0\x03\x1e\x0e!\x07\x03\xef\xf0'
tRp208
S'251'
p209
I1
ttRp210
sVhttps://cristirae.files.wordpress.com/2013/06/nike-running-poster.jpg
p211
g3
(g4
g5
(g6
(S'\x07\xe0\t\x0c\t\x1b)\r\xda\xba'
tRp212
S'545'
p213
I1
ttRp214
sVhttp://robertjrgraham.com/wp-content/uploads/2013/09/how-to-stay-motivated-at-work.jpg
p215
g3
(g4
g5
(g6
(S'\x07\xe0\x03\x06\x0c/$\nZ\xb1'
tRp216
S'132'
p217
I1
ttRp218
sVhttp://1.bp.blogspot.com/-a6qC8Ie-1EU/VRAuoEjGKDI/AAAAAAAACM8/j1UvDN6mvzA/s1600/motivation.png
p219
g3
(g4
g5
(g6
(S'\x07\xe0\t\x0c\t\x1b)\r\xda\xc1'
tRp220
S'542'
p221
I1
ttRp222
sVhttps://s-media-cache-ak0.pinimg.com/736x/cb/6a/d8/cb6ad879cfceee93742d9f6808cb9b0f.jpg
p223
g3
(g4
g5
(g6
(S'\x07\xe0\t\x16\x0b*\x14\ry\xf6'
tRp224
S'529'
p225
I1
ttRp226
sVhttp://edmayermarketing.com/wp-content/uploads/2016/03/motivation_1.jpg
p227
g3
(g4
g5
(g6
(S'\x07\xe0\x08\x11\x01\x05\n\x04fX'
tRp228
S'511'
p229
I1
ttRp230
sVhttps://prod-academy-wp-content-uploads.s3.amazonaws.com/2015/02/MOT_Time.jpg
p231
g3
(g4
g5
(g6
(S'\x07\xe0\t\x1c\x13\x10$\x0e|\x84'
tRp232
S'522'
p233
I1
ttRp234
sVhttp://cdn1.theodysseyonline.com/files/2015/12/20/6358625183398861921957087933_motivation2.jpg
p235
g3
(g4
g5
(g6
(S"\x07\xe0\x03\x1e\x0e!\x07\x03\xf0'"
tRp236
S'232'
p237
I1
ttRp238
sVhttp://static1.squarespace.com/static/559c41c5e4b01baae9b438f2/t/55d9cf2be4b0d815d6c2030f/1440337708203/
p239
g3
(g4
g5
(g6
(S'\x07\xdf\x0b\x10\x16\x11\x01\x00\x89\xbe'
tRp240
S'90'
p241
I1
ttRp242
sVhttp://laganafitness.com/wp-content/uploads/2013/09/225508_n.png
p243
g3
(g4
g5
(g6
(S'\x07\xdf\x0c\x1a\x1362\x00\xd9Q'
tRp244
I-1
I1
ttRp245
sVhttps://s-media-cache-ak0.pinimg.com/736x/ac/60/d5/ac60d5560c98f2d0b066f8a732aa740c.jpg
p246
g3
(g4
g5
(g6
(S'\x07\xe0\x05\x18\x15,\x19\r\xe5\xa2'
tRp247
S'285'
p248
I1
ttRp249
sVhttps://ip.bitcointalk.org/?u=http%3A%2F%2Fattitudes4innovation.com%2Fwp-content%2Fuploads%2F2015%2F04%2Fwishing.jpg&t=562&c=Lqim8_aeQvLAIQ
p250
g3
(g4
g5
(g6
(S'\x07\xe0\x04\x03\x0f\x0f0\x00\x15\x97'
tRp251
S'329'
p252
I1
ttRp253
sVhttps://rockmyrun.files.wordpress.com/2013/12/depositphotos_2329232_original.jpg
p254
g3
(g4
g5
(g6
(S'\x07\xe0\n\x02\x13\x18\x1b\x01B('
tRp255
S'374'
p256
I1
ttRp257
sVhttp://thrivehive.com/wp-content/uploads/2015/10/employee-motivation-techniques-1.jpg
p258
g3
(g4
g5
(g6
(S'\x07\xe0\x04\t\x0f/\x1a\x02\xe9\x1f'
tRp259
I-1
I1
ttRp260
sVhttp://www.fearlessmotivation.com/wp-content/uploads/2015/04/Crossfit-Motivation-Videos.jpg
p261
g3
(g4
g5
(g6
(S'\x07\xe0\x08\r\x006\r\x01f\xb8'
tRp262
S'498'
p263
I2
ttRp264
sVhttp://cdn.emgn.com/wp-content/uploads/2016/02/motivate-yourself-71.jpg
p265
g3
(g4
g5
(g6
(S'\x07\xe0\x08\r\x006\r\x01f\xcc'
tRp266
S'346'
p267
I1
ttRp268
sVhttp://hardquotes.com/wp-content/plugins/nextgen-gallery/images/no-motvation-in-life/motivation4.jpeg
p269
g3
(g4
g5
(g6
(S'\x07\xe0\x03\x04\n\x04\r\x07!\x15'
tRp270
S'302'
p271
I2
ttRp272
sVhttp://www.wakingtimes.com/wp-content/uploads/2014/10/got-motivation.jpg
p273
g3
(g4
g5
(g6
(S'\x07\xe0\x01\x1f\x17/\x06\x04\xe8\xf7'
tRp274
S'241'
p275
I1
ttRp276
sVhttp://img.freepik.com/free-vector/minimalist-positive-message-retro-card-design_23-2147486852.jpg?size=338&ext=jpg
p277
g3
(g4
g5
(g6
(S'\x07\xe0\x02\x11\x04\x08.\x0b\xd9\xf2'
tRp278
S'280'
p279
I1
ttRp280
sVhttp://soshable.com/wp-content/uploads/2011/07/Motivation.jpg
p281
g3
(g4
g5
(g6
(S'\x07\xe0\x02\x11\x04\x08.\x0b\xd9\xf6'
tRp282
S'276'
p283
I1
ttRp284
sVhttp://previews.123rf.com/images/dirkercken/dirkercken1501/dirkercken150100849/35349484-motivation-letter-for-new-work-motivate-yourself-self-motivation-keep-trying-dont-give-up-make-thing-Stock-Photo.jpg
p285
g3
(g4
g5
(g6
(S'\x07\xe0\x07\x11\x15-1\x0e\xb9\x9b'
tRp286
S'437'
p287
I1
ttRp288
sVhttps://s.yimg.com/lm/ysbp/img/BzX9c3rJhzhp64_55ZTDDRdwOgyXCYcF3ekOB9Rk36SZlS6VPjYaF2LAfQ8q9ELh.jpg
p289
g3
(g4
g5
(g6
(S'\x07\xe0\x03\x1c\x0e .\x0f9\xd9'
tRp290
S'267'
p291
I2
ttRp292
sVhttp://www.aaiclinics.com/wp-content/uploads/2015/05/Motivation.png
p293
g3
(g4
g5
(g6
(S'\x07\xdf\x0b\x17\x16\x16\t\r\xb7\xca'
tRp294
I-1
I1
ttRp295
sVhttp://www.madelinemcqueen.com/wp-content/uploads/2015/05/motivation-1.jpg
p296
g3
(g4
g5
(g6
(S'\x07\xdf\x0b\x10\x16\x11\x01\x00\x89%'
tRp297
S'56'
p298
I1
ttRp299
sVhttps://b.fastcompany.net/multisite_files/fastcompany/imagecache/1280/poster/2014/02/3026089-poster-p-1-ask-the-experts-how-do-i-find-the-motivation-to-get-to-the-next-stage-of-my.jpg
p300
g3
(g4
g5
(g6
(S'\x07\xe0\t\x1c\x13\x10$\x0e{}'
tRp301
S'553'
p302
I1
ttRp303
sVhttps://pbs.twimg.com/media/CjpKDgEUUAAhYwI.jpg
p304
g3
(g4
g5
(g6
(S'\x07\xe0\x06\x06\r\x0f\x16\n\xa2\x18'
tRp305
S'418'
p306
I1
ttRp307
sVhttp://breakouttheskinnygir.fatcow.com/wp-content/uploads/2015/09/motivation.jpg
p308
g3
(g4
g5
(g6
(S'\x07\xe0\x05\x12\x12\x05\x10\x02\x87s'
tRp309
S'239'
p310
I1
ttRp311
sVhttp://beyondbreastcancer.files.wordpress.com/2012/06/motivation-steps.jpg
p312
g3
(g4
g5
(g6
(S'\x07\xe0\x01\x03\x16\x029\x05\xc42'
tRp313
S'51'
p314
I1
ttRp315
sVhttps://cdn.psychologytoday.com/sites/default/files/field_blog_entry_images/4504724163_277a8197ff_z.jpg
p316
g3
(g4
g5
(g6
(S'\x07\xe0\x06\x17\n\x08\x12\r\xbe\xa6'
tRp317
I-1
I1
ttRp318
sVhttp://garak.wimp.com/images/thumbs/2010/05/0d1819eb1fb074385a5efeb6570e1bd3_motivation_506_332.jpg
p319
g3
(g4
g5
(g6
(S'\x07\xe0\x08\r\x006\r\x01f\xd4'
tRp320
S'463'
p321
I1
ttRp322
sVhttps://s-media-cache-ak0.pinimg.com/564x/ac/60/d5/ac60d5560c98f2d0b066f8a732aa740c.jpg
p323
g3
(g4
g5
(g6
(S"\x07\xe0\x02\x19\t1'\x04\x95\x1b"
tRp324
I-1
I1
ttRp325
sVhttp://motivationfactor.com/wp-content/uploads/2013/09/group_line_key_stick_figure_1600_clr_5644.png
p326
g3
(g4
g5
(g6
(S'\x07\xe0\x07\x11\x15-1\x0e\xb7\x08'
tRp327
S'226'
p328
I1
ttRp329
sVhttp://www.theacornstash.com/wp-content/uploads/2010/12/Covey-Motivation-800x600.jpg
p330
g3
(g4
g5
(g6
(S'\x07\xe0\t\x0c\t\x1b)\r\xda\x9f'
tRp331
I-1
I1
ttRp332
sVhttp://b.fastcompany.net/multisite_files/fastcompany/imagecache/1280/poster/2014/02/3026089-poster-p-1-ask-the-experts-how-do-i-find-the-motivation-to-get-to-the-next-stage-of-my.jpg
p333
g3
(g4
g5
(g6
(S'\x07\xe0\x08\x03\x00\x16+\x00\xb2E'
tRp334
S'101'
p335
I1
ttRp336
sVhttps://theanxioushooker.files.wordpress.com/2015/07/motivation2.jpg
p337
g3
(g4
g5
(g6
(S'\x07\xdf\x0c\x14\x11(\x1f\x05\xb5\xc6'
tRp338
S'108'
p339
I1
ttRp340
sVhttp://www.musterlebenslauf.net/wp-content/uploads/2013/07/Motivation-Bewerbung.jpg
p341
g3
(g4
g5
(g6
(S'\x07\xe0\t\x0c\t\x1b)\r\xda\xaf'
tRp342
S'328'
p343
I1
ttRp344
sVhttps://learningperformancehollychandler.files.wordpress.com/2015/10/motivation2.jpg
p345
g3
(g4
g5
(g6
(S'\x07\xe0\n\x08\x134\x0f\n\xe0\xf7'
tRp346
S'96'
p347
I1
ttRp348
sVhttp://omgcutethings.com/wp-content/uploads/2014/03/tuesday-motivation-031014-03.jpg
p349
g3
(g4
g5
(g6
(S'\x07\xe0\t\x04\x04\x1f\x18\x02\x86\xbb'
tRp350
S'136'
p351
I1
ttRp352
sVhttp://justknow.me/wp-content/uploads/2016/02/motivation-quotes-justknow-me.jpg
p353
g3
(g4
g5
(g6
(S'\x07\xe0\x05\x07\x15#\x0c\x06\x9b\x08'
tRp354
S'422'
p355
I1
ttRp356
sVhttps://baharanooshahr.files.wordpress.com/2016/02/img_2005.jpeg
p357
g3
(g4
g5
(g6
(S'\x07\xe0\n\x02\x13\x18\x1b\x01A\xdb'
tRp358
S'568'
p359
I1
ttRp360
sVhttp://www.icebreaker-bd.com/wp-content/uploads/2016/02/motivation-1.jpg
p361
g3
(g4
g5
(g6
(S'\x07\xe0\x07\x15\x174\x12\x03\x0e\xd9'
tRp362
S'490'
p363
I1
ttRp364
sVhttp://static6.depositphotos.com/1034557/638/i/450/depositphotos_6382023-Speech-bubble-motivation.jpg
p365
g3
(g4
g5
(g6
(S'\x07\xe0\x08\x03\x00\x16+\x00\xb2\xc5'
tRp366
I-1
I1
ttRp367
sVhttp://science-all.com/images/wallpapers/motivation-pics/motivation-pics-7.jpg
p368
g3
(g4
g5
(g6
(S'\x07\xe0\x06\x06\r\x0f\x16\n\xa1\xc6'
tRp369
S'416'
p370
I1
ttRp371
sVhttp://blog.dougdvorak.com/wp-content/uploads/2013/02/motivation-98015.jpg
p372
g3
(g4
g5
(g6
(S'\x07\xe0\x05\x12\x12\x05\x10\x02\x87\x7f'
tRp373
S'396'
p374
I1
ttRp375
sVhttp://www.changeinseconds.com/wp-content/uploads/2013/10/weight-loss-motivation-1.jpg
p376
g3
(g4
g5
(g6
(S'\x07\xe0\t\x16\x0b*\x14\rz:'
tRp377
S'454'
p378
I2
ttRp379
sVhttp://image.slidesharecdn.com/the-secret-of-employee-motivation-150617203958-lva1-app6891/95/the-secret-to-employee-motivation-3-638.jpg?cb=1435100692
p380
g3
(g4
g5
(g6
(S'\x07\xe0\x06\x17\n\x08\x12\r\xbf\x17'
tRp381
S'258'
p382
I2
ttRp383
sVhttps://media.licdn.com/mpr/mpr/p/1/005/09e/1ee/1ad0ecc.jpg
p384
g3
(g4
g5
(g6
(S'\x07\xe0\t\x1a\r\x08(\x0eI['
tRp385
S'324'
p386
I2
ttRp387
sVhttp://www.rightattitudes.com/blogincludes/images/Seven_Ways_to_Motivate_Yourself.jpg
p388
g3
(g4
g5
(g6
(S'\x07\xe0\t\x1a\r\x08(\x0eH\xe9'
tRp389
S'554'
p390
I1
ttRp391
sVhttps://saraharkerblog.files.wordpress.com/2016/03/motivation.jpg?w=648
p392
g3
(g4
g5
(g6
(S'\x07\xe0\x08\r\x006\r\x01f\xa7'
tRp393
S'481'
p394
I1
ttRp395
sVhttps://mlsvc01-prod.s3.amazonaws.com/060fd29a001/165eb39e-fa30-4e41-b949-98673e7cbb5f.jpg?ver=1435857041000
p396
g3
(g4
g5
(g6
(S'\x07\xe0\x08\r\x006\r\x01fb'
tRp397
I-1
I1
ttRp398
sVhttps://c1.staticflickr.com/9/8749/16927430497_55f4c79846_b.jpg
p399
g3
(g4
g5
(g6
(S'\x07\xdf\x0c\x0c\x11\x1d!\x06\xcf\\'
tRp400
S'160'
p401
I1
ttRp402
sVhttps://www.academics.com/image-upload/letter_of_motivation_0.jpg
p403
g3
(g4
g5
(g6
(S'\x07\xe0\x02\x11\x04\x08.\x0b\xd9Q'
tRp404
S'115'
p405
I1
ttRp406
sVhttp://sportshealthscience.com/wp-content/uploads/2014/11/article3.jpg
p407
g3
(g4
g5
(g6
(S'\x07\xdf\x0b\x08\x16\n\x12\x00U\xdb'
tRp408
S'71'
p409
I1
ttRp410
sVhttp://www.liveinthezonetraining.com/wp-content/uploads/2015/03/how-to-stay-motivated-at-work.jpg
p411
g3
(g4
g5
(g6
(S'\x07\xdf\x0c\x1a\x1362\x00\xd8s'
tRp412
S'181'
p413
I1
ttRp414
sVhttp://www.careerealism.com/wp-content/uploads/2012/06/tips-creating-workplace-motivation.jpg
p415
g3
(g4
g5
(g6
(S'\x07\xe0\t\x04\x04\x1f\x18\x02\x87\xa9'
tRp416
S'137'
p417
I1
ttRp418
sVhttp://1.bp.blogspot.com/-fGw2i_HkUS8/VaNJSEhjfGI/AAAAAAACHRE/UGeKuPVaEJ8/s1600/motivation.jpg
p419
g3
(g4
g5
(g6
(S'\x07\xe0\n\x08\x134\x0f\n\xe1G'
tRp420
S'514'
p421
I1
ttRp422
sVhttp://blog.kaleidico.com/wp-content/uploads/sales-motivation.jpg
p423
g3
(g4
g5
(g6
(S'\x07\xe0\x01\x03\x16\x08!\x04\x00k'
tRp424
I-1
I1
ttRp425
sVhttp://bookboon.com/blog/wp-content/uploads/2013/05/11528993-motivate-word-on-laundry-hook-on-white-1024x540.jpg
p426
g3
(g4
g5
(g6
(S'\x07\xdf\x0c\x1a\x1362\x00\xd9\xe8'
tRp427
S'171'
p428
I1
ttRp429
sVhttp://1.bp.blogspot.com/-V0ugp8oIvEU/VRAupLWbFPI/AAAAAAAACNM/xXEb_DigU1E/s1600/motivation4.png
p430
g3
(g4
g5
(g6
(S'\x07\xe0\t\x16\x0b*\x14\rz\xc9'
tRp431
S'536'
p432
I1
ttRp433
sVhttp://www.mybeautygym.com/wp-content/uploads/2016/02/how-to-turn-on-your-motivation.jpg
p434
g3
(g4
g5
(g6
(S'\x07\xe0\x06\x1e\n0\x1b\x01\x8e$'
tRp435
S'444'
p436
I1
ttRp437
sVhttp://dailysocialsmedia.com/wp-content/uploads/2015/10/motivation-art.jpg
p438
g3
(g4
g5
(g6
(S'\x07\xdf\x0b\x1a\x16\x18;\x02\x8af'
tRp439
I-1
I1
ttRp440
sVhttps://www.mindtools.com/media/Resized-Images/Articles/Time_Management/25_IS_26073400_guvendemir_2x1.jpg
p441
g3
(g4
g5
(g6
(S'\x07\xe0\x08\x03\x00\x16+\x00\xb2\xcf'
tRp442
I-1
I1
ttRp443
sVhttp://elearningindustry.com/wp-content/uploads/2015/04/Enhance-Motivation-eLearning.jpg
p444
g3
(g4
g5
(g6
(S'\x07\xe0\x04\x13\x0f;&\x01\xf2D'
tRp445
I-1
I1
ttRp446
sVhttp://www.pixelstalk.net/wp-content/uploads/2016/06/Motivation-Background.jpg
p447
g3
(g4
g5
(g6
(S'\x07\xe0\n\x08\x134\x0f\n\xe0\x9d'
tRp448
I-1
I1
ttRp449
sVhttps://getyourpips.com/wp-content/uploads/2016/02/shit-gets-real.jpg
p450
g3
(g4
g5
(g6
(S'\x07\xe0\n\x08\x134\x0f\n\xe0\xa2'
tRp451
I-1
I1
ttRp452
sVhttp://cdn.fiboni.com/wp-content/uploads/2015/03/Get-Motivated.jpg?a0f395
p453
g3
(g4
g5
(g6
(S'\x07\xe0\x07\x11\x15-1\x0e\xb7y'
tRp454
S'214'
p455
I1
ttRp456
sVhttp://rhemacounseling.com/wp-content/uploads/2014/11/motivation.jpg
p457
g3
(g4
g5
(g6
(S'\x07\xe0\x05\x07\x15#\x0c\x06\x9ay'
tRp458
S'355'
p459
I1
ttRp460
sVhttp://jackcanfield.com/wp-content/uploads/2015/06/blog-5waysselfmotivatedlearnerswin.jpg
p461
g3
(g4
g5
(g6
(S'\x07\xe0\x04\x1d\x10\x02\n\t\xb5\xdf'
tRp462
S'357'
p463
I1
ttRp464
sVhttp://az616578.vo.msecnd.net/files/2016/07/11/636038000478285543165795068_8345770_orig.jpg
p465
g3
(g4
g5
(g6
(S'\x07\xe0\t\x16\x0b*\x14\ryf'
tRp466
I-1
I1
ttRp467
sVhttp://cdn.wallpapersafari.com/13/84/V1Rq8Y.png
p468
g3
(g4
g5
(g6
(S'\x07\xe0\n\x08\x134\x0f\n\xe0\xc1'
tRp469
NI1
ttRp470
sVhttp://cdn.emgn.com/wp-content/uploads/2016/02/motivation-steps1.jpg
p471
g3
(g4
g5
(g6
(S'\x07\xe0\x08\r\x006\r\x01f\x19'
tRp472
S'249'
p473
I1
ttRp474
sVhttps://elearningindustry.com/wp-content/uploads/2014/10/Superhero-learner-1024x716.png
p475
g3
(g4
g5
(g6
(S'\x07\xe0\t\x04\x04\x1f\x18\x02\x86i'
tRp476
I-1
I1
ttRp477
sVhttp://www.nexercise.com/wp-content/uploads/2013/06/20007282_xxl.jpg
p478
g3
(g4
g5
(g6
(S'\x07\xe0\n\x08\x134\x0f\n\xe1%'
tRp479
I-1
I1
ttRp480
sVhttps://standingstrongwellness.files.wordpress.com/2015/07/motivation1.jpg
p481
g3
(g4
g5
(g6
(S'\x07\xdf\x0b\x1a\x16\x18;\x02\x8a\xbb'
tRp482
S'57'
p483
I1
ttRp484
sVhttp://lifedblog.com/wp-content/uploads/2015/06/Motivation.jpg
p485
g3
(g4
g5
(g6
(S'\x07\xdf\x0b\x17\x16\x16\t\r\xb8\r'
tRp486
S'14'
p487
I1
ttRp488
sVhttp://motivationalletter.com/wp-content/uploads/2016/05/motivation_letter_phd-1.png
p489
g3
(g4
g5
(g6
(S'\x07\xe0\t\x1a\r\x08(\x0eIF'
tRp490
S'524'
p491
I1
ttRp492
sVhttp://image.shutterstock.com/z/stock-vector-fitness-motivation-quote-poster-gym-inspirational-banner-with-text-and-hand-drawing-sport-icons-413780152.jpg
p493
g3
(g4
g5
(g6
(S'\x07\xe0\n\x02\x13\x18\x1b\x01A\x8f'
tRp494
S'565'
p495
I1
ttRp496
sVhttp://i.huffpost.com/gen/1638409/images/o-WORK-MOTIVATION-facebook.jpg
p497
g3
(g4
g5
(g6
(S'\x07\xe0\n\x08\x134\x0f\n\xe0\xcf'
tRp498
S'351'
p499
I2
ttRp500
sVhttps://az616578.vo.msecnd.net/files/responsive/cover/main/desktop/2015/12/06/635849731893843794-971405915_motivation2.jpg
p501
g3
(g4
g5
(g6
(S'\x07\xe0\n\x02\x13\x18\x1b\x01A\xac'
tRp502
S'512'
p503
I1
ttRp504
sVhttp://www.pixelstalk.net/wp-content/uploads/2016/06/Motivation-Desktop-Backgrounds.jpg
p505
g3
(g4
g5
(g6
(S'\x07\xe0\x08\x11\x01\x05\n\x04e\xa2'
tRp506
I-1
I1
ttRp507
sVhttp://bigbudsmag.com/wp-content/uploads/marijuana_hydroponics_2.jpg
p508
g3
(g4
g5
(g6
(S'\x07\xe0\n\x08\x134\x0f\n\xe0\xbe'
tRp509
NI1
ttRp510
sVhttp://www.thestonerscookbook.com/wp-content/uploads/2016/01/Motivation-strain-type.jpg?f66d77
p511
g3
(g4
g5
(g6
(S'\x07\xe0\x03\x1e\x0e!\x07\x03\xef\xd2'
tRp512
I-1
I1
ttRp513
sVhttp://previews.123rf.com/images/nappelbaum/nappelbaum1507/nappelbaum150700029/43253281-Motivation-quote-Vector-illustration-with-hand-drawn-words-If-life-gives-you-lemons-make-lemonade-po-Stock-Vector.jpg
p514
g3
(g4
g5
(g6
(S'\x07\xe0\x07\x11\x15-1\x0e\xb74'
tRp515
S'475'
p516
I1
ttRp517
sVhttp://benguonline.com/wp-content/uploads/2015/05/Motivation-und-Zielsetzung-Erfolg-Success.jpg
p518
g3
(g4
g5
(g6
(S'\x07\xe0\x01\r\x16\n\x16\x0e\xd6\x08'
tRp519
I-1
I1
ttRp520
sVhttp://previews.123rf.com/images/kbuntu/kbuntu1205/kbuntu120500042/13498661-Hand-pointing-at-a-Motivation-word-cloud-on-blue-background--Stock-Photo.jpg
p521
g3
(g4
g5
(g6
(S'\x07\xe0\t\x1c\x13\x10$\x0e{\xdd'
tRp522
S'304'
p523
I1
ttRp524
sVhttp://strong.top.me/wp-content/uploads/2013/04/motivation-1024x679.jpg
p525
g3
(g4
g5
(g6
(S'\x07\xe0\x07\x15\x174\x12\x03\x0fM'
tRp526
S'174'
p527
I1
ttRp528
sVhttp://pic.1fotonin.com/data/wallpapers/23/WDF_712784.jpg
p529
g3
(g4
g5
(g6
(S'\x07\xe0\x05\x07\x15#\x0c\x06\x9a\xd8'
tRp530
S'373'
p531
I2
ttRp532
sVhttps://s-media-cache-ak0.pinimg.com/736x/92/a4/c5/92a4c5e0c66e069b3a5986903af46ef1.jpg
p533
g3
(g4
g5
(g6
(S'\x07\xe0\t\x0c\t\x1b)\r\xda\xd7'
tRp534
S'488'
p535
I2
ttRp536
sVhttps://thumbs.dreamstime.com/z/hand-word-motivation-isolated-white-background-34437237.jpg
p537
g3
(g4
g5
(g6
(S'\x07\xe0\x06\x1e\n0\x1b\x01\x8d|'
tRp538
S'448'
p539
I1
ttRp540
sVhttp://develite.com/wp-content/uploads/2016/01/steve-jobs-motivation-1-1.jpg
p541
g3
(g4
g5
(g6
(S'\x07\xe0\x05\x12\x12\x05\x10\x02\x87N'
tRp542
S'363'
p543
I1
ttRp544
sVhttps://innogise.files.wordpress.com/2012/10/motivation.jpg
p545
g3
(g4
g5
(g6
(S'\x07\xe0\x08\x1b\x0208\x00\xa8\xe8'
tRp546
S'513'
p547
I1
ttRp548
sVhttp://xpotentialselling.com/wp-content/uploads/2016/03/motivation.jpg
p549
g3
(g4
g5
(g6
(S'\x07\xe0\t\x1c\x13\x10$\x0e|#'
tRp550
S'470'
p551
I1
ttRp552
sVhttp://daystofitness.com/wp-content/uploads/2015/04/motivation-for-21-day-fix-workout.jpg
p553
g3
(g4
g5
(g6
(S'\x07\xe0\t\x16\x0b*\x14\rz\x11'
tRp554
I-1
I1
ttRp555
sVhttp://blog.mapconsulting.com/wp-content/uploads/2014/04/Motivation.jpg
p556
g3
(g4
g5
(g6
(S'\x07\xdf\x0c\x1a\x1362\x00\xd9^'
tRp557
S'161'
p558
I1
ttRp559
sVhttp://uncoveries.com/wp-content/uploads/2016/02/favorite-exercise-to-stay-motivated.jpg
p560
g3
(g4
g5
(g6
(S'\x07\xe0\x07\x17\x175\x01\x06\\9'
tRp561
S'491'
p562
I1
ttRp563
sVhttps://realenglishconversations.files.wordpress.com/2015/01/change-today-motivational-monday.jpg
p564
g3
(g4
g5
(g6
(S'\x07\xdf\n\x15\x15\x14\x10\n\xe8\xba'
tRp565
S'11'
p566
I1
ttRp567
sVhttp://otgbootcamp.com/wp-content/uploads/2015/12/new-years-resolution-motivation.jpg
p568
g3
(g4
g5
(g6
(S'\x07\xe0\x06\x06\r\x0f\x16\n\xa1\xf9'
tRp569
S'399'
p570
I1
ttRp571
sVhttp://www.referenceforbusiness.com/photos/employee-motivation-148.jpg
p572
g3
(g4
g5
(g6
(S'\x07\xe0\x08\x03\x00\x16+\x00\xb2\xfa'
tRp573
S'350'
p574
I1
ttRp575
sVhttp://d.fastcompany.net/multisite_files/fastcompany/imagecache/1280/poster/2014/07/3033268-poster-1280-rediscover-motivation.jpg
p576
g3
(g4
g5
(g6
(S'\x07\xe0\x07\x11\x15-1\x0e\xb7\xab'
tRp577
I-1
I1
ttRp578
sVhttp://www.changeinseconds.com/wp-content/uploads/2015/03/weight-loss-motivation-65.jpg
p579
g3
(g4
g5
(g6
(S'\x07\xe0\t\x0c\t\x1b)\r\xdb\x07'
tRp580
S'487'
p581
I1
ttRp582
sVhttps://daleyus.files.wordpress.com/2014/12/motivation2.jpg
p583
g3
(g4
g5
(g6
(S'\x07\xe0\x03\x06\x0c/$\n[\x0b'
tRp584
S'180'
p585
I1
ttRp586
sVhttp://havingtime.com/wp-content/uploads/2012/12/Self-Motivation.jpeg
p587
g3
(g4
g5
(g6
(S"\x07\xdf\x0b\x14\x16\x15'\x03\xa2W"
tRp588
S'3'
I1
ttRp589
sVhttp://fitblogger.ca/wp-content/images/2012/01/Motivation.jpg
p590
g3
(g4
g5
(g6
(S'\x07\xdf\n\x15\x15\x14\x10\n\xe8\xe2'
tRp591
S'27'
p592
I1
ttRp593
sVhttp://tweakyourbiz.com/management/files/importance-of-employee-motivation.jpg
p594
g3
(g4
g5
(g6
(S'\x07\xe0\x03\x06\x0c/$\nZd'
tRp595
I-1
I1
ttRp596
sVhttp://mrstuartmarshall.com/wp-content/uploads/2016/03/7007124-motivation-art.jpg
p597
g3
(g4
g5
(g6
(S'\x07\xe0\n\x08\x134\x0f\n\xe1h'
tRp598
S'563'
p599
I2
ttRp600
sVhttps://s3-us-west-2.amazonaws.com/social-staticdata/uploads/2014/11/self-motivation-1415164869.jpg
p601
g3
(g4
g5
(g6
(S'\x07\xe0\x01\r\x16\n\x16\x0e\xd6\x87'
tRp602
S'192'
p603
I1
ttRp604
sVhttp://www.servicedesigntools.org/sites/default/files/res_images/MOTIVATION_MATRIX_01.jpg
p605
g3
(g4
g5
(g6
(S'\x07\xe0\n\x08\x134\x0f\n\xe1l'
tRp606
S'78'
p607
I1
ttRp608
sVhttp://www.fearlessmotivation.com/wp-content/uploads/2016/03/fearless-motivation-whatever-it-takes-track.jpg
p609
g3
(g4
g5
(g6
(S'\x07\xe0\x07\x0f\x10\x05!\n\xd7\xf6'
tRp610
S'394'
p611
I1
ttRp612
sVhttps://s3.amazonaws.com/images.wealthyaffiliate.com/uploads/456989/wysiwyg/blogs/0b4f4d9addbfb4dc46ed7c03b3288623_1462466404_cropped.jpg
p613
g3
(g4
g5
(g6
(S'\x07\xe0\x08\x11\x01\x05\n\x04g,'
tRp614
S'493'
p615
I1
ttRp616
sVhttps://az616578.vo.msecnd.net/files/responsive/cover/main/desktop/2016/05/31/636003122151125271-1986767656_635849731893843794-971405915_motivation2.jpg
p617
g3
(g4
g5
(g6
(S'\x07\xe0\n\x08\x134\x0f\n\xe1o'
tRp618
NI1
ttRp619
sVhttps://img1.steemit.com/0x0/https://learningperformancehollychandler.files.wordpress.com/2015/10/motivation2.jpg
p620
g3
(g4
g5
(g6
(S'\x07\xe0\x08\x1f\x04\x14\x13\x06\x00\xfc'
tRp621
S'508'
p622
I1
ttRp623
sVhttp://www.endorphincrossfit.com/wp-content/uploads/2014/10/focus-motivation.jpg
p624
g3
(g4
g5
(g6
(S'\x07\xe0\x07\x11\x15-1\x0e\xb6\xca'
tRp625
S'15'
p626
I1
ttRp627
sVhttp://webneel.com/wallpaper/sites/default/files/images/05-2013/13%20motivation%20wallpaper.jpg
p628
g3
(g4
g5
(g6
(S'\x07\xe0\x01\r\x16\n\x16\x0e\xd5k'
tRp629
S'194'
p630
I1
ttRp631
sVhttp://www.theloungetrader.com/wp-content/uploads/2015/08/motivated.jpg
p632
g3
(g4
g5
(g6
(S'\x07\xdf\x0b\x17\x16\x16\t\r\xb8J'
tRp633
S'84'
p634
I1
ttRp635
sVhttp://www.epibinursingpads.com/wp-content/uploads/2015/08/Motivation.jpg
p636
g3
(g4
g5
(g6
(S'\x07\xe0\t\x1a\r\x08(\x0eI\xdf'
tRp637
S'345'
p638
I1
ttRp639
sVhttp://img.medicalxpress.com/newman/gfx/news/hires/2015/newtheoryint.jpg
p640
g3
(g4
g5
(g6
(S'\x07\xe0\x07\x11\x15-1\x0e\xb7k'
tRp641
S'225'
p642
I1
ttRp643
sVhttps://c1.staticflickr.com/3/2848/10722725205_0b2fcd12cf_b.jpg
p644
g3
(g4
g5
(g6
(S'\x07\xe0\x03\x1e\x0e!\x07\x03\xef\x8b'
tRp645
S'333'
p646
I1
ttRp647
sVhttp://www.richgrof.com/wp-content/uploads/2014/09/Employee-Motivation1.jpg?7b4755
p648
g3
(g4
g5
(g6
(S'\x07\xdf\x0c\x08\x10*\x1f\to\x16'
tRp649
S'36'
p650
I1
ttRp651
sVhttp://kurld.com/images/wallpapers/motivation-wallpaper/motivation-wallpaper-16.jpg
p652
g3
(g4
g5
(g6
(S'\x07\xe0\t\x1c\x13\x10$\x0e{\x8b'
tRp653
S'557'
p654
I1
ttRp655
sVhttps://s-media-cache-ak0.pinimg.com/736x/69/31/0e/69310e0706a9b4f5aadb077f4d8e7840.jpg
p656
g3
(g4
g5
(g6
(S'\x07\xe0\t\x0c\t\x1b)\r\xdas'
tRp657
S'525'
p658
I1
ttRp659
sVhttp://cdn.yourarticlelibrary.com/wp-content/uploads/2013/11/motivation.jpg
p660
g3
(g4
g5
(g6
(S'\x07\xe0\t\x1a\r\x08(\x0eH\xf4'
tRp661
S'116'
p662
I1
ttRp663
sVhttps://allthingslearning.files.wordpress.com/2013/06/motivation-a-third-way.png
p664
g3
(g4
g5
(g6
(S'\x07\xdf\x0c\x1a\x1362\x00\xd8;'
tRp665
S'162'
p666
I1
ttRp667
sVhttp://pad1.whstatic.com/images/thumb/3/36/Improve-Motivation-Step-1.jpg/aid986234-704px-Improve-Motivation-Step-1.jpg
p668
g3
(g4
g5
(g6
(S'\x07\xe0\x08\r\x006\r\x01f\x86'
tRp669
S'404'
p670
I1
ttRp671
sVhttp://www.alliancemercantile.com.au/wp-content/uploads/2015/12/motivation-2-1024x819.jpg
p672
g3
(g4
g5
(g6
(S'\x07\xe0\x03\x0e\r;\x15\x0e\x89\xd1'
tRp673
S'238'
p674
I1
ttRp675
sVhttp://michellesegar.com/wp/wp-content/uploads/2015/12/you-can-stick-ever-green-e1462382262865.png
p676
g3
(g4
g5
(g6
(S'\x07\xe0\t\x1c\x13\x10$\x0e|V'
tRp677
S'431'
p678
I1
ttRp679
sVhttp://project-management.com/wp-content/uploads/2013/10/motivation.jpg
p680
g3
(g4
g5
(g6
(S'\x07\xe0\x01\x1f\x17/\x06\x04\xe8\x83'
tRp681
S'242'
p682
I1
ttRp683
sVhttp://vonblancofitness.com/wp-content/uploads/2011/10/monday-motivation-9.jpeg
p684
g3
(g4
g5
(g6
(S'\x07\xe0\n\x08\x134\x0f\n\xe0\xc4'
tRp685
NI1
ttRp686
sVhttp://previews.123rf.com/images/cubrazol/cubrazol1003/cubrazol100300071/6626346-The-word-motivation-written-with-cloud-letters-against-a-blue-sky--Stock-Photo.jpg
p687
g3
(g4
g5
(g6
(S'\x07\xe0\x06\x1e\n0\x1b\x01\x8d\x83'
tRp688
S'451'
p689
I1
ttRp690
sVhttp://30daystox.com/wp-content/uploads/2014/09/How-to-triple-your-motivation-notes.jpg
p691
g3
(g4
g5
(g6
(S'\x07\xe0\x04\r\x0f4*\x0b\xaf\xe4'
tRp692
S'299'
p693
I1
ttRp694
sVhttp://www.ssbinternationalschool.in/wp-content/uploads/2016/06/34.jpg
p695
g3
(g4
g5
(g6
(S'\x07\xe0\x06\x1e\n0\x1b\x01\x8d\x8d'
tRp696
S'449'
p697
I1
ttRp698
sVhttp://seanwes.com/wp-content/uploads/2014/02/motivation-2.jpg
p699
g3
(g4
g5
(g6
(S'\x07\xe0\x04\t\x0f/\x1a\x02\xe8~'
tRp700
S'165'
p701
I1
ttRp702
sVhttp://www.usfsp.edu/bishop/files/2015/08/4504724163_277a8197ff_z.jpg
p703
g3
(g4
g5
(g6
(S'\x07\xe0\x06\x06\r\x0f\x16\n\xa1|'
tRp704
S'24'
p705
I1
ttRp706
sVhttp://cdn.allwallpaper.in/wallpapers/1920x1080/13333/text-motivation-inspiration-1920x1080-wallpaper.jpg
p707
g3
(g4
g5
(g6
(S'\x07\xe0\x01\x1f\x17/\x06\x04\xe8\xad'
tRp708
I-1
I1
ttRp709
sVhttp://www.savemongolian.com/wp-content/uploads/2015/12/motivation.jpg
p710
g3
(g4
g5
(g6
(S'\x07\xe0\n\x02\x13\x18\x1b\x01A\xbe'
tRp711
S'561'
p712
I1
ttRp713
sVhttp://thumbs.dreamstime.com/z/hand-word-motivation-isolated-white-background-34437237.jpg
p714
g3
(g4
g5
(g6
(S'\x07\xe0\x03\x14\x0e\x1d\x16\x05\x1bv'
tRp715
S'140'
p716
I1
ttRp717
sVhttp://f3y.com/wp-content/uploads/2010/11/App_Themes_LSCTheme_Images_Motivation.jpg
p718
g3
(g4
g5
(g6
(S'\x07\xdf\x0b\x1a\x16\x18;\x02\x8b\x10'
tRp719
I-1
I1
ttRp720
sVhttps://pbs.twimg.com/media/By60s-AIIAAxdvA.jpg
p721
g3
(g4
g5
(g6
(S'\x07\xe0\x04\x03\x0f\x0f0\x00\x14\xf5'
tRp722
S'269'
p723
I1
ttRp724
sVhttp://www.nootropicsinfo.com/wp-content/uploads/2014/09/typography_inspirational_motivational_posters_motivation_desktop_1280x1024_hd-wallpaper-558620.jpg
p725
g3
(g4
g5
(g6
(S'\x07\xe0\x07\x11\x15-1\x0e\xb7\xa5'
tRp726
S'19'
p727
I1
ttRp728
sVhttp://www.invistaperforms.org/wp-content/uploads/2014/09/self_motivation1.jpg
p729
g3
(g4
g5
(g6
(S'\x07\xdf\x0c\x1a\x1362\x00\xd8\xfe'
tRp730
S'141'
p731
I1
ttRp732
sVhttp://www.mrwallpaper.com/wallpapers/motivation-1920x1080.jpg
p733
g3
(g4
g5
(g6
(S'\x07\xe0\n\x08\x134\x0f\n\xe0\xec'
tRp734
S'358'
p735
I1
ttRp736
sVhttp://merl.nie.edu.sg/images/motivation.jpg
p737
g3
(g4
g5
(g6
(S'\x07\xdf\x0c\x1a\x1362\x00\xd9&'
tRp738
S'154'
p739
I1
ttRp740
sVhttp://www.changeinseconds.com/wp-content/uploads/2015/03/weight-loss-motivation-79.jpg
p741
g3
(g4
g5
(g6
(S'\x07\xe0\t\x0c\t\x1b)\r\xda\x90'
tRp742
S'544'
p743
I1
ttRp744
sVhttp://www.scary-dvd.com/wp-content/uploads/2015/12/ed1914_5_tipps_motivation_banner_960x400_c_.jpg
p745
g3
(g4
g5
(g6
(S'\x07\xe0\x07\x07\x10\x04\x1e\x0bx\x7f'
tRp746
I-1
I1
ttRp747
sVhttp://omgcutethings.com/wp-content/uploads/2014/03/tuesday-motivation-031014-feat-630x350.jpg
p748
g3
(g4
g5
(g6
(S'\x07\xe0\t\x1a\r\x08(\x0eJg'
tRp749
S'63'
p750
I1
ttRp751
sVhttp://runenc.blogs.jdnews.com/files/2015/02/nike-running-poster.jpg
p752
g3
(g4
g5
(g6
(S'\x07\xe0\x07\x15\x174\x12\x03\x0e\xc9'
tRp753
S'342'
p754
I2
ttRp755
sVhttps://allthingslearning.files.wordpress.com/2013/06/motivation-and-fishing.png
p756
g3
(g4
g5
(g6
(S'\x07\xe0\x04\x03\x0f\x0f0\x00\x15K'
tRp757
S'294'
p758
I1
ttRp759
sVhttp://www.sempergrow.com/wp-content/uploads/2016/02/motivate-content-2.jpg
p760
g3
(g4
g5
(g6
(S'\x07\xe0\x06\x17\n\x08\x12\r\xbf\x0c'
tRp761
I-1
I1
ttRp762
sVhttps://i.ytimg.com/vi/KSTKheVpEq4/maxresdefault.jpg
p763
g3
(g4
g5
(g6
(S'\x07\xdf\x0c\x1a\x1362\x00\xd9H'
tRp764
S'100'
p765
I1
ttRp766
sVhttps://pixabay.com/static/uploads/photo/2014/06/04/08/08/motivation-361783_960_720.jpg
p767
g3
(g4
g5
(g6
(S'\x07\xe0\t\x16\x0b*\x14\rz\x80'
tRp768
S'240'
p769
I1
ttRp770
sVhttps://s-media-cache-ak0.pinimg.com/236x/e7/1f/11/e71f11a628bf9ccf847cafdde3ee7430.jpg
p771
g3
(g4
g5
(g6
(S'\x07\xe0\x04\x03\x0f\x0f0\x00\x15\x92'
tRp772
I-1
I1
ttRp773
sVhttps://i.ytimg.com/vi/pZT-FZqfxZA/maxresdefault.jpg
p774
g3
(g4
g5
(g6
(S'\x07\xe0\n\x08\x134\x0f\n\xe10'
tRp775
S'347'
p776
I1
ttRp777
sVhttps://thumbs.dreamstime.com/z/motivation-hand-writing-blue-mark-transparent-board-46336968.jpg
p778
g3
(g4
g5
(g6
(S'\x07\xe0\x07\x11\x15-1\x0e\xb7\xa0'
tRp779
S'476'
p780
I1
ttRp781
sVhttp://www.jetts.co.nz/uploads/contentFiles/files/14_02_12_Jetts_National_8WC_Wallpapers_FA7.jpg
p782
g3
(g4
g5
(g6
(S'\x07\xe0\x03\x1c\x0e .\x0f8\xfa'
tRp783
S'255'
p784
I1
ttRp785
sVhttp://previews.123rf.com/images/svanhorn/svanhorn0910/svanhorn091000013/5771446-Male-executive-drawing-a-puzzle-of-a-business-motivation-concept-Stock-Photo.jpg
p786
g3
(g4
g5
(g6
(S'\x07\xe0\x06\x1e\n0\x1b\x01\x8d\xf9'
tRp787
S'186'
p788
I1
ttRp789
sVhttps://s-media-cache-ak0.pinimg.com/736x/bd/66/83/bd668304394c0149c192b330cce0908a.jpg
p790
g3
(g4
g5
(g6
(S'\x07\xe0\x03\x06\x0c/$\n[\x07'
tRp791
S'295'
p792
I1
ttRp793
sVhttp://www.jetts.co.nz/uploads/contentFiles/images/14_02_12_Jetts_National_8WC_Wallpapers_FA7.jpg
p794
g3
(g4
g5
(g6
(S'\x07\xe0\x02\x11\x04\x08.\x0b\xd9\xcc'
tRp795
S'268'
p796
I1
ttRp797
sVhttps://i.ytimg.com/vi/wQDdbJbu_Sc/maxresdefault.jpg
p798
g3
(g4
g5
(g6
(S'\x07\xe0\t\x1c\x13\x10$\x0e|\xbb'
tRp799
S'434'
p800
I1
ttRp801
sVhttp://7-themes.com/data_images/out/72/7018894-motivation.jpg
p802
g3
(g4
g5
(g6
(S"\x07\xe0\x08\x1b\x0208\x00\xaa'"
tRp803
I-1
I1
ttRp804
sVhttp://monicabundy.com/wp-content/uploads/2014/10/08-16-10-five-steps-to-self-motivation.jpg
p805
g3
(g4
g5
(g6
(S'\x07\xe0\n\x08\x134\x0f\n\xe0\xb7'
tRp806
S'147'
p807
I2
ttRp808
sVhttps://public-media.interaction-design.org/images/books/gamification_at_work/Fig5.1_Intrinsic_extinsic_motivation.jpg
p809
g3
(g4
g5
(g6
(S'\x07\xe0\x05\x12\x12\x05\x10\x02\x87\x15'
tRp810
S'236'
p811
I1
ttRp812
sVhttp://40.media.tumblr.com/744a5631056c84d8bed0425068f14e71/tumblr_mjrzfajkCh1rqbp73o2_1280.png
p813
g3
(g4
g5
(g6
(S'\x07\xe0\x03\x06\x0c/$\nZ\x9b'
tRp814
S'313'
p815
I1
ttRp816
sVhttp://www.theplushcyclist.com/wp-content/uploads/2015/12/wishing.jpg
p817
g3
(g4
g5
(g6
(S'\x07\xe0\x04\x13\x0f;&\x01\xf2\xc7'
tRp818
S'340'
p819
I1
ttRp820
sVhttp://cdn-media-2.lifehack.org/wp-content/files/2015/12/14132806/MotivationChart.jpg
p821
g3
(g4
g5
(g6
(S'\x07\xe0\x01\x1f\x17/\x06\x04\xe9}'
tRp822
S'230'
p823
I1
ttRp824
sVhttps://s-media-cache-ak0.pinimg.com/736x/0e/5f/f9/0e5ff9c686e5667b5f6d39a83ebec1b1.jpg
p825
g3
(g4
g5
(g6
(S'\x07\xe0\x03\x06\x0c/$\n[:'
tRp826
S'310'
p827
I1
ttRp828
sVhttp://motivationearth.com/wp-content/uploads/2016/03/motivation2.jpg
p829
g3
(g4
g5
(g6
(S'\x07\xe0\x05\x16\x14(\x0b\x03*\x10'
tRp830
S'377'
p831
I1
ttRp832
sVhttp://3vxsjq3roj103wlhf71jhh7t.wpengine.netdna-cdn.com/wp-content/uploads/2012/12/motivation.jpg
p833
g3
(g4
g5
(g6
(S'\x07\xe0\x08\x03\x00\x16+\x00\xb2\x89'
tRp834
S'260'
p835
I1
ttRp836
sVhttp://lifefitnessbydane.files.wordpress.com/2013/12/motivation.jpg
p837
g3
(g4
g5
(g6
(S'\x07\xdf\x0c\x08\x10*\x1f\to\xd0'
tRp838
S'130'
p839
I1
ttRp840
sVhttp://www.danegeld.org/wp-content/uploads/2015/10/today-motivation.jpg
p841
g3
(g4
g5
(g6
(S'\x07\xdf\x0b\x1a\x16\x18;\x02\x8a\x89'
tRp842
S'73'
p843
I1
ttRp844
sVhttps://thumbs.dreamstime.com/z/i-can-self-motivation-quote-cutting-letter-t-written-word-t-says-52295841.jpg
p845
g3
(g4
g5
(g6
(S'\x07\xe0\x07\x11\x15-1\x0e\xb6\xa7'
tRp846
S'479'
p847
I1
ttRp848
sVhttps://elearningindustry.com/wp-content/uploads/2015/04/Enhance-Motivation-eLearning.jpg
p849
g3
(g4
g5
(g6
(S'\x07\xe0\t\x1a\r\x08(\x0eH{'
tRp850
I-1
I1
ttRp851
sVhttp://career-intelligence.com/wp-content/uploads/2014/01/motivating-your-employees.jpg
p852
g3
(g4
g5
(g6
(S'\x07\xdf\x0b\x08\x16\n\x12\x00T\x94'
tRp853
S'41'
p854
I1
ttRp855
sVhttps://s-media-cache-ak0.pinimg.com/736x/0a/dd/55/0add5561b60d2fc940d5ae43c9ef4b51.jpg
p856
g3
(g4
g5
(g6
(S'\x07\xe0\x03\x06\x0c/$\nZ\xab'
tRp857
S'307'
p858
I1
ttRp859
sVhttps://trustworks.files.wordpress.com/2015/02/got-motivation.jpg
p860
g3
(g4
g5
(g6
(S'\x07\xe0\x03\x14\x0e\x1d\x16\x05\x1a\xcb'
tRp861
S'316'
p862
I1
ttRp863
sVhttps://www.motivationalpicturequotes.com/wp-content/uploads/457/motivation-quotes.jpg
p864
g3
(g4
g5
(g6
(S'\x07\xe0\x05\x07\x15#\x0c\x06\x9a\xfd'
tRp865
S'372'
p866
I1
ttRp867
sVhttps://evancpflock.files.wordpress.com/2015/09/evan-pflock-lion-of-motivation.jpg?w=1920&h=1080&crop=1
p868
g3
(g4
g5
(g6
(S'\x07\xe0\n\x08\x134\x0f\n\xe1R'
tRp869
S'516'
p870
I1
ttRp871
sVhttp://cdn1.theodysseyonline.com/files/2016/02/07/635904038909502605-1234189086_you-cant-create-motivation-writetojoncook-1j901wa.jpg
p872
g3
(g4
g5
(g6
(S'\x07\xe0\x06\x02\t7\x1a\r\xdb.'
tRp873
S'359'
p874
I1
ttRp875
sVhttp://www.success.com/sites/default/files/styles/article_main/public/main/articles/DoTheseThingstoGetMotivated.jpg?itok=jjtBSZaT
p876
g3
(g4
g5
(g6
(S'\x07\xe0\t\x1a\r\x08(\x0eI0'
tRp877
S'550'
p878
I1
ttRp879
sVhttp://www.simplicant.com/wp-content/uploads/2015/04/10-11-How-to-motivate-employees1.jpg
p880
g3
(g4
g5
(g6
(S'\x07\xe0\t\x16\x0b*\x14\ry\x88'
tRp881
S'148'
p882
I1
ttRp883
sVhttps://thumbs.dreamstime.com/z/motivation-pulls-man-22847827.jpg
p884
g3
(g4
g5
(g6
(S'\x07\xe0\x07\x11\x15-1\x0e\xb6\xf2'
tRp885
S'483'
p886
I1
ttRp887
sVhttp://cdn.emgn.com/wp-content/uploads/2016/02/motivation.jpg
p888
g3
(g4
g5
(g6
(S'\x07\xe0\x06\x06\r\x0f\x16\n\xa1g'
tRp889
S'408'
p890
I1
ttRp891
sVhttp://previews.123rf.com/images/macx/macx1003/macx100300061/6640944-Motivation-Success-Incentive-Stock-Photo-motivation.jpg
p892
g3
(g4
g5
(g6
(S'\x07\xe0\x06\x1e\n0\x1b\x01\x8d\x8a'
tRp893
S'319'
p894
I1
ttRp895
sVhttp://athleticsmotivation.com/wp-content/uploads/2014/12/74.jpg
p896
g3
(g4
g5
(g6
(S'\x07\xdf\x0b\x1a\x16\x18;\x02\x8a\xd8'
tRp897
S'29'
p898
I1
ttRp899
sVhttp://cdn.yourarticlelibrary.com/wp-content/uploads/2012/07/602.jpg
p900
g3
(g4
g5
(g6
(S'\x07\xe0\x08\x03\x00\x16+\x00\xb3C'
tRp901
S'178'
p902
I1
ttRp903
sVhttp://cdn2.business2community.com/wp-content/uploads/2015/05/All-our-plans-and-goals-are-but-daydreaming-Doc-www.MartinaMcGowan.com_-e1432046270399.png.png
p904
g3
(g4
g5
(g6
(S'\x07\xe0\x03\x1c\x0e .\x0f8\xd5'
tRp905
S'261'
p906
I1
ttRp907
sVhttps://diplolearn.files.wordpress.com/2014/06/motivation_15.jpg
p908
g3
(g4
g5
(g6
(S'\x07\xe0\x03\x1e\x0e!\x07\x03\xef\xe8'
tRp909
S'48'
p910
I1
ttRp911
sVhttp://science-all.com/images/wallpapers/motivation-pics/motivation-pics-6.jpg
p912
g3
(g4
g5
(g6
(S'\x07\xe0\t\x0c\t\x1b)\r\xdb\x0f'
tRp913
S'527'
p914
I1
ttRp915
sVhttp://az616578.vo.msecnd.net/files/2016/05/15/6359893115537910231601370765_Motivation.jpg
p916
g3
(g4
g5
(g6
(S'\x07\xe0\x07\x17\x175\x01\x06\\\x87'
tRp917
S'482'
p918
I1
ttRp919
sVhttps://fearmastery.files.wordpress.com/2016/01/motivation-1.jpg
p920
g3
(g4
g5
(g6
(S'\x07\xe0\x05\x16\x14(\x0b\x03*\x08'
tRp921
S'266'
p922
I1
ttRp923
sVhttp://www.charlesstone.com/images/uploads/hiresimages/motivation_kick.jpg
p924
g3
(g4
g5
(g6
(S'\x07\xe0\x01\x1f\x17/\x06\x04\xe8*'
tRp925
S'233'
p926
I1
ttRp927
sVhttp://ragtagriot.com/wp-content/uploads/2014/10/motivation13.jpg
p928
g3
(g4
g5
(g6
(S"\x07\xdf\x0b\x14\x16\x15'\x03\xa2$"
tRp929
S'95'
p930
I1
ttRp931
sVhttp://www.mrwallpaper.com/wallpapers/Motivation-Background.jpg
p932
g3
(g4
g5
(g6
(S'\x07\xe0\n\x08\x134\x0f\n\xe0\xb3'
tRp933
S'569'
p934
I1
ttRp935
sVhttp://michaelsseaver.com/wp-content/uploads/2016/01/Team-Motivation.jpg
p936
g3
(g4
g5
(g6
(S'\x07\xe0\x01\x1f\x17/\x06\x04\xe9\x0e'
tRp937
I-1
I1
ttRp938
sVhttps://s-media-cache-ak0.pinimg.com/736x/dc/e0/58/dce058a4da592cbd818311679cb91cd1.jpg
p939
g3
(g4
g5
(g6
(S'\x07\xdf\x0c\x1a\x1362\x00\xd9-'
tRp940
S'135'
p941
I1
ttRp942
sVhttps://s-media-cache-ak0.pinimg.com/736x/83/e0/67/83e06726ae3f901db986acf081697e9e.jpg
p943
g3
(g4
g5
(g6
(S'\x07\xdf\x0c\x1a\x1362\x00\xd9:'
tRp944
S'175'
p945
I1
ttRp946
sVhttp://www4.uwm.edu/learningobjects/images/happy_individualism_trs3-me_1.jpg
p947
g3
(g4
g5
(g6
(S'\x07\xe0\n\x08\x134\x0f\n\xe1!'
tRp948
S'35'
p949
I1
ttRp950
sVhttps://shechive.files.wordpress.com/2016/02/daily-motivation-1510.jpg?quality=80&strip=info
p951
g3
(g4
g5
(g6
(S'\x07\xe0\x03\x1c\x0e .\x0f9d'
tRp952
S'331'
p953
I1
ttRp954
sVhttp://dougleschan.com/the-recruitment-guru/wp-content/uploads/2015/03/adventure-time-motivation-28003-1366x768.jpg
p955
g3
(g4
g5
(g6
(S'\x07\xdf\x0c\x08\x10*\x1f\too'
tRp956
S'138'
p957
I1
ttRp958
sVhttp://funandfit.org/wp-content/uploads/2010/12/Motivation-2-e1292825352173.jpg
p959
g3
(g4
g5
(g6
(S'\x07\xe0\x03\x1e\x0e!\x07\x03\xf0_'
tRp960
I-1
I1
ttRp961
sVhttp://i.ytimg.com/vi/YpSi2rW4oHk/maxresdefault.jpg
p962
g3
(g4
g5
(g6
(S'\x07\xdf\n\x15\x15\x14\x10\n\xe8\xc4'
tRp963
S'28'
p964
I1
ttRp965
sVhttp://www.deliveringhappiness.com/wp-content/uploads/2013/07/bigstock-motivational-concept-got-mot-30228101.jpg
p966
g3
(g4
g5
(g6
(S'\x07\xdf\x0c\x0c\x11\x1d!\x06\xce\xca'
tRp967
S'32'
p968
I1
ttRp969
sVhttp://www.newenglandspahtens.com/wp-content/uploads/2015/01/20007282_xxl.jpg
p970
g3
(g4
g5
(g6
(S"\x07\xdf\x0b\x14\x16\x15'\x03\xa2T"
tRp971
S'6'
I1
ttRp972
sVhttp://www.hzpadvisors.com/wp-content/uploads/2015/09/motivation-800x600.jpg
p973
g3
(g4
g5
(g6
(S'\x07\xe0\x07\x15\x174\x12\x03\x0f-'
tRp974
S'502'
p975
I1
ttRp976
sVhttp://www.sparkpeople.com/news/rc/title_image/inspiringstories.jpg
p977
g3
(g4
g5
(g6
(S'\x07\xe0\x08\x03\x00\x16+\x00\xb2\xd9'
tRp978
S'500'
p979
I1
ttRp980
sVhttp://thumbs.dreamstime.com/z/word-cloud-motivation-27079180.jpg
p981
g3
(g4
g5
(g6
(S'\x07\xe0\x03\x14\x0e\x1d\x16\x05\x1b\x9d'
tRp982
S'128'
p983
I1
ttRp984
sVhttps://tedcdnpi-a.akamaihd.net/r/tedcdnpe-a.akamaihd.net/images/ted/110884_800x600.jpg?quality=89&w=800
p985
g3
(g4
g5
(g6
(S'\x07\xe0\x04\x13\x0f;&\x01\xf2\xa2'
tRp986
S'288'
p987
I1
ttRp988
sVhttp://i0.wp.com/www.5minutelanguage.com/wp-content/uploads/2015/07/language-learning-motivation.jpg?resize=640%2C424
p989
g3
(g4
g5
(g6
(S'\x07\xe0\x08\x03\x00\x16+\x00\xb3>'
tRp990
S'393'
p991
I1
ttRp992
sVhttp://science-all.com/images/wallpapers/motivation-pics/motivation-pics-17.jpg
p993
g3
(g4
g5
(g6
(S'\x07\xe0\x06\x02\t7\x1a\r\xdc\x18'
tRp994
S'415'
p995
I1
ttRp996
sVhttp://previews.123rf.com/images/pixelsaway/pixelsaway1110/pixelsaway111000014/10819265-motivation-word-in-white-chalk-handwriting-on-blackboard-Stock-Photo.jpg
p997
g3
(g4
g5
(g6
(S'\x07\xe0\x06\x1e\n0\x1b\x01\x8e\x1d'
tRp998
S'442'
p999
I1
ttRp1000
sVhttps://buildingthenewdotcom.files.wordpress.com/2013/07/qstloej.jpg
p1001
g3
(g4
g5
(g6
(S'\x07\xdf\x0c\x1a\x1362\x00\xd82'
tRp1002
S'169'
p1003
I1
ttRp1004
sVhttp://addicted2success.com/wp-content/uploads/2013/08/Motivation-Picture-Quote-Get-Started-Motivation.jpg
p1005
g3
(g4
g5
(g6
(S'\x07\xe0\x08\r\x006\r\x01e\xf4'
tRp1006
I-1
I1
ttRp1007
sVhttp://www.eoi.es/blogs/imsd/files/2015/05/Motivation1.jpg
p1008
g3
(g4
g5
(g6
(S'\x07\xdf\x0b\x1a\x16\x18;\x02\x8a\xa8'
tRp1009
S'94'
p1010
I1
ttRp1011
sVhttp://blog.dougdvorak.com/wp-content/uploads/2015/02/get-motivated-stay-motivated.jpg
p1012
g3
(g4
g5
(g6
(S'\x07\xe0\n\x08\x134\x0f\n\xe0\xba'
tRp1013
S'551'
p1014
I1
ttRp1015
sVhttp://www.sparkpeople.com/news/genericpictures/bigpictures/SPforum_staying_motivated.jpg
p1016
g3
(g4
g5
(g6
(S'\x07\xdf\x0b\x05\x15\x15\x01\r\n]'
tRp1017
S'31'
p1018
I1
ttRp1019
sVhttp://dougleschan.com/the-recruitment-guru/wp-content/uploads/2014/04/motivation-free-desktop-backgrounds-with-succeed-1788715.jpg
p1020
g3
(g4
g5
(g6
(S'\x07\xe0\n\x02\x13\x18\x1b\x01A\x9b'
tRp1021
S'573'
p1022
I1
ttRp1023
sVhttps://innogise.files.wordpress.com/2013/01/got-motivation.jpg
p1024
g3
(g4
g5
(g6
(S'\x07\xe0\n\x08\x134\x0f\n\xe0\xcb'
tRp1025
S'510'
p1026
I1
ttRp1027
sVhttps://s-media-cache-ak0.pinimg.com/736x/ff/a6/08/ffa60872d52a576493868fca44e2311b.jpg
p1028
g3
(g4
g5
(g6
(S'\x07\xe0\x05\x18\x15,\x19\r\xe6\x0e'
tRp1029
S'397'
p1030
I1
ttRp1031
sVhttp://science-all.com/images/wallpapers/motivation-pics/motivation-pics-20.jpg
p1032
g3
(g4
g5
(g6
(S'\x07\xe0\x08\x13\x01\r\x01\x0e\x1c\x15'
tRp1033
S'515'
p1034
I1
ttRp1035
sVhttp://www.strategiesinlanguagelearning.com/wp-content/uploads/2014/12/motivation.jpg
p1036
g3
(g4
g5
(g6
(S'\x07\xe0\x06\x17\n\x08\x12\r\xbf"'
tRp1037
S'425'
p1038
I1
ttRp1039
sVhttp://www.dailyhaha.com/_pics/motivation.jpg
p1040
g3
(g4
g5
(g6
(S'\x07\xe0\t\x16\x0b*\x14\ry\xac'
tRp1041
S'229'
p1042
I1
ttRp1043
sVhttp://s1.picswalls.com/wallpapers/2015/11/21/beautiful-motivation-wallpaper_10342177_288.jpg
p1044
g3
(g4
g5
(g6
(S'\x07\xe0\x05\x07\x15#\x0c\x06\x9a\xad'
tRp1045
S'376'
p1046
I2
ttRp1047
sVhttp://www.top.me/wp-content/uploads/2013/04/motivation-1024x679.jpg
p1048
g3
(g4
g5
(g6
(S'\x07\xe0\t\x0c\t\x1b)\r\xda('
tRp1049
S'543'
p1050
I1
ttRp1051
sVhttp://abhinavpmp.com/wp-content/uploads/what-is-motivation.jpg
p1052
g3
(g4
g5
(g6
(S'\x07\xe0\x06\x17\n\x08\x12\r\xbe\xcc'
tRp1053
S'106'
p1054
I1
ttRp1055
sVhttp://motivationfactor.com/wp-content/uploads/2012/11/BoblerUS_jan13.png
p1056
g3
(g4
g5
(g6
(S'\x07\xe0\x07\x11\x15-1\x0e\xb7.'
tRp1057
S'120'
p1058
I3
ttRp1059
sVhttp://cdn2.stylecraze.com/wp-content/uploads/2013/08/4580-10-Super-Effective-Weight-Loss-Motivation-Tips-And-Tricks.jpg
p1060
g3
(g4
g5
(g6
(S'\x07\xe0\t\x0c\t\x1b)\r\xda\xb7'
tRp1061
S'546'
p1062
I1
ttRp1063
sVhttp://steamboatfriday.com/wp-content/uploads/2013/04/motivation.jpg
p1064
g3
(g4
g5
(g6
(S'\x07\xdf\x0b\x05\x15\x15\x01\r\n\x85'
tRp1065
S'68'
p1066
I1
ttRp1067
sVhttps://littlebluederbymonster.files.wordpress.com/2015/04/positive-motivation.jpg
p1068
g3
(g4
g5
(g6
(S'\x07\xe0\x01\r\x16\n\x16\x0e\xd6\x0c'
tRp1069
S'208'
p1070
I1
ttRp1071
sVhttps://media.licdn.com/mpr/mpr/p/7/005/056/1fb/09a4ab6.jpg
p1072
g3
(g4
g5
(g6
(S'\x07\xe0\x06\x06\r\x0f\x16\n\xa1H'
tRp1073
S'409'
p1074
I1
ttRp1075
sVhttp://svetdimitrov.com/wp-content/uploads/2015/11/Motivation.jpg
p1076
g3
(g4
g5
(g6
(S'\x07\xe0\x04\t\x0f/\x1a\x02\xe8\xa4'
tRp1077
S'334'
p1078
I1
ttRp1079
sVhttps://shechive.files.wordpress.com/2016/04/daily-motivation-1014.jpg?quality=80&strip=info
p1080
g3
(g4
g5
(g6
(S'\x07\xe0\t\x1a\r\x08(\x0eJ5'
tRp1081
S'379'
p1082
I1
ttRp1083
sVhttp://tstoaddicts.files.wordpress.com/2014/03/einstein.jpg
p1084
g3
(g4
g5
(g6
(S'\x07\xdf\x0b\x08\x16\n\x12\x00U\x8f'
tRp1085
S'76'
p1086
I1
ttRp1087
sVhttps://media.licdn.com/mpr/mpr/p/2/005/097/054/12aebbc.jpg
p1088
g3
(g4
g5
(g6
(S'\x07\xe0\x08\x03\x00\x16+\x00\xb2\xdd'
tRp1089
S'246'
p1090
I1
ttRp1091
sVhttp://opip0g.blu.livefilestore.com/y1pD9fNxakXgd2Xr-pNCCtypZTVUFTt4Qba0TwJWv7_E9XQ-vcgHUwpw8ygxnHusGSS4aVeZNEaxgN5_Nf_JD3zOmljVt023xHF/motivation%20wordle.jpg
p1092
g3
(g4
g5
(g6
(S"\x07\xe0\x02\x19\t1'\x04\x95\x85"
tRp1093
S'263'
p1094
I1
ttRp1095
sVhttp://www.mrwallpaper.com/wallpapers/motivation-art-1680x1050.jpg
p1096
g3
(g4
g5
(g6
(S'\x07\xe0\x06\x1e\n0\x1b\x01\x8du'
tRp1097
S'445'
p1098
I1
ttRp1099
sVhttp://jmfitnessuk.com/wp-content/uploads/2014/06/daily-motivation-910.jpg
p1100
g3
(g4
g5
(g6
(S'\x07\xe0\x01\x03\x16\x029\x05\xc4\xbc'
tRp1101
S'167'
p1102
I1
ttRp1103
sVhttp://cdn.superbwallpapers.com/wallpapers/quotes/adventure-time-motivation-28003-1366x768.jpg
p1104
g3
(g4
g5
(g6
(S'\x07\xe0\x03\x14\x0e\x1d\x16\x05\x1bS'
tRp1105
S'195'
p1106
I1
ttRp1107
sVhttp://www.mycity-web.com/wp-content/uploads/2015/04/Motivation.jpg
p1108
g3
(g4
g5
(g6
(S'\x07\xe0\x07\x11\x15-1\x0e\xb7\x9b'
tRp1109
S'21'
p1110
I1
ttRp1111
sVhttp://192.163.240.212/~careerk8/wp-content/uploads/2014/01/motivating-your-employees.jpg
p1112
g3
(g4
g5
(g6
(S'\x07\xe0\n\x08\x134\x0f\n\xe14'
tRp1113
S'231'
p1114
I1
ttRp1115
sVhttp://www.dailyfitnesspro.com/wp-content/uploads/2016/02/download.jpg
p1116
g3
(g4
g5
(g6
(S'\x07\xe0\x04\x13\x0f;&\x01\xf3\x1e'
tRp1117
S'292'
p1118
I1
ttRp1119
sVhttp://1stwdcdn-31d9.kxcdn.com/wp-content/uploads/2014/05/motivation-in-two-parts.jpg
p1120
g3
(g4
g5
(g6
(S'\x07\xe0\x08\r\x006\r\x01f\xab'
tRp1121
I-1
I1
ttRp1122
sVhttp://www.changeinseconds.com/wp-content/uploads/2015/03/weight-loss-motivation-80.jpg
p1123
g3
(g4
g5
(g6
(S'\x07\xe0\t\x16\x0b*\x14\rz-'
tRp1124
S'306'
p1125
I1
ttRp1126
sVhttps://wallpaperscraft.com/image/shakespeare_time_title_motivation_85147_3840x2160.jpg
p1127
g3
(g4
g5
(g6
(S'\x07\xe0\x05\x07\x15#\x0c\x06\x9bT'
tRp1128
I-1
I1
ttRp1129
sVhttp://www.flreads.org/adolescent_lit/Motivation/MotivationMatters.jpg
p1130
g3
(g4
g5
(g6
(S"\x07\xe0\x02\x19\t1'\x04\x95\xab"
tRp1131
S'278'
p1132
I1
ttRp1133
sVhttp://omgcutethings.com/wp-content/uploads/2014/03/tuesday-motivation-031014-01.jpg
p1134
g3
(g4
g5
(g6
(S'\x07\xdf\x0c\x1a\x1362\x00\xd8m'
tRp1135
I-1
I1
ttRp1136
sVhttp://image.slidesharecdn.com/motivative-quotes-1233317750110411-1/95/self-motivation-quotes-1-728.jpg?cb=1233548837
p1137
g3
(g4
g5
(g6
(S'\x07\xe0\x02\x11\x04\x08.\x0b\xd9\xd5'
tRp1138
S'274'
p1139
I1
ttRp1140
sVhttp://www.integritymarketing-grp.com/wp-content/uploads/2016/03/get-motivated-stay-motivated.jpg
p1141
g3
(g4
g5
(g6
(S'\x07\xe0\x08\x13\x01\r\x01\x0e\x1c!'
tRp1142
S'521'
p1143
I1
ttRp1144
sVhttp://veritasatlanta.com/wp-content/uploads/2015/02/motivation1.jpg
p1145
g3
(g4
g5
(g6
(S'\x07\xdf\x0b\x17\x16\x16\t\r\xb8>'
tRp1146
S'46'
p1147
I1
ttRp1148
sVhttps://i.ytimg.com/vi/ZTy2i4lo7qQ/maxresdefault.jpg
p1149
g3
(g4
g5
(g6
(S'\x07\xe0\x07\x11\x15-1\x0e\xb8K'
tRp1150
S'478'
p1151
I1
ttRp1152
sVhttp://3.bp.blogspot.com/-PUEWfMWVnKg/TlZkFWcRCVI/AAAAAAAABVg/DkMAucQipmc/s1600/Fresh%2Bweek%2B4.jpg
p1153
g3
(g4
g5
(g6
(S'\x07\xe0\x03\x06\x0c/$\n[6'
tRp1154
S'109'
p1155
I1
ttRp1156
sVhttp://ragtagriot.com/wp-content/uploads/2014/10/motivation6.jpg
p1157
g3
(g4
g5
(g6
(S"\x07\xdf\x0b\x14\x16\x15'\x03\xa1\xd3"
tRp1158
S'75'
p1159
I1
ttRp1160
sVhttp://fitmarkbags.com/blog/wp-content/uploads/2014/01/Motivation.jpg
p1161
g3
(g4
g5
(g6
(S'\x07\xe0\x02\t\x00\x10\x08\x05\x08\xae'
tRp1162
S'45'
p1163
I1
ttRp1164
sVhttp://jeffshore.com/wp-content/uploads/2014/03/motivation.jpg
p1165
g3
(g4
g5
(g6
(S'\x07\xe0\t\x1a\r\x08(\x0eH-'
tRp1166
S'430'
p1167
I1
ttRp1168
sVhttps://media.licdn.com/mpr/mpr/p/2/005/055/073/14e4973.jpg
p1169
g3
(g4
g5
(g6
(S'\x07\xe0\t\x16\x0b*\x14\ry^'
tRp1170
S'34'
p1171
I1
ttRp1172
sVhttp://www.listenandlearn.org/the-teachers-handbook/wp-content/uploads/2014/01/motivation.jpg
p1173
g3
(g4
g5
(g6
(S'\x07\xe0\n\x08\x134\x0f\n\xe1C'
tRp1174
S'562'
p1175
I1
ttRp1176
sVhttp://e2ua.com/data/wallpapers/23/WDF_712178.jpg
p1177
g3
(g4
g5
(g6
(S'\x07\xe0\x04\t\x0f/\x1a\x02\xe8c'
tRp1178
I-1
I1
ttRp1179
sVhttp://s1.picswalls.com/wallpapers/2015/11/21/hd-motivation_103422965_288.jpg
p1180
g3
(g4
g5
(g6
(S'\x07\xe0\n\x08\x134\x0f\n\xe1\x12'
tRp1181
S'349'
p1182
I1
ttRp1183
sVhttp://www.stepbystep.com/wp-content/uploads/2013/09/Motivation.jpg
p1184
g3
(g4
g5
(g6
(S'\x07\xe0\x07\x11\x15-1\x0e\xb9\x86'
tRp1185
S'480'
p1186
I1
ttRp1187
sVhttp://7-themes.com/data_images/out/72/7017897-motivation-background.jpg
p1188
g3
(g4
g5
(g6
(S'\x07\xe0\x05\x07\x15#\x0c\x06\x9a\x96'
tRp1189
I-1
I1
ttRp1190
sVhttp://cdn.business2community.com/wp-content/uploads/2015/05/Affirmation-Motivation-Doc-www.MartinaMcGowan.com_-e1432046784959.png.png
p1191
g3
(g4
g5
(g6
(S"\x07\xe0\x02\x19\t1'\x04\x95\xc3"
tRp1192
S'272'
p1193
I1
ttRp1194
sVhttp://insta-capital.com/uploads/images/lzgia920160205185021.jpg
p1195
g3
(g4
g5
(g6
(S'\x07\xe0\x06\x1e\n0\x1b\x01\x8d_'
tRp1196
S'450'
p1197
I1
ttRp1198
sVhttps://i.ytimg.com/vi/4EiM_-oSWzI/hqdefault.jpg
p1199
g3
(g4
g5
(g6
(S'\x07\xe0\x03\x1e\x0e!\x07\x03\xef\xdb'
tRp1200
S'79'
p1201
I1
ttRp1202
sVhttp://theglobalsuccessacademy.com/wp-content/uploads/2016/03/butt-kick.jpg
p1203
g3
(g4
g5
(g6
(S'\x07\xe0\x08\x13\x01\r\x01\x0e\x1c4'
tRp1204
S'318'
p1205
I1
ttRp1206
sVhttps://c1.staticflickr.com/3/2848/10722725205_0b2fcd12cf_c.jpg
p1207
g3
(g4
g5
(g6
(S'\x07\xe0\x03\x0e\r;\x15\x0e\x89$'
tRp1208
S'173'
p1209
I2
ttRp1210
sVhttp://ragtagriot.com/wp-content/uploads/2014/10/motivation16.jpg
p1211
g3
(g4
g5
(g6
(S'\x07\xe0\x01\x01\x138\t\x0f)\xa5'
tRp1212
S'114'
p1213
I1
ttRp1214
sVhttp://e2ua.com/data/wallpapers/172/WDF_2116907.jpg
p1215
g3
(g4
g5
(g6
(S'\x07\xe0\x04\r\x0f4*\x0b\xb0<'
tRp1216
I-1
I1
ttRp1217
sVhttp://www.breakouttheskinnygirl.com/wp-content/uploads/2015/09/motivation.jpg
p1218
g3
(g4
g5
(g6
(S'\x07\xe0\t\x1a\r\x08(\x0eI\xfb'
tRp1219
NI1
ttRp1220
sVhttps://ip.bitcointalk.org/?u=http%3A%2F%2Fattitudes4innovation.com%2Fwp-content%2Fuploads%2F2015%2F04%2Fwishing.jpg&t=557&c=mPbzAOgaKEPtpA
p1221
g3
(g4
g5
(g6
(S'\x07\xdf\n\x14\x15\x13,\ra_'
tRp1222
S'23'
p1223
I1
ttRp1224
sVhttp://www.davepartners.com/wp-content/uploads/2015/11/cash-motivation.png
p1225
g3
(g4
g5
(g6
(S'\x07\xe0\x06\x02\t7\x1a\r\xdb~'
tRp1226
I-1
I1
ttRp1227
sVhttp://theshawnstevensonmodel.com/wp-content/uploads/2013/04/11-non-stop-exercise-motivation-tips.jpg
p1228
g3
(g4
g5
(g6
(S'\x07\xe0\x06\x1e\n0\x1b\x01\x8e\x1a'
tRp1229
S'201'
p1230
I1
ttRp1231
sVhttp://rappingmanual.com/wp-content/uploads/2013/02/Motivate-self.jpg
p1232
g3
(g4
g5
(g6
(S"\x07\xdf\x0b\x14\x16\x15'\x03\xa1\xa8"
tRp1233
I-1
I1
ttRp1234
sVhttp://thumb9.shutterstock.com/display_pic_with_logo/590002/267961712/stock-photo-inspirational-motivating-quote-on-notebook-and-coffee-with-retro-filter-effect-267961712.jpg
p1235
g3
(g4
g5
(g6
(S'\x07\xe0\x06\x06\r\x0f\x16\n\xa1\xa8'
tRp1236
S'414'
p1237
I1
ttRp1238
sVhttp://www.coachingpositiveperformance.com/wp-content/uploads/2014/08/The-importance-of-motivation-1020x510.jpg
p1239
g3
(g4
g5
(g6
(S'\x07\xe0\t\x16\x0b*\x14\rz\x03'
tRp1240
I-1
I1
ttRp1241
sVhttp://thewellnessdoer.com/wp-content/uploads/2014/03/20131206_163024-copy.jpg
p1242
g3
(g4
g5
(g6
(S'\x07\xe0\x04\x1d\x10\x02\n\t\xb6P'
tRp1243
S'367'
p1244
I1
ttRp1245
sVhttp://rozsavagecoaching.com/wp-content/uploads/2015/09/motivation_pictures_15.jpg
p1246
g3
(g4
g5
(g6
(S'\x07\xe0\x06\x06\r\x0f\x16\n\xa1\xe8'
tRp1247
S'43'
p1248
I2
ttRp1249
sVhttp://m.c.lnkd.licdn.com/mpr/mpr/p/1/005/09e/1ee/1ad0ecc.jpg
p1250
g3
(g4
g5
(g6
(S'\x07\xe0\x06\x06\r\x0f\x16\n\xa2\x06'
tRp1251
S'417'
p1252
I1
ttRp1253
sVhttp://www.eduleadership.org/wp-content/cash-motivation.png
p1254
g3
(g4
g5
(g6
(S'\x07\xe0\x06\x06\r\x0f\x16\n\xa1\x84'
tRp1255
S'18'
p1256
I1
ttRp1257
sVhttp://www.motivation.com/assets/uploads/img/mobile/quote-discovery.png
p1258
g3
(g4
g5
(g6
(S'\x07\xe0\t\x04\x04\x1f\x18\x02\x87s'
tRp1259
S'530'
p1260
I1
ttRp1261
sVhttp://darleneneilsen.com/wp-content/uploads/2015/12/Employee-Motivation1.jpg
p1262
g3
(g4
g5
(g6
(S'\x07\xe0\x05\x16\x14(\x0b\x03)\xf7'
tRp1263
S'370'
p1264
I1
ttRp1265
sVhttp://www.holisticwellnessproject.com/wp-content/uploads/2014/09/motivation-success.jpg
p1266
g3
(g4
g5
(g6
(S'\x07\xe0\t\x0c\t\x1b)\r\xda\xc5'
tRp1267
S'528'
p1268
I1
ttRp1269
sVhttp://www.interviewstrategies.com/wp-content/uploads/2014/09/motivation.jpg
p1270
g3
(g4
g5
(g6
(S'\x07\xe0\x01\x03\x16\x08!\x04\x00z'
tRp1271
I-1
I1
ttRp1272
sVhttp://inspiration4fitness.de/wp-content/uploads/2014/04/Motivation.jpg
p1273
g3
(g4
g5
(g6
(S'\x07\xe0\x03\x06\x0c/$\n[)'
tRp1274
S'312'
p1275
I1
ttRp1276
sVhttps://lifestyleapex.files.wordpress.com/2015/11/motivation.jpg
p1277
g3
(g4
g5
(g6
(S"\x07\xe0\x07\x01\x0f\x00'\x02Z\xe6"
tRp1278
S'184'
p1279
I1
ttRp1280
sVhttps://s-media-cache-ak0.pinimg.com/originals/f6/6c/2e/f66c2ef5d129e418a88c836aaf5f5ccd.jpg
p1281
g3
(g4
g5
(g6
(S'\x07\xe0\n\x02\x13\x18\x1b\x01Bd'
tRp1282
S'558'
p1283
I1
ttRp1284
sVhttp://f.tqn.com/y/psychology/1/W/t/M/82126956.jpg
p1285
g3
(g4
g5
(g6
(S'\x07\xe0\x04\x13\x0f;&\x01\xf3Y'
tRp1286
I-1
I1
ttRp1287
sVhttp://askmesuccess.com/wp-content/uploads/2016/02/self.jpg
p1288
g3
(g4
g5
(g6
(S'\x07\xe0\x03\x14\x0e\x1d\x16\x05\x1a\xc1'
tRp1289
S'320'
p1290
I1
ttRp1291
sVhttp://www.thestonerscookbook.com/wp-content/uploads/2016/01/Motivation-strain-type.jpg?314b25
p1292
g3
(g4
g5
(g6
(S'\x07\xe0\x04\x03\x0f\x0f0\x00\x147'
tRp1293
I-1
I1
ttRp1294
sVhttp://yuppielove.org/wp-content/uploads/2012/08/158400111863410248_YjgyjElj_f.jpg
p1295
g3
(g4
g5
(g6
(S'\x07\xe0\x03\x0e\r;\x15\x0e\x88\xb0'
tRp1296
S'308'
p1297
I1
ttRp1298
sVhttp://mypain.ca/wp-content/uploads/2016/05/Motivation-4.jpg
p1299
g3
(g4
g5
(g6
(S'\x07\xe0\t\x16\x0b*\x14\ryU'
tRp1300
S'462'
p1301
I1
ttRp1302
sVhttp://www.mrwallpaper.com/wallpapers/motivation-1280x960.jpg
p1303
g3
(g4
g5
(g6
(S'\x07\xe0\x07\x11\x15-1\x0e\xb7\x88'
tRp1304
S'191'
p1305
I1
ttRp1306
sVhttp://cdn2.hubspot.net/hub/392717/file-2447137411-jpg/motivation_1.jpg?t=1444849637922
p1307
g3
(g4
g5
(g6
(S'\x07\xdf\n\x15\x15\x14\x10\n\xe8*'
tRp1308
S'64'
p1309
I1
ttRp1310
sVhttps://standingstrongwellness.files.wordpress.com/2015/07/motivation2.jpg
p1311
g3
(g4
g5
(g6
(S'\x07\xdf\x0b\x10\x16\x11\x01\x00\x89E'
tRp1312
S'13'
p1313
I1
ttRp1314
sVhttp://www.successpraxis.com/wp-content/uploads/2016/04/Learn-the-Skill-of-Self-Motivation.jpg
p1315
g3
(g4
g5
(g6
(S'\x07\xe0\x05\x07\x15#\x0c\x06\x9a}'
tRp1316
S'375'
p1317
I1
ttRp1318
sVhttp://elearningindustry.com/wp-content/uploads/2015/05/Extrinsic-Motivation-Online-Training.jpg
p1319
g3
(g4
g5
(g6
(S'\x07\xe0\x05\x12\x12\x05\x10\x02\x87\x07'
tRp1320
I-1
I1
ttRp1321
sVhttp://www.feelgoodreads.in/wp-content/uploads/2015/12/Motivation.jpg
p1322
g3
(g4
g5
(g6
(S"\x07\xdf\x0c\x08\x10*\x1f\to'"
tRp1323
S'129'
p1324
I1
ttRp1325
sVhttp://cdn2.hubspot.net/hub/392717/file-2447137411-jpg/motivation_1.jpg?t=1441375757881
p1326
g3
(g4
g5
(g6
(S'\x07\xdf\n\x0f\x081\x19\x0b-\xaf'
tRp1327
S'42'
p1328
I1
ttRp1329
sVhttps://psychometricsforumblog.files.wordpress.com/2013/10/motivation.jpg
p1330
g3
(g4
g5
(g6
(S'\x07\xe0\x07\x11\x15-1\x0e\xb6\xed'
tRp1331
S'205'
p1332
I1
ttRp1333
sVhttp://superhd.pics/walls/anime-manga/minimalistic-motivation-quotes-2532350-1920x1080.jpg
p1334
g3
(g4
g5
(g6
(S'\x07\xe0\x05\x07\x15#\x0c\x06\x9a\xb9'
tRp1335
I-1
I1
ttRp1336
sVhttp://image.shutterstock.com/z/stock-vector-workout-gym-sport-and-fitness-motivation-vector-design-elements-on-grunge-background-257136724.jpg
p1337
g3
(g4
g5
(g6
(S'\x07\xe0\n\x02\x13\x18\x1b\x01A\xd8'
tRp1338
S'572'
p1339
I1
ttRp1340
sVhttp://www.danielgoleman.info/a/wp-content/uploads/2014/04/14e4973.jpg
p1341
g3
(g4
g5
(g6
(S'\x07\xe0\t\x1a\r\x08(\x0eIq'
tRp1342
S'497'
p1343
I1
ttRp1344
sVhttp://www.motionfitness.co.za/wp-content/uploads/2013/11/motivation-steps1.jpg
p1345
g3
(g4
g5
(g6
(S'\x07\xdf\x0c\x08\x10+#\x04\x038'
tRp1346
S'72'
p1347
I1
ttRp1348
sVhttps://static.securityintelligence.com/uploads/2016/03/Money-Is-Often-the-Motivation-Behind-Attacks-938x535.jpg
p1349
g3
(g4
g5
(g6
(S"\x07\xe0\x07\x03\x0f'\x1f\x08h~"
tRp1350
S'474'
p1351
I1
ttRp1352
sVhttp://runenc.blogs.jdnews.com/files/2015/03/MotivationMonday_HowtoMotivateYourselftoGoRunning1.jpg
p1353
g3
(g4
g5
(g6
(S'\x07\xe0\x03\x06\x0c/$\nZ\x97'
tRp1354
S'296'
p1355
I2
ttRp1356
sVhttp://omgcutethings.com/wp-content/uploads/2013/04/motivation-018-04292013.jpg
p1357
g3
(g4
g5
(g6
(S'\x07\xdf\x0c\x1a\x1362\x00\xd8^'
tRp1358
S'172'
p1359
I2
ttRp1360
sVhttp://meghashyam.com/wp-content/uploads/2016/01/motivation.jpg
p1361
g3
(g4
g5
(g6
(S'\x07\xe0\x04\x1b\x0f;3\x0b\x1b\xaf'
tRp1362
S'353'
p1363
I1
ttRp1364
sVhttp://3.bp.blogspot.com/-VaNMfHd8hc0/TlRYvBdAypI/AAAAAAAAAG4/slX4NuRcgyI/s1600/Motivation.png
p1365
g3
(g4
g5
(g6
(S'\x07\xdf\x0b\x1a\x16\x18;\x02\x8a\xfd'
tRp1366
S'105'
p1367
I1
ttRp1368
sVhttps://katherinemgotthardt.files.wordpress.com/2014/11/motivation.jpg
p1369
g3
(g4
g5
(g6
(S'\x07\xe0\x03\x0e\r;\x15\x0e\x89\xb0'
tRp1370
S'289'
p1371
I1
ttRp1372
sVhttps://oht-webcontent.s3.amazonaws.com/field/image/motivation-clip-art1.jpg
p1373
g3
(g4
g5
(g6
(S'\x07\xe0\x01\r\x16\n\x16\x0e\xd6G'
tRp1374
S'216'
p1375
I1
ttRp1376
sVhttp://www.icebreaker-bd.com/wp-content/uploads/2011/11/motivation.jpg
p1377
g3
(g4
g5
(g6
(S'\x07\xe0\x02\x11\x04\x08.\x0b\xd9q'
tRp1378
S'257'
p1379
I1
ttRp1380
sVhttp://ragtagriot.com/wp-content/uploads/2014/10/motivation41.jpg
p1381
g3
(g4
g5
(g6
(S'\x07\xe0\x03\x14\x0e\x1d\x16\x05\x1aA'
tRp1382
S'123'
p1383
I1
ttRp1384
sVhttp://thumbs.dreamstime.com/z/solution-motivation-inspiration-sign-illustration-design-over-white-background-35970696.jpg
p1385
g3
(g4
g5
(g6
(S'\x07\xe0\x01\r\x16\n\x16\x0e\xd5q'
tRp1386
S'212'
p1387
I1
ttRp1388
sVhttp://www.mattersight.com/wp-content/uploads/2014/08/personality-matters-motivation-large.jpg
p1389
g3
(g4
g5
(g6
(S'\x07\xe0\x08\x03\x00\x16+\x00\xb2\xb7'
tRp1390
I-1
I1
ttRp1391
sVhttps://cdn.shopify.com/s/files/1/0535/6917/products/motivationdemotivator.jpeg?v=1414011398
p1392
g3
(g4
g5
(g6
(S'\x07\xe0\t\x1a\r\x08(\x0eH\xd4'
tRp1393
NI1
ttRp1394
sVhttp://attitudes4innovation.com/wp-content/uploads/2015/04/wishing.jpg
p1395
g3
(g4
g5
(g6
(S'\x07\xe0\x07\x17\x175\x01\x06\\{'
tRp1396
S'60'
p1397
I1
ttRp1398
sVhttp://s1.picswalls.com/wallpapers/2015/11/21/motivation-background_103423755_288.jpg
p1399
g3
(g4
g5
(g6
(S'\x07\xe0\n\x08\x134\x0f\n\xe1\x1a'
tRp1400
S'398'
p1401
I2
ttRp1402
sVhttps://hdwallpapers.cat/wallpaper_3840x1080/test_motivation_humor_best_quote_sayings_3840x1080_hd-wallpaper-1590115.jpg
p1403
g3
(g4
g5
(g6
(S'\x07\xe0\x01\x03\x16\x08!\x04\x00\xc4'
tRp1404
I-1
I1
ttRp1405
sVhttp://www.funonline.in/wp-content/uploads/2012/01/Motivating-Quote1-e1327569468395.jpg
p1406
g3
(g4
g5
(g6
(S'\x07\xe0\x01\r\x16\n\x16\x0e\xd6D'
tRp1407
S'221'
p1408
I2
ttRp1409
sVhttp://timedummy.com/wp-content/uploads/2016/02/tips-to-boost-your-motivation.png
p1410
g3
(g4
g5
(g6
(S'\x07\xe0\t\x1c\x13\x10$\x0e|\x99'
tRp1411
S'360'
p1412
I2
ttRp1413
sVhttp://rockmyrun.files.wordpress.com/2013/12/depositphotos_2329232_original.jpg
p1414
g3
(g4
g5
(g6
(S'\x07\xe0\x03\x12\x0e\x03\x0b\x00\xec\x8f'
tRp1415
S'117'
p1416
I1
ttRp1417
sVhttps://i.ytimg.com/vi/mwBPoMnDTV8/hqdefault.jpg
p1418
g3
(g4
g5
(g6
(S'\x07\xe0\x06\x06\r\x0f\x16\n\xa1k'
tRp1419
I-1
I1
ttRp1420
sVhttp://www.picserver.org/images/highway/phrases/motivation.jpg
p1421
g3
(g4
g5
(g6
(S"\x07\xe0\x02\x19\t1'\x04\x95\x9c"
tRp1422
S'283'
p1423
I1
ttRp1424
sVhttp://recoveryhelpnow.com/wordpress/wp-content/uploads/2011/10/motivation11.jpg
p1425
g3
(g4
g5
(g6
(S'\x07\xe0\x04\x13\x0f;&\x01\xf2\xb8'
tRp1426
S'146'
p1427
I1
ttRp1428
sVhttps://wallpaperscraft.com/image/shakespeare_time_title_motivation_85147_2560x1440.jpg
p1429
g3
(g4
g5
(g6
(S'\x07\xe0\n\x08\x134\x0f\n\xe1<'
tRp1430
I-1
I1
ttRp1431
sVhttp://salveopartners.com/wp-content/uploads/2014/07/Motivation-Color-2.jpg
p1432
g3
(g4
g5
(g6
(S'\x07\xe0\x08\x13\x01\r\x01\x0e\x1c\x93'
tRp1433
S'49'
p1434
I1
ttRp1435
sVhttps://usercontent2.hubstatic.com/7814843_f520.jpg
p1436
g3
(g4
g5
(g6
(S'\x07\xe0\x08\r\x006\r\x01f\xb4'
tRp1437
I-1
I1
ttRp1438
sVhttps://mckayschooleducators.files.wordpress.com/2014/03/image-27k3ar4.jpg
p1439
g3
(g4
g5
(g6
(S'\x07\xe0\t\x16\x0b*\x14\rz\x87'
tRp1440
S'156'
p1441
I1
ttRp1442
sVhttp://vonblancofitness.com/wp-content/uploads/2012/06/36-lion-vs-sheep-motivation.png
p1443
g3
(g4
g5
(g6
(S'\x07\xe0\t\x16\x0b*\x14\rz\xa1'
tRp1444
S'121'
p1445
I2
ttRp1446
sVhttp://kurld.com/images/motivation-wallpapers/motivation-wallpapers-14.jpg
p1447
g3
(g4
g5
(g6
(S'\x07\xe0\n\x08\x134\x0f\n\xe1Z'
tRp1448
NI1
ttRp1449
sVhttp://www.joegym.ca/wp-content/uploads/2013/11/Gym-Motivation.jpg
p1450
g3
(g4
g5
(g6
(S'\x07\xe0\x04\x03\x0f\x0f0\x00\x15\xc4'
tRp1451
S'133'
p1452
I2
ttRp1453
sVhttp://blog.vistage.com/wp-content/uploads/2013/07/Employee-Motivation.jpg
p1454
g3
(g4
g5
(g6
(S'\x07\xe0\x01\r\x16\n\x16\x0e\xd6<'
tRp1455
I-1
I1
ttRp1456
sVhttp://www.losingweightdone.com/wp-content/uploads/2014/06/motivation-succeed-964054.jpg
p1457
g3
(g4
g5
(g6
(S'\x07\xe0\x08\x1b\x0208\x00\xaaT'
tRp1458
S'368'
p1459
I1
ttRp1460
sVhttps://s-media-cache-ak0.pinimg.com/736x/56/56/1d/56561d6f3d6179224c667509cfe9d4cf.jpg
p1461
g3
(g4
g5
(g6
(S'\x07\xe0\t\x1a\r\x08(\x0eK1'
tRp1462
S'460'
p1463
I1
ttRp1464
sVhttp://www.mrwallpaper.com/wallpapers/motivation-1600x900.jpg
p1465
g3
(g4
g5
(g6
(S'\x07\xe0\x01\r\x16\n\x16\x0e\xd6o'
tRp1466
S'219'
p1467
I1
ttRp1468
sVhttp://topperguru.com/wp-content/uploads/2015/09/Motivation-students-bacho-follows-steps-tips-images-full-details.jpg
p1469
g3
(g4
g5
(g6
(S'\x07\xe0\t\x16\x0b*\x14\rz\xcf'
tRp1470
S'311'
p1471
I1
ttRp1472
sVhttp://image.shutterstock.com/z/stock-vector-push-yourself-because-no-one-else-is-going-to-do-it-for-you-creative-grunge-motivation-quote-198183143.jpg
p1473
g3
(g4
g5
(g6
(S'\x07\xe0\n\x08\x134\x0f\n\xe1\x0b'
tRp1474
S'234'
p1475
I1
ttRp1476
sVhttp://www.shredfat.com/wp-content/uploads/2012/02/Motivation.jpg
p1477
g3
(g4
g5
(g6
(S'\x07\xdf\x0b\x08\x16\n\x12\x00V\r'
tRp1478
S'50'
p1479
I1
ttRp1480
sVhttp://mysolutionsmagazine.com/wp-content/uploads/2015/07/Are_You_Motivating_Your_Team.jpg
p1481
g3
(g4
g5
(g6
(S'\x07\xe0\x07\x11\x15-1\x0e\xb6\xb4'
tRp1482
S'435'
p1483
I1
ttRp1484
sVhttps://i.ytimg.com/vi/nPcoew6oXqQ/maxresdefault.jpg
p1485
g3
(g4
g5
(g6
(S'\x07\xe0\n\x08\x134\x0f\n\xe0\xa5'
tRp1486
S'560'
p1487
I1
ttRp1488
sVhttp://www.wallpaperswide.us/wp-content/uploads/2016/02/believe-in-yourself-motivation-wallpaper.jpg
p1489
g3
(g4
g5
(g6
(S'\x07\xe0\n\x02\x13\x18\x1b\x01BQ'
tRp1490
S'566'
p1491
I1
ttRp1492
sVhttps://i.ytimg.com/vi/sWlXsEj1RpM/maxresdefault.jpg
p1493
g3
(g4
g5
(g6
(S'\x07\xe0\x07\x11\x15-1\x0e\xb6\xcf'
tRp1494
S'235'
p1495
I1
ttRp1496
sVhttp://www.trophyfitnessclub.com/wp-content/uploads/2014/07/health-and-fitness-motivation-by-elisa.jpg
p1497
g3
(g4
g5
(g6
(S'\x07\xe0\x07\x17\x175\x01\x06\\Z'
tRp1498
S'336'
p1499
I1
ttRp1500
sVhttps://shechive.files.wordpress.com/2016/04/daily-motivation-1014.jpg?quality=80&strip=info&w=600
p1501
g3
(g4
g5
(g6
(S'\x07\xe0\x08\r\x006\r\x01f\x15'
tRp1502
S'406'
p1503
I2
ttRp1504
sVhttp://previews.123rf.com/images/mazirama/mazirama1304/mazirama130400173/19255219-Motivation-text-Do-it-with-a-hand-pointing-to-it-on-a-blackboard-Stock-Photo.jpg
p1505
g3
(g4
g5
(g6
(S'\x07\xe0\x07\x11\x15-1\x0e\xb6\xde'
tRp1506
S'439'
p1507
I1
ttRp1508
sVhttp://4.bp.blogspot.com/-FdG9amUfdGY/T2uRisQggYI/AAAAAAAABbo/3PLiPgh4U0s/s1600/motivation+2.JPG
p1509
g3
(g4
g5
(g6
(S'\x07\xe0\t\x0c\t\x1b)\r\xda\x95'
tRp1510
S'540'
p1511
I2
ttRp1512
sVhttps://a2ua.com/motivation/motivation-010.jpg
p1513
g3
(g4
g5
(g6
(S'\x07\xe0\n\x02\x13\x18\x1b\x01A\x97'
tRp1514
I-1
I1
ttRp1515
sVhttps://writetojoncook.files.wordpress.com/2015/05/you-cant-create-motivation-writetojoncook.jpg
p1516
g3
(g4
g5
(g6
(S'\x07\xe0\x02\x11\x04\x08.\x0b\xd98'
tRp1517
S'16'
p1518
I1
ttRp1519
sVhttp://blogs.ubc.ca/amanthind/files/2015/11/Employee-Motivation1.jpg
p1520
g3
(g4
g5
(g6
(S'\x07\xe0\x04\x13\x0f;&\x01\xf2y'
tRp1521
S'245'
p1522
I1
ttRp1523
sVhttps://ka-perseus-images.s3.amazonaws.com/8fad5a85019926d9e667978a1bc26001e32f616d.png
p1524
g3
(g4
g5
(g6
(S'\x07\xe0\n\x08\x134\x0f\n\xe0\xd3'
tRp1525
S'388'
p1526
I2
ttRp1527
sVhttp://www.spotebi.com/wp-content/uploads/2015/03/be-confident-workout-motivation-quote.jpg
p1528
g3
(g4
g5
(g6
(S'\x07\xe0\n\x08\x134\x0f\n\xe0\xd6'
tRp1529
I-1
I1
ttRp1530
sVhttp://wyseproperties.com/wp-content/uploads/sites/697/2015/04/motivate-yourself-71.jpg
p1531
g3
(g4
g5
(g6
(S"\x07\xe0\x02\x19\t1'\x04\x95 "
tRp1532
I-1
I1
ttRp1533
sVhttps://www.motivation.hu/sites/default/files/imagecache/slide/motiv-missionpossible%202-web.JPG
p1534
g3
(g4
g5
(g6
(S'\x07\xe0\x06\x17\n\x08\x12\r\xbe\xbb'
tRp1535
S'277'
p1536
I1
ttRp1537
sVhttps://s-media-cache-ak0.pinimg.com/originals/c7/8f/ff/c78fff456c24c3fa3042b973660f979d.jpg
p1538
g3
(g4
g5
(g6
(S'\x07\xe0\n\x08\x134\x0f\n\xe0\xde'
tRp1539
S'552'
p1540
I1
ttRp1541
sVhttps://img1.steemit.com/0x0/https://i.ytimg.com/vi/YpSi2rW4oHk/maxresdefault.jpg
p1542
g3
(g4
g5
(g6
(S'\x07\xe0\n\x08\x134\x0f\n\xe0\xe2'
tRp1543
S'505'
p1544
I1
ttRp1545
sVhttp://previews.123rf.com/images/alexmillos/alexmillos1404/alexmillos140400397/27389510-motivation-tree-illustration-design-over-a-white-background-Stock-Vector.jpg
p1546
g3
(g4
g5
(g6
(S'\x07\xe0\x03\x14\x0e\x1d\x16\x05\x1b0'
tRp1547
S'144'
p1548
I1
ttRp1549
sVhttp://f.fastcompany.net/multisite_files/fastcompany/poster/2014/02/3026089-poster-p-1-ask-the-experts-how-do-i-find-the-motivation-to-get-to-the-next-stage-of-my.jpg
p1550
g3
(g4
g5
(g6
(S'\x07\xe0\x02\t\x00\x10\x08\x05\x07\xe2'
tRp1551
S'12'
p1552
I1
ttRp1553
sVhttp://ragtagriot.com/wp-content/uploads/2015/01/motivation-18.jpg
p1554
g3
(g4
g5
(g6
(S'\x07\xdf\x0c\x08\x10+#\x04\x03!'
tRp1555
S'66'
p1556
I1
ttRp1557
sVhttp://sm-images-cdn.suburbanmen.com/wp-content/uploads/2015/06/monday-workout-motivation-20150622-3.jpg
p1558
g3
(g4
g5
(g6
(S'\x07\xe0\x04\t\x0f/\x1a\x02\xe8\xad'
tRp1559
S'303'
p1560
I1
ttRp1561
sVhttp://themuddpartnership.com/wp-content/uploads/2013/09/The-Mudd-Partnership-How-Do-You-Engage-and-Motivate.png
p1562
g3
(g4
g5
(g6
(S'\x07\xe0\x01\x1d\x17\x1f0\x0f?m'
tRp1563
S'224'
p1564
I2
ttRp1565
sVhttps://www.indoindians.com/wp-content/uploads/2015/08/Motivation.jpg?dc8e95
p1566
g3
(g4
g5
(g6
(S'\x07\xe0\x07\x17\x175\x01\x06\\\x8c'
tRp1567
S'466'
p1568
I1
ttRp1569
sVhttp://edudemic.com/wp-content/uploads/2013/04/motivation-board.jpg
p1570
g3
(g4
g5
(g6
(S'\x07\xdf\n\x0c\x13\x0e7\x00U\xd1'
tRp1571
S'8'
I2
ttRp1572
sVhttp://cdn.shopify.com/s/files/1/0535/6917/products/motivationdemotivator.jpeg?v=1414011398
p1573
g3
(g4
g5
(g6
(S'\x07\xe0\t\x16\x0b*\x14\ry\xee'
tRp1574
S'99'
p1575
I2
ttRp1576
sVhttps://i.ytimg.com/vi/j72ofovvrX0/maxresdefault.jpg
p1577
g3
(g4
g5
(g6
(S'\x07\xe0\n\x02\x13\x18\x1b\x01A\xec'
tRp1578
S'555'
p1579
I1
ttRp1580
sVhttp://e2ua.com/data/wallpapers/172/WDF_2116921.jpg
p1581
g3
(g4
g5
(g6
(S'\x07\xe0\x05\x16\x14(\x0b\x03)L'
tRp1582
I-1
I1
ttRp1583
sVhttps://www.workitdaily.com/wp-content/uploads/2012/02/job-search-motivation.jpg
p1584
g3
(g4
g5
(g6
(S'\x07\xe0\t\x16\x0b*\x14\ry\x9e'
tRp1585
S'547'
p1586
I1
ttRp1587
sVhttps://pixabay.com/static/uploads/photo/2014/06/04/08/08/motivation-361783_640.jpg
p1588
g3
(g4
g5
(g6
(S'\x07\xe0\x08\x03\x00\x16+\x00\xb2\xd4'
tRp1589
S'85'
p1590
I1
ttRp1591
sVhttp://supervisoressentials.vantagepath.com/wp-content/uploads/2012/12/motivating_employees_how_to_become_a_motivating_supervisor.jpg
p1592
g3
(g4
g5
(g6
(S'\x07\xe0\t\x0c\t\x1b)\r\xdb!'
tRp1593
S'532'
p1594
I1
ttRp1595
sVhttp://ragtagriot.com/wp-content/uploads/2015/02/motivation-20.jpg
p1596
g3
(g4
g5
(g6
(S'\x07\xe0\x01\r\x16\n\x16\x0e\xd6h'
tRp1597
S'199'
p1598
I2
ttRp1599
sVhttp://image.slidesharecdn.com/salesmotivation-120131090658-phpapp01/95/sales-motivation-22-638.jpg?cb=1422630996
p1600
g3
(g4
g5
(g6
(S'\x07\xe0\x06\x06\r\x0f\x16\n\xa1\xe4'
tRp1601
S'405'
p1602
I1
ttRp1603
sVhttp://scitechconnect.elsevier.com/wp-content/uploads/2015/04/motivation-sun.jpg
p1604
g3
(g4
g5
(g6
(S'\x07\xdf\x0c\x08\x10*\x1f\to\r'
tRp1605
S'25'
p1606
I1
ttRp1607
sVhttp://www.sewcialbutterfly.com/wp-content/uploads/2011/09/MotivationMonday92611.jpg
p1608
g3
(g4
g5
(g6
(S'\x07\xdf\x0c\x1a\x1362\x00\xd8\xed'
tRp1609
S'177'
p1610
I1
ttRp1611
sVhttp://science-all.com/images/wallpapers/motivation-wallpaper/motivation-wallpaper-16.jpg
p1612
g3
(g4
g5
(g6
(S'\x07\xe0\x08\x03\x00\x16+\x00\xb31'
tRp1613
S'496'
p1614
I1
ttRp1615
sVhttp://www.emekanobis.com/wp-content/uploads/2015/07/Motivation-.jpg
p1616
g3
(g4
g5
(g6
(S'\x07\xe0\x06\x06\r\x0f\x16\n\xa2\x01'
tRp1617
S'413'
p1618
I1
ttRp1619
sVhttp://accent-technologies.com/wp-content/uploads/2015/09/sales-team-motivation.jpg
p1620
g3
(g4
g5
(g6
(S'\x07\xe0\x04\x13\x0f;&\x01\xf3)'
tRp1621
S'286'
p1622
I1
ttRp1623
sVhttp://www.lakediary.com/wp-content/uploads/2016/03/motivation.jpg
p1624
g3
(g4
g5
(g6
(S'\x07\xe0\t\x0c\t\x1b)\r\xdap'
tRp1625
I-1
I1
ttRp1626
sVhttp://www.mrwallpaper.com/wallpapers/motivation-2560x1600.jpg
p1627
g3
(g4
g5
(g6
(S'\x07\xe0\n\x08\x134\x0f\n\xe1?'
tRp1628
S'361'
p1629
I1
ttRp1630
sVhttp://buddymantra.com/wp-content/uploads/2015/12/motivation.jpg
p1631
g3
(g4
g5
(g6
(S'\x07\xe0\x01\x1f\x17/\x06\x04\xe9u'
tRp1632
S'218'
p1633
I1
ttRp1634
sVhttps://media.licdn.com/mpr/mpr/shrinknp_800_800/AAEAAQAAAAAAAAOOAAAAJGYzZDZhYWJjLTM2Y2ItNGJmMi1iZGM3LWIwODMyMWQ3MjQwZQ.jpg
p1635
g3
(g4
g5
(g6
(S'\x07\xe0\x03\x02\t51\x0b\xf8\x04'
tRp1636
S'7'
I1
ttRp1637
sVhttps://motivationearth.files.wordpress.com/2016/03/motivation2.jpg
p1638
g3
(g4
g5
(g6
(S'\x07\xe0\x05\x07\x15#\x0c\x06\x9b\x01'
tRp1639
S'344'
p1640
I1
ttRp1641
sVhttp://www.thecompulab.com/wp-content/uploads/2015/10/motivation-1.jpg
p1642
g3
(g4
g5
(g6
(S'\x07\xe0\x08\x03\x00\x16+\x00\xb3\x1a'
tRp1643
S'265'
p1644
I1
ttRp1645
sVhttp://www.positivekinetics.co.uk/wp-content/uploads/2015/06/motivation-ebook-cover.jpg
p1646
g3
(g4
g5
(g6
(S'\x07\xe0\x02\x0f\x03\x08\x19\r&\xfc'
tRp1647
S'254'
p1648
I1
ttRp1649
sVhttps://seanwes.com/wp-content/uploads/2014/02/motivation-2.jpg
p1650
g3
(g4
g5
(g6
(S'\x07\xe0\t\x0c\t\x1b)\r\xda\xab'
tRp1651
S'489'
p1652
I1
ttRp1653
sVhttp://geniusquotes.org/wp-content/uploads/2014/02/Motivation-words-with-dreams.jpg
p1654
g3
(g4
g5
(g6
(S'\x07\xe0\x03\x06\x0c/$\n[%'
tRp1655
I-1
I1
ttRp1656
sVhttp://drjohngkuna.com/communities/4/000/001/347/024/images/11926095.jpg
p1657
g3
(g4
g5
(g6
(S"\x07\xe0\x07\x01\x0f\x00'\x02Z\xe2"
tRp1658
S'227'
p1659
I1
ttRp1660
sVhttp://havingtime.com/wp-content/uploads/2012/12/8318295525_726fbe9606_b.jpg
p1661
g3
(g4
g5
(g6
(S'\x07\xe0\x07\x11\x15-1\x0e\xb7~'
tRp1662
S'185'
p1663
I1
ttRp1664
sVhttp://thumb9.shutterstock.com/display_pic_with_logo/1596431/309246776/stock-vector-in-the-end-we-only-regret-the-chances-we-didn-t-take-inspiring-motivation-quote-design-vector-309246776.jpg
p1665
g3
(g4
g5
(g6
(S'\x07\xe0\x07\x07\x10\x04\x1e\x0bx\xfe'
tRp1666
S'395'
p1667
I1
ttRp1668
sVhttp://stevekrivda.com/wp-content/uploads/2016/04/Inspiration-vs-Motivation.jpg
p1669
g3
(g4
g5
(g6
(S'\x07\xe0\n\x08\x134\x0f\n\xe1s'
tRp1670
S'403'
p1671
I1
ttRp1672
sVhttp://s3.weddbook.com/t4/2/0/5/2053611/fitness-motivation-work-that-body-pinterest.jpg
p1673
g3
(g4
g5
(g6
(S'\x07\xe0\x03\x06\x0c/$\nZ3'
tRp1674
S'119'
p1675
I1
ttRp1676
sVhttps://prod-academy-wp-content-uploads.s3.amazonaws.com/2015/03/MOT_BecomeMore.jpg
p1677
g3
(g4
g5
(g6
(S'\x07\xe0\t\x1c\x13\x10$\x0e{>'
tRp1678
S'520'
p1679
I1
ttRp1680
sVhttp://theunboundedspirit.com/wp-content/uploads/2014/12/motivated-man.jpg
p1681
g3
(g4
g5
(g6
(S'\x07\xe0\x04\t\x0f/\x1a\x02\xe9\x10'
tRp1682
I-1
I1
ttRp1683
sVhttps://pixabay.com/static/uploads/photo/2016/02/03/12/12/motivation-1176916_960_720.jpg
p1684
g3
(g4
g5
(g6
(S'\x07\xe0\t\x0c\t\x1b)\r\xdac'
tRp1685
S'341'
p1686
I1
ttRp1687
sVhttp://www.drjoedispenza.com/blog/wp-content/uploads/2016/04/motivate.jpg
p1688
g3
(g4
g5
(g6
(S'\x07\xe0\n\x08\x134\x0f\n\xe0\x96'
tRp1689
S'354'
p1690
I1
ttRp1691
sVhttp://previews.123rf.com/images/artiomp/artiomp0909/artiomp090900092/5563933-direction-sign-tree-of-success-motivation-and-career-Stock-Photo.jpg
p1692
g3
(g4
g5
(g6
(S'\x07\xe0\x06\x1e\n0\x1b\x01\x8dZ'
tRp1693
S'441'
p1694
I1
ttRp1695
sVhttp://justearnmoneyonline.com/wp-content/uploads/2015/10/Motivation-photo-for-blog-.jpg
p1696
g3
(g4
g5
(g6
(S'\x07\xe0\x06\x1e\n0\x1b\x01\x8do'
tRp1697
S'433'
p1698
I2
ttRp1699
sVhttp://innovativelearning.com/educational_psychology/images/internalizingmotivation.jpg
p1700
g3
(g4
g5
(g6
(S'\x07\xe0\x03\x1c\x0e .\x0f8O'
tRp1701
S'256'
p1702
I1
ttRp1703
sVhttps://pbs.twimg.com/profile_images/496786612265566208/A0bPRbBz.png
p1704
g3
(g4
g5
(g6
(S'\x07\xdf\n\x14\x15\x13,\ra\xf5'
tRp1705
S'61'
p1706
I1
ttRp1707
sVhttps://tstoaddicts.files.wordpress.com/2014/03/einstein.jpg
p1708
g3
(g4
g5
(g6
(S'\x07\xe0\x08\x03\x00\x16+\x00\xb2Y'
tRp1709
S'86'
p1710
I1
ttRp1711
sVhttp://believeinthebeast.com/wp-content/uploads/2015/09/shit-gets-real.jpg
p1712
g3
(g4
g5
(g6
(S'\x07\xdf\x0c\x08\x10*\x1f\to2'
tRp1713
S'30'
p1714
I2
ttRp1715
sVhttp://list.abodo.com/wp-content/uploads/2014/11/Motivation-e1384914360703.png
p1716
g3
(g4
g5
(g6
(S'\x07\xdf\x0b\x1a\x16\x18;\x02\x8a\xbf'
tRp1717
S'88'
p1718
I1
ttRp1719
sVhttps://laetitiastuder.files.wordpress.com/2014/12/motivation.jpg
p1720
g3
(g4
g5
(g6
(S'\x07\xe0\x03\x14\x0e\x1d\x16\x05\x1bE'
tRp1721
S'197'
p1722
I1
ttRp1723
sVhttps://i.ytimg.com/vi/YpSi2rW4oHk/maxresdefault.jpg
p1724
g3
(g4
g5
(g6
(S'\x07\xe0\x07\x17\x175\x01\x06\\Q'
tRp1725
S'74'
p1726
I1
ttRp1727
sVhttps://quotefancy.com/media/wallpaper/3840x2160/14657-Jim-Rohn-Quote-Motivation-alone-is-not-enough-If-you-have-an-idiot.jpg
p1728
g3
(g4
g5
(g6
(S'\x07\xe0\n\x08\x134\x0f\n\xe0\xda'
tRp1729
S'517'
p1730
I1
ttRp1731
sVhttp://www.motivationalmemo.com/wp-content/uploads/2011/10/motivation.jpg
p1732
g3
(g4
g5
(g6
(S'\x07\xe0\x06\x06\r\x0f\x16\n\xa1\x8d'
tRp1733
I-1
I1
ttRp1734
sVhttps://i.ytimg.com/vi/04S9a8pcPTM/maxresdefault.jpg
p1735
g3
(g4
g5
(g6
(S'\x07\xe0\t\x1c\x13\x10$\x0e{\xc3'
tRp1736
S'327'
p1737
I1
ttRp1738
sVhttp://welloffforever.com/wp-content/uploads/2016/04/michael-jordan-failure-832x350.jpg
p1739
g3
(g4
g5
(g6
(S'\x07\xe0\x08\r\x006\r\x01fr'
tRp1740
S'423'
p1741
I2
ttRp1742
sVhttp://wayoflifebootcamp.com/wp-content/uploads/2016/04/bbbofj.jpg
p1743
g3
(g4
g5
(g6
(S'\x07\xe0\n\x08\x134\x0f\n\xe1N'
tRp1744
S'378'
p1745
I1
ttRp1746
sVhttps://spotio.com/blog/wp-content/uploads/2015/12/Motivation-Main-Image-1138x493.jpg
p1747
g3
(g4
g5
(g6
(S'\x07\xe0\t\x04\x04\x1f\x18\x02\x86\xc1'
tRp1748
S'535'
p1749
I1
ttRp1750
sVhttps://ip.bitcointalk.org/?u=http%3A%2F%2Fwww.mrwallpaper.com%2Fwallpapers%2Fmotivation-1280x1024.jpg&t=565&c=hiYi7LhOy9vEOQ
p1751
g3
(g4
g5
(g6
(S'\x07\xe0\x06\x1b\r+\x0f\x03aR'
tRp1752
S'436'
p1753
I1
ttRp1754
sVhttp://www.mrwallpaper.com/wallpapers/motivation-2560x1440.jpg
p1755
g3
(g4
g5
(g6
(S'\x07\xe0\n\x08\x134\x0f\n\xe1\x02'
tRp1756
S'578'
p1757
I1
ttRp1758
sVhttp://fitnessedge.net/wp-content/uploads/2016/03/Weight-Loss-Motivation-Patience.jpg
p1759
g3
(g4
g5
(g6
(S'\x07\xe0\x08\x11\x01\x05\n\x04f\x01'
tRp1760
S'459'
p1761
I1
ttRp1762
sVhttp://blogs.rhsmith.umd.edu/creatingvalue/files/2012/12/Motivation-Clip-Art1.jpg
p1763
g3
(g4
g5
(g6
(S'\x07\xe0\x01\x03\x16\x08!\x04\x00g'
tRp1764
I-1
I1
ttRp1765
sVhttps://jomatthewsfitness.files.wordpress.com/2014/06/daily-motivation-910.jpg
p1766
g3
(g4
g5
(g6
(S'\x07\xdf\x0b\x1a\x16\x18;\x02\x8b\x1f'
tRp1767
S'38'
p1768
I1
ttRp1769
sVhttp://bestquote2015.co/wp-content/uploads/2015/11/self-motivation-quotes-for-best-self-motivation-quotes-collections-2015-171.jpg
p1770
g3
(g4
g5
(g6
(S'\x07\xe0\x01\x03\x16\x08!\x04\x00\xaf'
tRp1771
S'206'
p1772
I1
ttRp1773
sVhttps://i.ytimg.com/vi/XNj_KDPp_iM/hqdefault.jpg
p1774
g3
(g4
g5
(g6
(S'\x07\xe0\t\x1a\r\x08(\x0eJO'
tRp1775
S'427'
p1776
I1
ttRp1777
sVhttp://elearningindustry.com/wp-content/uploads/2015/05/Intrinsic-Motivation-Online-Training.jpg
p1778
g3
(g4
g5
(g6
(S'\x07\xe0\x04\x13\x0f;&\x01\xf2\xf9'
tRp1779
I-1
I1
ttRp1780
sVhttp://inspiredhygiene.com/wp-content/uploads/2016/02/got-motivation.jpg
p1781
g3
(g4
g5
(g6
(S"\x07\xe0\x07\x01\x0f\x00'\x02Zt"
tRp1782
S'348'
p1783
I1
ttRp1784
sVhttp://boomboxcrossfit.com/wp-content/uploads/2013/12/motivationmonday.jpg
p1785
g3
(g4
g5
(g6
(S'\x07\xe0\x03\x02\t51\x0b\xf7\xdf'
tRp1786
S'243'
p1787
I1
ttRp1788
sVhttp://kozzaja.com/wp-content/uploads/2016/06/sales-team-motivation.jpg
p1789
g3
(g4
g5
(g6
(S'\x07\xe0\t\x16\x0b*\x14\rz@'
tRp1790
S'549'
p1791
I1
ttRp1792
sVhttps://defyingobesity.files.wordpress.com/2014/10/motivation.jpg
p1793
g3
(g4
g5
(g6
(S'\x07\xe0\x05\x18\x15,\x19\r\xe6%'
tRp1794
S'390'
p1795
I1
ttRp1796
sVhttp://artiden.com/img/motivation-i-will.jpg
p1797
g3
(g4
g5
(g6
(S'\x07\xe0\n\x08\x134\x0f\n\xe0\xff'
tRp1798
S'9'
I2
ttRp1799
sVhttp://timedummy.com/wp-content/uploads/2016/02/tips-to-boost-your-motivation-1170x460.png
p1800
g3
(g4
g5
(g6
(S'\x07\xe0\t\x0c\t\x1b)\r\xda\xed'
tRp1801
S'305'
p1802
I1
ttRp1803
sVhttp://s3.amazonaws.com/media.eremedia.com/uploads/2012/10/15180215/Motivation11.jpg
p1804
g3
(g4
g5
(g6
(S"\x07\xe0\x02\x19\t1'\x04\x95\xa0"
tRp1805
S'264'
p1806
I1
ttRp1807
sVhttp://300poundsandrunning.com/blog/wp-content/uploads/Whats-Your-Motivation.jpg
p1808
g3
(g4
g5
(g6
(S'\x07\xe0\t\x16\x0b*\x14\rz\n'
tRp1809
S'107'
p1810
I1
ttRp1811
sVhttps://media.licdn.com/mpr/mpr/p/5/005/072/241/03eaca9.jpg
p1812
g3
(g4
g5
(g6
(S'\x07\xdf\n\x15\x15\x14\x10\n\xe8\x1a'
tRp1813
S'39'
p1814
I1
ttRp1815
sVhttp://users.rowan.edu/~sheppa86/motivation1.jpg
p1816
g3
(g4
g5
(g6
(S'\x07\xe0\t\x1a\r\x08(\x0eI\x02'
tRp1817
S'118'
p1818
I1
ttRp1819
sVhttp://cliparts.co/cliparts/pT5/oRd/pT5oRdyac.jpg
p1820
g3
(g4
g5
(g6
(S'\x07\xe0\n\x08\x134\x0f\n\xe1a'
tRp1821
NI1
ttRp1822
sVhttp://deliveringhappiness.com/wp-content/uploads/2013/07/bigstock-motivational-concept-got-mot-30228101.jpg
p1823
g3
(g4
g5
(g6
(S'\x07\xe0\n\x08\x134\x0f\n\xe1d'
tRp1824
I-1
I1
ttRp1825
sVhttps://shechive.files.wordpress.com/2016/02/daily-motivation-910.jpg?quality=80&strip=info&w=600&h=399&crop=1
p1826
g3
(g4
g5
(g6
(S"\x07\xe0\x02\x19\t1'\x04\x95\x8d"
tRp1827
S'281'
p1828
I1
ttRp1829
sVhttps://owbaz.com/blog/wp-content/uploads/2016/02/Work-Motivation.jpg
p1830
g3
(g4
g5
(g6
(S'\x07\xe0\x06\x17\n\x08\x12\r\xbe\xaa'
tRp1831
I-1
I1
ttRp1832
sVhttp://closed-copy.flywheelsites.com/wp-content/uploads/2014/11/motivation.jpg
p1833
g3
(g4
g5
(g6
(S'\x07\xe0\x04\x13\x0f;&\x01\xf2^'
tRp1834
S'330'
p1835
I1
ttRp1836
sVhttp://cdn.wallpapersafari.com/62/11/qmlkDf.png
p1837
g3
(g4
g5
(g6
(S'\x07\xe0\n\x08\x134\x0f\n\xe0t'
tRp1838
NI1
ttRp1839
sVhttp://blogs-images.forbes.com/vanessaloder/files/2015/02/motivation-square.jpg
p1840
g3
(g4
g5
(g6
(S'\x07\xe0\t\x16\x0b*\x14\rz\x95'
tRp1841
S'456'
p1842
I1
ttRp1843
sVhttp://cdn2.omidoo.com/sites/default/files/imagecache/full_width/images/bydate/20140406/shutterstock155628296.jpg
p1844
g3
(g4
g5
(g6
(S'\x07\xe0\x08\x03\x00\x16+\x00\xb2^'
tRp1845
I-1
I1
ttRp1846
sVhttp://www.zastavki.com/pictures/originals/2014/_Be_motivated_and_remain_so_089723_.jpg
p1847
g3
(g4
g5
(g6
(S'\x07\xe0\n\x02\x13\x18\x1b\x01A\\'
tRp1848
S'559'
p1849
I1
ttRp1850
sVhttp://www.mycity-web.com/wp-content/uploads/2016/01/image01.jpg
p1851
g3
(g4
g5
(g6
(S'\x07\xe0\t\x1c\x13\x10$\x0e{\xf9'
tRp1852
I-1
I1
ttRp1853
sVhttp://biologydecoded.com/wp-content/uploads/2015/01/tumblr_murtxoK9a21rbyu6jo1_1280.jpg
p1854
g3
(g4
g5
(g6
(S'\x07\xdf\x0b\x17\x16\x16\t\r\xb8y'
tRp1855
I-1
I1
ttRp1856
sVhttp://www.teamafterburn.com/wp-content/uploads/2016/05/motivation.jpg
p1857
g3
(g4
g5
(g6
(S'\x07\xe0\x08\r\x006\r\x01f\xbc'
tRp1858
S'384'
p1859
I1
ttRp1860
sVhttps://pixabay.com/static/uploads/photo/2016/05/19/12/44/motivation-1402852_960_720.jpg
p1861
g3
(g4
g5
(g6
(S'\x07\xe0\t\x0c\t\x1b)\r\xda~'
tRp1862
S'531'
p1863
I1
ttRp1864
sVhttp://www.motivateplay.com/wp-content/uploads/2013/04/motivation.jpg
p1865
g3
(g4
g5
(g6
(S'\x07\xe0\x08\x03\x00\x16+\x00\xb2\x80'
tRp1866
S'469'
p1867
I1
ttRp1868
sVhttps://s3.amazonaws.com/tribeca_cms_production/uploads/film/photo_1/53208b38c07f5df7d20008a9/Zero_Motivation_web_1.jpg
p1869
g3
(g4
g5
(g6
(S'\x07\xe0\x05\x07\x15#\x0c\x06\x9a\x8d'
tRp1870
S'362'
p1871
I1
ttRp1872
sVhttp://img05.deviantart.net/761e/i/2005/018/f/a/motivation_for_school_by_pcxrs.jpg
p1873
g3
(g4
g5
(g6
(S'\x07\xe0\x01\r\x16\n\x16\x0e\xd6\x03'
tRp1874
S'215'
p1875
I1
ttRp1876
sVhttp://pantheonuk.org/wp-content/uploads/2013/10/tips-creating-workplace-motivation.jpg
p1877
g3
(g4
g5
(g6
(S'\x07\xdf\x0b\x1a\x16\x18;\x02\x8a\xd1'
tRp1878
S'22'
p1879
I1
ttRp1880
sVhttp://www.eleganceandenchantment.com/wp-content/uploads/2015/12/Featured-Images-Motivation-Monday-104-500x330.jpg
p1881
g3
(g4
g5
(g6
(S'\x07\xe0\x02\t\x00\x10\x08\x05\x07\x94'
tRp1882
S'253'
p1883
I1
ttRp1884
sVhttp://blog.alexdevero.com/wp-content/uploads/2015/10/Motivation-blog.jpg
p1885
g3
(g4
g5
(g6
(S'\x07\xe0\n\x02\x13\x18\x1b\x01B$'
tRp1886
S'523'
p1887
I1
ttRp1888
sVhttp://kurld.com/images/wallpapers/motivation-pics/motivation-pics-20.jpg
p1889
g3
(g4
g5
(g6
(S'\x07\xe0\n\x08\x134\x0f\n\xe0\xfb'
tRp1890
S'556'
p1891
I1
ttRp1892
sVhttp://teravertical.com/wp-content/uploads/2015/11/motivation.jpg
p1893
g3
(g4
g5
(g6
(S'\x07\xdf\x0b\x17\x16\x16\t\r\xb8X'
tRp1894
S'92'
p1895
I1
ttRp1896
sVhttp://www.candoprojects.de/wp-content/uploads/2013/11/Motivation-WordCloud.jpg
p1897
g3
(g4
g5
(g6
(S'\x07\xe0\x01\x03\x16\x029\x05\xc4\x7f'
tRp1898
S'213'
p1899
I1
ttRp1900
sVhttp://youcandomore1.files.wordpress.com/2013/04/motivation.jpg
p1901
g3
(g4
g5
(g6
(S'\x07\xe0\x01\x1d\x17\x1f0\x0f?~'
tRp1902
S'104'
p1903
I1
ttRp1904
sVhttps://cdn.psychologytoday.com/sites/default/files/styles/image-article_inline_full/public/blogs/110287/2014/08/156882-161051.jpg?itok=jHPwbZPa
p1905
g3
(g4
g5
(g6
(S'\x07\xe0\x08\x03\x00\x16+\x00\xb2\xa8'
tRp1906
I-1
I1
ttRp1907
sVhttp://www.mortylefkoe.com/wp-content/uploads/bigstock-Motivate-020513.jpg
p1908
g3
(g4
g5
(g6
(S'\x07\xe0\x06\x1e\n0\x1b\x01\x8d\xce'
tRp1909
S'150'
p1910
I1
ttRp1911
sVhttp://previews.123rf.com/images/dskdesign/dskdesign1211/dskdesign121100019/16248075-business-hand-writing-person-or-employee-motivation-concept-Stock-Photo.jpg
p1912
g3
(g4
g5
(g6
(S'\x07\xe0\x07\x11\x15-1\x0e\xb6\xbe'
tRp1913
S'196'
p1914
I1
ttRp1915
sVhttp://lam-network.com/wp-content/uploads/2014/03/work-motivation1.jpg
p1916
g3
(g4
g5
(g6
(S'\x07\xe0\x01\r\x16\n\x16\x0e\xd6,'
tRp1917
I-1
I1
ttRp1918
sVhttp://www.earlyyearscareers.com/eyc/wp-content/uploads/2015/10/10722725205_0b2fcd12cf_b.jpg
p1919
g3
(g4
g5
(g6
(S'\x07\xe0\x07\x07\x10\x04\x1e\x0bx\x8c'
tRp1920
S'126'
p1921
I1
ttRp1922
sVhttp://sm-images-cdn.suburbanmen.com/wp-content/uploads/2015/07/monday-workout-motivation-20150720-5.jpg
p1923
g3
(g4
g5
(g6
(S'\x07\xe0\x04\r\x0f4*\x0b\xb0-'
tRp1924
S'338'
p1925
I1
ttRp1926
sVhttp://images.clipartpanda.com/motivation-clipart-motivation-pulls-man-22847827.jpg
p1927
g3
(g4
g5
(g6
(S'\x07\xe0\x06\x1e\n0\x1b\x01\x8d\xe0'
tRp1928
S'464'
p1929
I1
ttRp1930
sVhttp://www.thekissagency.com/wp-content/uploads/2014/10/Motivation.jpg
p1931
g3
(g4
g5
(g6
(S'\x07\xdf\x0c\x08\x10*\x1f\toL'
tRp1932
S'70'
p1933
I1
ttRp1934
sVhttp://40.media.tumblr.com/7b635d6205f4bc77bd45447f85bea2d4/tumblr_n4wmy6mufI1qz7sw8o1_1280.jpg
p1935
g3
(g4
g5
(g6
(S"\x07\xe0\x02\x19\t1'\x04\x95\xe6"
tRp1936
S'20'
p1937
I1
ttRp1938
sVhttp://uprisefit.com/wp-content/uploads/Motivation.jpg
p1939
g3
(g4
g5
(g6
(S'\x07\xe0\n\x08\x134\x0f\n\xe1-'
tRp1940
S'503'
p1941
I1
ttRp1942
sVhttp://mbanogmat.com/files/2013/01/How-to-Stay-Motivated.jpg
p1943
g3
(g4
g5
(g6
(S'\x07\xdf\x0c\x1a\x1362\x00\xd9{'
tRp1944
S'157'
p1945
I1
ttRp1946
sVhttps://zeitgeistfilms.com/zeromotivation/images/ZeroMotivation_home3.jpg
p1947
g3
(g4
g5
(g6
(S'\x07\xe0\x01\r\x16\n\x16\x0e\xd6S'
tRp1948
S'139'
p1949
I1
ttRp1950
sVhttp://lepetitcoach.com/wp-content/uploads/2015/11/motivation.jpg
p1951
g3
(g4
g5
(g6
(S'\x07\xe0\x05\x07\x15#\x0c\x06\x9b\x14'
tRp1952
S'364'
p1953
I1
ttRp1954
sVhttps://upload.wikimedia.org/wikipedia/en/6/63/Overjustification_Effect_Rewards_and_Motivation.jpg
p1955
g3
(g4
g5
(g6
(S'\x07\xe0\x04\r\x0f4*\x0b\xb0\x86'
tRp1956
S'131'
p1957
I1
ttRp1958
sVhttps://thrivehive.com/wp-content/uploads/2015/10/employee-motivation-techniques-1.jpg
p1959
g3
(g4
g5
(g6
(S'\x07\xe0\t\x16\x0b*\x14\rzs'
tRp1960
I-1
I1
ttRp1961
sVhttp://cdn2.hubspot.net/hub/392717/file-2447137411-jpg/motivation_1.jpg
p1962
g3
(g4
g5
(g6
(S'\x07\xdf\n\x11\t5\x03\x02\xc8H'
tRp1963
S'62'
p1964
I1
ttRp1965
sVhttp://thumbs.dreamstime.com/z/i-can-self-motivation-quote-cutting-letter-t-written-word-t-says-52295841.jpg
p1966
g3
(g4
g5
(g6
(S'\x07\xe0\x06\x1e\n0\x1b\x01\x8d\xfd'
tRp1967
S'244'
p1968
I1
ttRp1969
sVhttp://thumb7.shutterstock.com/display_pic_with_logo/1479299/273624035/stock-vector-motivation-concept-chart-with-keywords-and-icons-273624035.jpg
p1970
g3
(g4
g5
(g6
(S'\x07\xe0\x06\x17\n\x08\x12\r\xbfA'
tRp1971
S'247'
p1972
I1
ttRp1973
sVhttps://the-other-f-word.com/wp-content/uploads/2015/08/Workout-motivation-tips.jpg
p1974
g3
(g4
g5
(g6
(S'\x07\xe0\x07\x0f\x10\x05!\n\xd7\xd7'
tRp1975
S'183'
p1976
I2
ttRp1977
sVhttp://hdwallpapers.cat/wallpaper/test_motivation_humor_best_quote_sayings_hd-wallpaper-1590115.jpg
p1978
g3
(g4
g5
(g6
(S'\x07\xdf\x0b\x17\x16\x16\t\r\xb8\xb7'
tRp1979
S'67'
p1980
I1
ttRp1981
sVhttps://c6.staticflickr.com/3/2848/10722725205_0b2fcd12cf_c.jpg
p1982
g3
(g4
g5
(g6
(S'\x07\xe0\t\x04\x04\x1f\x18\x02\x87\x90'
tRp1983
S'332'
p1984
I1
ttRp1985
sVhttp://shapyn.de/wp-content/uploads/2015/05/fitness-motivation-wallpaper.png
p1986
g3
(g4
g5
(g6
(S'\x07\xe0\x04\x1b\x0f;3\x0b\x1b='
tRp1987
S'383'
p1988
I2
ttRp1989
sVhttp://image.slidesharecdn.com/motivationletter-12647583132846-phpapp02/95/motivation-letter-1-728.jpg?cb=1264736940
p1990
g3
(g4
g5
(g6
(S'\x07\xdf\x0c\x14\x11(\x1f\x05\xb6\xaf'
tRp1991
S'176'
p1992
I1
ttRp1993
sVhttps://pbs.twimg.com/profile_images/496464086775775232/nBwrtyYo.jpeg
p1994
g3
(g4
g5
(g6
(S'\x07\xe0\x06\x17\n\x08\x12\r\xbf*'
tRp1995
S'262'
p1996
I1
ttRp1997
sVhttp://malonemediagroup.com/wp-content/uploads/2013/05/motivation.jpg
p1998
g3
(g4
g5
(g6
(S'\x07\xe0\x05\x18\x15,\x19\r\xe6\x8a'
tRp1999
S'17'
p2000
I1
ttRp2001
sVhttps://s-media-cache-ak0.pinimg.com/736x/6e/55/cf/6e55cfca401a2ae5eae0ae040ae22f5c.jpg
p2002
g3
(g4
g5
(g6
(S'\x07\xe0\x04\x03\x0f\x0f0\x00\x14\n'
tRp2003
S'335'
p2004
I1
ttRp2005
sVhttps://eloisebeeching.files.wordpress.com/2015/01/motivate-yourself-71.jpg
p2006
g3
(g4
g5
(g6
(S'\x07\xdf\x0b\x1a\x16\x18;\x02\x8bu'
tRp2007
S'97'
p2008
I1
ttRp2009
sVhttp://www.crossfitlongbeach.com/sites/crossfitlongbeach.com/files/motivation.jpg?1466552568
p2010
g3
(g4
g5
(g6
(S'\x07\xe0\x07\x17\x175\x01\x06\\s'
tRp2011
S'473'
p2012
I1
ttRp2013
sVhttp://tone-and-tighten.com/wp-content/uploads/2014/06/fitness-motivation-gym-inspiration-exercise-quote-saying-crowded-at-the-top.jpg.jpg
p2014
g3
(g4
g5
(g6
(S'\x07\xe0\t\x0c\t\x1b)\r\xda_'
tRp2015
S'539'
p2016
I1
ttRp2017
sVhttps://elearningindustry.com/wp-content/uploads/2015/05/Extrinsic-Motivation-Online-Training.jpg
p2018
g3
(g4
g5
(g6
(S'\x07\xe0\n\x08\x134\x0f\n\xe0\xab'
tRp2019
I-1
I1
ttRp2020
sVhttp://www.changeinseconds.com/wp-content/uploads/2013/10/weight-loss-motivation-14.jpg
p2021
g3
(g4
g5
(g6
(S'\x07\xe0\t\x04\x04\x1f\x18\x02\x86M'
tRp2022
S'290'
p2023
I1
ttRp2024
sVhttp://www.flourishthriveacademy.com/wp-content/uploads/2013/03/motivation-1.jpg
p2025
g3
(g4
g5
(g6
(S'\x07\xe0\x01\r\x16\n\x16\x0e\xd5\xa6'
tRp2026
S'200'
p2027
I1
ttRp2028
sVhttp://edmayermarketing.com/wp-content/uploads/2016/03/motivation-2.jpg
p2029
g3
(g4
g5
(g6
(S'\x07\xe0\x08\r\x006\r\x01f\x06'
tRp2030
S'507'
p2031
I1
ttRp2032
sVhttps://xercises.files.wordpress.com/2015/05/fitness-motivation-work-that-body-pinterest.jpg
p2033
g3
(g4
g5
(g6
(S'\x07\xe0\x04\r\x0f4*\x0b\xb0\x11'
tRp2034
S'153'
p2035
I1
ttRp2036
sVhttp://www.mattmcwilliams.com/wp-content/uploads/2015/01/purpose-over-profits-motivation.jpg
p2037
g3
(g4
g5
(g6
(S'\x07\xe0\t\x0c\t\x1b)\r\xda\x9b'
tRp2038
S'155'
p2039
I1
ttRp2040
sVhttp://accidental-hr.com/wp-content/uploads/2010/08/bigstock_Self_Motivation_Golden_Dollar_2032755.jpg
p2041
g3
(g4
g5
(g6
(S'\x07\xe0\x01\r\x16\n\x16\x0e\xd5\xdf'
tRp2042
I-1
I1
ttRp2043
sVhttp://i.kinja-img.com/gawker-media/image/upload/s--BhjKrjHY--/zwy5x7jgb7tun6nl04qj.jpg
p2044
g3
(g4
g5
(g6
(S'\x07\xdf\x0b\x05\x15\x15\x01\r\nL'
tRp2045
S'77'
p2046
I1
ttRp2047
sVhttp://blog.aurionlearning.com/wp-content/uploads/2015/06/E-Learning-Motivation-Image.png
p2048
g3
(g4
g5
(g6
(S'\x07\xe0\n\x02\x13\x18\x1b\x01A>'
tRp2049
S'567'
p2050
I1
ttRp2051
sVhttp://gazettereview.com/wp-content/uploads/2015/05/Motivation.jpg
p2052
g3
(g4
g5
(g6
(S'\x07\xdf\x0c\x1a\x1362\x00\xd9\x04'
tRp2053
S'47'
p2054
I1
ttRp2055
sVhttp://www.prolificliving.com/wp-content/uploads/2015/01/faith-yourself.jpg
p2056
g3
(g4
g5
(g6
(S'\x07\xe0\x03\x04\n\x04\r\x07!\xa0'
tRp2057
S'300'
p2058
I2
ttRp2059
sVhttps://img1.steemit.com/0x0/https://s14-eu5.ixquick.com/cgi-bin/serveimage?url=http:%2F%2Fblogs.ubc.ca%2Famanthind%2Ffiles%2F2015%2F11%2FEmployee-Motivation1.jpg&sp=fa13bb4fdb5420dfcaea2bee359ae94e
p2060
g3
(g4
g5
(g6
(S'\x07\xe0\n\x08\x134\x0f\n\xe1\x06'
tRp2061
S'506'
p2062
I1
ttRp2063
sVhttp://image.slidesharecdn.com/theoriesofmotivation-asg-120929141425-phpapp02/95/theories-of-motivation-asg-1-728.jpg?cb=1348928104
p2064
g3
(g4
g5
(g6
(S'\x07\xe0\x06\x06\r\x0f\x16\n\xa1\x9a'
tRp2065
S'421'
p2066
I1
ttRp2067
sVhttps://www.menschen-im-vertrieb.at/blog/wp-content/uploads/2010/11/Motivation.jpg
p2068
g3
(g4
g5
(g6
(S'\x07\xdf\x0c\x1a\x1362\x00\xd9\x98'
tRp2069
S'170'
p2070
I1
ttRp2071
sVhttps://fitfabcities.files.wordpress.com/2011/11/today-motivation.jpg
p2072
g3
(g4
g5
(g6
(S'\x07\xdf\n\x11\t5\x03\x02\xc9\x92'
tRp2073
S'26'
p2074
I1
ttRp2075
sVhttp://e2ua.com/data/wallpapers/23/WDF_712784.jpg
p2076
g3
(g4
g5
(g6
(S'\x07\xe0\x05\x12\x12\x05\x10\x02\x87/'
tRp2077
I-1
I1
ttRp2078
sVhttps://www.talentsquare.com/wp-content/uploads/2013/03/Make_Happen.jpg
p2079
g3
(g4
g5
(g6
(S'\x07\xe0\t\x1a\r\x08(\x0eJ~'
tRp2080
I-1
I1
ttRp2081
sVhttp://tamsenmcmahon.com/wp-content/uploads/2010/03/Motivation-Triangle.jpg
p2082
g3
(g4
g5
(g6
(S'\x07\xe0\x01\r\x16\n\x16\x0e\xd6@'
tRp2083
S'190'
p2084
I1
ttRp2085
sVhttp://www.adelecyuboco.com/wp-content/uploads/2015/06/football-motivation.jpg
p2086
g3
(g4
g5
(g6
(S'\x07\xe0\x06\x1e\n0\x1b\x01\x8d\xe3'
tRp2087
I-1
I1
ttRp2088
sVhttps://s3.amazonaws.com/WisdomPlanet/wisdomtimes/wp-content/uploads/2012/07/Self-motivation-how-to-get-self-motivated.jpg
p2089
g3
(g4
g5
(g6
(S'\x07\xe0\x08\r\x006\r\x01f\x02'
tRp2090
S'386'
p2091
I1
ttRp2092
sVhttp://rosalieledda.com/wp-content/uploads/2014/11/IntrinsicMotivation.png
p2093
g3
(g4
g5
(g6
(S'\x07\xdf\x0c\x14\x11(\x1f\x05\xb6['
tRp2094
S'168'
p2095
I1
ttRp2096
sVhttp://www.businessproductivity.com/wp-content/uploads/2012/07/01-Constructive-advice-for-motivating-employees.png
p2097
g3
(g4
g5
(g6
(S'\x07\xe0\t\x1a\r\x08(\x0eJ\xaf'
tRp2098
I-1
I1
ttRp2099
sVhttp://cosmic-fitness.com/wp-content/uploads/2015/05/11-12-12-Monday-Motivation1.jpg
p2100
g3
(g4
g5
(g6
(S'\x07\xe0\x02\x11\x04\x08.\x0b\xd9\x89'
tRp2101
S'273'
p2102
I1
ttRp2103
sVhttp://certainlyher.com/wp-content/uploads/2015/02/tumblr_murtxoK9a21rbyu6jo1_1280.jpg
p2104
g3
(g4
g5
(g6
(S'\x07\xe0\x03\x0e\r;\x15\x0e\x89\x9d'
tRp2105
S'298'
p2106
I1
ttRp2107
sVhttp://www.askwhyguy.com/wp-content/uploads/2015/04/motivation.jpg
p2108
g3
(g4
g5
(g6
(S'\x07\xdf\x0b\x1a\x16\x18;\x02\x8a\xb0'
tRp2109
S'40'
p2110
I1
ttRp2111
sVhttps://s-media-cache-ak0.pinimg.com/736x/71/2f/43/712f43b1863fff6c0d664e98470d8859.jpg
p2112
g3
(g4
g5
(g6
(S'\x07\xe0\t\x04\x04\x1f\x18\x02\x87m'
tRp2113
S'538'
p2114
I1
ttRp2115
sVhttps://pi.tedcdn.com/r/pf.tedcdn.com/images/playlists/why_we_do_what_we_do_1200x627.jpg?c=1050%2C550&w=1050
p2116
g3
(g4
g5
(g6
(S"\x07\xe0\x07\x03\x0f'\x1f\x08h\xf7"
tRp2117
S'455'
p2118
I1
ttRp2119
sVhttp://thumb7.shutterstock.com/display_pic_with_logo/1059320/381851365/stock-vector-motivation-design-and-concept-background-with-rocket-project-motivation-concepts-for-web-banner-381851365.jpg
p2120
g3
(g4
g5
(g6
(S'\x07\xe0\x06\x17\n\x08\x12\r\xbfL'
tRp2121
S'453'
p2122
I1
ttRp2123
sVhttp://images.fitnessmagazine.mdpcdn.com/sites/fitnessmagazine.com/files/styles/facebook_og_image/public/monday-motivation-sweat-more-bitch-less_0.jpg?itok=aoi_AGeZ
p2124
g3
(g4
g5
(g6
(S'\x07\xe0\n\x08\x134\x0f\n\xe18'
tRp2125
S'401'
p2126
I1
ttRp2127
sVhttp://www.spyderonlines.com/images/wallpapers/motivation-wallpaper/motivation-wallpaper-16.jpg
p2128
g3
(g4
g5
(g6
(S'\x07\xe0\x07\x0f\x10\x05!\n\xd71'
tRp2129
S'461'
p2130
I2
ttRp2131
sVhttps://cdn.shopify.com/s/files/1/0815/1807/files/blog_Motivation-Monday-Menu1.jpg?5002197569620289024
p2132
g3
(g4
g5
(g6
(S'\x07\xe0\x03\x12\x0e\x03\x0b\x00\xec-'
tRp2133
S'198'
p2134
I1
ttRp2135
sVhttp://themindofsteel.com/wp-content/uploads/50-Best-Motivation.jpg
p2136
g3
(g4
g5
(g6
(S'\x07\xe0\n\x08\x134\x0f\n\xe1\x0e'
tRp2137
S'402'
p2138
I2
ttRp2139
sVhttp://static1.squarespace.com/static/5511a3cbe4b0748e8e710ce3/t/56bd1913d210b88e65adbbdb/1455233301066/
p2140
g3
(g4
g5
(g6
(S'\x07\xe0\x06\x17\n\x08\x12\r\xbe\xaf'
tRp2141
S'389'
p2142
I1
ttRp2143
sVhttp://www.strictly-stress-management.com/images/motivation-crop-620x250.jpg
p2144
g3
(g4
g5
(g6
(S'\x07\xe0\x06\x17\n\x08\x12\r\xbf\x7f'
tRp2145
S'484'
p2146
I1
ttRp2147
sVhttp://previews.123rf.com/images/violin/violin1104/violin110400148/9410645-Hand-and-word-Motivation-isolated-on-white-background-Stock-Photo.jpg
p2148
g3
(g4
g5
(g6
(S'\x07\xe0\x01\r\x16\n\x16\x0e\xd5C'
tRp2149
S'210'
p2150
I1
ttRp2151
sVhttp://www.caloriesecrets.net/wp-content/uploads/2014/09/100-percent-effort.jpg
p2152
g3
(g4
g5
(g6
(S'\x07\xe0\x02\x11\x04\x08.\x0b\xd9\x1f'
tRp2153
S'275'
p2154
I1
ttRp2155
sVhttp://az616578.vo.msecnd.net/files/2016/03/31/635950634795151336967118572_you-cant-create-motivation-writetojoncook-1j901wa.jpg
p2156
g3
(g4
g5
(g6
(S'\x07\xe0\x08\x03\x00\x16+\x00\xb3\r'
tRp2157
S'392'
p2158
I1
ttRp2159
sVhttp://www.careerealism.com/wp-content/uploads/2012/02/job-search-motivation.jpg
p2160
g3
(g4
g5
(g6
(S'\x07\xe0\x08\x1f\x04\x14\x13\x06\x01 '
tRp2161
S'287'
p2162
I1
ttRp2163
sVhttps://tetyanalivedotcom.files.wordpress.com/2015/06/motivation.jpg
p2164
g3
(g4
g5
(g6
(S'\x07\xdf\x0c\x0c\x11\x1d!\x06\xcf='
tRp2165
S'55'
p2166
I1
ttRp2167
sVhttp://brotherword.org/wp-content/uploads/2013/05/brotherword-motivational-monday.jpg
p2168
g3
(g4
g5
(g6
(S'\x07\xe0\x08\x03\x00\x16+\x00\xb2\xad'
tRp2169
S'102'
p2170
I1
ttRp2171
sVhttp://cfapogee.com/wp-content/uploads/2013/09/rocky-stuff.jpg
p2172
g3
(g4
g5
(g6
(S'\x07\xe0\x01\r\x16\n\x16\x0e\xd5\x9c'
tRp2173
S'203'
p2174
I1
ttRp2175
sVhttp://dailyhealthtipz.com/wp-content/uploads/2016/07/how-to-motivate-yourself.jpg
p2176
g3
(g4
g5
(g6
(S'\x07\xe0\t\x1c\x13\x10$\x0e{\x94'
tRp2177
S'571'
p2178
I1
ttRp2179
sVhttp://www.smartsandstamina.com/wp-content/uploads/2013/12/Motivation1.jpg
p2180
g3
(g4
g5
(g6
(S'\x07\xe0\x03\x1c\x0e .\x0f8l'
tRp2181
S'80'
p2182
I2
ttRp2183
sVhttp://www.pixelstalk.net/wp-content/uploads/2016/06/Motivation-Wallpapers-HD.jpg
p2184
g3
(g4
g5
(g6
(S'\x07\xe0\n\x02\x13\x18\x1b\x01A\x93'
tRp2185
I-1
I1
ttRp2186
sVhttp://ragtagriot.com/wp-content/uploads/2015/01/motivation-111.jpg
p2187
g3
(g4
g5
(g6
(S'\x07\xdf\x0b\x1a\x16\x18;\x02\x8a\xcd'
tRp2188
I-1
I1
ttRp2189
sVhttp://science-all.com/images/wallpapers/motivation-pics/motivation-pics-13.jpg
p2190
g3
(g4
g5
(g6
(S'\x07\xe0\x08\x13\x01\r\x01\x0e\x1c8'
tRp2191
S'518'
p2192
I1
ttRp2193
sVhttp://theunbelievable.me/wp-content/uploads/2015/05/motivating-your-employees.jpg
p2194
g3
(g4
g5
(g6
(S'\x07\xdf\x0c\x0c\x11\x1d!\x06\xce\xd8'
tRp2195
S'87'
p2196
I1
ttRp2197
sVhttp://blog.jobsinsocialmedia.com/wp-content/uploads/2015/10/monday-motivation.png
p2198
g3
(g4
g5
(g6
(S'\x07\xe0\t\x16\x0b*\x14\ry\xb3'
tRp2199
S'252'
p2200
I2
ttRp2201
sVhttp://fitglutenfree.co.uk/wp-content/uploads/2015/12/keep-going-fitness-motivation.jpg
p2202
g3
(g4
g5
(g6
(S'\x07\xe0\t\x16\x0b*\x14\ry\xc8'
tRp2203
S'486'
p2204
I1
ttRp2205
sVhttp://www.refreshleadership.com/wp-content/uploads/2013/12/1557580883.jpg
p2206
g3
(g4
g5
(g6
(S'\x07\xe0\n\x08\x134\x0f\n\xe1]'
tRp2207
S'356'
p2208
I1
ttRp2209
sVhttp://randallmilner.com/wp/wp-content/uploads/2016/03/start.jpg
p2210
g3
(g4
g5
(g6
(S'\x07\xe0\x08\r\x006\r\x01fQ'
tRp2211
S'504'
p2212
I1
ttRp2213
sVhttp://mommysavers.com/wp-content/uploads/2015/10/Motivation-to-Get-Healthy.jpg
p2214
g3
(g4
g5
(g6
(S'\x07\xe0\n\x08\x134\x0f\n\xe0\xf3'
tRp2215
I-1
I1
ttRp2216
sVhttp://www.benthethird.com/wp-content/uploads/2015/08/motivation13.jpg
p2217
g3
(g4
g5
(g6
(S'\x07\xdf\x0b\x10\x16\x11\x01\x00\x89\x9f'
tRp2218
S'82'
p2219
I1
ttRp2220
sVhttp://bodyonept.com/wp-content/uploads/2015/05/motivation.jpg
p2221
g3
(g4
g5
(g6
(S'\x07\xe0\t\x1c\x13\x10$\x0e|\xd8'
tRp2222
S'58'
p2223
I1
ttRp2224
sVhttp://positivepsychologynews.com/ppnd_wp/wp-content/uploads/2009/04/motivation-hierarchy3.jpg
p2225
g3
(g4
g5
(g6
(S'\x07\xe0\x04\x03\x0f\x0f0\x00\x15/'
tRp2226
S'122'
p2227
I1
ttRp2228
sVhttps://upload.wikimedia.org/wikipedia/commons/a/af/Door_with_both_push_and_pull_signs.jpg
p2229
g3
(g4
g5
(g6
(S'\x07\xe0\x05\x16\x14(\x0b\x03*\x0c'
tRp2230
S'44'
p2231
I1
ttRp2232
sVhttp://www.businessjunkee.com/wp-content/uploads/2015/02/gym-motivation-mohammad-ali.jpg
p2233
g3
(g4
g5
(g6
(S'\x07\xe0\x06\x1e\n0\x1b\x01\x8d\xdd'
tRp2234
I-1
I1
ttRp2235
sVhttp://www.goinflippincrazy.com/wp-content/uploads/2014/03/motivationbubble.jpg
p2236
g3
(g4
g5
(g6
(S'\x07\xe0\x06\x1b\r+\x0f\x03b\xc9'
tRp2237
S'446'
p2238
I1
ttRp2239
sVhttp://static3.depositphotos.com/1003857/178/i/950/depositphotos_1780723-Business-slogan-Motivation-Roadsign.jpg
p2240
g3
(g4
g5
(g6
(S'\x07\xdf\x0c\x1a\x1362\x00\xd9W'
tRp2241
S'159'
p2242
I1
ttRp2243
sVhttp://static1.squarespace.com/static/569bd7671115e0984d2308c1/t/56a3f97b57eb8d5bf3a2282a/1453586812683/motivate
p2244
g3
(g4
g5
(g6
(S'\x07\xe0\x07\x11\x15-1\x0e\xb7?'
tRp2245
S'429'
p2246
I1
ttRp2247
sVhttp://teameckenrode.com/wp-content/uploads/2014/11/Monday-motivation.png
p2248
g3
(g4
g5
(g6
(S'\x07\xdf\x0c\x1a\x1362\x00\xd9e'
tRp2249
S'179'
p2250
I1
ttRp2251
sVhttp://addicted2success.com/wp-content/uploads/2013/08/Motivation-Picture-Quote-Motivation-Be-An-Expert.jpg
p2252
g3
(g4
g5
(g6
(S'\x07\xdf\x0b\x1a\x16\x18;\x02\x8b\x05'
tRp2253
I-1
I1
ttRp2254
sVhttp://78.109.164.169/~femalecoaching/concrete/uploads/2015/10/motivation-1.jpg
p2255
g3
(g4
g5
(g6
(S'\x07\xdf\x0c\x08\x10+#\x04\x03\xbe'
tRp2256
I-1
I1
ttRp2257
sVhttp://uncommonconsulting.com/wp-content/uploads/2011/11/hierarchy_of_motivation_hom_2011.png
p2258
g3
(g4
g5
(g6
(S'\x07\xe0\x01\r\x16\n\x16\x0e\xd6_'
tRp2259
S'193'
p2260
I1
ttRp2261
sVhttps://pixabay.com/static/uploads/photo/2016/05/12/19/35/motivation-1388479_960_720.jpg
p2262
g3
(g4
g5
(g6
(S'\x07\xe0\t\x16\x0b*\x14\rz4'
tRp2263
S'485'
p2264
I1
ttRp2265
sVhttp://www.thebluediamondgallery.com/pictures/motivation.jpg
p2266
g3
(g4
g5
(g6
(S'\x07\xe0\x05\x18\x15,\x19\r\xe6}'
tRp2267
I-1
I1
ttRp2268
sVhttp://www.fearlessmotivation.com/wp-content/uploads/2015/11/fear-less-dominate-more-14001.jpg
p2269
g3
(g4
g5
(g6
(S'\x07\xe0\n\x08\x134\x0f\n\xe1\x1d'
tRp2270
S'575'
p2271
I1
ttRp2272
sVhttp://addicted2success.com/wp-content/uploads/2014/09/motivation-by-michael-jordan-quote.jpg
p2273
g3
(g4
g5
(g6
(S'\x07\xe0\t\x1a\r\x08(\x0eJ\xe1'
tRp2274
I-1
I1
ttRp2275
sVhttps://allthingslearning.files.wordpress.com/2011/12/motivation-road-sign.jpg
p2276
g3
(g4
g5
(g6
(S'\x07\xe0\t\x04\x04\x1f\x18\x02\x87\xb0'
tRp2277
S'166'
p2278
I1
ttRp2279
sVhttp://blogs.bsj.sch.id/karmun/files/2015/09/you-cant-create-motivation-writetojoncook-1j901wa.jpg
p2280
g3
(g4
g5
(g6
(S'\x07\xe0\x04\x13\x0f;&\x01\xf3A'
tRp2281
S'93'
p2282
I1
ttRp2283
sVhttps://i.ytimg.com/vi/OPl6WUlIG9g/maxresdefault.jpg
p2284
g3
(g4
g5
(g6
(S'\x07\xe0\n\x08\x134\x0f\n\xe1V'
tRp2285
S'69'
p2286
I2
ttRp2287
sVhttp://images.huffingtonpost.com/2016-04-04-1459788040-8182035-REACHacronymTreatmentsREV21_72dpi-thumb.jpg
p2288
g3
(g4
g5
(g6
(S'\x07\xe0\x06\x06\r\x0f\x16\n\xa2$'
tRp2289
S'420'
p2290
I1
ttRp2291
sVhttps://i.ytimg.com/vi/E9kpZhAM5Dk/hqdefault.jpg
p2292
g3
(g4
g5
(g6
(S'\x07\xe0\x08\r\x006\r\x01f\xd0'
tRp2293
S'499'
p2294
I1
ttRp2295
sVhttp://image.slidesharecdn.com/theoriesofmotivation-130824223005-phpapp01/95/theories-of-motivation-overview-of-the-content-theories-of-motivation-2-638.jpg?cb=1379125011
p2296
g3
(g4
g5
(g6
(S'\x07\xe0\x06\x17\n\x08\x12\r\xbfT'
tRp2297
S'142'
p2298
I1
ttRp2299
sVhttp://us.123rf.com/450wm/vectorscore/vectorscore1510/vectorscore151000020/46503027-motivation-template--design-bear-attack.jpg?ver=6
p2300
g3
(g4
g5
(g6
(S'\x07\xe0\x08\r\x006\r\x01f\x8f'
tRp2301
I-1
I1
ttRp2302
sVhttps://pbs.twimg.com/profile_images/209253976/motivate.jpg
p2303
g3
(g4
g5
(g6
(S"\x07\xe0\x02\x19\t1'\x04\x95\xd7"
tRp2304
S'89'
p2305
I1
ttRp2306
sVhttps://c1.staticflickr.com/5/4003/4504724163_277a8197ff_z.jpg
p2307
g3
(g4
g5
(g6
(S'\x07\xe0\x08\x03\x00\x16+\x00\xb3Q'
tRp2308
S'103'
p2309
I1
ttRp2310
sVhttp://iscreamsundae.com/wp-content/uploads/2016/02/Self-motivation-how-to-get-self-motivated.jpg
p2311
g3
(g4
g5
(g6
(S'\x07\xe0\x06\x02\t7\x1a\r\xdb\x1d'
tRp2312
S'282'
p2313
I1
ttRp2314
sVhttps://upload.wikimedia.org/wikipedia/commons/f/f0/Which_step_have_you_reached_today.jpg
p2315
g3
(g4
g5
(g6
(S'\x07\xe0\x04\t\x0f/\x1a\x02\xe8R'
tRp2316
S'314'
p2317
I1
ttRp2318
sVhttp://www.businessbanter.com/wp-content/uploads/2013/11/motivate-content-2.jpg
p2319
g3
(g4
g5
(g6
(S'\x07\xdf\x0b\x1a\x16\x18;\x02\x8a\xf5'
tRp2320
S'98'
p2321
I1
ttRp2322
sVhttp://www.lovethispic.com/uploaded_images/22842-Workout-Motivation.jpg
p2323
g3
(g4
g5
(g6
(S'\x07\xe0\x04\r\x0f4*\x0b\xaf\xed'
tRp2324
S'145'
p2325
I1
ttRp2326
sVhttps://media.licdn.com/mpr/mpr/shrinknp_800_800/AAEAAQAAAAAAAAJuAAAAJGJlYzExODdhLTJmY2MtNDA1NS1iNmY3LTE1ZDg3ZjAwMTNjZA.png
p2327
g3
(g4
g5
(g6
(S'\x07\xe0\t\x16\x0b*\x14\ry\x8f'
tRp2328
S'284'
p2329
I2
ttRp2330
sVhttp://beastmotivation.com/wp-content/uploads/2013/03/motivation-98015.jpg
p2331
g3
(g4
g5
(g6
(S'\x07\xe0\t\x1a\r\x08(\x0eH\x9c'
tRp2332
S'317'
p2333
I1
ttRp2334
sVhttp://fewpict.com/images/motivation/motivation-03.jpg
p2335
g3
(g4
g5
(g6
(S'\x07\xe0\x01\r\x16\n\x16\x0e\xd5\xaa'
tRp2336
S'217'
p2337
I1
ttRp2338
sVhttp://kurld.com/images/wallpapers/motivation-pics/motivation-pics-13.jpg
p2339
g3
(g4
g5
(g6
(S'\x07\xe0\n\x08\x134\x0f\n\xe1)'
tRp2340
S'574'
p2341
I1
ttRp2342
sVhttps://accent-technologies.com/wp-content/uploads/2015/09/sales-team-motivation.jpg
p2343
g3
(g4
g5
(g6
(S'\x07\xe0\x08\x11\x01\x05\n\x04eb'
tRp2344
S'371'
p2345
I1
ttRp2346
sVhttps://tedcdnpi-a.akamaihd.net/r/tedcdnpf-a.akamaihd.net/images/playlists/why_we_do_what_we_do_1200x627.jpg?c=1050%2C550&w=1050
p2347
g3
(g4
g5
(g6
(S'\x07\xe0\x04\x13\x0f;&\x01\xf2\x89'
tRp2348
S'297'
p2349
I1
ttRp2350
sVhttp://image.slidesharecdn.com/motivation-agilebulusmalar-160413063704/95/happy-developers-guide-to-the-galaxy-thinking-about-motivation-of-developers-11-638.jpg?cb=1460529454
p2351
g3
(g4
g5
(g6
(S'\x07\xe0\t\x1a\r\x08(\x0eI\x98'
tRp2352
S'432'
p2353
I4
ttRp2354
sVhttp://1.bp.blogspot.com/-VwHOaoLh5Ow/Ump0dL58O0I/AAAAAAAAEK0/uNZRYMeQkSw/s1600/fresh+motivations.JPG
p2355
g3
(g4
g5
(g6
(S'\x07\xe0\x01\r\x16\n\x16\x0e\xd5\xef'
tRp2356
S'207'
p2357
I1
ttRp2358
sVhttp://liveforthepump.de/sites/default/files/Motivation%20und%20Zielsetzung%20-%20Erfolg%20-%20Success.jpg
p2359
g3
(g4
g5
(g6
(S'\x07\xe0\x02\t\x00\x10\x08\x05\x07\xd8'
tRp2360
S'143'
p2361
I1
ttRp2362
sVhttp://www.scififantasynetwork.com/wp-content/uploads/2016/02/motivation.jpg
p2363
g3
(g4
g5
(g6
(S'\x07\xe0\x08\r\x006\r\x01fL'
tRp2364
S'323'
p2365
I1
ttRp2366
sVhttp://pureella.com/wp-content/uploads/Pure-Ella-There-is-always-something-to-be-thankful-for-Inspiration-Motivation-Quote.jpg
p2367
g3
(g4
g5
(g6
(S'\x07\xe0\x03\x1c\x0e .\x0f8\xa3'
tRp2368
S'250'
p2369
I1
ttRp2370
sVhttp://www.incimages.com/uploaded_files/image/1940x900/inner-motivation_19918.jpg
p2371
g3
(g4
g5
(g6
(S'\x07\xe0\x06\x1e\n0\x1b\x01\x8d\xa7'
tRp2372
S'465'
p2373
I1
ttRp2374
sVhttps://rsastories.files.wordpress.com/2011/10/motivation.jpg
p2375
g3
(g4
g5
(g6
(S'\x07\xe0\t\x16\x0b*\x14\ry\x80'
tRp2376
S'291'
p2377
I1
ttRp2378
sVhttp://previews.123rf.com/images/drx/drx1010/drx101000006/8092645-Word-impossible-transformed-into-possible-Motivation-philosophy-concept-Stock-Photo.jpg
p2379
g3
(g4
g5
(g6
(S'\x07\xe0\x06\x1e\n0\x1b\x01\x8d\xca'
tRp2380
S'452'
p2381
I1
ttRp2382
sVhttp://www.christophgrizzard.eu/wp-content/uploads/2014/09/Motivation_V1_01.jpg
p2383
g3
(g4
g5
(g6
(S'\x07\xe0\n\x08\x134\x0f\n\xe0\xe7'
tRp2384
S'2'
I1
ttRp2385
sVhttp://blogs.ubc.ca/amanthind/files/2015/11/motivation-1.jpg
p2386
g3
(g4
g5
(g6
(S'\x07\xe0\x06\x17\n\x08\x12\r\xbe\xdc'
tRp2387
S'321'
p2388
I1
ttRp2389
sVhttp://www.monitae.com/wp-content/uploads/2015/06/motivation-1080x675.jpg
p2390
g3
(g4
g5
(g6
(S'\x07\xe0\x03\x04\n\x04\r\x07!\x7f'
tRp2391
S'158'
p2392
I1
ttRp2393
sVhttps://s-media-cache-ak0.pinimg.com/736x/30/c6/00/30c6001dda69aec7359b3af321ec871f.jpg
p2394
g3
(g4
g5
(g6
(S'\x07\xe0\t\x0c\t\x1b)\r\xda\xf9'
tRp2395
S'541'
p2396
I1
ttRp2397
sVhttp://www.cultofpedagogy.com/wp-content/uploads/2016/02/Motivation-Pin.png
p2398
g3
(g4
g5
(g6
(S'\x07\xe0\t\x16\x0b*\x14\ry\xdf'
tRp2399
S'325'
p2400
I1
ttRp2401
sVhttp://rosalieledda.com/wp-content/uploads/2014/11/IntrinsicMotivation1.png
p2402
g3
(g4
g5
(g6
(S'\x07\xdf\x0c\x0c\x11\x1d!\x06\xcf\x16'
tRp2403
S'152'
p2404
I1
ttRp2405
sVhttps://pbs.twimg.com/profile_images/554760316869820416/98_V3OXJ.jpeg
p2406
g3
(g4
g5
(g6
(S"\x07\xe0\x02\x19\t1'\x04\x95h"
tRp2407
S'124'
p2408
I1
ttRp2409
sVhttp://thumbs.dreamstime.com/z/motivation-hand-writing-blue-mark-transparent-board-46336968.jpg
p2410
g3
(g4
g5
(g6
(S'\x07\xe0\x06\x1e\n0\x1b\x01\x8d\xd9'
tRp2411
S'438'
p2412
I1
ttRp2413
sVhttp://cdn-media-1.lifehack.org/wp-content/files/2013/11/20-Ways-To-Wake-Up-With-Motivation.jpg
p2414
g3
(g4
g5
(g6
(S'\x07\xe0\t\x0c\t\x1b)\r\xda\xb4'
tRp2415
S'533'
p2416
I1
ttRp2417
sVhttp://52dietplan.org/wp-content/uploads/2015/09/motivation-to-lose-weight.jpg
p2418
g3
(g4
g5
(g6
(S'\x07\xe0\x05\x16\x14(\x0b\x03)\xaf'
tRp2419
S'387'
p2420
I1
ttRp2421
sVhttp://detechter.com/wp-content/uploads/2015/04/1-motivation-wallpaper1.jpg
p2422
g3
(g4
g5
(g6
(S'\x07\xe0\x01\x1f\x17/\x06\x04\xe8\xe9'
tRp2423
I-1
I1
ttRp2424
sVhttp://thumbs.dreamstime.com/z/motivation-pulls-man-22847827.jpg
p2425
g3
(g4
g5
(g6
(S'\x07\xe0\x06\x1b\r+\x0f\x03aq'
tRp2426
S'467'
p2427
I1
ttRp2428
sVhttp://image.slidesharecdn.com/motivation-150415080316-conversion-gate01/95/motivation-and-theries-of-motivation-4-638.jpg?cb=1429085177
p2429
g3
(g4
g5
(g6
(S'\x07\xe0\x08\r\x006\r\x01f\x8a'
tRp2430
S'494'
p2431
I1
ttRp2432
sVhttp://www.spyderonlines.com/images/wallpapers/motivation-pics/motivation-pics-17.jpg
p2433
g3
(g4
g5
(g6
(S'\x07\xe0\n\x08\x134\x0f\n\xe0\xc8'
tRp2434
S'579'
p2435
I1
ttRp2436
sVhttp://lukeroland.com/wp-content/uploads/2014/01/motivation.jpg
p2437
g3
(g4
g5
(g6
(S'\x07\xe0\x06\x1e\n0\x1b\x01\x8dk'
tRp2438
S'472'
p2439
I1
ttRp2440
sVhttp://cdn-media-1.lifehack.org/wp-content/files/2009/10/20091022-motivation-380x254.jpg
p2441
g3
(g4
g5
(g6
(S'\x07\xe0\x08\r\x006\r\x01f\x93'
tRp2442
S'495'
p2443
I1
ttRp2444
sVhttp://rozsavagecoaching.com/wp-content/uploads/2015/09/Motivation-1080x675.jpg
p2445
g3
(g4
g5
(g6
(S'\x07\xe0\t\x16\x0b*\x14\rzm'
tRp2446
S'534'
p2447
I1
ttRp2448
sVhttps://pixabay.com/static/uploads/photo/2015/09/27/00/22/incentive-960045_960_720.jpg
p2449
g3
(g4
g5
(g6
(S'\x07\xe0\t\x16\x0b*\x14\rz\x8e'
tRp2450
S'343'
p2451
I1
ttRp2452
sVhttp://cdn2.hubspot.net/hub/147314/file-236440333-jpg/images/business-motivation.jpg?t=1449469208171
p2453
g3
(g4
g5
(g6
(S'\x07\xe0\x03\x1c\x0e .\x0f9\xa9'
tRp2454
S'149'
p2455
I1
ttRp2456
sVhttp://vonblancofitness.com/wp-content/uploads/2012/05/29-exercise-cheaper-than-bills.png
p2457
g3
(g4
g5
(g6
(S'\x07\xe0\x03\x0e\r;\x15\x0e\x88\xc7'
tRp2458
S'315'
p2459
I1
ttRp2460
sVhttp://cdn-media-2.lifehack.org/wp-content/files/2013/11/20-Ways-To-Wake-Up-With-Motivation.jpg
p2461
g3
(g4
g5
(g6
(S'\x07\xe0\t\x16\x0b*\x14\rz\xae'
tRp2462
S'537'
p2463
I1
ttRp2464
sVhttps://www.karriere-suedwestfalen.de/upload/bilder/redaktionell/Motivation.jpg
p2465
g3
(g4
g5
(g6
(S'\x07\xe0\x06\x1b\r+\x0f\x03a\xf6'
tRp2466
S'428'
p2467
I1
ttRp2468
sVhttp://makeyourbodywork.com/wp-content/uploads//2014/05/fitness-motivation.jpg
p2469
g3
(g4
g5
(g6
(S'\x07\xe0\x08\x1b\x0208\x00\xaag'
tRp2470
S'352'
p2471
I1
ttRp2472
sVhttp://study.com/cimages/videopreview/achievement-motivation_112874.jpg
p2473
g3
(g4
g5
(g6
(S'\x07\xe0\t\x1a\r\x08(\x0eK;'
tRp2474
S'492'
p2475
I1
ttRp2476
sVhttp://holmesplace.ch/_public/files/e/d/ed1914_5_tipps_motivation_banner.jpg_960x400_c_.jpg
p2477
g3
(g4
g5
(g6
(S'\x07\xe0\x06\x17\n\x08\x12\r\xbfp'
tRp2478
S'426'
p2479
I1
ttRp2480
sVhttps://www.jetts.com.au/uploads/contentFiles/files/14_02_12_Jetts_National_8WC_Wallpapers_FA7.jpg
p2481
g3
(g4
g5
(g6
(S'\x07\xe0\x07\x11\x15-1\x0e\xb6\xc5'
tRp2482
S'382'
p2483
I1
ttRp2484
sVhttp://refitfamily.com/wp-content/uploads/2015/02/Motivation-11.jpg
p2485
g3
(g4
g5
(g6
(S'\x07\xe0\x01\r\x16\n\x16\x0e\xd5\x87'
tRp2486
S'202'
p2487
I1
ttRp2488
sVhttp://www.trophyfitnessclub.com/wp-content/uploads/2014/09/dd39c304-6ab2-4027-9413-e2b48bf6a0bf.jpg
p2489
g3
(g4
g5
(g6
(S'\x07\xe0\x04\x13\x0f;&\x01\xf2M'
tRp2490
S'113'
p2491
I1
ttRp2492
sVhttp://thewritepractice.com/wp-content/uploads/2012/01/Character-Motivation.jpg
p2493
g3
(g4
g5
(g6
(S'\x07\xe0\x08\x03\x00\x16+\x00\xb3\x08'
tRp2494
S'501'
p2495
I1
ttRp2496
sVhttp://ibutler-world.biz/wp-content/uploads/2015/10/2GEgo6M.jpg
p2497
g3
(g4
g5
(g6
(S'\x07\xe0\x03\x14\x0e\x1d\x16\x05\x1b\x8d'
tRp2498
S'223'
p2499
I1
ttRp2500
sVhttp://thumb7.shutterstock.com/display_pic_with_logo/2486383/264221285/stock-photo-i-can-self-motivation-cutting-the-letter-t-of-the-written-word-i-can-t-so-it-says-i-can-264221285.jpg
p2501
g3
(g4
g5
(g6
(S'\x07\xe0\x08\r\x006\r\x01f$'
tRp2502
S'509'
p2503
I1
ttRp2504
sVhttps://s-media-cache-ak0.pinimg.com/originals/bb/27/b2/bb27b23a6d0c6b7eaa1be22c92673369.jpg
p2505
g3
(g4
g5
(g6
(S'\x07\xe0\t\x1c\x13\x10$\x0e{\x98'
tRp2506
S'564'
p2507
I1
ttRp2508
sVhttp://officialjohnhowell.com/wp-content/uploads/2014/03/motivation.jpg
p2509
g3
(g4
g5
(g6
(S'\x07\xe0\t\x1a\r\x08(\x0eI;'
tRp2510
S'468'
p2511
I1
ttRp2512
sVhttps://cdn.powerofpositivity.com/wp-content/uploads/2015/06/morning-motivation-habits-1024x1024.jpg
p2513
g3
(g4
g5
(g6
(S'\x07\xe0\x06\x1e\n0\x1b\x01\x8d\x86'
tRp2514
S'471'
p2515
I1
ttRp2516
sVhttp://www.soulschooltoday.com/wp-content/uploads/2015/09/motivation-how-to-stay-motivated.jpg
p2517
g3
(g4
g5
(g6
(S'\x07\xe0\n\x02\x13\x18\x1b\x01B\x05'
tRp2518
I-1
I1
ttRp2519
sVhttp://herb.co/wp-content/uploads/2016/01/Motivation-strain-type.jpg?751974
p2520
g3
(g4
g5
(g6
(S'\x07\xe0\x06\x06\r\x0f\x16\n\xa1p'
tRp2521
I-1
I1
ttRp2522
sVhttp://athleticsmotivation.com/wp-content/uploads/2014/12/running-motivation.jpg
p2523
g3
(g4
g5
(g6
(S'\x07\xdf\x0b\x1a\x16\x18;\x02\x8b\x81'
tRp2524
S'33'
p2525
I1
ttRp2526
sVhttps://i.ytimg.com/vi/m52Xi-nRVd0/hqdefault.jpg
p2527
g3
(g4
g5
(g6
(S"\x07\xe0\x07\x03\x0f'\x1f\x08hn"
tRp2528
I-1
I1
ttRp2529
sVhttp://cdn.simplyshredded.com/wp-content/uploads/2014/01/74.jpg
p2530
g3
(g4
g5
(g6
(S'\x07\xe0\x08\r\x006\r\x01f\x11'
tRp2531
S'279'
p2532
I1
ttRp2533
sVhttps://s-media-cache-ak0.pinimg.com/736x/2a/a3/f9/2aa3f952eecce77cb491993438f784b6.jpg
p2534
g3
(g4
g5
(g6
(S'\x07\xe0\x04\t\x0f/\x1a\x02\xe8\x8f'
tRp2535
S'339'
p2536
I1
ttRp2537
sVhttp://www.changeinseconds.com/wp-content/uploads/2013/10/weight-loss-motivation-19.jpg
p2538
g3
(g4
g5
(g6
(S'\x07\xe0\t\x0c\t\x1b)\r\xdb,'
tRp2539
S'309'
p2540
I1
ttRp2541
sVhttps://elearningindustry.com/wp-content/uploads/2015/08/rethinking-employee-motivation.jpg
p2542
g3
(g4
g5
(g6
(S'\x07\xe0\x07\x11\x15-1\x0e\xb7\x1a'
tRp2543
I-1
I1
ttRp2544
sVhttp://pre03.deviantart.net/4017/th/pre/f/2009/352/9/b/motivation_for_exams_by_my_office.jpg
p2545
g3
(g4
g5
(g6
(S'\x07\xe0\x01\r\x16\n\x16\x0e\xd6v'
tRp2546
S'209'
p2547
I2
ttRp2548
sVhttp://www.vitecinc.com/wp-content/uploads/2016/04/Motivation.jpg
p2549
g3
(g4
g5
(g6
(S'\x07\xe0\x07\x11\x15-1\x0e\xb79'
tRp2550
I-1
I1
ttRp2551
sVhttp://www.aniotaoftruth.com/wp-content/uploads/2013/08/A-dream-plus-motivation-becomes-reality-8x10.jpg
p2552
g3
(g4
g5
(g6
(S'\x07\xe0\x05\x12\x12\x05\x10\x02\x87\xc4'
tRp2553
S'83'
p2554
I1
ttRp2555
sVhttp://faithworklife.com/wp-content/uploads/2015/06/Inspiration-vs-Motivation.jpg
p2556
g3
(g4
g5
(g6
(S'\x07\xe0\x05\x07\x15#\x0c\x06\x9a\xa2'
tRp2557
S'400'
p2558
I1
ttRp2559
sVhttp://childdevelopmentinfo.com/wp-content/uploads/2015/09/Untitled-design-39.jpg
p2560
g3
(g4
g5
(g6
(S'\x07\xe0\x04\x13\x0f;&\x01\xf37'
tRp2561
S'293'
p2562
I2
ttRp2563
sVhttp://drdivaphd.files.wordpress.com/2012/11/what-is-your-motivation-dr-diva-verdun.jpg
p2564
g3
(g4
g5
(g6
(S'\x07\xe0\x01\r\x16\n\x16\x0e\xd6\x1c'
tRp2565
S'189'
p2566
I1
ttRp2567
sVhttps://shechive.files.wordpress.com/2016/02/daily-motivation-513.jpg?quality=80&strip=info
p2568
g3
(g4
g5
(g6
(S'\x07\xe0\x04\x03\x0f\x0f0\x00\x15"'
tRp2569
S'322'
p2570
I1
ttRp2571
sVhttps://cdn.hashdoc.com/docs/d4d96ac22d674c8eb10ad0ee5e081058/images/728x/motivation-letter-for-erasmus-1.png
p2572
g3
(g4
g5
(g6
(S'\x07\xdf\x0c\x1a\x1362\x00\xd9\x17'
tRp2573
S'182'
p2574
I1
ttRp2575
sVhttps://i.ytimg.com/vi/sP7CChezoN4/hqdefault.jpg
p2576
g3
(g4
g5
(g6
(S'\x07\xe0\x08\r\x006\r\x01fv'
tRp2577
S'419'
p2578
I1
ttRp2579
sVhttps://i.ytimg.com/vi/FI7PeSNVWmE/maxresdefault.jpg
p2580
g3
(g4
g5
(g6
(S'\x07\xe0\x04\x1d\x10\x02\n\t\xb6M'
tRp2581
S'366'
p2582
I2
ttRp2583
sVhttp://www.fearlessmotivation.com/wp-content/uploads/2016/03/Fearless-Motivation-Motivational-Music-TODAY-IS-THE-DAY.jpg
p2584
g3
(g4
g5
(g6
(S'\x07\xe0\x08\r\x006\r\x01f\xdf'
tRp2585
S'412'
p2586
I1
ttRp2587
sVhttps://lh5.googleusercontent.com/-zP-0anOLznA/UwHj3cHHyGI/AAAAAAAAATA/CwN1KyC4-jw/w375-h502-no/most-motivation-quotes.jpeg
p2588
g3
(g4
g5
(g6
(S'\x07\xe0\x08\r\x006\r\x01f)'
tRp2589
S'458'
p2590
I1
ttRp2591
sVhttp://www.eleganceandenchantment.com/wp-content/uploads/2015/11/Featured-Images-Motivation-Monday-101-500x330.png
p2592
g3
(g4
g5
(g6
(S'\x07\xe0\x03\x1c\x0e .\x0f9\x81'
tRp2593
S'326'
p2594
I1
ttRp2595
sVhttp://www.tattoogen.com/tattoo/Respective_Slanted/404.45000000000005/000000/Motivation.jpg
p2596
g3
(g4
g5
(g6
(S'\x07\xe0\x01\r\x16\n\x16\x0e\xd6\x18'
tRp2597
S'211'
p2598
I1
ttRp2599
sVhttp://e2ua.com/data/wallpapers/172/WDF_2116595.jpg
p2600
g3
(g4
g5
(g6
(S'\x07\xe0\x05\x07\x15#\x0c\x06\x9b#'
tRp2601
I-1
I1
ttRp2602
sVhttps://prod-academy-wp-content-uploads.s3.amazonaws.com/2015/03/MOT_FitIn.jpg
p2603
g3
(g4
g5
(g6
(S'\x07\xe0\t\x1c\x13\x10$\x0e|\xf1'
tRp2604
S'519'
p2605
I1
ttRp2606
sVhttps://shechive.files.wordpress.com/2016/04/daily-motivation-138.jpg?quality=80&strip=info
p2607
g3
(g4
g5
(g6
(S'\x07\xe0\x06\x17\n\x08\x12\r\xbf<'
tRp2608
S'411'
p2609
I1
ttRp2610
sVhttp://flicksleak.com/wp-content/uploads/2015/03/motivation-get-over-depression-m.jpg
p2611
g3
(g4
g5
(g6
(S'\x07\xe0\x03\x0e\r;\x15\x0e\x89\xc8'
tRp2612
I-1
I1
ttRp2613
sVhttp://operationmotivation.com/wp-content/uploads/2014/01/20140105-112120.jpg
p2614
g3
(g4
g5
(g6
(S'\x07\xe0\x02\x11\x04\x08.\x0b\xd9\xa7'
tRp2615
S'125'
p2616
I1
ttRp2617
sVhttp://www.cricketnewsworld.com/img/937/motivation-and-self-confidence-in-sports.jpg
p2618
g3
(g4
g5
(g6
(S'\x07\xe0\t\x16\x0b*\x14\rz\xa8'
tRp2619
S'127'
p2620
I1
ttRp2621
sVhttp://www.wpaperhd.com/uploads/originals/2016/02/26/motivation-inscriptions-funny-o6jL.jpg
p2622
g3
(g4
g5
(g6
(S'\x07\xe0\x07\x11\x15-1\x0e\xb9z'
tRp2623
S'424'
p2624
I1
ttRp2625
sVhttp://rlv.zcache.com/you_dont_need_motivation_postcard-r19c952add9124d93a97da2f7ffc5d074_vgbaq_8byvr_324.jpg
p2626
g3
(g4
g5
(g6
(S'\x07\xe0\x03\x1c\x0e .\x0f9\xc6'
tRp2627
S'271'
p2628
I1
ttRp2629
sVhttp://www.mkbconseil.ch/wp-content/uploads/2014/06/Business-Motivation.jpg
p2630
g3
(g4
g5
(g6
(S'\x07\xe0\x03\x12\x0e\x03\x0b\x00\xeb/'
tRp2631
S'220'
p2632
I1
ttRp2633
sVhttps://quotefancy.com/media/wallpaper/3840x2160/23820-Jim-Rohn-Quote-Motivation-is-what-gets-you-started-Habit-is-what.jpg
p2634
g3
(g4
g5
(g6
(S'\x07\xe0\x05\x07\x15#\x0c\x06\x9b1'
tRp2635
S'385'
p2636
I1
ttRp2637
sVhttp://previews.123rf.com/images/designaart/designaart1212/designaart121200372/17218988-Motivation-Word-In-Hand-Stock-Vector-Stock-Vector.jpg
p2638
g3
(g4
g5
(g6
(S'\x07\xe0\x06\x1e\n0\x1b\x01\x8d\xa0'
tRp2639
S'443'
p2640
I1
ttRp2641
s.