(dp1
Vhttp://www.commentskart.com/wp-content/uploads/2014/08/Patience-Quotes-6.png
p2
ccopy_reg
_reconstructor
p3
(cbase.graph_fetch.fetcher
ImageSlot
p4
c__builtin__
tuple
p5
(cdatetime
datetime
p6
(S'\x07\xe0\x07\x15\x0f\x0b\x18\r\xce\xbe'
tRp7
S'163'
p8
I1
ttRp9
sVhttp://irisdeanda.com/wp-content/uploads/2014/02/patience-2.jpg
p10
g3
(g4
g5
(g6
(S"\x07\xe0\x08\x12\x15+'\n\x04\xe7"
tRp11
S'14'
p12
I2
ttRp13
sVhttp://www.thejapaneseconnection.com/images/kanji_project_custom/patience-japanese-kanji-symbol-8.gif
p14
g3
(g4
g5
(g6
(S'\x07\xe0\x01\x13\x10\x13\x16\x06)\x1e'
tRp15
S'151'
p16
I1
ttRp17
sVhttps://upload.wikimedia.org/wikipedia/en/1/16/Patience.jpg
p18
g3
(g4
g5
(g6
(S'\x07\xe0\x01\x0b\x10\x0f$\r\xb7I'
tRp19
S'148'
p20
I1
ttRp21
sVhttp://cdn-media-1.lifehack.org/wp-content/files/2015/02/eb01ed89be55f5a6ed079983a1fafe88.jpg
p22
g3
(g4
g5
(g6
(S'\x07\xe0\x03\x05\x13\x0e4\x08Q\xa5'
tRp23
S'65'
p24
I1
ttRp25
sVhttp://www.celebrityxo.com/wp-content/uploads/2016/01/Have-patience.-All-things-are__quotes-by-Saadi-86.png
p26
g3
(g4
g5
(g6
(S'\x07\xe0\x03\r\x15$!\x05\xd7\xe6'
tRp27
S'210'
p28
I1
ttRp29
sVhttp://www.shoutmeloud.com/wp-content/uploads/2012/12/Patience-in-blogging.jpg
p30
g3
(g4
g5
(g6
(S'\x07\xe0\x07\r\x0f\x062\x0czE'
tRp31
S'76'
p32
I1
ttRp33
sVhttps://quotefancy.com/media/wallpaper/3840x2160/18040-Michelangelo-Quote-Genius-is-eternal-patience.jpg
p34
g3
(g4
g5
(g6
(S'\x07\xe0\x08\x02\x14(\x02\x00\x12-'
tRp35
S'271'
p36
I2
ttRp37
sVhttp://southbaybbc.org/wp-content/uploads/2015/01/2015-run-with-patience-slide-size.jpg
p38
g3
(g4
g5
(g6
(S"\x07\xe0\x08\x12\x15+'\n\x05("
tRp39
I-1
I1
ttRp40
sVhttps://heavyeditorial.files.wordpress.com/2016/06/patience-carter1.jpg?quality=65&strip=all&strip=all
p41
g3
(g4
g5
(g6
(S'\x07\xe0\x07\x1b\x14\x13\x17\x0b\x81\x02'
tRp42
S'331'
p43
I1
ttRp44
sVhttp://fatali.com/wp-content/uploads/2012/09/Fatali-Waiting-for-the-light-Patience.jpg
p45
g3
(g4
g5
(g6
(S'\x07\xe0\x07\x1b\x14\x13\x17\x0b\x81;'
tRp46
S'195'
p47
I1
ttRp48
sVhttp://understandquran.com/wp-content/uploads/2012/10/seek-patience.jpg
p49
g3
(g4
g5
(g6
(S'\x07\xdf\x0b\x1c\x16\x05+\x02\xf3\x97'
tRp50
S'67'
p51
I1
ttRp52
sVhttp://cdn-media-1.lifehack.org/wp-content/files/2013/08/Patience-is-the-art-of-concealing-your-impatience..jpg
p53
g3
(g4
g5
(g6
(S'\x07\xe0\x04\x01\x0b\x05\x16\x03\x92\xcd'
tRp54
S'245'
p55
I1
ttRp56
sVhttps://upload.wikimedia.org/wikipedia/commons/4/4e/WP_Patience_Wright.jpg
p57
g3
(g4
g5
(g6
(S"\x07\xe0\x08\x12\x15+'\n\x05S"
tRp58
S'121'
p59
I1
ttRp60
sVhttp://donteversaynever.com/wp-content/uploads/2016/06/2286-Bill-Gates-Quote-Patience-is-a-key-element-of-success.jpg
p61
g3
(g4
g5
(g6
(S'\x07\xe0\x07\x15\x0f\x0b\x18\r\xd0\x1c'
tRp62
S'301'
p63
I1
ttRp64
sVhttps://blufiles.storage.live.com/y1pwUvvqLLshZ8MW-L5o_pTaqII1b9T86oyy8CLLdLAr4uV93qSaPCcZZ5Z35uxqegaeQL4S7MsImY/patience.jpg?psid=1
p65
g3
(g4
g5
(g6
(S'\x07\xdf\x0b\x1c\x16\x05+\x02\xf3\xdb'
tRp66
S'81'
p67
I1
ttRp68
sVhttp://assets3.bigthink.com/system/idea_thumbnails/53323/original/Art-Text-Patience.jpg?1416351159
p69
g3
(g4
g5
(g6
(S'\x07\xe0\x08\x02\x14(\x02\x00\x12\xa2'
tRp70
I-1
I1
ttRp71
sVhttp://thehubforstartups.files.wordpress.com/2014/09/patience1.jpg
p72
g3
(g4
g5
(g6
(S'\x07\xe0\x01\x1f\x103\x11\x0ebr'
tRp73
S'12'
p74
I1
ttRp75
sVhttp://www.kvs.be/sites/default/files/styles/xlarge/public/productions/Filmweek%20PATIENCE_Affiche%20A1_light_0.jpg?itok=5W_1MH9H
p76
g3
(g4
g5
(g6
(S'\x07\xe0\x04\x0f\x10\x0f\r\x07?3'
tRp77
S'171'
p78
I1
ttRp79
sVhttp://ifhappinesscanlastforever.files.wordpress.com/2014/03/1655898_10101308104135799_82878429_n.jpg
p80
g3
(g4
g5
(g6
(S'\x07\xe0\x04\x01\x0b\x05\x16\x03\x93\x18'
tRp81
S'257'
p82
I1
ttRp83
sVhttp://www.aniotaoftruth.com/wp-content/uploads/2013/08/Patience-allows-life-time-to-fall-in-place.8x10.jpg
p84
g3
(g4
g5
(g6
(S'\x07\xe0\x05\x1b\x13\x18\x0b\t\x1a\x1f'
tRp85
I-1
I1
ttRp86
sVhttps://quotefancy.com/media/wallpaper/3840x2160/18894-Geoffrey-Chaucer-Quote-Patience-is-a-conquering-virtue.jpg
p87
g3
(g4
g5
(g6
(S'\x07\xe0\x07\x15\x0f\x0b\x18\r\xd0\x86'
tRp88
S'288'
p89
I1
ttRp90
sVhttp://rebekahmhallberg.com/wp-content/uploads/2013/08/From-Perseverance-to-Patience.jpg
p91
g3
(g4
g5
(g6
(S'\x07\xe0\x01\x13\x10\x13\x16\x06)\xd2'
tRp92
S'155'
p93
I1
ttRp94
sVhttps://quotefancy.com/media/wallpaper/3840x2160/2289-Bill-Gates-Quote-Patience-is-a-key-element-of-success.jpg
p95
g3
(g4
g5
(g6
(S'\x07\xe0\x07\x15\x0f\x0b\x18\r\xd0\x9c'
tRp96
S'325'
p97
I1
ttRp98
sVhttps://i.ytimg.com/vi/tMmX9G8JP38/hqdefault.jpg
p99
g3
(g4
g5
(g6
(S'\x07\xe0\x02\x1a\x11\x02\x0f\rb\x86'
tRp100
S'131'
p101
I1
ttRp102
sVhttp://betrulywealthy.com/wp-content/uploads/2015/01/Patience.jpg
p103
g3
(g4
g5
(g6
(S'\x07\xe0\x07\x19\x0f\x0e\x15\x07\xba\xa3'
tRp104
I-1
I1
ttRp105
sVhttp://www.commentskart.com/wp-content/uploads/2014/08/Patience-Quotes-53.jpg
p106
g3
(g4
g5
(g6
(S'\x07\xe0\x04\x01\x0b\x05\x16\x03\x933'
tRp107
S'242'
p108
I1
ttRp109
sVhttp://hooplaha.com/wp-content/uploads/2012/12/Patience-boy-with-pigeons.jpg
p110
g3
(g4
g5
(g6
(S'\x07\xe0\x07\x1b\x14\x13\x17\x0b\x80\xd6'
tRp111
S'38'
p112
I1
ttRp113
sVhttp://naijapr.com/wp-content/uploads/2016/05/patience-1.jpg
p114
g3
(g4
g5
(g6
(S'\x07\xe0\x08\x02\x14(\x02\x00\x11\xd5'
tRp115
S'303'
p116
I1
ttRp117
sVhttp://www.hdwallpapers-3d.com/wp-content/uploads/2014/06/patience-quotes-hd-wallpaper-6.jpg
p118
g3
(g4
g5
(g6
(S'\x07\xdf\x0b\x1c\x16\x05+\x02\xf3\x92'
tRp119
S'86'
p120
I1
ttRp121
sVhttp://geniusinthemaking.files.wordpress.com/2013/09/patience.jpg
p122
g3
(g4
g5
(g6
(S'\x07\xe0\x07\x15\x0f\x0b\x18\r\xcf\x82'
tRp123
S'221'
p124
I1
ttRp125
sVhttp://static1.squarespace.com/static/53eae327e4b00211d7b1ea28/t/54297ea0e4b03508d143c282/1412005539372/patience
p126
g3
(g4
g5
(g6
(S"\x07\xe0\x08\x12\x15+'\n\x05\x10"
tRp127
S'123'
p128
I1
ttRp129
sVhttps://s-media-cache-ak0.pinimg.com/736x/2d/65/b7/2d65b73d1757d1c57cf4a148777bc117.jpg
p130
g3
(g4
g5
(g6
(S'\x07\xe0\x04\x07\r5;\x0el\xe2'
tRp131
S'255'
p132
I1
ttRp133
sVhttp://opip0g.blu.livefilestore.com/y1ph7weDBvBGXixOaO6VHNhdRcX8MxbO7W5Qmyget3rprPcd3Ai7yBPZ--h5521maoswJ0tHmKNY06jRJiDDmD7Xw8IW2vdoxij/patience.jpg?psid=1
p134
g3
(g4
g5
(g6
(S'\x07\xe0\x07\r\x0f\x062\x0cz\xa5'
tRp135
S'50'
p136
I1
ttRp137
sVhttp://quotesideas.com/wp-content/uploads/2015/02/Keep-calm-patience-quote-new-2015.jpg
p138
g3
(g4
g5
(g6
(S"\x07\xe0\x08\x12\x15+'\n\x05\xc3"
tRp139
I-1
I1
ttRp140
sVhttp://www.quotescover.com/wp-content/uploads/%C2%A0With-patience-you-go-beyond__quotes-by-Catalan-Proverb-71.png
p141
g3
(g4
g5
(g6
(S'\x07\xe0\x05\x1b\x13\x18\x0b\t\x19\x95'
tRp142
S'275'
p143
I1
ttRp144
sVhttp://www.lovethispic.com/uploaded_images/109900-Patience.jpg
p145
g3
(g4
g5
(g6
(S'\x07\xe0\x08\x02\x14(\x02\x00\x12('
tRp146
S'310'
p147
I1
ttRp148
sVhttp://runrichmondky.com/wp-content/uploads/2016/03/god-grant-me-patience.png
p149
g3
(g4
g5
(g6
(S'\x07\xe0\x04\x0f\x10\x0f\r\x07=\xf3'
tRp150
S'241'
p151
I1
ttRp152
sVhttps://ninjatune.net/images/releases/patience-main.jpg
p153
g3
(g4
g5
(g6
(S"\x07\xe0\x08\x12\x15+'\n\x058"
tRp154
I-1
I1
ttRp155
sVhttp://www.thefreshexchangeblog.com/assets/Patience_01.jpg
p156
g3
(g4
g5
(g6
(S'\x07\xe0\n\x1e\x12\x12\x1b\x02\x8ah'
tRp157
S'326'
p158
I2
ttRp159
sVhttps://cdn.thewatershed.com/wp-content/uploads/2013/03/KEEP-CALM-AND-HAVE-PATIENCE-03-25-13.jpg
p160
g3
(g4
g5
(g6
(S'\x07\xe0\x04\x0f\x10\x0f\r\x07>e'
tRp161
S'3'
I1
ttRp162
sVhttp://facingtrials.com/wp-content/uploads/2013/10/sharron-postcards-fruit-of-spirit-patience.jpg
p163
g3
(g4
g5
(g6
(S"\x07\xe0\x03\t\x13\x17'\x05Gr"
tRp164
S'218'
p165
I1
ttRp166
sVhttps://lswministries.files.wordpress.com/2015/04/image1.jpg
p167
g3
(g4
g5
(g6
(S'\x07\xe0\x03\x12\n-:\x0e\xaa\xc2'
tRp168
S'239'
p169
I1
ttRp170
sVhttp://www.njwomenshistory.org/wp-content/uploads/2013/11/Patience-Lovell-Wright.jpg
p171
g3
(g4
g5
(g6
(S'\x07\xe0\x03\x16\n2-\x04\x92\xf9'
tRp172
S'172'
p173
I1
ttRp174
sVhttps://media.licdn.com/mpr/mpr/p/8/005/07b/058/260f0c1.jpg
p175
g3
(g4
g5
(g6
(S'\x07\xe0\x01\x0b\x10\x0f$\r\xb7\xde'
tRp176
S'146'
p177
I1
ttRp178
sVhttp://my2ndheartbeat.files.wordpress.com/2013/02/patience11.jpg
p179
g3
(g4
g5
(g6
(S'\x07\xe0\x01\x19\x10\x17\x1e\x05\xb1\xe9'
tRp180
S'20'
p181
I1
ttRp182
sVhttp://www.lovethispic.com/uploaded_images/78371-Patience.jpg
p183
g3
(g4
g5
(g6
(S'\x07\xe0\x08\x02\x14(\x02\x00\x12\xce'
tRp184
S'302'
p185
I1
ttRp186
sVhttp://www.ryanhvaughn.com/wp-content/uploads/2012/06/patience.jpg
p187
g3
(g4
g5
(g6
(S'\x07\xdf\x0b\x08\x13\r"\x05+f'
tRp188
I-1
I1
ttRp189
sVhttp://silverleafphotos.com/blog/wp-content/uploads/2016/02/Patience2.png
p190
g3
(g4
g5
(g6
(S'\x07\xe0\x05\x1b\x13\x18\x0b\t\x1a3'
tRp191
S'291'
p192
I1
ttRp193
sVhttps://c2.staticflickr.com/4/3901/14546646743_101aac91f1_b.jpg
p194
g3
(g4
g5
(g6
(S'\x07\xe0\x07\x1b\x14\x13\x17\x0b\x81\xa2'
tRp195
S'196'
p196
I1
ttRp197
sVhttps://i.ytimg.com/vi/VQ4ziRhLGCE/maxresdefault.jpg
p198
g3
(g4
g5
(g6
(S"\x07\xe0\x08\x12\x15+'\n\x05\xb8"
tRp199
S'183'
p200
I1
ttRp201
sVhttp://disgeneration.files.wordpress.com/2013/12/patience-phipps.jpg
p202
g3
(g4
g5
(g6
(S"\x07\xe0\x03\t\x13\x17'\x05H?"
tRp203
S'139'
p204
I1
ttRp205
sVhttp://thumbs.dreamstime.com/z/no-patience-hourglass-under-warning-sign-white-background-34457190.jpg
p206
g3
(g4
g5
(g6
(S'\x07\xe0\x03\x16\n2-\x04\x92\xa5'
tRp207
S'182'
p208
I1
ttRp209
sVhttp://moonstonedragonfly.com/wp-content/uploads/2015/08/patience-quotes-6.jpg
p210
g3
(g4
g5
(g6
(S'\x07\xe0\x01\x0b\x10\x0f$\r\xb7r'
tRp211
S'61'
p212
I1
ttRp213
sVhttp://static1.squarespace.com/static/553d7f4ce4b0fd1d73f6f8eb/55576ba1e4b0607a0bab42ae/5629a0f6e4b0f99eccfd2e30/1447174441834/?format=1500w
p214
g3
(g4
g5
(g6
(S'\x07\xdf\x0c\x0c\x11\x1f\x1f\x04\x01\xd8'
tRp215
S'115'
p216
I1
ttRp217
sVhttp://focuswod.com/wp-content/uploads/2015/06/patience..jpg
p218
g3
(g4
g5
(g6
(S'\x07\xe0\x01\x13\x10\x13\x16\x06)\xa1'
tRp219
S'5'
I1
ttRp220
sVhttp://www.trans4mind.com/quotes/patience.jpg
p221
g3
(g4
g5
(g6
(S'\x07\xe0\x08\x0c\x14.\x18\x00\x9a['
tRp222
S'125'
p223
I1
ttRp224
sVhttp://spiritualcleansing.org/wp-content/uploads/2015/05/Patience-is-not-about-how-long-you-can-wait-but-how-well-you-behave-while-youre-waiting..jpg
p225
g3
(g4
g5
(g6
(S'\x07\xe0\x07\x1f\x14#\x16\t}\xcc'
tRp226
S'253'
p227
I1
ttRp228
sVhttp://happysomeone.com/wp-content/uploads/2013/11/Patience.jpg
p229
g3
(g4
g5
(g6
(S'\x07\xe0\x03\x05\x13\x0e4\x08Q\x99'
tRp230
I-1
I1
ttRp231
sVhttps://molysite.s3.amazonaws.com/uploads/screenshot/image/348/thumb_article_PatienceBanner.png
p232
g3
(g4
g5
(g6
(S'\x07\xe0\x02\x1a\x11\x02\x0f\ra\xdf'
tRp233
I-1
I1
ttRp234
sVhttp://dailydevotion.tv/wp-content/uploads/2015/04/3030000-poster-p-1-3030000-first-isnt-always-best-when-patience-pays-off.jpg
p235
g3
(g4
g5
(g6
(S'\x07\xe0\x05\x1b\x13\x18\x0b\t\x19{'
tRp236
S'209'
p237
I1
ttRp238
sVhttp://rachelwojo.com/wp-content/uploads/2015/06/patience.jpg
p239
g3
(g4
g5
(g6
(S'\x07\xe0\x07\x1b\x14\x13\x17\x0b\x81`'
tRp240
S'206'
p241
I1
ttRp242
sVhttp://static.rogerebert.com/uploads/review/primary_image/reviews/the-patience-stone-2013/hero_PatienceStone-2013-4.jpg
p243
g3
(g4
g5
(g6
(S'\x07\xe0\x07\x1b\x14\x13\x17\x0b\x81\x13'
tRp244
S'256'
p245
I1
ttRp246
sVhttps://www.patiencebrewster.com/media/catalog/category/AboutPatience_1.jpg
p247
g3
(g4
g5
(g6
(S"\x07\xe0\x08\x12\x15+'\n\x05\x08"
tRp248
S'350'
p249
I1
ttRp250
sVhttps://quotefancy.com/media/wallpaper/3840x2160/19260-Imam-Ali-Quote-Two-things-define-you-Your-patience-when-you-have.jpg
p251
g3
(g4
g5
(g6
(S'\x07\xe0\x07\x15\x0f\x0b\x18\r\xcf\xbf'
tRp252
S'224'
p253
I2
ttRp254
sVhttp://chrismarlow.me/wp-content/uploads/2013/10/httpwww.helponenow.orglegacyprojectday29patience.jpg
p255
g3
(g4
g5
(g6
(S'\x07\xe0\x01\x19\x10\x17\x1e\x05\xb1\xac'
tRp256
S'124'
p257
I1
ttRp258
sVhttp://www.jairekrobbins.com/wp-content/uploads/2015/08/Patience-1.jpg
p259
g3
(g4
g5
(g6
(S'\x07\xe0\x02\x1a\x11\x02\x0f\rbD'
tRp260
S'157'
p261
I1
ttRp262
sVhttps://media.ldscdn.org/images/media-library/by-topic/faith-hope-and-love/meme-patience-1474592-wallpaper.jpg?download=true
p263
g3
(g4
g5
(g6
(S'\x07\xe0\x07\x15\x0f\x0b\x18\r\xd0\x0c'
tRp264
S'324'
p265
I1
ttRp266
sVhttp://sausedo.net/wp-content/uploads/2012/02/patience.gif
p267
g3
(g4
g5
(g6
(S'\x07\xdf\x0b\x1c\x16\x05+\x02\xf3\xd2'
tRp268
S'26'
p269
I1
ttRp270
sVhttps://upload.wikimedia.org/wikipedia/commons/5/53/Pacientia_or_Patience.jpg
p271
g3
(g4
g5
(g6
(S"\x07\xe0\x08\x12\x15+'\n\x05g"
tRp272
S'113'
p273
I1
ttRp274
sVhttp://1.bp.blogspot.com/-ePZfHWHfV04/Ucoku1JuCsI/AAAAAAAAAtM/_RkeDK66uL4/s1600/Patience+is+a+Virtue.jpg
p275
g3
(g4
g5
(g6
(S'\x07\xe0\x07\x1f\x14#\x16\t}\x90'
tRp276
S'252'
p277
I1
ttRp278
sVhttp://www.hdwallpapers-3d.com/wp-content/uploads/2014/06/patience-quotes-hd-wallpaper-9-1024x640.jpg
p279
g3
(g4
g5
(g6
(S'\x07\xe0\x04\x01\x0b\x05\x16\x03\x92\xb1'
tRp280
I-1
I1
ttRp281
sVhttp://www.bstlhj6.com/data/out/145/4915144-patience-wallpapers.jpg
p282
g3
(g4
g5
(g6
(S"\x07\xe0\x08\x12\x15+'\n\x05\x85"
tRp283
I-1
I1
ttRp284
sVhttps://cdn.thewatershed.com/watershed/wp-content/uploads/2013/03/KEEP-CALM-AND-HAVE-PATIENCE-03-25-13.jpg
p285
g3
(g4
g5
(g6
(S"\x07\xe0\x08\x12\x15+'\n\x04\xf8"
tRp286
S'274'
p287
I1
ttRp288
sVhttp://quotes.lifehack.org/media/quotes/quote-Mahatma-Gandhi-if-patience-is-worth-anything-it-must-38915.png
p289
g3
(g4
g5
(g6
(S'\x07\xe0\x07\x1b\x14\x13\x17\x0b\x81|'
tRp290
S'101'
p291
I1
ttRp292
sVhttp://2.bp.blogspot.com/-EnQ31MHoYUI/T6WxAo363aI/AAAAAAAAAdA/RPFTtRXilPE/s1600/Patience-cartoon.png
p293
g3
(g4
g5
(g6
(S"\x07\xe0\x08\x12\x15+'\n\x05\x99"
tRp294
S'349'
p295
I1
ttRp296
sVhttp://stephaniemulac.com/blog/wp-content/uploads/2015/05/Patience.png
p297
g3
(g4
g5
(g6
(S'\x07\xe0\x08\x0c\x14.\x18\x00\x9a_'
tRp298
S'352'
p299
I1
ttRp300
sVhttp://bingeeatingtherapy.com/wp-content/uploads/2011/10/patience.jpg
p301
g3
(g4
g5
(g6
(S'\x07\xe0\x01\x0b\x10\x0f$\r\xb7v'
tRp302
S'152'
p303
I1
ttRp304
sVhttps://i.ytimg.com/vi/XywUr9zBOWU/maxresdefault.jpg
p305
g3
(g4
g5
(g6
(S"\x07\xe0\x08\x12\x15+'\n\x05\xa1"
tRp306
S'102'
p307
I1
ttRp308
sVhttps://quotefancy.com/media/wallpaper/3840x2160/10430-Leonardo-da-Vinci-Quote-Patience-serves-as-a-protection-against.jpg
p309
g3
(g4
g5
(g6
(S'\x07\xe0\x07\x19\x0f\x0e\x15\x07\xba\x90'
tRp310
S'165'
p311
I1
ttRp312
sVhttp://www.themindfulword.org/wp-content/uploads/2015/12/woman-running-perseverance-patience.jpg
p313
g3
(g4
g5
(g6
(S'\x07\xe0\x08\x02\x14(\x02\x00\x13&'
tRp314
S'309'
p315
I1
ttRp316
sVhttp://www.themonolith.com/wp-content/uploads/Skyharbor-Patience-video-still.jpg
p317
g3
(g4
g5
(g6
(S'\x07\xe0\x07\x1b\x14\x13\x17\x0b\x81\xbe'
tRp318
S'330'
p319
I1
ttRp320
sVhttp://www.twitip.com/wp-content/uploads/2008/12/patience.jpg
p321
g3
(g4
g5
(g6
(S'\x07\xdf\x0b\x1c\x16\x05+\x02\xf4\x00'
tRp322
S'8'
I1
ttRp323
sVhttp://www.fantagraphics.com/images/detailed/7/PATIENCE_FC_Colors-(1).png
p324
g3
(g4
g5
(g6
(S"\x07\xe0\x08\x12\x15+'\n\x04\xef"
tRp325
S'292'
p326
I1
ttRp327
sVhttp://quotestalk.net/wp-content/uploads/2013/01/Simplicity-patience-compassion.jpg
p328
g3
(g4
g5
(g6
(S'\x07\xe0\x07\x1b\x14\x13\x17\x0b\x80\xe6'
tRp329
I-1
I2
ttRp330
sVhttp://thumbs.media.smithsonianmag.com//filer/7b/03/7b03e9f0-6e3f-44db-b7b4-8e937c100427/patience-wright.jpg__800x600_q85_crop.jpg
p331
g3
(g4
g5
(g6
(S'\x07\xe0\x04\x01\x0b\x05\x16\x03\x92|'
tRp332
S'268'
p333
I1
ttRp334
sVhttps://therebelliousmillennial.files.wordpress.com/2014/10/78371-patience.jpg
p335
g3
(g4
g5
(g6
(S'\x07\xe0\x01\x0b\x10\x0f$\r\xb7\xec'
tRp336
S'153'
p337
I1
ttRp338
sVhttp://media.ldscdn.org/images/media-library/by-topic/faith-hope-and-love/meme-patience-1474592-wallpaper.jpg?download=true
p339
g3
(g4
g5
(g6
(S"\x07\xe0\x03\t\x13\x17'\x05GZ"
tRp340
S'223'
p341
I1
ttRp342
sVhttp://mumturnedmom.com/wp-content/uploads/2014/09/patience.jpg
p343
g3
(g4
g5
(g6
(S"\x07\xe0\x08\x12\x15+'\n\x05 "
tRp344
S'232'
p345
I1
ttRp346
sVhttp://www.thequotepedia.com/images/98/patience-has-its-limits-take-it-too-far-and-its-cowardice-patience-quote.png
p347
g3
(g4
g5
(g6
(S'\x07\xe0\x04\x01\x0b\x05\x16\x03\x92\xe1'
tRp348
S'258'
p349
I1
ttRp350
sVhttp://previews.123rf.com/images/kentoh/kentoh1201/kentoh120100001/11807644-Patience-is-a-Virtue-to-Success-and-Glory-Stock-Photo-patience-motivation-motivational.jpg
p351
g3
(g4
g5
(g6
(S'\x07\xe0\x08\x0e\x15*/\x03o\xf4'
tRp352
S'354'
p353
I1
ttRp354
sVhttp://cdn.shopify.com/s/files/1/0171/2222/files/practice_patience.jpg?1363
p355
g3
(g4
g5
(g6
(S'\x07\xe0\x01\x1f\x103\x11\x0eb\x0c'
tRp356
S'168'
p357
I1
ttRp358
sVhttp://www.aheadmarket.com/wp-content/uploads/2015/06/patience.jpg
p359
g3
(g4
g5
(g6
(S'\x07\xe0\x07\x1b\x14\x13\x17\x0b\x81#'
tRp360
S'55'
p361
I1
ttRp362
sVhttps://s-media-cache-ak0.pinimg.com/originals/86/79/f0/8679f0803f8d06e9ea98f3fde3ab36c5.jpg
p363
g3
(g4
g5
(g6
(S'\x07\xe0\n\x1e\x12\x12\x1b\x02\x8a\xfc'
tRp364
S'327'
p365
I1
ttRp366
sVhttps://i.ytimg.com/vi/Y4aAQFM8FOg/maxresdefault.jpg
p367
g3
(g4
g5
(g6
(S'\x07\xe0\x07\x15\x0f\x0b\x18\r\xd0\x05'
tRp368
S'290'
p369
I1
ttRp370
sVhttps://thehubforstartups.files.wordpress.com/2014/09/patience1.jpg
p371
g3
(g4
g5
(g6
(S'\x07\xe0\n\x1e\x12\x12\x1b\x02\x8a\x8d'
tRp372
S'205'
p373
I1
ttRp374
sVhttp://img.picturequotes.com/2/21/20741/patience-is-also-a-form-of-action-quote-1.jpg
p375
g3
(g4
g5
(g6
(S'\x07\xe0\x03\x05\x13\x0e4\x08Q\xe4'
tRp376
S'191'
p377
I1
ttRp378
sVhttp://rawpl.com/wp-content/uploads/2015/12/patience-quotes-for-best-collections-of-patience-quotes-2015-4.jpg
p379
g3
(g4
g5
(g6
(S'\x07\xdf\x0c\x14\x10\t"\rK\xe1'
tRp380
I-1
I1
ttRp381
sVhttp://weneedfun.com/wp-content/uploads/2016/07/Patience-Quotes-4.jpg
p382
g3
(g4
g5
(g6
(S'\x07\xe0\x08\x0c\x14.\x18\x00\x9a\xde'
tRp383
S'345'
p384
I1
ttRp385
sVhttp://cruciality.wordpress.com/files/2008/12/patience.jpg
p386
g3
(g4
g5
(g6
(S'\x07\xe0\x04\x07\r5;\x0en4'
tRp387
S'269'
p388
I1
ttRp389
sVhttp://emilysquotes.com/wp-content/uploads/2014/07/EmilysQuotes.Com-patience-happiness-inspirational-positive-wisdom-African-proverb-Swahili-proverb.jpg
p390
g3
(g4
g5
(g6
(S'\x07\xe0\x07\x1b\x14\x13\x17\x0b\x81\x81'
tRp391
S'333'
p392
I2
ttRp393
sVhttp://fcsl.edu/blogs/pp/files/2011/10/patience-photo-for-blog.gif
p394
g3
(g4
g5
(g6
(S'\x07\xe0\x01\x0b\x10\x0f$\r\xb7\xe2'
tRp395
S'72'
p396
I1
ttRp397
sVhttp://talkingtrading.com.au/wp-content/uploads/2015/10/Patience.jpg
p398
g3
(g4
g5
(g6
(S'\x07\xe0\x07\x19\x0f\x0e\x15\x07\xba\xe4'
tRp399
S'225'
p400
I3
ttRp401
sVhttps://cdn-media.threadless.com/submissions_wm/629524-fffed153b8fbea824670d0ccfff37a0c.jpg
p402
g3
(g4
g5
(g6
(S"\x07\xe0\x08\x12\x15+'\n\x05\x9d"
tRp403
S'98'
p404
I1
ttRp405
sVhttp://2.bp.blogspot.com/-R7qwyQH5nUc/T1o74DGdz3I/AAAAAAAAANk/0PCvnDMdn8U/s1600/Patience.jpg
p406
g3
(g4
g5
(g6
(S'\x07\xe0\x03\x12\n-:\x0e\xaa\xa9'
tRp407
S'169'
p408
I2
ttRp409
sVhttp://1.bp.blogspot.com/-X6US7wM8j_Y/VBaol4WRcuI/AAAAAAAABp8/6SLgSIsCmVE/s1600/patience.jpg
p410
g3
(g4
g5
(g6
(S'\x07\xe0\x04\x01\x0b\x05\x16\x03\x936'
tRp411
S'261'
p412
I1
ttRp413
sVhttp://prayers4america.org/wp-content/uploads/2012/04/patience.jpg
p414
g3
(g4
g5
(g6
(S'\x07\xe0\x07\x15\x0f\x0b\x18\r\xd0\xd5'
tRp415
I-1
I1
ttRp416
sVhttp://www.thequotepedia.com/images/98/ive-said-my-patience-is-not-infinite-patience-quote.png
p417
g3
(g4
g5
(g6
(S'\x07\xe0\x04\x07\r5;\x0em\xb6'
tRp418
S'197'
p419
I1
ttRp420
sVhttps://otterlover58.files.wordpress.com/2015/10/gods_patience.png
p421
g3
(g4
g5
(g6
(S'\x07\xe0\x04\x01\x0b\x05\x16\x03\x92\x8d'
tRp422
S'276'
p423
I1
ttRp424
sVhttps://2.bp.blogspot.com/-LJ8vA0fKITQ/V1beNkpsS5I/AAAAAAAAAeY/_X_ScC9QO2gXa5R5t0iuzPynSmpZygA-gCLcB/s1600/Patience.png
p425
g3
(g4
g5
(g6
(S'\x07\xe0\x08\x02\x14(\x02\x00\x13+'
tRp426
S'307'
p427
I1
ttRp428
sVhttp://quotes.lifehack.org/media/quotes/quote-Darrell-Issa-ive-said-my-patience-is-not-infinite-19185.png
p429
g3
(g4
g5
(g6
(S'\x07\xe0\x07\x1b\x14\x13\x17\x0b\x81\n'
tRp430
S'342'
p431
I1
ttRp432
sVhttp://theaposition.com/robertfagan/wp-content/uploads/sites/33/2011/11/patience.jpg
p433
g3
(g4
g5
(g6
(S'\x07\xe0\x02\x1a\x11\x02\x0f\ra\x9e'
tRp434
I-1
I1
ttRp435
sVhttp://righthandstudios.com/wp-content/uploads/2015/09/Patience_Logo.png
p436
g3
(g4
g5
(g6
(S'\x07\xe0\x01\x13\x10\x13\x16\x06)\xbd'
tRp437
I-1
I1
ttRp438
sVhttp://www.quotehd.com/imagequotes/authors5/francois-de-la-rochefoucauld-writer-we-have-no-patience-with-other.jpg
p439
g3
(g4
g5
(g6
(S'\x07\xe0\n\x1e\x12\x12\x1b\x02\x8a\x93'
tRp440
S'190'
p441
I1
ttRp442
sVhttp://theworldlyrics.com/wp-content/uploads/2015/06/A-moment-of-patience.jpg
p443
g3
(g4
g5
(g6
(S'\x07\xe0\x07\x1f\x14#\x16\t}z'
tRp444
S'198'
p445
I1
ttRp446
sVhttp://cdn.christianquotes.info/wp-content/uploads/Warren-Wiersbe-Quote-Patience.jpg
p447
g3
(g4
g5
(g6
(S'\x07\xe0\x08\x0c\x14.\x18\x00\x9ai'
tRp448
S'208'
p449
I2
ttRp450
sVhttps://ifhappinesscanlastforever.files.wordpress.com/2014/03/1655898_10101308104135799_82878429_n.jpg
p451
g3
(g4
g5
(g6
(S'\x07\xe0\x07\x1b\x14\x13\x17\x0b\x80\xea'
tRp452
S'334'
p453
I1
ttRp454
sVhttp://www.hdwallpapers-3d.com/wp-content/uploads/2014/06/patience-quotes-hd-wallpaper-22.jpg
p455
g3
(g4
g5
(g6
(S'\x07\xe0\x03\x16\n2-\x04\x93\x01'
tRp456
I-1
I1
ttRp457
sVhttps://4.bp.blogspot.com/-IvSmVo5vl-c/Vw7XpAHNCRI/AAAAAAAAc_s/6SdoHWD5JrwRdUZEY5h85SM0EHPHb-QNACLcB/s1600/patience-quotes-2.jpg
p458
g3
(g4
g5
(g6
(S'\x07\xe0\x08\x0c\x14.\x18\x00\x9a\x8b'
tRp459
S'300'
p460
I1
ttRp461
sVhttps://camo.githubusercontent.com/e1c1aae4418331ebdd825f717c483a6be0772ed8/687474703a2f2f696d672d666f746b692e79616e6465782e72752f6765742f363230352f39383939313933372e382f305f37343839305f61653038353938395f6f726967
p462
g3
(g4
g5
(g6
(S'\x07\xe0\x07\x1b\x14\x13\x17\x0b\x81\x06'
tRp463
S'247'
p464
I1
ttRp465
sVhttp://quotesstack.com/wp-content/uploads/2013/11/patience-001.jpg
p466
g3
(g4
g5
(g6
(S'\x07\xe0\x04\x0f\x10\x0f\r\x07=\xad'
tRp467
S'100'
p468
I1
ttRp469
sVhttp://godsbreathpublications.com/images/fruitpatience.jpg
p470
g3
(g4
g5
(g6
(S'\x07\xe0\x03\x12\n-:\x0e\xa9\xfc'
tRp471
S'235'
p472
I4
ttRp473
sVhttp://static1.squarespace.com/static/55f1bce3e4b0c5134f7f019d/t/569bff62c647addf69b5b570/1453064035467/
p474
g3
(g4
g5
(g6
(S'\x07\xe0\x03\x05\x13\x0e4\x08Q\xc0'
tRp475
S'189'
p476
I1
ttRp477
sVhttp://www.myquotesclub.com/wp-content/uploads/2015/08/I-ve-said-my-patience-is-not-infinite.png
p478
g3
(g4
g5
(g6
(S'\x07\xdf\x0c\x08\x10,\x07\x02\xdb\xfa'
tRp479
S'105'
p480
I1
ttRp481
sVhttp://www.carpejuvenis.com/wp-content/uploads/2013/09/Patience-Quote-10-02-13.jpg
p482
g3
(g4
g5
(g6
(S'\x07\xe0\x03\x16\n2-\x04\x930'
tRp483
S'188'
p484
I2
ttRp485
sVhttps://thewetcanoeist.files.wordpress.com/2013/03/me_113_patience.png
p486
g3
(g4
g5
(g6
(S'\x07\xe0\x07\x05\x0f\x02\x16\x08\xdb\xbe'
tRp487
S'308'
p488
I1
ttRp489
sVhttps://cuteoverload.files.wordpress.com/patience-1278-_tphq.jpg
p490
g3
(g4
g5
(g6
(S'\x07\xe0\x04\x07\r5;\x0el\xb9'
tRp491
S'250'
p492
I1
ttRp493
sVhttps://quotefancy.com/media/wallpaper/3840x2160/2285-Bill-Gates-Quote-Patience-is-a-key-element-of-success.jpg
p494
g3
(g4
g5
(g6
(S'\x07\xe0\x07\x15\x0f\x0b\x18\r\xd03'
tRp495
S'322'
p496
I1
ttRp497
sVhttp://notagrouch.com/wp-content/uploads/patience-870x416.jpg
p498
g3
(g4
g5
(g6
(S'\x07\xe0\x03\x05\x13\x0e4\x08Q\xd9'
tRp499
S'19'
p500
I1
ttRp501
sVhttp://quotesideas.com/wp-content/uploads/2015/02/love-quotes-about-patience-607.jpg
p502
g3
(g4
g5
(g6
(S'\x07\xe0\x08\x02\x14(\x02\x00\x12\x89'
tRp503
I-1
I1
ttRp504
sVhttps://sallyabbas.files.wordpress.com/2012/10/tumblr_mb57s3ftim1qihodeo1_500.jpg
p505
g3
(g4
g5
(g6
(S'\x07\xe0\x01\x13\x10\x13\x16\x06)z'
tRp506
S'9'
I1
ttRp507
sVhttp://3.bp.blogspot.com/-zp_dSW-_lSw/UPyZlD9W8II/AAAAAAAAAJM/Ml64yG2yWXc/s1600/patience-rome.jpg
p508
g3
(g4
g5
(g6
(S"\x07\xe0\x08\x12\x15+'\n\x05z"
tRp509
S'348'
p510
I1
ttRp511
sVhttp://jp1.r0tt.com/l_40a4a3c0-5b12-11e1-8b17-474b0ff00001.jpg
p512
g3
(g4
g5
(g6
(S'\x07\xe0\x08\x02\x14(\x02\x00\x12\xbe'
tRp513
S'294'
p514
I1
ttRp515
sVhttp://image.shutterstock.com/z/stock-vector-hand-drawn-quote-all-we-need-is-little-patience-black-letters-on-pale-gray-textured-background-383792038.jpg
p516
g3
(g4
g5
(g6
(S"\x07\xe0\x08\x12\x15+'\n\x05@"
tRp517
S'346'
p518
I1
ttRp519
sVhttp://refe99.com/wp-content/uploads/2014/09/Patience-in-Leadership.jpg
p520
g3
(g4
g5
(g6
(S'\x07\xe0\x07\x15\x0f\x0b\x18\r\xd0\x96'
tRp521
S'281'
p522
I1
ttRp523
sVhttp://rawpl.com/wp-content/uploads/2015/12/patience-quotes-for-best-collections-of-patience-quotes-2015-31.jpg
p524
g3
(g4
g5
(g6
(S'\x07\xdf\x0c\x14\x10\t"\rK\xb0'
tRp525
S'130'
p526
I1
ttRp527
sVhttp://1.bp.blogspot.com/-2U-8nqHiSc4/UmKe0PjuomI/AAAAAAAAACU/vhBtH7fn1Ag/s1600/Time-Photo1.jpg
p528
g3
(g4
g5
(g6
(S'\x07\xdf\x0c\x14\x10\t"\rL('
tRp529
S'43'
p530
I1
ttRp531
sVhttp://az616578.vo.msecnd.net/files/2016/07/24/636049738916981001-829885414_patience1-1.jpg
p532
g3
(g4
g5
(g6
(S'\x07\xe0\x08\x02\x14(\x02\x00\x12\xae'
tRp533
S'343'
p534
I1
ttRp535
sVhttps://shahqah.files.wordpress.com/2012/03/patience3e.jpg
p536
g3
(g4
g5
(g6
(S'\x07\xe0\x04\x0f\x10\x0f\r\x07<\xde'
tRp537
S'277'
p538
I1
ttRp539
sVhttp://graphicsheat.com/wp-content/uploads/2015/05/EmilysQuotes.Com-patience-problems-relationship-wisdom-Sudanese-proverb-African-proverb.jpg
p540
g3
(g4
g5
(g6
(S"\x07\xe0\x03\t\x13\x17'\x05F\x9d"
tRp541
I-1
I1
ttRp542
sVhttp://islamichub.net/islamich/uploads/2014/11/97816060885241.jpg
p543
g3
(g4
g5
(g6
(S'\x07\xe0\x07\x05\x0f\x02\x16\x08\xdb~'
tRp544
S'22'
p545
I1
ttRp546
sVhttp://blog-cdn.yesheis.com/en/wp-content/uploads/2012/05/Patience.png
p547
g3
(g4
g5
(g6
(S'\x07\xe0\x05\x19\x10\x12\x0e\x04\x07\x05'
tRp548
I-1
I1
ttRp549
sVhttp://backstagevancouver.com/wp-content/uploads/2009/08/The-Patience-Product-Change-of-Heart-Change-of-Tune.jpg
p550
g3
(g4
g5
(g6
(S'\x07\xe0\x01\x13\x10\x13\x16\x06)e'
tRp551
S'142'
p552
I1
ttRp553
sVhttps://i.ytimg.com/vi/GG-MXScOPQ8/maxresdefault.jpg
p554
g3
(g4
g5
(g6
(S'\x07\xe0\x03\x16\n2-\x04\x93\x05'
tRp555
S'185'
p556
I2
ttRp557
sVhttp://simplereminders.com/uploads/images/blog/unknown-author-boarder-moment-patience-anger-regret-6m5x.jpg
p558
g3
(g4
g5
(g6
(S'\x07\xe0\x08\x02\x14(\x02\x00\x12"'
tRp559
I-1
I1
ttRp560
sVhttp://static1.squarespace.com/static/5576063fe4b0429299982f35/t/5603e229e4b07f7d56f508a7/1443095081634/
p561
g3
(g4
g5
(g6
(S'\x07\xdf\x0b\x1c\x16\x05+\x02\xf3{'
tRp562
S'41'
p563
I1
ttRp564
sVhttp://www.drjudithorloff.com/images/patience.jpg
p565
g3
(g4
g5
(g6
(S'\x07\xdf\x0b\x1c\x16\x05+\x02\xf3\xac'
tRp566
S'6'
I1
ttRp567
sVhttps://i.ytimg.com/vi/ByN-vjbDQNk/maxresdefault.jpg
p568
g3
(g4
g5
(g6
(S'\x07\xe0\x03\x12\n-:\x0e\xaah'
tRp569
I-1
I1
ttRp570
sVhttp://quotesideas.com/wp-content/uploads/2015/02/Cute-patience-quote-new-2015.jpg
p571
g3
(g4
g5
(g6
(S'\x07\xe0\x08\x0c\x14.\x18\x00\x9b"'
tRp572
I-1
I1
ttRp573
sVhttp://www.quotehd.com/imagequotes/authors9/w-b-prescott-quote-in-any-contest-between-power-and-patience-bet-on-pa.jpg
p574
g3
(g4
g5
(g6
(S'\x07\xe0\x07\x1b\x14\x13\x17\x0b\x81\xb0'
tRp575
S'266'
p576
I1
ttRp577
sVhttps://s-media-cache-ak0.pinimg.com/736x/45/17/a8/4517a88429ed237ff737b884a0d22a24.jpg
p578
g3
(g4
g5
(g6
(S'\x07\xe0\x04\x0f\x10\x0f\r\x07>\xbd'
tRp579
S'52'
p580
I1
ttRp581
sVhttp://design.bigbangfish.com/wp-content/uploads/quotes/patience/patience-quotes-1-pictures-1024x1024.jpg
p582
g3
(g4
g5
(g6
(S'\x07\xe0\x03\x12\n-:\x0e\xaa{'
tRp583
S'233'
p584
I2
ttRp585
sVhttp://orig00.deviantart.net/fd73/f/2010/026/9/8/patience_by_jonnysnakeseven.jpg
p586
g3
(g4
g5
(g6
(S"\x07\xe0\x08\x12\x15+'\n\x05v"
tRp587
S'94'
p588
I1
ttRp589
sVhttps://media.licdn.com/mpr/mpr/AAEAAQAAAAAAAAK7AAAAJDNlYjg4MjJjLWUyZWQtNDNlZC1hNGI1LWJiMDUwMTM5NGIxZQ.jpg
p590
g3
(g4
g5
(g6
(S'\x07\xe0\x08\x0c\x14.\x18\x00\x9a\xfc'
tRp591
S'282'
p592
I1
ttRp593
sVhttp://islamichub.net/islamich/uploads/2014/11/seek-patience-main_full.jpg
p594
g3
(g4
g5
(g6
(S'\x07\xdf\x0b\t\x13\x11\x02\nWP'
tRp595
S'7'
I1
ttRp596
sVhttp://e.fastcompany.net/multisite_files/fastcompany/poster/2014/05/3030000-poster-p-1-3030000-first-isnt-always-best-when-patience-pays-off.jpg
p597
g3
(g4
g5
(g6
(S'\x07\xe0\x01\x1f\x103\x11\x0eb\xbb'
tRp598
S'1'
I1
ttRp599
sVhttp://www.fitacrosscultures.com/wp-content/uploads/2014/04/ME_113_Patience.png
p600
g3
(g4
g5
(g6
(S"\x07\xe0\x08\x12\x15+'\n\x05\xa9"
tRp601
S'296'
p602
I1
ttRp603
sVhttp://images.huffingtonpost.com/2015-05-28-1432800915-5766422-patiencequotes7.jpg
p604
g3
(g4
g5
(g6
(S'\x07\xdf\x0b\x19\x16\x02\x15\x08\xde\xbb'
tRp605
S'77'
p606
I1
ttRp607
sVhttp://www.glavoquotes.online/wp-content/uploads/2014/03/patience-quotes-6.jpg
p608
g3
(g4
g5
(g6
(S'\x07\xe0\x01\x19\x10\x17\x1e\x05\xb2o'
tRp609
I-1
I1
ttRp610
sVhttp://wallbasehq.net/images/big/patience_and_love-265235.jpg
p611
g3
(g4
g5
(g6
(S'\x07\xdf\x0c\x0c\x11\x1f\x1f\x04\x02k'
tRp612
I-1
I1
ttRp613
sVhttp://www.mylifeatail.com/wp-content/uploads/2013/05/Patience-Roger-Smith-CEO-American-Income-Life.jpg
p614
g3
(g4
g5
(g6
(S'\x07\xe0\x07\x05\x0f\x02\x16\x08\xdc4'
tRp615
S'230'
p616
I1
ttRp617
sVhttp://thumb101.shutterstock.com/display_pic_with_logo/149584/288063977/stock-photo-simplicity-patience-and-compassion-three-words-from-buddha-teaching-on-a-vintage-slate-blackboard-288063977.jpg
p618
g3
(g4
g5
(g6
(S'\x07\xe0\x07\r\x0f\x062\x0cz\xf1'
tRp619
S'207'
p620
I1
ttRp621
sVhttp://img15.deviantart.net/48d0/i/2013/248/a/e/patience_is_beautiful_by_jazzmary-d6l4gzs.jpg
p622
g3
(g4
g5
(g6
(S'\x07\xe0\x04\x07\r5;\x0el\xda'
tRp623
S'97'
p624
I1
ttRp625
sVhttp://assets2.bigthink.com/system/idea_thumbnails/53323/primary/Art-Text-Patience.jpg?1416351159
p626
g3
(g4
g5
(g6
(S'\x07\xe0\x07\r\x0f\x062\x0cz-'
tRp627
S'126'
p628
I1
ttRp629
sVhttp://www.oursaviorshartland.org/hp_wordpress/wp-content/uploads/2014/07/yoda-on-patience.jpg
p630
g3
(g4
g5
(g6
(S'\x07\xdf\x0b\x1c\x16\x05+\x02\xf3f'
tRp631
S'80'
p632
I1
ttRp633
sVhttp://www.picschamp.com/wp-content/uploads/2015/05/patience-quotes-8.jpg
p634
g3
(g4
g5
(g6
(S'\x07\xe0\x01\x1d\x10&:\x00I\xa9'
tRp635
I-1
I1
ttRp636
sVhttp://www.atdnal.org/Resources/Pictures/patience-fishing.jpg
p637
g3
(g4
g5
(g6
(S'\x07\xe0\x08\x0c\x14.\x18\x00\x9a\xaa'
tRp638
S'46'
p639
I1
ttRp640
sVhttp://api.ning.com/files/ysdCY8Oh2FHgI*aRoIZY6e3pKzQ0kqVPxdYJKtqJlsS9ja9zskHmxkYKo4c5WnA1lF9Rku9bakWsMjBbBuyePmCm5JfnnNZZ/patience2.jpg
p641
g3
(g4
g5
(g6
(S"\x07\xe0\x03\t\x13\x17'\x05F\xa4"
tRp642
S'217'
p643
I1
ttRp644
sVhttp://www.didcotchurch.org.uk/wp-content/uploads/2016/05/picture-blog-patience.png
p645
g3
(g4
g5
(g6
(S'\x07\xe0\x05\x1b\x13\x18\x0b\t\x19\xa7'
tRp646
I-1
I1
ttRp647
sVhttp://www.ignant.com/wp-content/uploads/2014/07/Josef_Hoflehner_Patience_01.jpg
p648
g3
(g4
g5
(g6
(S'\x07\xe0\n\x1e\x12\x12\x1b\x02\x8a\xe0'
tRp649
S'328'
p650
I1
ttRp651
sVhttp://quotesideas.com/wp-content/uploads/2015/02/Funny-cartoon-with-patience-quote.png
p652
g3
(g4
g5
(g6
(S"\x07\xe0\x08\x12\x15+'\n\x05<"
tRp653
I-1
I1
ttRp654
sVhttp://www.thebridgemaker.com/wp-content/uploads/2010/06/Patience.jpg
p655
g3
(g4
g5
(g6
(S'\x07\xe0\x02\x1a\x11\x02\x0f\rb4'
tRp656
S'66'
p657
I1
ttRp658
sVhttp://3.bp.blogspot.com/-tnv7VaV0Qg8/VayZ3hzNonI/AAAAAAAABCE/5yRmjx2rUOE/s1600/lord%2Bpatience.png
p659
g3
(g4
g5
(g6
(S'\x07\xdf\x0b\t\x13\x11\x02\nW\xc1'
tRp660
S'39'
p661
I1
ttRp662
sVhttp://refe99.com/wp-content/uploads/2014/09/EmilysQuotes.Com-patience-problems-relationship-wisdom-Sudanese-proverb-African-proverb.jpg
p663
g3
(g4
g5
(g6
(S'\x07\xe0\x07\x15\x0f\x0b\x18\r\xd0\xe6'
tRp664
S'24'
p665
I1
ttRp666
sVhttp://www.mynameisnotmatt.com/wp-content/uploads/2014/04/a-moment-of-patience.jpg
p667
g3
(g4
g5
(g6
(S'\x07\xdf\x0c\x1e\x10\x0e\x19\x0e\x89\xf7'
tRp668
S'128'
p669
I1
ttRp670
sVhttp://fc07.deviantart.net/fs70/i/2011/334/f/5/patience__love_finds_a_way__by_goldendagger-d4hqegh.jpg
p671
g3
(g4
g5
(g6
(S'\x07\xdf\x0b\x1c\x16\x05+\x02\xf3\xb5'
tRp672
S'33'
p673
I1
ttRp674
sVhttp://40.media.tumblr.com/d19c493fa982da2e7638fdcf13c0fb45/tumblr_mme30hYiKC1sqn0lao1_500.jpg
p675
g3
(g4
g5
(g6
(S'\x07\xdf\x0b\x1c\x16\x05+\x02\xf3s'
tRp676
S'79'
p677
I1
ttRp678
sVhttp://thumb1.shutterstock.com/display_pic_with_logo/2971459/384607804/stock-vector-the-best-things-in-life-come-with-patience-inspirational-quote-modern-calligraphic-style-hand-384607804.jpg
p679
g3
(g4
g5
(g6
(S'\x07\xe0\x07\r\x0f\x062\x0cz\xae'
tRp680
S'298'
p681
I1
ttRp682
sVhttp://www.myquotesclub.com/wp-content/uploads/2015/08/Wait-for-what-you-deseve.jpg
p683
g3
(g4
g5
(g6
(S'\x07\xe0\x01\x0b\x10\x0f$\r\xb7\xc5'
tRp684
S'69'
p685
I1
ttRp686
sVhttps://s-media-cache-ak0.pinimg.com/564x/a7/12/ca/a712ca9973609f97a6e93bd92e51697e.jpg
p687
g3
(g4
g5
(g6
(S'\x07\xe0\x02\x1a\x11\x02\x0f\rb\xc0'
tRp688
S'161'
p689
I1
ttRp690
sVhttp://www.thequotepedia.com/images/98/dear-god-i-pray-for-patience-please-send-to-me-the-spirit-of-your-peace-please-give-me-a-strength-to-live-my-life-patience-quote.jpg
p691
g3
(g4
g5
(g6
(S'\x07\xe0\x08\x02\x14(\x02\x00\x12D'
tRp692
S'332'
p693
I1
ttRp694
sVhttp://weneedfun.com/wp-content/uploads/2016/07/Patience-Quotes-1.jpg
p695
g3
(g4
g5
(g6
(S'\x07\xe0\n\x1e\x12\x12\x1b\x02\x8a\x83'
tRp696
S'329'
p697
I1
ttRp698
sVhttp://www.thenewstrans.com/wp-content/uploads/2013/10/Patience-m.jpg
p699
g3
(g4
g5
(g6
(S'\x07\xe0\x05\x1b\x13\x18\x0b\t\x1a\x0f'
tRp700
S'283'
p701
I1
ttRp702
sVhttp://childhood101.com/wp-content/uploads/2016/04/a-lesson-in-patience.jpg
p703
g3
(g4
g5
(g6
(S'\x07\xe0\x07\x1b\x14\x13\x17\x0b\x81\xc8'
tRp704
I-1
I1
ttRp705
sVhttp://geniusquotes.org/wp-content/uploads/2014/03/Patience-Roger-Smith-CEO-American-Income-Life.jpg
p706
g3
(g4
g5
(g6
(S"\x07\xe0\x08\x12\x15+'\n\x05,"
tRp707
I-1
I1
ttRp708
sVhttp://simplereminders.com/uploads/images/blog/mother-teresa-patience-rush-less-3s8h.jpg
p709
g3
(g4
g5
(g6
(S'\x07\xe0\x03\r\x15$!\x05\xd84'
tRp710
I-1
I1
ttRp711
sVhttp://thebigrocks.com/wp-content/uploads/2013/03/032213-theBigRocks-Patience-as-Action.png
p712
g3
(g4
g5
(g6
(S'\x07\xe0\x01\x0b\x10\x0f$\r\xb7\x11'
tRp713
S'34'
p714
I1
ttRp715
sVhttps://media.licdn.com/mpr/mpr/p/5/005/06a/3e5/2a7676a.jpg
p716
g3
(g4
g5
(g6
(S'\x07\xdf\x0b\t\x13\x11\x02\nW\x81'
tRp717
S'18'
p718
I1
ttRp719
sVhttp://images.fineartamerica.com/images-medium-large-5/patience-inspirational-quote-stocktrek-images.jpg
p720
g3
(g4
g5
(g6
(S'\x07\xe0\x07\x1b\x14\x13\x17\x0b\x80\xe0'
tRp721
S'339'
p722
I1
ttRp723
sVhttps://beatingcowdens.files.wordpress.com/2013/01/patience-god-give-me.png
p724
g3
(g4
g5
(g6
(S"\x07\xe0\x08\x12\x15+'\n\x05\x05"
tRp725
S'31'
p726
I1
ttRp727
sVhttp://androidwalls.net/wp-content/uploads/2015/04/Patience%20Is%20A%20Virtue%20Android%20Wallpaper.jpg
p728
g3
(g4
g5
(g6
(S'\x07\xe0\x07\x15\x0f\x0b\x18\r\xcfz'
tRp729
S'216'
p730
I1
ttRp731
sVhttp://img01.deviantart.net/f392/i/2006/305/b/6/no_more_patience_by_habibityn.jpg
p732
g3
(g4
g5
(g6
(S'\x07\xe0\x04\x01\x0b\x05\x16\x03\x92\x85'
tRp733
S'259'
p734
I1
ttRp735
sVhttp://www.myfitfamily.com/wp-content/uploads/2015/08/awesome-pictures-of-patience-quotes.png
p736
g3
(g4
g5
(g6
(S'\x07\xe0\x07\x19\x0f\x0e\x15\x07\xba\xd8'
tRp737
S'89'
p738
I1
ttRp739
sVhttp://mountbethelministries.com/wp-content/uploads/Patience-is-a-Virtue.jpg
p740
g3
(g4
g5
(g6
(S'\x07\xe0\x08\x0c\x14.\x18\x00\x9az'
tRp741
I-1
I1
ttRp742
sVhttp://2.bp.blogspot.com/-OGv87JGKCrw/UK43gmuITlI/AAAAAAAAAGs/H2qvq307Uc4/s1600/Patience.png
p743
g3
(g4
g5
(g6
(S"\x07\xe0\x08\x12\x15+'\n\x05r"
tRp744
I-1
I2
ttRp745
sVhttps://quotefancy.com/media/wallpaper/3840x2160/18020-Ray-Davis-Quote-Patience-is-not-passive-waiting-Patience-is-active.jpg
p746
g3
(g4
g5
(g6
(S'\x07\xe0\x07\x15\x0f\x0b\x18\r\xcf\x9b'
tRp747
S'329'
p748
I1
ttRp749
sVhttp://www.musicalbridgesmt.com/wp-content/uploads/2012/01/patience-is-a-virtue1.png
p750
g3
(g4
g5
(g6
(S'\x07\xe0\x07\x15\x0f\x0b\x18\r\xcf\xa9'
tRp751
I-1
I1
ttRp752
sVhttp://usetyourhouseinorder.com/syho/wp-content/uploads/2015/09/With-patience-you-go-beyond__quotes-by-Catalan-Proverb-71.png
p753
g3
(g4
g5
(g6
(S'\x07\xe0\x03\r\x15$!\x05\xd88'
tRp754
S'226'
p755
I1
ttRp756
sVhttps://f1.bcbits.com/img/a0049061363_10.jpg
p757
g3
(g4
g5
(g6
(S'\x07\xe0\x04\x01\x0b\x05\x16\x03\x92\xc1'
tRp758
S'262'
p759
I1
ttRp760
sVhttps://s-media-cache-ak0.pinimg.com/736x/23/c7/13/23c71309264ba7c8583a31a5f252ec3b.jpg
p761
g3
(g4
g5
(g6
(S'\x07\xe0\x04\x0f\x10\x0f\r\x07>2'
tRp762
S'254'
p763
I2
ttRp764
sVhttp://www.mlayne.com/wp-content/uploads/2013/06/patience.jpg
p765
g3
(g4
g5
(g6
(S'\x07\xdf\x0c\x0c\x11\x1f\x1f\x04\x01\xf6'
tRp766
S'92'
p767
I1
ttRp768
sVhttps://i.ytimg.com/vi/AGbHLiOf0Tc/maxresdefault.jpg
p769
g3
(g4
g5
(g6
(S'\x07\xe0\x07\x19\x0f\x0e\x15\x07\xba\x9f'
tRp770
S'284'
p771
I1
ttRp772
sVhttp://www.bahai.org/chrome/img/action/childrens-classes-presentation/lesson-patience-5.png?0fd0165e
p773
g3
(g4
g5
(g6
(S'\x07\xe0\x07\x15\x0f\x0b\x18\r\xcf\xfe'
tRp774
S'287'
p775
I1
ttRp776
sVhttp://media.salemwebnetwork.com/cms/CW/13762-cm-Gods-patience-absence-perfect-presence-constant-always-with-you-social.png
p777
g3
(g4
g5
(g6
(S"\x07\xe0\x08\x12\x15+'\n\x05c"
tRp778
S'236'
p779
I1
ttRp780
sVhttp://consciousmanifestor.com/wp-content/uploads/2016/04/god-give-me-some-patience.jpg.png
p781
g3
(g4
g5
(g6
(S'\x07\xe0\x07\r\x0f\x062\x0cz\xb3'
tRp782
S'305'
p783
I1
ttRp784
sVhttp://previews.123rf.com/images/winnond/winnond1408/winnond140800010/31032967-the-word-patience-in-the-hole-of-brown-paper-Stock-Photo.jpg
p785
g3
(g4
g5
(g6
(S"\x07\xe0\x08\x12\x15+'\n\x05\x81"
tRp786
S'173'
p787
I1
ttRp788
sVhttp://www.bible-basics-layers-of-understanding.com/images/PaticencePeople.jpg
p789
g3
(g4
g5
(g6
(S'\x07\xdf\x0b\x19\x16\x02\x15\x08\xded'
tRp790
S'82'
p791
I1
ttRp792
sVhttps://illinoiscollegerambler.files.wordpress.com/2016/05/patience.jpg
p793
g3
(g4
g5
(g6
(S'\x07\xe0\x07\x13\x0f\x088\x0be\x0f'
tRp794
S'315'
p795
I1
ttRp796
sVhttp://c.fastcompany.net/multisite_files/fastcompany/imagecache/1280/poster/2014/05/3030000-poster-p-1-3030000-first-isnt-always-best-when-patience-pays-off.jpg
p797
g3
(g4
g5
(g6
(S"\x07\xe0\x08\x12\x15+'\n\x05\x95"
tRp798
S'99'
p799
I1
ttRp800
sVhttps://drdivaphd.files.wordpress.com/2012/02/patience2.jpg
p801
g3
(g4
g5
(g6
(S'\x07\xe0\x03\r\x15$!\x05\xd7\xa8'
tRp802
S'219'
p803
I1
ttRp804
sVhttp://heyjamie.com/wp-content/uploads/2014/09/patience.jpg
p805
g3
(g4
g5
(g6
(S'\x07\xdf\x0b\x19\x16\x02\x15\x08\xde\x97'
tRp806
S'16'
p807
I1
ttRp808
sVhttp://assets3.bigthink.com/system/idea_thumbnails/53323/primary/Art-Text-Patience.jpg?1416351159
p809
g3
(g4
g5
(g6
(S'\x07\xe0\x08\x02\x14(\x02\x00\x129'
tRp810
S'54'
p811
I1
ttRp812
sVhttp://rawpl.com/wp-content/uploads/2015/12/patience-quotes-for-best-collections-of-patience-quotes-2015-44.jpg
p813
g3
(g4
g5
(g6
(S'\x07\xdf\x0c\x08\x10,\x07\x02\xdc\xf6'
tRp814
I-1
I2
ttRp815
sVhttp://img.picturequotes.com/2/21/20010/a-man-who-masters-patience-masters-everything-else-quote-1.jpg
p816
g3
(g4
g5
(g6
(S'\x07\xe0\x08\x02\x14(\x02\x00\x11\x8f'
tRp817
S'78'
p818
I1
ttRp819
sVhttp://aboutislam.net/wp-content/uploads/2016/01/patience11.jpg?fdb38a
p820
g3
(g4
g5
(g6
(S'\x07\xe0\x08\x0c\x14.\x18\x00\x9a\x1a'
tRp821
S'293'
p822
I1
ttRp823
sVhttp://www.fitmomintraining.com/wp-content/uploads/2011/01/IMG_4512.jpg
p824
g3
(g4
g5
(g6
(S'\x07\xe0\x08\x02\x14(\x02\x00\x11\xcd'
tRp825
S'114'
p826
I1
ttRp827
sVhttp://thefreshexchangeblog.com/assets/Patience_01.jpg
p828
g3
(g4
g5
(g6
(S'\x07\xe0\x04\x0f\x10\x0f\r\x07<\xbf'
tRp829
S'53'
p830
I1
ttRp831
sVhttp://quotes.lifehack.org/media/quotes/quote-Daisaku-Ikeda-with-love-and-patience-nothing-is-impossible-18531.png
p832
g3
(g4
g5
(g6
(S'\x07\xe0\x04\x01\x0b\x05\x16\x03\x92('
tRp833
I-1
I1
ttRp834
sVhttp://www.idlehearts.com/wp-content/uploads/2012/07/Patience-with-others-is-love.jpg
p835
g3
(g4
g5
(g6
(S'\x07\xe0\x02\x1a\x11\x02\x0f\ra\xd0'
tRp836
I-1
I1
ttRp837
sVhttp://bryantmcgill.com/uploads/images/blog/unknown-author-boarder-moment-patience-anger-regret-6m5x.jpg
p838
g3
(g4
g5
(g6
(S'\x07\xe0\x05\x1b\x13\x18\x0b\t\x19='
tRp839
I-1
I1
ttRp840
sVhttp://farm8.staticflickr.com/7163/6477009555_b919e54cef.jpg
p841
g3
(g4
g5
(g6
(S'\x07\xe0\x01\x0b\x10\x0f$\r\xb7g'
tRp842
S'27'
p843
I1
ttRp844
sVhttp://quotespaper.com/wp-content/uploads/2014/01/patience-quotes-2.jpg
p845
g3
(g4
g5
(g6
(S'\x07\xdf\x0b\x1c\x16\x05+\x02\xf3-'
tRp846
S'57'
p847
I1
ttRp848
sVhttp://www.carolecgood.com/patience__love_finds_a_way__by_goldendagger-d4hqegh.jpg
p849
g3
(g4
g5
(g6
(S'\x07\xe0\n\x1e\x12\x12\x1b\x02\x8a\xf8'
tRp850
S'74'
p851
I1
ttRp852
sVhttp://refe99.com/wp-content/uploads/2014/09/From-Perseverance-to-Patience.jpg
p853
g3
(g4
g5
(g6
(S'\x07\xdf\x0c\x1e\x10\x0e\x19\x0e\x89\xd5'
tRp854
S'141'
p855
I1
ttRp856
sVhttps://s-media-cache-ak0.pinimg.com/736x/fd/6d/f4/fd6df42a2925336cf0d8f2bbcae1aca5.jpg
p857
g3
(g4
g5
(g6
(S'\x07\xe0\x04\x01\x0b\x05\x16\x03\x92\x81'
tRp858
S'264'
p859
I1
ttRp860
sVhttp://www.my3c.tv/system/files/imagecache/product_full/power_in_patience.jpg
p861
g3
(g4
g5
(g6
(S'\x07\xe0\x08\x0c\x14.\x18\x00\x9a\xa6'
tRp862
S'166'
p863
I1
ttRp864
sVhttp://www.everydaykiss.com/wp-content/uploads/2013/06/3-Patience.jpg
p865
g3
(g4
g5
(g6
(S'\x07\xe0\x07\x1f\x14#\x16\t}\xc8'
tRp866
I-1
I1
ttRp867
sVhttps://i.ytimg.com/vi/fIoDRnoalrg/maxresdefault.jpg
p868
g3
(g4
g5
(g6
(S'\x07\xe0\x08\x02\x14(\x02\x00\x12`'
tRp869
S'104'
p870
I1
ttRp871
sVhttp://static3.depositphotos.com/1007959/232/i/950/depositphotos_2329759-Patience-Road-Sign.jpg
p872
g3
(g4
g5
(g6
(S'\x07\xe0\x04\x07\r5;\x0em\x1e'
tRp873
I-1
I1
ttRp874
sVhttps://upload.wikimedia.org/wikipedia/commons/9/9f/Patience_Island_in_Rhode_Island.JPG
p875
g3
(g4
g5
(g6
(S'\x07\xe0\x07\x15\x0f\x0b\x18\r\xcf\xe8'
tRp876
S'220'
p877
I1
ttRp878
sVhttp://founderdating.com/wp-content/uploads/2015/07/patience.jpg
p879
g3
(g4
g5
(g6
(S'\x07\xe0\x07\x05\x0f\x02\x16\x08\xdb\xd5'
tRp880
S'83'
p881
I1
ttRp882
sVhttp://previews.123rf.com/images/nenadelameer/nenadelameer1312/nenadelameer131200105/24701263-Patience-on-white-background--Stock-Photo.jpg
p883
g3
(g4
g5
(g6
(S"\x07\xe0\x08\x12\x15+'\n\x05\x00"
tRp884
S'180'
p885
I1
ttRp886
sVhttp://1.bp.blogspot.com/-4lOrYS4qqPs/Uk3c3o41fnI/AAAAAAAAPbg/I1rOiYv0zmg/s1600/Islamic+Quotes+About+Patience+(6).jpg
p887
g3
(g4
g5
(g6
(S"\x07\xe0\x08\x12\x15+'\n\x05W"
tRp888
S'368'
p889
I1
ttRp890
sVhttp://www.myawesomequotes.com/wp-content/uploads/2015/01/St-Augustine-Patience-is.jpg
p891
g3
(g4
g5
(g6
(S'\x07\xe0\x07\x1b\x14\x13\x17\x0b\x81R'
tRp892
S'251'
p893
I2
ttRp894
sVhttp://cristinatrapaniscott.com/wp-content/uploads/2015/07/Best-Patience.jpg
p895
g3
(g4
g5
(g6
(S'\x07\xe0\x07\x19\x0f\x0e\x15\x07\xba\xbc'
tRp896
S'299'
p897
I2
ttRp898
sVhttps://1888.org/images/2013/10/14/13454/patience-trust-faith.png
p899
g3
(g4
g5
(g6
(S'\x07\xe0\x02\x1a\x11\x02\x0f\rb\xb0'
tRp900
S'137'
p901
I1
ttRp902
sVhttp://www.quotehd.com/imagequotes/TopAuthors/leo-tolstoy-novelist-quote-the-two-most-powerful-warriors-are-patience-and.jpg
p903
g3
(g4
g5
(g6
(S'\x07\xe0\x07\x1b\x14\x13\x17\x0b\x81s'
tRp904
S'107'
p905
I2
ttRp906
sVhttp://cdn.notonthehighstreet.com/system/product_images/images/001/474/113/original_patience-champ-badge-medal-pin.jpg
p907
g3
(g4
g5
(g6
(S"\x07\xe0\x08\x12\x15+'\n\x05_"
tRp908
S'353'
p909
I1
ttRp910
sVhttp://faithsmessenger.com/wp-content/uploads/2013/01/patience.jpg
p911
g3
(g4
g5
(g6
(S'\x07\xe0\x05\x1b\x13\x18\x0b\t\x1aR'
tRp912
S'49'
p913
I1
ttRp914
sVhttp://www.quoteslike.com/images/174/key-to-everything-is-patience-arnold-h-glasow-the-best-quotes-kQJSWv-quote.jpg
p915
g3
(g4
g5
(g6
(S'\x07\xe0\x07\x15\x0f\x0b\x18\r\xd0\xcd'
tRp916
I-1
I1
ttRp917
sVhttp://quotesideas.com/wp-content/uploads/2015/02/Patience-is-waiting-instagram-quote.jpg
p918
g3
(g4
g5
(g6
(S'\x07\xe0\x07\r\x0f\x062\x0c{\x11'
tRp919
I-1
I1
ttRp920
sVhttp://www.testimoniesofhope.com/wp-content/uploads/2013/06/patience.jpg
p921
g3
(g4
g5
(g6
(S'\x07\xdf\x0b\t\x13\x11\x02\nW\xd9'
tRp922
S'58'
p923
I1
ttRp924
sVhttp://pintast.com/wp-content/uploads/2014/04/patience-wallpaper-wall-quotes-1397373406gn84k.jpg
p925
g3
(g4
g5
(g6
(S'\x07\xe0\x07\x1b\x14\x13\x17\x0b\x80\xb0'
tRp926
I-1
I1
ttRp927
sVhttp://ihyaauddeen.co.za/wp-content/uploads/2015/03/Patience.jpg
p928
g3
(g4
g5
(g6
(S'\x07\xe0\x04\x07\r5;\x0el\x9c'
tRp929
S'202'
p930
I1
ttRp931
sVhttp://hqwallbase.pw/images/big/patience_and_love-265235.jpg
p932
g3
(g4
g5
(g6
(S'\x07\xe0\x03\x16\n2-\x04\x92\xcd'
tRp933
I-1
I1
ttRp934
sVhttp://media-cache-ec0.pinimg.com/736x/23/c7/13/23c71309264ba7c8583a31a5f252ec3b.jpg
p935
g3
(g4
g5
(g6
(S'\x07\xe0\x07\x1b\x14\x13\x17\x0b\x80\xc1'
tRp936
I-1
I1
ttRp937
sVhttp://www.havefunteaching.com/wp-content/uploads/2013/07/patience-song.png
p938
g3
(g4
g5
(g6
(S'\x07\xe0\x03\x05\x13\x0e4\x08R\x12'
tRp939
I-1
I1
ttRp940
sVhttp://vignette1.wikia.nocookie.net/powerlisting/images/9/9c/Patience-is-not-the-ability-to-wait.jpg/revision/latest?cb=20140814121743
p941
g3
(g4
g5
(g6
(S"\x07\xe0\x08\x12\x15+'\n\x05\x0c"
tRp942
S'11'
p943
I1
ttRp944
sVhttp://rawpl.com/wp-content/uploads/2015/12/patience-quotes-for-best-collections-of-patience-quotes-2015-34.jpg
p945
g3
(g4
g5
(g6
(S'\x07\xdf\x0c\x12\x10\x081\nh\x8f'
tRp946
I-1
I1
ttRp947
sVhttp://quotes.greet2k.com/image-code/patience-3.jpg
p948
g3
(g4
g5
(g6
(S'\x07\xe0\x01\x13\x10\x13\x16\x06)7'
tRp949
S'133'
p950
I1
ttRp951
sVhttp://135hs578axp246pwi1ooz8fq.wpengine.netdna-cdn.com/wp-content/uploads/2014/08/Patience1-800x683.jpg
p952
g3
(g4
g5
(g6
(S'\x07\xe0\x03\x1e\x0b\x04\r\t\x94]'
tRp953
I-1
I1
ttRp954
sVhttp://istanabagus.com/wp-content/uploads/2014/10/patience-quotes.jpg
p955
g3
(g4
g5
(g6
(S'\x07\xe0\x03\r\x15$!\x05\xd7\xe2'
tRp956
S'215'
p957
I2
ttRp958
sVhttps://blogityheth.files.wordpress.com/2014/11/patience.jpg?w=480
p959
g3
(g4
g5
(g6
(S'\x07\xdf\x0b\t\x13\x11\x02\nW\xac'
tRp960
S'36'
p961
I1
ttRp962
sVhttp://love.catchsmile.com/wp-content/uploads/2013/10/Sometimes-You-Need-Patience.jpg
p963
g3
(g4
g5
(g6
(S'\x07\xe0\x01\x0b\x10\x0f$\r\xb7\x8a'
tRp964
S'158'
p965
I1
ttRp966
sVhttp://www.thequotepedia.com/images/98/have-patience-allah-does-not-deny-the-reward-of-the-righteous-patience-quote.jpg
p967
g3
(g4
g5
(g6
(S'\x07\xe0\x03\x16\n2-\x04\x938'
tRp968
S'238'
p969
I1
ttRp970
sVhttp://lesbeauxproverbes.com/wp-content/uploads/0491.jpg
p971
g3
(g4
g5
(g6
(S'\x07\xe0\x01\x0b\x10\x0f$\r\xb7z'
tRp972
S'145'
p973
I1
ttRp974
sVhttp://99quote.com/wp-content/uploads/2016/07/Patience-In-Love-Relationships-Quotes-4.jpg
p975
g3
(g4
g5
(g6
(S'\x07\xe0\x07\x1f\x14#\x16\t~\x0e'
tRp976
S'366'
p977
I1
ttRp978
sVhttp://www.hippoquotes.com/img/patience-quotes/patience-quotes-2.jpg
p979
g3
(g4
g5
(g6
(S'\x07\xe0\x03\x1e\x0b\x04\r\t\x93,'
tRp980
I-1
I1
ttRp981
sVhttp://1.bp.blogspot.com/-Y3zNIgGYYHM/UKU80bNO07I/AAAAAAAACFw/bNnCtIwMUMw/s1600/patience.JPG
p982
g3
(g4
g5
(g6
(S'\x07\xe0\x05\x1b\x13\x18\x0b\t\x19\xec'
tRp983
S'91'
p984
I1
ttRp985
sVhttp://www.thequotablecoach.com/wp-content/uploads/2015/11/QC-905.jpg
p986
g3
(g4
g5
(g6
(S'\x07\xe0\x01\x0b\x10\x0f$\r\xb7\xbe'
tRp987
S'85'
p988
I1
ttRp989
sVhttp://i.quoteaddicts.com/media/quotes/1/19229-patience-quotes-about-life.jpg
p990
g3
(g4
g5
(g6
(S'\x07\xe0\x07\x19\x0f\x0e\x15\x07\xba\xb4'
tRp991
S'321'
p992
I1
ttRp993
sVhttps://quotefancy.com/media/wallpaper/3840x2160/18887-Geoffrey-Chaucer-Quote-Patience-is-a-conquering-virtue.jpg
p994
g3
(g4
g5
(g6
(S'\x07\xe0\x08\x02\x14(\x02\x00\x12\x98'
tRp995
S'227'
p996
I2
ttRp997
sVhttps://quotefancy.com/media/wallpaper/3840x2160/17134-Mother-Teresa-Quote-Without-patience-we-will-learn-less-in-life-We.jpg
p998
g3
(g4
g5
(g6
(S'\x07\xe0\x07\x15\x0f\x0b\x18\r\xd0,'
tRp999
S'318'
p1000
I1
ttRp1001
sVhttp://quotesideas.com/wp-content/uploads/2015/02/tumblr_lnzas1wi0p1qhmhdfo1_500.gif
p1002
g3
(g4
g5
(g6
(S'\x07\xdf\x0b\t\x13\x11\x02\nW\xbc'
tRp1003
I-1
I1
ttRp1004
sVhttp://www.picschamp.com/wp-content/uploads/2015/05/Patience-Quotes.jpg
p1005
g3
(g4
g5
(g6
(S'\x07\xe0\x01\x0b\x10\x0f$\r\xb7~'
tRp1006
I-1
I1
ttRp1007
sVhttps://s-media-cache-ak0.pinimg.com/736x/91/94/3d/91943dc1087fd92685d95a7331f88f25.jpg
p1008
g3
(g4
g5
(g6
(S'\x07\xe0\x04\x07\r5;\x0em\xf9'
tRp1009
S'193'
p1010
I1
ttRp1011
sVhttp://quotesideas.com/wp-content/uploads/2015/02/Patience-quote-new-2015.jpg
p1012
g3
(g4
g5
(g6
(S"\x07\xe0\x08\x12\x15+'\n\x05\x91"
tRp1013
I-1
I1
ttRp1014
sVhttp://liftupyourday.com/wp-content/uploads/2016/01/97816060885241.jpg
p1015
g3
(g4
g5
(g6
(S'\x07\xe0\x05\x1b\x13\x18\x0b\t\x1a+'
tRp1016
S'164'
p1017
I1
ttRp1018
sVhttp://quotesideas.com/wp-content/uploads/2015/02/Wallpaper-Patience-quote-HD-new.jpg
p1019
g3
(g4
g5
(g6
(S'\x07\xe0\n\x1e\x12\x12\x1b\x02\x8a\xf0'
tRp1020
I-1
I1
ttRp1021
sVhttp://www.crystalandrusmorissette.com/wp-content/uploads/2014/01/legit-patience.jpg
p1022
g3
(g4
g5
(g6
(S'\x07\xe0\x08\x0c\x14.\x18\x00\x9b\x1a'
tRp1023
I-1
I1
ttRp1024
sVhttp://media-cache-ec0.pinimg.com/736x/45/17/a8/4517a88429ed237ff737b884a0d22a24.jpg
p1025
g3
(g4
g5
(g6
(S'\x07\xe0\x07\x1b\x14\x13\x17\x0b\x81\xab'
tRp1026
S'10'
p1027
I1
ttRp1028
sVhttps://www.askideas.com/media/83/Patience-is-not-the-ability-to-wait-but-the-ability-to-keep-a-good-attitude-while-waiting.jpg
p1029
g3
(g4
g5
(g6
(S'\x07\xe0\n\x1e\x12\x12\x1b\x02\x8b\x06'
tRp1030
S'326'
p1031
I1
ttRp1032
sVhttp://www.lifetasteswell.com/wp-content/uploads/2012/07/patience.jpg
p1033
g3
(g4
g5
(g6
(S'\x07\xdf\x0b\x1c\x16\x05+\x02\xf4\x1e'
tRp1034
S'29'
p1035
I1
ttRp1036
sVhttp://www.myquotesclub.com/wp-content/uploads/2015/08/Patience-and-time-do-more-than-strength-or-passion.png
p1037
g3
(g4
g5
(g6
(S'\x07\xe0\x07\x15\x0f\x0b\x18\r\xd0\xfd'
tRp1038
I-1
I1
ttRp1039
sVhttp://www.carolecgood.com/A-moment-of-patience-1.png
p1040
g3
(g4
g5
(g6
(S'\x07\xe0\x01\x13\x10\x13\x16\x06(\xe3'
tRp1041
S'32'
p1042
I1
ttRp1043
sVhttps://i.ytimg.com/vi/ErvgV4P6Fzc/maxresdefault.jpg
p1044
g3
(g4
g5
(g6
(S'\x07\xe0\x07\x13\x0f\x088\x0bd\xf9'
tRp1045
S'187'
p1046
I1
ttRp1047
sVhttp://www.joaoleitao.com/tattoo-name/wp-content/uploads/tattoo-design-name-patience-01.png
p1048
g3
(g4
g5
(g6
(S'\x07\xe0\x07\x1f\x14#\x16\t}h'
tRp1049
S'192'
p1050
I2
ttRp1051
sVhttp://www.dawahskills.com/wp-content/uploads/2012/08/Patience1.jpg
p1052
g3
(g4
g5
(g6
(S"\x07\xe0\x08\x12\x15+'\n\x04\xf3"
tRp1053
S'362'
p1054
I1
ttRp1055
sVhttp://img.picturequotes.com/2/49/48235/even-the-nicest-persons-patience-has-a-limit-quote-1.jpg
p1056
g3
(g4
g5
(g6
(S'\x07\xe0\x07\x1b\x14\x13\x17\x0b\x80\xd1'
tRp1057
S'174'
p1058
I1
ttRp1059
sVhttps://f1.bcbits.com/img/a2511485496_10.jpg
p1060
g3
(g4
g5
(g6
(S'\x07\xe0\x03\x16\n2-\x04\x92\xf4'
tRp1061
S'231'
p1062
I1
ttRp1063
sVhttp://personalexcellence.co/quotes/files/inspirational-quote-patience-wisdom.jpg
p1064
g3
(g4
g5
(g6
(S'\x07\xe0\x04\x07\r5;\x0el\xd6'
tRp1065
S'112'
p1066
I1
ttRp1067
sVhttp://static1.squarespace.com/static/553d7f4ce4b0fd1d73f6f8eb/t/5629b418e4b0d8b406b5e710/1445573657344/
p1068
g3
(g4
g5
(g6
(S'\x07\xe0\x08\x0c\x14.\x18\x00\x9b\x0e'
tRp1069
S'62'
p1070
I1
ttRp1071
sVhttp://www.ithaquecoaching.com/wp-content/uploads/2011/02/patience-endurance.jpg
p1072
g3
(g4
g5
(g6
(S'\x07\xe0\x03\x12\n-:\x0e\xaa+'
tRp1073
S'234'
p1074
I1
ttRp1075
sVhttp://www.ignant.de/wp-content/uploads/2014/07/Josef_Hoflehner_Patience_01.jpg
p1076
g3
(g4
g5
(g6
(S'\x07\xe0\x08\x02\x14(\x02\x00\x12k'
tRp1077
S'176'
p1078
I2
ttRp1079
sVhttp://www.hdwallpapers-3d.com/wp-content/uploads/2014/06/patience-quotes-hd-wallpaper-4.jpg
p1080
g3
(g4
g5
(g6
(S'\x07\xe0\x03\x16\n2-\x04\x93<'
tRp1081
S'119'
p1082
I1
ttRp1083
sVhttps://quotefancy.com/media/wallpaper/3840x2160/2288-Bill-Gates-Quote-Patience-is-a-key-element-of-success.jpg
p1084
g3
(g4
g5
(g6
(S'\x07\xe0\x05\x1b\x13\x18\x0b\t\x19\xc8'
tRp1085
S'273'
p1086
I2
ttRp1087
sVhttp://media-cache-ec0.pinimg.com/736x/e3/a0/56/e3a056114e9c45c14a48a357b678a80c.jpg
p1088
g3
(g4
g5
(g6
(S'\x07\xe0\x04\x01\x0b\x05\x16\x03\x92\xdd'
tRp1089
S'265'
p1090
I1
ttRp1091
sVhttps://media.licdn.com/mpr/mpr/p/5/005/07c/12b/20937e6.jpg
p1092
g3
(g4
g5
(g6
(S'\x07\xdf\x0b\x1c\x16\x05+\x02\xf3\xbd'
tRp1093
S'63'
p1094
I1
ttRp1095
sVhttps://brandonagape.files.wordpress.com/2015/06/lake-bench.jpg
p1096
g3
(g4
g5
(g6
(S'\x07\xe0\x01\x13\x10\x13\x16\x06)\x82'
tRp1097
S'134'
p1098
I1
ttRp1099
sVhttp://thumb101.shutterstock.com/display_pic_with_logo/663421/130766213/stock-photo-patience-cloud-ward-130766213.jpg
p1100
g3
(g4
g5
(g6
(S'\x07\xe0\x07\r\x0f\x062\x0cz\xa9'
tRp1101
S'201'
p1102
I1
ttRp1103
sVhttp://quotescloud.com/wp-content/uploads/2015/11/Your-Patience-When-You-Have-Nothing-and.jpg
p1104
g3
(g4
g5
(g6
(S"\x07\xe0\x08\x12\x15+'\n\x05j"
tRp1105
S'228'
p1106
I3
ttRp1107
sVhttp://www.twomiracles.net/wp-content/uploads/2015/01/Patience.jpg
p1108
g3
(g4
g5
(g6
(S"\x07\xe0\x08\x12\x15+'\n\x05n"
tRp1109
I-1
I1
ttRp1110
sVhttp://www.crystalguidance.com/crystaltip/images/Patience.jpg
p1111
g3
(g4
g5
(g6
(S'\x07\xe0\n\x1e\x12\x12\x1b\x02\x8b\x01'
tRp1112
S'106'
p1113
I1
ttRp1114
sVhttp://rawpl.com/wp-content/uploads/2015/12/patience-quotes-for-best-collections-of-patience-quotes-2015-48.png
p1115
g3
(g4
g5
(g6
(S'\x07\xdf\x0c\x14\x10\t"\rK\xf3'
tRp1116
I-1
I1
ttRp1117
sVhttps://s3.amazonaws.com/rapgenius/yoda-patience1.jpg
p1118
g3
(g4
g5
(g6
(S'\x07\xdf\x0b\x13\x14\n\x01\x0e\xe3\x94'
tRp1119
S'47'
p1120
I1
ttRp1121
sVhttp://inspiremore.com/wp-content/uploads/2014/10/Have-patience.-All-things-are__quotes-by-Saadi-86.png
p1122
g3
(g4
g5
(g6
(S'\x07\xdf\x0b\x1c\x16\x05+\x02\xf3\xef'
tRp1123
I-1
I1
ttRp1124
sVhttps://quotefancy.com/media/wallpaper/3840x2160/2286-Bill-Gates-Quote-Patience-is-a-key-element-of-success.jpg
p1125
g3
(g4
g5
(g6
(S'\x07\xe0\x08\x02\x14(\x02\x00\x12\xfc'
tRp1126
S'213'
p1127
I2
ttRp1128
sVhttp://alameleadership.files.wordpress.com/2013/06/al-inspiring-quote-on-patience.png
p1129
g3
(g4
g5
(g6
(S'\x07\xe0\x01\x19\x10\x17\x1e\x05\xb2]'
tRp1130
S'127'
p1131
I2
ttRp1132
sVhttp://everydayservant.com/wp-content/uploads/2015/09/Top-7-Bible-Verses-1.jpg
p1133
g3
(g4
g5
(g6
(S'\x07\xe0\x08\x02\x14(\x02\x00\x11\xec'
tRp1134
S'328'
p1135
I1
ttRp1136
sVhttps://crazycatfitter.files.wordpress.com/2013/03/gnr-patience.jpg
p1137
g3
(g4
g5
(g6
(S"\x07\xe0\x08\x12\x15+'\n\x05\xbb"
tRp1138
S'364'
p1139
I2
ttRp1140
sVhttp://inspirationboost.com/wp-content/uploads/2014/07/Augustine-of-Hippo-Patience-Quotes.png
p1141
g3
(g4
g5
(g6
(S'\x07\xe0\x08\x02\x14(\x02\x00\x12f'
tRp1142
I-1
I1
ttRp1143
sVhttps://quotescover.com/wp-content/uploads/%C2%A0With-patience-you-go-beyond__quotes-by-Catalan-Proverb-71.png
p1144
g3
(g4
g5
(g6
(S'\x07\xe0\x07\x15\x0f\x0b\x18\r\xcfH'
tRp1145
S'323'
p1146
I1
ttRp1147
sVhttp://irisdeanda.com/wp-content/uploads/2014/02/patience.jpg
p1148
g3
(g4
g5
(g6
(S'\x07\xdf\x0b\x1c\x16\x05+\x02\xf32'
tRp1149
S'42'
p1150
I2
ttRp1151
sVhttp://65.media.tumblr.com/tumblr_mb89ap03Nv1qdxa23o1_1280.jpg
p1152
g3
(g4
g5
(g6
(S"\x07\xe0\x08\x12\x15+'\n\x05O"
tRp1153
S'351'
p1154
I1
ttRp1155
sVhttps://s3.amazonaws.com/livelds/img/patience-eternal-perspective-1200x628.jpeg
p1156
g3
(g4
g5
(g6
(S'\x07\xe0\x07\x1b\x14\x13\x17\x0b\x80\xbc'
tRp1157
S'338'
p1158
I1
ttRp1159
sVhttp://www.redletterchristians.org/wp-content/uploads/Waiting-in-Patience.jpg
p1160
g3
(g4
g5
(g6
(S'\x07\xe0\x01\x19\x10\x17\x1e\x05\xb1>'
tRp1161
S'68'
p1162
I1
ttRp1163
sVhttp://myadventuresinadulthood.files.wordpress.com/2013/02/god-grant-me-patience.png
p1164
g3
(g4
g5
(g6
(S'\x07\xdf\x0b\x16\x15-\x0c\t\xa4\x89'
tRp1165
S'75'
p1166
I2
ttRp1167
sVhttp://www.heartmath.com/wp-content/uploads/2016/03/have-patience-hs-blog.jpg
p1168
g3
(g4
g5
(g6
(S'\x07\xe0\x08\x02\x14(\x02\x00\x13\x0e'
tRp1169
I-1
I1
ttRp1170
sVhttp://www.netpicks.com/wp-content/uploads/2015/02/Trading-Patience-Time1.jpg
p1171
g3
(g4
g5
(g6
(S'\x07\xe0\x08\x02\x14(\x02\x00\x11\xf8'
tRp1172
I-1
I1
ttRp1173
sVhttp://cdn.bigbangfish.com/quotes/patience-quotes-wallpaper/patience-quotes-wallpaper-9.jpg
p1174
g3
(g4
g5
(g6
(S'\x07\xe0\x03\x12\n-:\x0e\xaa\x0f'
tRp1175
S'240'
p1176
I1
ttRp1177
sVhttp://emilysquotes.com/wp-content/uploads/2014/03/EmilysQuotes.Com-patience-heaven-African-Proverb-inspirational-amazing-great-motivational.jpg
p1178
g3
(g4
g5
(g6
(S'\x07\xe0\x03\x16\n2-\x04\x93T'
tRp1179
S'181'
p1180
I1
ttRp1181
sVhttp://www.relatably.com/q/img/patience-persistence-perspiration-quotes/napoleon-hill-writer-patience-persistence-and-perspiration-make-an.jpg
p1182
g3
(g4
g5
(g6
(S'\x07\xe0\x07\x1b\x14\x13\x17\x0b\x80\xc6'
tRp1183
I-1
I1
ttRp1184
sVhttp://quotesideas.com/wp-content/uploads/2015/02/Life-patience-quote-new.jpg
p1185
g3
(g4
g5
(g6
(S'\x07\xe0\x07\x15\x0f\x0b\x18\r\xcf\xa2'
tRp1186
I-1
I1
ttRp1187
sVhttp://s3.amazonaws.com/content.sitezoogle.com/u/55585/3fde3cdbbc711bc7bad32523b1898706f4de8580/original/patience.jpg?1462896381
p1188
g3
(g4
g5
(g6
(S'\x07\xe0\x08\x0c\x14.\x18\x00\x9a\xc3'
tRp1189
S'286'
p1190
I1
ttRp1191
sVhttps://catholic2themax.files.wordpress.com/2015/04/patience_words1.jpg
p1192
g3
(g4
g5
(g6
(S"\x07\xe0\x03\t\x13\x17'\x05Gi"
tRp1193
S'37'
p1194
I2
ttRp1195
sVhttp://3.bp.blogspot.com/-M7axxIx7yiY/UQnWW72JvAI/AAAAAAAAA6M/-0LbFIn9MNo/s1600/patience.png
p1196
g3
(g4
g5
(g6
(S"\x07\xe0\x08\x12\x15+'\n\x05}"
tRp1197
S'295'
p1198
I1
ttRp1199
sVhttps://quotefancy.com/media/wallpaper/3840x2160/2764-Benjamin-Franklin-Quote-He-that-can-have-patience-can-have-what-he.jpg
p1200
g3
(g4
g5
(g6
(S'\x07\xe0\x07\x15\x0f\x0b\x18\r\xd0\xdd'
tRp1201
S'319'
p1202
I1
ttRp1203
sVhttp://griles.files.wordpress.com/2013/09/patience.jpg
p1204
g3
(g4
g5
(g6
(S'\x07\xe0\x03\x05\x13\x0e4\x08R\n'
tRp1205
S'45'
p1206
I1
ttRp1207
sVhttp://buildabusinessonabudget.com/wp-content/uploads/2014/11/Patience.jpg
p1208
g3
(g4
g5
(g6
(S'\x07\xe0\x03\x1e\x0b\x04\r\t\x91\xf9'
tRp1209
S'109'
p1210
I1
ttRp1211
sVhttp://www.barbdahlgren.com/wp-content/uploads/Patience-Bestavros-Quote.jpg
p1212
g3
(g4
g5
(g6
(S'\x07\xe0\x03\x05\x13\x0e4\x08R"'
tRp1213
S'200'
p1214
I1
ttRp1215
sVhttps://pbs.twimg.com/profile_images/441205553570656256/Lyz-vbMp.jpeg
p1216
g3
(g4
g5
(g6
(S"\x07\xe0\x08\x12\x15+'\n\x05\xb4"
tRp1217
S'365'
p1218
I1
ttRp1219
sVhttp://i.imgur.com/pqxi5aZ.jpg
p1220
g3
(g4
g5
(g6
(S'\x07\xe0\x07\x15\x0f\x0b\x18\r\xd0\x7f'
tRp1221
S'317'
p1222
I1
ttRp1223
sVhttp://www.myawesomequotes.com/wp-content/uploads/2015/01/Fulton-J-Sheen-Patience-is-power-Patience-is-not-an-absence-of-action-rather-it-is-timing-it-waits-on-the-right-time-to-act-for-the-right-princeples-and-in-the-right-way.jpg
p1224
g3
(g4
g5
(g6
(S'\x07\xe0\x08\x02\x14(\x02\x00\x12['
tRp1225
S'203'
p1226
I1
ttRp1227
sVhttp://www.hdwallpapers-3d.com/wp-content/uploads/2014/06/patience-quotes-hd-wallpaper-2.jpg
p1228
g3
(g4
g5
(g6
(S'\x07\xe0\x03\x12\n-:\x0e\xaa\xba'
tRp1229
I-1
I1
ttRp1230
sVhttp://wishafriend-quotes.s3.amazonaws.com/patience/8186-patience.jpg
p1231
g3
(g4
g5
(g6
(S'\x07\xe0\x01\x0b\x10\x0f$\r\xb7\x9e'
tRp1232
S'149'
p1233
I1
ttRp1234
sVhttp://www.hippoquotes.com/img/patience-quotes/4517a88429ed237ff737b884a0d22a24.jpg
p1235
g3
(g4
g5
(g6
(S'\x07\xe0\x03\x1e\x0b\x04\r\t\x94\x17'
tRp1236
I-1
I1
ttRp1237
sVhttp://www.quotescover.com/wp-content/uploads/Have-patience.-All-things-are__quotes-by-Saadi-86.png
p1238
g3
(g4
g5
(g6
(S'\x07\xe0\x05\x1b\x13\x18\x0b\t\x18E'
tRp1239
S'280'
p1240
I1
ttRp1241
sVhttps://www.addiction.com/wp-content/uploads/2015/09/social-patience.png
p1242
g3
(g4
g5
(g6
(S'\x07\xe0\x07\x19\x0f\x0e\x15\x07\xba\x12'
tRp1243
I-1
I1
ttRp1244
sVhttp://rawpl.com/wp-content/uploads/2015/12/patience-quotes-for-best-collections-of-patience-quotes-2015-13.jpg
p1245
g3
(g4
g5
(g6
(S'\x07\xdf\x0c\x08\x10,\x07\x02\xdb\xb3'
tRp1246
S'118'
p1247
I1
ttRp1248
sVhttp://www.thelifedivine.com/mc_images/product/detail/Patience-carved-stone.jpg
p1249
g3
(g4
g5
(g6
(S'\x07\xe0\x07\r\x0f\x062\x0cz#'
tRp1250
S'314'
p1251
I1
ttRp1252
sVhttp://iphonewalls.net/wp-content/uploads/2014/09/Patience%20Is%20A%20Virtue%20iPhone%206%20Plus%20HD%20Wallpaper.jpg
p1253
g3
(g4
g5
(g6
(S'\x07\xe0\x07\x15\x0f\x0b\x18\r\xcf_'
tRp1254
S'278'
p1255
I1
ttRp1256
sVhttp://www.omdukblog.com/wp-content/uploads/2016/03/Patience-700x336.jpg
p1257
g3
(g4
g5
(g6
(S'\x07\xe0\x08\x02\x14(\x02\x00\x123'
tRp1258
S'297'
p1259
I1
ttRp1260
sVhttps://s-media-cache-ak0.pinimg.com/736x/da/7d/ff/da7dffce0448f77cd64814287dc91205.jpg
p1261
g3
(g4
g5
(g6
(S'\x07\xe0\x04\x01\x0b\x05\x16\x03\x92\x89'
tRp1262
S'267'
p1263
I1
ttRp1264
sVhttp://rawpl.com/wp-content/uploads/2015/12/patience-quotes-for-best-collections-of-patience-quotes-2015-32.jpg
p1265
g3
(g4
g5
(g6
(S'\x07\xdf\x0c\x14\x10\t"\rK\xa3'
tRp1266
I-1
I1
ttRp1267
sVhttps://kristineserendipity.files.wordpress.com/2015/05/patience.png
p1268
g3
(g4
g5
(g6
(S'\x07\xdf\x0b\x1c\x16\x05+\x02\xf3w'
tRp1269
S'70'
p1270
I1
ttRp1271
sVhttp://antiochmissionkids.files.wordpress.com/2013/05/me_113_patience.png
p1272
g3
(g4
g5
(g6
(S'\x07\xdf\x0b\x1c\x16\x05+\x02\xf3\x8a'
tRp1273
S'84'
p1274
I1
ttRp1275
sVhttp://1.bp.blogspot.com/-VFtQZujd-i0/UPHLNL2SaHI/AAAAAAAAAqM/Zc5gDNx-2fw/s1600/patience.jpg
p1276
g3
(g4
g5
(g6
(S"\x07\xe0\x08\x12\x15+'\n\x04\xeb"
tRp1277
S'359'
p1278
I1
ttRp1279
sVhttp://www.perfectionpending.net/wp-content/uploads/2014/03/Patience-Quote.png
p1280
g3
(g4
g5
(g6
(S"\x07\xe0\x08\x12\x15+'\n\x05D"
tRp1281
S'110'
p1282
I1
ttRp1283
sVhttp://www.famous-quotes.us/wp-content/uploads/2015/11/patience-quotes-jpg2.jpg
p1284
g3
(g4
g5
(g6
(S'\x07\xe0\x07\x1f\x14#\x16\t}\xf7'
tRp1285
I-1
I1
ttRp1286
sVhttp://fijourney.com/wp-content/uploads/2013/11/patience.png
p1287
g3
(g4
g5
(g6
(S"\x07\xe0\x08\x12\x15+'\n\x05H"
tRp1288
S'48'
p1289
I1
ttRp1290
sVhttp://cdn.newsday.com/polopoly_fs/1.11916165.1465955043!/httpImage/image.jpeg_gen/derivatives/landscape_1280/image.jpeg
p1291
g3
(g4
g5
(g6
(S"\x07\xe0\x08\x12\x15+'\n\x05L"
tRp1292
S'355'
p1293
I1
ttRp1294
sVhttp://brotherword.org/wp-content/uploads/2013/10/AskBrotherword-Patience-Running-Thin.jpg
p1295
g3
(g4
g5
(g6
(S'\x07\xe0\x05\x1b\x13\x18\x0b\t\x19\xe6'
tRp1296
S'4'
I2
ttRp1297
sVhttp://assets1.bigthink.com/system/idea_thumbnails/53323/primary/Art-Text-Patience.jpg?1416351159
p1298
g3
(g4
g5
(g6
(S'\x07\xe0\x07\x05\x0f\x02\x16\x08\xdb\xe7'
tRp1299
I-1
I1
ttRp1300
sVhttp://free4kwallpaper.com/wp-content/uploads/2016/01/Patience-and-Faith-Motivational-Quote-4K-Wallpaper.jpg
p1301
g3
(g4
g5
(g6
(S'\x07\xe0\x07\x19\x0f\x0e\x15\x07\xba\xb8'
tRp1302
I-1
I1
ttRp1303
sVhttp://thumbnails-visually.netdna-ssl.com/patience-quotes_548de162edc7c_w1500.jpg
p1304
g3
(g4
g5
(g6
(S'\x07\xe0\x07\x15\x0f\x0b\x18\r\xd0Y'
tRp1305
S'320'
p1306
I1
ttRp1307
sVhttp://rawpl.com/wp-content/uploads/2015/12/patience-quotes-for-best-collections-of-patience-quotes-2015-24.jpg
p1308
g3
(g4
g5
(g6
(S'\x07\xdf\x0c\x12\x10\x081\nh\xae'
tRp1309
S'135'
p1310
I1
ttRp1311
sVhttp://graphicsheat.com/wp-content/uploads/2015/05/Have-patience.-All-things-are__quotes-by-Saadi-86.png
p1312
g3
(g4
g5
(g6
(S'\x07\xdf\x0c\x12\x10\x081\nh$'
tRp1313
I-1
I1
ttRp1314
sVhttp://spiritualcleansing.org/wp-content/uploads/2015/03/Two-things-define-you.-Your-patience-when-you-have-nothing-and-your-attitude-when-you-have-everything..jpg
p1315
g3
(g4
g5
(g6
(S'\x07\xe0\x07\x1b\x14\x13\x17\x0b\x81\xc3'
tRp1316
S'246'
p1317
I1
ttRp1318
sVhttps://brandonagape.files.wordpress.com/2015/06/lake-bench.jpg?w=529
p1319
g3
(g4
g5
(g6
(S'\x07\xdf\x0b\x1c\x16\x05+\x02\xf3\xdf'
tRp1320
S'73'
p1321
I1
ttRp1322
sVhttp://www.livefromlockdown.com/wp-content/uploads/2015/09/patience-ill-wait.png
p1323
g3
(g4
g5
(g6
(S'\x07\xe0\x08\x0c\x14.\x18\x00\x9b2'
tRp1324
I-1
I1
ttRp1325
sVhttp://quotes.lifehack.org/media/quotes/quote-Alan-Sugar-i-have-no-patience-at-all-153970.png
p1326
g3
(g4
g5
(g6
(S'\x07\xe0\x04\x07\r5;\x0enS'
tRp1327
S'199'
p1328
I1
ttRp1329
sVhttp://www.hdwallpapers-3d.com/wp-content/uploads/2014/06/patience-quotes-hd-wallpaper-9.jpg
p1330
g3
(g4
g5
(g6
(S'\x07\xe0\x04\x0b\x0f: \x0b\xfcQ'
tRp1331
S'88'
p1332
I1
ttRp1333
sVhttp://www.thequotepedia.com/images/98/it-is-scrange-that-the-years-teach-as-patiences-that-the-shorter-our-time-the-greater-our-capacity-for-waiting-patience-quote.jpg
p1334
g3
(g4
g5
(g6
(S"\x07\xe0\x08\x12\x15+'\n\x04\xc7"
tRp1335
S'312'
p1336
I2
ttRp1337
sVhttps://assets.entrepreneur.com/content/16x9/822/1409767643-sleepwalking-through-sales-how-vendors-ignoring-buyers-intelligence.jpg
p1338
g3
(g4
g5
(g6
(S'\x07\xe0\x08\x0c\x14.\x18\x00\x9aL'
tRp1339
S'344'
p1340
I1
ttRp1341
sVhttp://jodiestevenspark.files.wordpress.com/2014/01/pray_for_patience.jpg
p1342
g3
(g4
g5
(g6
(S'\x07\xe0\x04\x01\x0b\x05\x16\x03\x92\xd9'
tRp1343
S'260'
p1344
I1
ttRp1345
sVhttps://quotefancy.com/media/wallpaper/3840x2160/18012-Ray-Davis-Quote-Patience-is-not-passive-waiting-Patience-is-active.jpg
p1346
g3
(g4
g5
(g6
(S'\x07\xe0\x07\x15\x0f\x0b\x18\r\xcf6'
tRp1347
S'212'
p1348
I3
ttRp1349
sVhttp://www.themusicninja.com/wp-content/uploads/2015/08/patience-600x600.jpg
p1350
g3
(g4
g5
(g6
(S'\x07\xe0\x08\x02\x14(\x02\x00\x11\xe5'
tRp1351
I-1
I1
ttRp1352
sVhttp://www.lovethispic.com/uploaded_images/44306-Give-Me-Patience.jpg
p1353
g3
(g4
g5
(g6
(S'\x07\xe0\x01\x13\x10\x13\x16\x06(\xff'
tRp1354
S'28'
p1355
I1
ttRp1356
sVhttps://lh5.googleusercontent.com/-hXtzK4NWVPI/VWNJgq1F5tI/AAAAAAAADyA/q6z2AMeMY2g/w800-h450-no/best-patience-quotes.jpg
p1357
g3
(g4
g5
(g6
(S'\x07\xe0\x08\x0c\x14.\x18\x00\x9av'
tRp1358
S'304'
p1359
I1
ttRp1360
sVhttp://refe99.com/wp-content/uploads/2014/09/All-men-commend-patience-although__quotes-by-Thomas-a-Kempis-43.png
p1361
g3
(g4
g5
(g6
(S'\x07\xe0\x05\x1b\x13\x18\x0b\t\x19b'
tRp1362
S'96'
p1363
I1
ttRp1364
sVhttp://1.bp.blogspot.com/-YtB9JXWJlts/Ur2bp57m7BI/AAAAAAAAHpA/5xodq4OgNNg/s1600/Patience.jpg
p1365
g3
(g4
g5
(g6
(S"\x07\xe0\x08\x12\x15+'\n\x05\x1c"
tRp1366
S'237'
p1367
I1
ttRp1368
sVhttp://study2office.com/wp-content/uploads/2014/12/Patience-and-time-do-more__quotes-by-Jean-De-la-Fontaine-62.png
p1369
g3
(g4
g5
(g6
(S'\x07\xe0\x05\x1b\x13\x18\x0b\t\x1aK'
tRp1370
S'140'
p1371
I1
ttRp1372
sVhttp://www.picschamp.com/wp-content/uploads/2015/05/patience-quotes-2.jpg
p1373
g3
(g4
g5
(g6
(S'\x07\xe0\x04\x0f\x10\x0f\r\x07=\xd9'
tRp1374
S'122'
p1375
I1
ttRp1376
sVhttp://fabquote.co/wp-content/uploads/Patience1.jpg
p1377
g3
(g4
g5
(g6
(S'\x07\xe0\x07\x1f\x14#\x16\t}\xde'
tRp1378
S'337'
p1379
I1
ttRp1380
sVhttp://a.abcnews.com/images/US/ap_nightclub_shooting_patience_carter_jc_160614_12x5_1600.jpg
p1381
g3
(g4
g5
(g6
(S"\x07\xe0\x08\x12\x15+'\n\x050"
tRp1382
S'356'
p1383
I1
ttRp1384
sVhttp://ninapaley.com/mimiandeunice/wp-content/uploads/2010/08/ME_113_Patience.png
p1385
g3
(g4
g5
(g6
(S'\x07\xe0\x04\x0f\x10\x0f\r\x07>s'
tRp1386
S'120'
p1387
I1
ttRp1388
sVhttps://quotefancy.com/media/wallpaper/3840x2160/8826-Leo-Tolstoy-Quote-The-two-most-powerful-warriors-are-patience-and.jpg
p1389
g3
(g4
g5
(g6
(S'\x07\xe0\x07\x15\x0f\x0b\x18\r\xcf\xce'
tRp1390
S'327'
p1391
I1
ttRp1392
sVhttp://murphydeesign.com/wp-content/uploads/2013/03/patience.jpg
p1393
g3
(g4
g5
(g6
(S'\x07\xdf\x0b\x16\x15-\x0c\t\xa4\xc5'
tRp1394
S'51'
p1395
I2
ttRp1396
sVhttps://quotefancy.com/media/wallpaper/3840x2160/18013-Ray-Davis-Quote-Patience-is-not-passive-waiting-Patience-is-active.jpg
p1397
g3
(g4
g5
(g6
(S'\x07\xe0\x08\x02\x14(\x02\x00\x12z'
tRp1398
S'211'
p1399
I3
ttRp1400
sVhttp://www.myquotesclub.com/wp-content/uploads/2015/08/With-patience-you-go-beyond-knowiedge.png
p1401
g3
(g4
g5
(g6
(S'\x07\xdf\x0c\x12\x10\x081\nht'
tRp1402
S'138'
p1403
I3
ttRp1404
sVhttp://www.relatably.com/q/img/patience-quotes/539a8b6bd2effa70c0b17c79778eb8f6.jpg
p1405
g3
(g4
g5
(g6
(S'\x07\xe0\x08\x02\x14(\x02\x00\x12\x93'
tRp1406
I-1
I1
ttRp1407
sVhttps://www.motivationalpicturequotes.com/wp-content/uploads/2094/patience-famous-quotes.jpg
p1408
g3
(g4
g5
(g6
(S'\x07\xe0\x05\x1b\x13\x18\x0b\t\x19\xdd'
tRp1409
S'272'
p1410
I2
ttRp1411
sVhttp://fergusonvalues.com/wp-content/uploads/2013/03/Patience-in-Leadership.jpg
p1412
g3
(g4
g5
(g6
(S'\x07\xe0\x03\r\x15$!\x05\xd8?'
tRp1413
S'35'
p1414
I1
ttRp1415
sVhttp://assets4.bigthink.com/system/idea_thumbnails/53323/primary/Art-Text-Patience.jpg?1416351159
p1416
g3
(g4
g5
(g6
(S'\x07\xdf\x0b\x08\x13\r"\x05+\x08'
tRp1417
I-1
I1
ttRp1418
sVhttp://geniusquotes.org/wp-content/uploads/2014/03/20130920-patience.jpg
p1419
g3
(g4
g5
(g6
(S"\x07\xe0\x08\x12\x15+'\n\x05\x8a"
tRp1420
I-1
I1
ttRp1421
sVhttp://www.bible-basics-layers-of-understanding.com/images/patience-LOGO2.jpeg
p1422
g3
(g4
g5
(g6
(S"\x07\xe0\x08\x12\x15+'\n\x05\xbf"
tRp1423
S'186'
p1424
I1
ttRp1425
sVhttp://quotesideas.com/wp-content/uploads/2015/02/Waiting-patience-quote-wallpaper-hd.jpg
p1426
g3
(g4
g5
(g6
(S'\x07\xe0\x07\x19\x0f\x0e\x15\x07\xbad'
tRp1427
I-1
I1
ttRp1428
sVhttp://kidsstuffworld.com/wp-content/uploads/2016/01/patience-5.jpg
p1429
g3
(g4
g5
(g6
(S'\x07\xe0\x03\x05\x13\x0e4\x08Q\xa1'
tRp1430
I-1
I1
ttRp1431
sVhttp://familydeploymentips.files.wordpress.com/2013/07/patience.jpg
p1432
g3
(g4
g5
(g6
(S'\x07\xe0\x03\x16\n2-\x04\x93\x8c'
tRp1433
I-1
I1
ttRp1434
sVhttps://christianstt.com/wp-content/uploads/2015/05/Prayer-for-Patience.png
p1435
g3
(g4
g5
(g6
(S"\x07\xe0\x08\x12\x15+'\n\x05\xa5"
tRp1436
S'367'
p1437
I1
ttRp1438
sVhttp://cocktailswithmom.com/wp-content/uploads/2011/12/patience7.jpg
p1439
g3
(g4
g5
(g6
(S'\x07\xdf\x0b\x13\x14\n\x01\x0e\xe3\xc6'
tRp1440
S'30'
p1441
I1
ttRp1442
sVhttp://i.quoteaddicts.com/media/quotes/1/19217-quotes-about-having-patience.jpg
p1443
g3
(g4
g5
(g6
(S'\x07\xe0\x07\x15\x0f\x0b\x18\r\xd0\xee'
tRp1444
S'316'
p1445
I1
ttRp1446
sVhttps://s-media-cache-ak0.pinimg.com/736x/53/9a/8b/539a8b6bd2effa70c0b17c79778eb8f6.jpg
p1447
g3
(g4
g5
(g6
(S'\x07\xe0\x07\x1f\x14#\x16\t~x'
tRp1448
S'103'
p1449
I1
ttRp1450
sVhttp://www.quoteshunger.com/wp-content/uploads/2014/08/quote.jpg
p1451
g3
(g4
g5
(g6
(S'\x07\xe0\x01\x13\x10\x13\x16\x06(\xe9'
tRp1452
S'25'
p1453
I1
ttRp1454
sVhttps://ehappy.files.wordpress.com/2011/04/wabi-patience-is-a-virtue.jpg
p1455
g3
(g4
g5
(g6
(S'\x07\xe0\x01\x13\x10\x13\x16\x06(\xf4'
tRp1456
S'17'
p1457
I1
ttRp1458
sVhttp://graphicsheat.com/wp-content/uploads/2015/05/patience-quotes-2.jpg
p1459
g3
(g4
g5
(g6
(S'\x07\xe0\x07\x1b\x14\x13\x17\x0b\x81\x0e'
tRp1460
I-1
I1
ttRp1461
sVhttp://www.quotehd.com/imagequotes/authors35/steve-nickerson-quote-theyre-definitely-testing-my-patience.jpg
p1462
g3
(g4
g5
(g6
(S'\x07\xe0\x04\x07\r5;\x0em\x16'
tRp1463
S'243'
p1464
I1
ttRp1465
sVhttp://agbeat.com/wp-content/uploads/2013/11/patience.jpg
p1466
g3
(g4
g5
(g6
(S'\x07\xe0\x07\x01\x0f\x02.\n\x11\xc4'
tRp1467
S'136'
p1468
I1
ttRp1469
sVhttp://theindiansailor.com/wp-content/uploads/2015/08/Patience.png
p1470
g3
(g4
g5
(g6
(S'\x07\xdf\x0c\x1e\x10\x0e\x19\x0e\x89\x90'
tRp1471
S'44'
p1472
I1
ttRp1473
sVhttps://s-media-cache-ak0.pinimg.com/736x/62/10/67/6210674b7ce89577a6546490161a7789.jpg
p1474
g3
(g4
g5
(g6
(S'\x07\xe0\x04\x01\x0b\x05\x16\x03\x92x'
tRp1475
S'244'
p1476
I1
ttRp1477
sVhttp://rippedbody.jp/wp-content/uploads/2012/11/Patience-for-diet-success-1.jpg
p1478
g3
(g4
g5
(g6
(S'\x07\xe0\x07\x1f\x14#\x16\t}\xd0'
tRp1479
S'341'
p1480
I1
ttRp1481
sVhttp://distinctivediscipleship.com/wp-content/uploads/2014/02/patience-is-a-virtue.jpg
p1482
g3
(g4
g5
(g6
(S'\x07\xe0\x08\x02\x14(\x02\x00\x12\xb3'
tRp1483
I-1
I1
ttRp1484
sVhttps://f4.bcbits.com/img/a0972201264_10.jpg
p1485
g3
(g4
g5
(g6
(S"\x07\xe0\x08\x12\x15+'\n\x053"
tRp1486
S'357'
p1487
I1
ttRp1488
sVhttps://alameleadership.files.wordpress.com/2013/06/al-inspiring-quote-on-patience.png
p1489
g3
(g4
g5
(g6
(S'\x07\xe0\x03\x05\x13\x0e4\x08Q\xcf'
tRp1490
S'194'
p1491
I1
ttRp1492
sVhttp://cdn.bigbangfish.com/quotes/patience-quotes-wallpaper/patience-quotes-wallpaper-8.jpg
p1493
g3
(g4
g5
(g6
(S'\x07\xe0\x04\x07\r5;\x0enB'
tRp1494
I-1
I1
ttRp1495
sVhttps://sandysandmeyer.files.wordpress.com/2013/04/patience-chick.jpg
p1496
g3
(g4
g5
(g6
(S"\x07\xe0\x08\x12\x15+'\n\x05["
tRp1497
I-1
I2
ttRp1498
sVhttps://i.ytimg.com/vi/Lj9mJHp4wnQ/hqdefault.jpg
p1499
g3
(g4
g5
(g6
(S'\x07\xe0\x02\x1a\x11\x02\x0f\ra\xf9'
tRp1500
I-1
I1
ttRp1501
sVhttp://matthewandrews.typepad.com/.a/6a0154326e1d1c970c01bb08152b35970d-pi
p1502
g3
(g4
g5
(g6
(S'\x07\xe0\x05\x1b\x13\x18\x0b\t\x19\xf1'
tRp1503
S'2'
I1
ttRp1504
sVhttp://mob-fit.com/wp-content/uploads/2015/02/patience.jpg
p1505
g3
(g4
g5
(g6
(S'\x07\xe0\x03\x05\x13\x0e4\x08Q\xff'
tRp1506
S'160'
p1507
I1
ttRp1508
sVhttp://quotesta.com/wp-content/uploads/Patience-In-Love-Relationships-Quotes-4.jpg
p1509
g3
(g4
g5
(g6
(S'\x07\xe0\x07\x19\x0f\x0e\x15\x07\xba\x93'
tRp1510
S'335'
p1511
I1
ttRp1512
sVhttp://www.thetwocities.com/wp-content/uploads/2014/08/97816060885241.jpg
p1513
g3
(g4
g5
(g6
(S'\x07\xdf\x0b\x1c\x16\x05+\x02\xf3\xe3'
tRp1514
S'71'
p1515
I1
ttRp1516
sVhttp://www.glavo.online/wp-content/uploads/2014/03/patience-quotes-6.jpg
p1517
g3
(g4
g5
(g6
(S'\x07\xdf\x0b\x1c\x16\x05+\x02\xf3\xeb'
tRp1518
I-1
I1
ttRp1519
sVhttp://images.elephantjournal.com/wp-content/uploads/2012/06/patience.jpg
p1520
g3
(g4
g5
(g6
(S'\x07\xdf\x0c\x0c\x11\x1f\x1f\x04\x02@'
tRp1521
I-1
I1
ttRp1522
sVhttps://c2.staticflickr.com/8/7163/6477009555_b919e54cef.jpg
p1523
g3
(g4
g5
(g6
(S'\x07\xe0\x07\x05\x0f\x02\x16\x08\xdc\x18'
tRp1524
S'162'
p1525
I1
ttRp1526
sVhttp://motivationalreads.com/wp-content/uploads/patience-is-not-the-ability.jpg
p1527
g3
(g4
g5
(g6
(S"\x07\xe0\x03\t\x13\x17'\x05G\xf5"
tRp1528
S'214'
p1529
I2
ttRp1530
sVhttps://format-com-cld-res.cloudinary.com/image/private/s--KCu3hN2L--/c_limit,g_center,h_1200,w_65535/a_auto,fl_keep_iptc.progressive,q_95/131851-11059449-Screen_Shot_2014-04-23_at_21_31_29_png.png
p1531
g3
(g4
g5
(g6
(S"\x07\xe0\x08\x12\x15+'\n\x05\xad"
tRp1532
S'363'
p1533
I1
ttRp1534
sVhttp://www.davidfroud.com/wp-content/uploads/2014/08/Strategic-Patience.png
p1535
g3
(g4
g5
(g6
(S'\x07\xe0\x07\x15\x0f\x0b\x18\r\xd0\xc5'
tRp1536
S'116'
p1537
I1
ttRp1538
sVhttps://www.alquranclasses.com/wp-content/uploads/2011/12/Patience_Islam.jpg
p1539
g3
(g4
g5
(g6
(S'\x07\xe0\x01\x19\x10\x17\x1e\x05\xb2c'
tRp1540
S'143'
p1541
I1
ttRp1542
sVhttp://anti-deprime.com/wp-content/uploads/2015/09/La-patience-na-lair-de-rien-cest-tout.jpg
p1543
g3
(g4
g5
(g6
(S'\x07\xe0\x07\x1b\x14\x13\x17\x0b\x81\xba'
tRp1544
S'249'
p1545
I1
ttRp1546
sVhttp://static1.squarespace.com/static/537cad0be4b02cb9fe04985f/t/552990c9e4b0b1018b2af566/1428787401935/Patience.jpg
p1547
g3
(g4
g5
(g6
(S'\x07\xdf\x0b\t\x13\x11\x02\nX8'
tRp1548
S'21'
p1549
I1
ttRp1550
sVhttp://simplereminders.com/uploads/images/blog/stock-woman-waiting-road-patience-9n3x.jpg
p1551
g3
(g4
g5
(g6
(S"\x07\xe0\x08\x12\x15+'\n\x05\xc7"
tRp1552
I-1
I1
ttRp1553
sVhttps://3gigglygirlsathome.files.wordpress.com/2013/12/p1080399.jpg
p1554
g3
(g4
g5
(g6
(S"\x07\xe0\x03\t\x13\x17'\x05FY"
tRp1555
S'222'
p1556
I1
ttRp1557
sVhttp://c6cc.http.cdn.softlayer.net/80C6CC/inspiremore.com/wp-content/uploads/2014/10/Have-patience.-All-things-are__quotes-by-Saadi-86.png
p1558
g3
(g4
g5
(g6
(S'\x07\xdf\x0b\x13\x14\n\x01\x0e\xe2\xbc'
tRp1559
I-1
I1
ttRp1560
sVhttp://jamierobson.com/wp-content/uploads/2016/06/Patience.jpg
p1561
g3
(g4
g5
(g6
(S'\x07\xe0\x08\x0c\x14.\x18\x00\x9b\x12'
tRp1562
I-1
I1
ttRp1563
sVhttp://blog.olivetree.com/wp-content/uploads/2012/12/bigstock-HS-Patience-48914204.jpg
p1564
g3
(g4
g5
(g6
(S"\x07\xe0\x08\x12\x15+'\n\x04\xfc"
tRp1565
S'40'
p1566
I2
ttRp1567
sVhttp://www.histreasureseekers.com/wp-content/uploads/2012/06/patience_t_nv.jpg
p1568
g3
(g4
g5
(g6
(S'\x07\xe0\x07\x1f\x14#\x16\t}~'
tRp1569
S'93'
p1570
I3
ttRp1571
sVhttp://image.shutterstock.com/z/stock-vector-patience-chinese-language-grunge-brush-freestyle-font-designed-using-black-and-white-handwriting-258203468.jpg
p1572
g3
(g4
g5
(g6
(S"\x07\xe0\x08\x12\x15+'\n\x04\xe1"
tRp1573
S'347'
p1574
I1
ttRp1575
sVhttp://pinkpolkadotcreations.com/wp-content/uploads/2013/08/Give-me-Patience-000-Page-1.jpg
p1576
g3
(g4
g5
(g6
(S"\x07\xe0\x08\x12\x15+'\n\x05\x18"
tRp1577
S'175'
p1578
I1
ttRp1579
sVhttps://lsaruminations.edublogs.org/files/2015/05/Patience-carved-stone-1nfaubl.jpg
p1580
g3
(g4
g5
(g6
(S'\x07\xdf\x0b\x1c\x16\x05+\x02\xf3a'
tRp1581
I-1
I1
ttRp1582
sVhttps://f4.bcbits.com/img/a2710275168_10.jpg
p1583
g3
(g4
g5
(g6
(S"\x07\xe0\x08\x12\x15+'\n\x05\x14"
tRp1584
S'358'
p1585
I1
ttRp1586
sVhttp://cdn-media-2.lifehack.org/wp-content/files/2015/02/eb01ed89be55f5a6ed079983a1fafe88.jpg
p1587
g3
(g4
g5
(g6
(S'\x07\xe0\x01\x13\x10\x13\x16\x06)*'
tRp1588
S'87'
p1589
I1
ttRp1590
sVhttp://rwjm.com/wp-content/uploads/2016/02/patience.jpg
p1591
g3
(g4
g5
(g6
(S'\x07\xe0\x08\x0c\x14.\x18\x00\x9a\x8f'
tRp1592
S'289'
p1593
I1
ttRp1594
sVhttp://4.bp.blogspot.com/-rQHEW09GaDA/UJxJYFnDoGI/AAAAAAAAA4s/dFTDO-TZn-4/s1600/Patience.jpg
p1595
g3
(g4
g5
(g6
(S"\x07\xe0\x08\x12\x15+'\n\x05$"
tRp1596
S'360'
p1597
I1
ttRp1598
sVhttps://www.motivationalpicturequotes.com/wp-content/uploads/2094/Patience-Quotes-Images.jpg
p1599
g3
(g4
g5
(g6
(S'\x07\xe0\x05\x1b\x13\x18\x0b\t\x19\xd7'
tRp1600
S'279'
p1601
I3
ttRp1602
sVhttp://www.conflictdynamics.org/blog/wp-content/uploads/2012/06/patience.jpg
p1603
g3
(g4
g5
(g6
(S'\x07\xe0\x07\r\x0f\x062\x0cz\x9b'
tRp1604
S'147'
p1605
I1
ttRp1606
sVhttp://www.myquotesclub.com/wp-content/uploads/2015/08/A-moment-of-patience-in-a-moment-of-anger-saves-you-a-hundred-moments-of-regret.jpg
p1607
g3
(g4
g5
(g6
(S'\x07\xe0\x01\x13\x10\x13\x16\x06).'
tRp1608
I-1
I1
ttRp1609
sVhttp://www.brcvpa.com/uploads/2/9/5/6/29568609/9615518_orig.jpg
p1610
g3
(g4
g5
(g6
(S'\x07\xe0\x07\r\x0f\x062\x0cz\x80'
tRp1611
S'313'
p1612
I1
ttRp1613
sVhttp://quotesideas.com/wp-content/uploads/2015/02/patience_words1.jpg
p1614
g3
(g4
g5
(g6
(S'\x07\xe0\x07\x15\x0f\x0b\x18\r\xcf\xd5'
tRp1615
I-1
I1
ttRp1616
sVhttp://globalradiokkay.com/wp-content/uploads/2014/06/patience-kkay-radio.jpg
p1617
g3
(g4
g5
(g6
(S'\x07\xdf\x0b\x1c\x16\x05+\x02\xf3\xa8'
tRp1618
S'23'
p1619
I1
ttRp1620
sVhttp://www.notable-quotes.com/p/patience_quote.jpg
p1621
g3
(g4
g5
(g6
(S'\x07\xe0\x08\x0c\x14.\x18\x00\x9a\x87'
tRp1622
S'64'
p1623
I1
ttRp1624
sVhttp://images.forwallpaper.com/files/thumbs/preview/61/612071__patience-quote-by-buddah_p.jpg
p1625
g3
(g4
g5
(g6
(S'\x07\xe0\x04\x07\r5;\x0el\xcc'
tRp1626
S'270'
p1627
I2
ttRp1628
sVhttp://www.joaoleitao.com/tattoo-name/files/female-names4/tattoo-design-name-patience-03.png
p1629
g3
(g4
g5
(g6
(S'\x07\xe0\x07\x1b\x14\x13\x17\x0b\x816'
tRp1630
S'263'
p1631
I1
ttRp1632
sVhttp://southernbellecharm.com/wp-content/uploads/2015/06/Patience.jpg
p1633
g3
(g4
g5
(g6
(S'\x07\xe0\x04\x07\r5;\x0emH'
tRp1634
I-1
I1
ttRp1635
sVhttp://img.picturequotes.com/2/21/20581/for-the-friendship-of-two-the-patience-of-one-is-required-quote-1.jpg
p1636
g3
(g4
g5
(g6
(S'\x07\xe0\x08\x02\x14(\x02\x00\x12\x8e'
tRp1637
S'167'
p1638
I1
ttRp1639
sVhttp://aboutislam.net/wp-content/uploads/2016/01/patience11.jpg
p1640
g3
(g4
g5
(g6
(S'\x07\xe0\x05\x1b\x13\x18\x0b\t\x1a\x17'
tRp1641
S'285'
p1642
I1
ttRp1643
sVhttp://www.quotesbuddy.com/wp-content/uploads/2014/12/Patience-is-the-greatest-prayer.jpg
p1644
g3
(g4
g5
(g6
(S"\x07\xe0\x08\x12\x15+'\n\x05\xb0"
tRp1645
S'361'
p1646
I1
ttRp1647
sVhttp://aboutislam.net/wp-content/uploads/2015/12/What-Is-Beautiful-Patience-Part-1-.jpg
p1648
g3
(g4
g5
(g6
(S'\x07\xe0\x04\x0f\x10\x0f\r\x07>\xea'
tRp1649
I-1
I1
ttRp1650
sVhttps://dealdash.files.wordpress.com/2016/06/943bb-1463022985226.jpg
p1651
g3
(g4
g5
(g6
(S'\x07\xe0\x08\x0c\x14.\x18\x00\x9a\xf8'
tRp1652
S'306'
p1653
I1
ttRp1654
sVhttp://media-cache-ec0.pinimg.com/736x/0b/9d/91/0b9d91091c4d1dc8e5ac3d0fb9ebed93.jpg
p1655
g3
(g4
g5
(g6
(S'\x07\xe0\x02\x1a\x11\x02\x0f\rb\xc4'
tRp1656
S'150'
p1657
I1
ttRp1658
sVhttp://rawpl.com/wp-content/uploads/2015/12/patience-quotes-for-best-collections-of-patience-quotes-2015-7.jpg
p1659
g3
(g4
g5
(g6
(S'\x07\xdf\x0c\x14\x10\t"\rK\xf9'
tRp1660
I-1
I1
ttRp1661
sVhttp://joeandpatience.com/wp-content/uploads/2014/09/Semiahmoo-Resort-Wedding-by-Bellingham-Wedding-Photographer-Joe-and-Patience.jpg
p1662
g3
(g4
g5
(g6
(S'\x07\xe0\x08\x02\x14(\x02\x00\x13\x16'
tRp1663
I-1
I1
ttRp1664
sVhttp://www.joaoleitao.com/tattoo-name/files/female-names4/tattoo-design-name-patience-05.png
p1665
g3
(g4
g5
(g6
(S'\x07\xe0\x07\x1b\x14\x13\x17\x0b\x81\x98'
tRp1666
S'336'
p1667
I1
ttRp1668
sVhttp://rawpl.com/wp-content/uploads/2015/12/patience-quotes-for-best-collections-of-patience-quotes-2015-61.jpg
p1669
g3
(g4
g5
(g6
(S'\x07\xdf\x0c\x14\x10\t"\rL%'
tRp1670
S'111'
p1671
I1
ttRp1672
sVhttp://fantagraphics.com/flog/wp-content/uploads/2015/12/patiencetour-2-1024x1024.jpg
p1673
g3
(g4
g5
(g6
(S"\x07\xe0\x08\x12\x15+'\n\x05\x8e"
tRp1674
I-1
I1
ttRp1675
sVhttps://s-media-cache-ak0.pinimg.com/736x/4d/45/5f/4d455f32399c79bf96f73d74a08f1cd7.jpg
p1676
g3
(g4
g5
(g6
(S'\x07\xe0\x03\x05\x13\x0e4\x08RG'
tRp1677
S'56'
p1678
I1
ttRp1679
s.