(dp1
Vhttp://www.commentskart.com/wp-content/uploads/2014/08/Patience-Quotes-6.png
p2
ccopy_reg
_reconstructor
p3
(cbase.graph_fetch.fetcher
ImageSlot
p4
c__builtin__
tuple
p5
(cdatetime
datetime
p6
(S'\x07\xe0\x07\x15\x0f\x0b\x18\r\xce\xbe'
tRp7
S'163'
p8
I1
ttRp9
sVhttp://irisdeanda.com/wp-content/uploads/2014/02/patience-2.jpg
p10
g3
(g4
g5
(g6
(S"\x07\xe0\x08\x12\x15+'\n\x04\xe7"
tRp11
S'14'
p12
I2
ttRp13
sVhttp://www.thejapaneseconnection.com/images/kanji_project_custom/patience-japanese-kanji-symbol-8.gif
p14
g3
(g4
g5
(g6
(S'\x07\xe0\x01\x13\x10\x13\x16\x06)\x1e'
tRp15
S'151'
p16
I1
ttRp17
sVhttps://upload.wikimedia.org/wikipedia/en/1/16/Patience.jpg
p18
g3
(g4
g5
(g6
(S'\x07\xe0\x01\x0b\x10\x0f$\r\xb7I'
tRp19
S'148'
p20
I1
ttRp21
sVhttp://cdn-media-1.lifehack.org/wp-content/files/2015/02/eb01ed89be55f5a6ed079983a1fafe88.jpg
p22
g3
(g4
g5
(g6
(S'\x07\xe0\x03\x05\x13\x0e4\x08Q\xa5'
tRp23
S'65'
p24
I1
ttRp25
sVhttp://www.celebrityxo.com/wp-content/uploads/2016/01/Have-patience.-All-things-are__quotes-by-Saadi-86.png
p26
g3
(g4
g5
(g6
(S'\x07\xe0\x03\r\x15$!\x05\xd7\xe6'
tRp27
S'210'
p28
I1
ttRp29
sVhttp://www.shoutmeloud.com/wp-content/uploads/2012/12/Patience-in-blogging.jpg
p30
g3
(g4
g5
(g6
(S'\x07\xe0\x07\r\x0f\x062\x0czE'
tRp31
S'76'
p32
I1
ttRp33
sVhttps://quotefancy.com/media/wallpaper/3840x2160/18040-Michelangelo-Quote-Genius-is-eternal-patience.jpg
p34
g3
(g4
g5
(g6
(S'\x07\xe0\x08\x02\x14(\x02\x00\x12-'
tRp35
S'271'
p36
I2
ttRp37
sVhttp://southbaybbc.org/wp-content/uploads/2015/01/2015-run-with-patience-slide-size.jpg
p38
g3
(g4
g5
(g6
(S"\x07\xe0\x08\x12\x15+'\n\x05("
tRp39
I-1
I1
ttRp40
sVhttps://heavyeditorial.files.wordpress.com/2016/06/patience-carter1.jpg?quality=65&strip=all&strip=all
p41
g3
(g4
g5
(g6
(S'\x07\xe0\x07\x1b\x14\x13\x17\x0b\x81\x02'
tRp42
S'331'
p43
I1
ttRp44
sVhttp://fatali.com/wp-content/uploads/2012/09/Fatali-Waiting-for-the-light-Patience.jpg
p45
g3
(g4
g5
(g6
(S'\x07\xe0\x07\x1b\x14\x13\x17\x0b\x81;'
tRp46
S'195'
p47
I1
ttRp48
sVhttp://understandquran.com/wp-content/uploads/2012/10/seek-patience.jpg
p49
g3
(g4
g5
(g6
(S'\x07\xdf\x0b\x1c\x16\x05+\x02\xf3\x97'
tRp50
S'67'
p51
I1
ttRp52
sVhttp://cdn-media-1.lifehack.org/wp-content/files/2013/08/Patience-is-the-art-of-concealing-your-impatience..jpg
p53
g3
(g4
g5
(g6
(S'\x07\xe0\x04\x01\x0b\x05\x16\x03\x92\xcd'
tRp54
S'245'
p55
I1
ttRp56
sVhttps://upload.wikimedia.org/wikipedia/commons/4/4e/WP_Patience_Wright.jpg
p57
g3
(g4
g5
(g6
(S"\x07\xe0\x08\x12\x15+'\n\x05S"
tRp58
S'121'
p59
I1
ttRp60
sVhttp://donteversaynever.com/wp-content/uploads/2016/06/2286-Bill-Gates-Quote-Patience-is-a-key-element-of-success.jpg
p61
g3
(g4
g5
(g6
(S'\x07\xe0\x07\x15\x0f\x0b\x18\r\xd0\x1c'
tRp62
S'301'
p63
I1
ttRp64
sVhttps://blufiles.storage.live.com/y1pwUvvqLLshZ8MW-L5o_pTaqII1b9T86oyy8CLLdLAr4uV93qSaPCcZZ5Z35uxqegaeQL4S7MsImY/patience.jpg?psid=1
p65
g3
(g4
g5
(g6
(S'\x07\xdf\x0b\x1c\x16\x05+\x02\xf3\xdb'
tRp66
S'81'
p67
I1
ttRp68
sVhttp://assets3.bigthink.com/system/idea_thumbnails/53323/original/Art-Text-Patience.jpg?1416351159
p69
g3
(g4
g5
(g6
(S'\x07\xe0\x08\x02\x14(\x02\x00\x12\xa2'
tRp70
I-1
I1
ttRp71
sVhttp://thehubforstartups.files.wordpress.com/2014/09/patience1.jpg
p72
g3
(g4
g5
(g6
(S'\x07\xe0\x01\x1f\x103\x11\x0ebr'
tRp73
S'12'
p74
I1
ttRp75
sVhttp://www.kvs.be/sites/default/files/styles/xlarge/public/productions/Filmweek%20PATIENCE_Affiche%20A1_light_0.jpg?itok=5W_1MH9H
p76
g3
(g4
g5
(g6
(S'\x07\xe0\x04\x0f\x10\x0f\r\x07?3'
tRp77
S'171'
p78
I1
ttRp79
sVhttp://ifhappinesscanlastforever.files.wordpress.com/2014/03/1655898_10101308104135799_82878429_n.jpg
p80
g3
(g4
g5
(g6
(S'\x07\xe0\x04\x01\x0b\x05\x16\x03\x93\x18'
tRp81
S'257'
p82
I1
ttRp83
sVhttp://www.aniotaoftruth.com/wp-content/uploads/2013/08/Patience-allows-life-time-to-fall-in-place.8x10.jpg
p84
g3
(g4
g5
(g6
(S'\x07\xe0\x05\x1b\x13\x18\x0b\t\x1a\x1f'
tRp85
S'59'
p86
I1
ttRp87
sVhttps://quotefancy.com/media/wallpaper/3840x2160/18894-Geoffrey-Chaucer-Quote-Patience-is-a-conquering-virtue.jpg
p88
g3
(g4
g5
(g6
(S'\x07\xe0\x07\x15\x0f\x0b\x18\r\xd0\x86'
tRp89
S'288'
p90
I1
ttRp91
sVhttp://rebekahmhallberg.com/wp-content/uploads/2013/08/From-Perseverance-to-Patience.jpg
p92
g3
(g4
g5
(g6
(S'\x07\xe0\x01\x13\x10\x13\x16\x06)\xd2'
tRp93
S'155'
p94
I1
ttRp95
sVhttps://quotefancy.com/media/wallpaper/3840x2160/2289-Bill-Gates-Quote-Patience-is-a-key-element-of-success.jpg
p96
g3
(g4
g5
(g6
(S'\x07\xe0\x07\x15\x0f\x0b\x18\r\xd0\x9c'
tRp97
S'325'
p98
I1
ttRp99
sVhttps://i.ytimg.com/vi/tMmX9G8JP38/hqdefault.jpg
p100
g3
(g4
g5
(g6
(S'\x07\xe0\x02\x1a\x11\x02\x0f\rb\x86'
tRp101
S'131'
p102
I1
ttRp103
sVhttp://betrulywealthy.com/wp-content/uploads/2015/01/Patience.jpg
p104
g3
(g4
g5
(g6
(S'\x07\xe0\x07\x19\x0f\x0e\x15\x07\xba\xa3'
tRp105
I-1
I1
ttRp106
sVhttp://www.commentskart.com/wp-content/uploads/2014/08/Patience-Quotes-53.jpg
p107
g3
(g4
g5
(g6
(S'\x07\xe0\x04\x01\x0b\x05\x16\x03\x933'
tRp108
S'242'
p109
I1
ttRp110
sVhttp://hooplaha.com/wp-content/uploads/2012/12/Patience-boy-with-pigeons.jpg
p111
g3
(g4
g5
(g6
(S'\x07\xe0\x07\x1b\x14\x13\x17\x0b\x80\xd6'
tRp112
S'38'
p113
I1
ttRp114
sVhttp://naijapr.com/wp-content/uploads/2016/05/patience-1.jpg
p115
g3
(g4
g5
(g6
(S'\x07\xe0\x08\x02\x14(\x02\x00\x11\xd5'
tRp116
S'303'
p117
I1
ttRp118
sVhttp://www.hdwallpapers-3d.com/wp-content/uploads/2014/06/patience-quotes-hd-wallpaper-6.jpg
p119
g3
(g4
g5
(g6
(S'\x07\xdf\x0b\x1c\x16\x05+\x02\xf3\x92'
tRp120
S'86'
p121
I1
ttRp122
sVhttp://geniusinthemaking.files.wordpress.com/2013/09/patience.jpg
p123
g3
(g4
g5
(g6
(S'\x07\xe0\x07\x15\x0f\x0b\x18\r\xcf\x82'
tRp124
S'221'
p125
I1
ttRp126
sVhttp://static1.squarespace.com/static/53eae327e4b00211d7b1ea28/t/54297ea0e4b03508d143c282/1412005539372/patience
p127
g3
(g4
g5
(g6
(S"\x07\xe0\x08\x12\x15+'\n\x05\x10"
tRp128
S'123'
p129
I1
ttRp130
sVhttps://s-media-cache-ak0.pinimg.com/736x/2d/65/b7/2d65b73d1757d1c57cf4a148777bc117.jpg
p131
g3
(g4
g5
(g6
(S'\x07\xe0\x04\x07\r5;\x0el\xe2'
tRp132
S'255'
p133
I1
ttRp134
sVhttp://opip0g.blu.livefilestore.com/y1ph7weDBvBGXixOaO6VHNhdRcX8MxbO7W5Qmyget3rprPcd3Ai7yBPZ--h5521maoswJ0tHmKNY06jRJiDDmD7Xw8IW2vdoxij/patience.jpg?psid=1
p135
g3
(g4
g5
(g6
(S'\x07\xe0\x07\r\x0f\x062\x0cz\xa5'
tRp136
S'50'
p137
I1
ttRp138
sVhttp://quotesideas.com/wp-content/uploads/2015/02/Keep-calm-patience-quote-new-2015.jpg
p139
g3
(g4
g5
(g6
(S"\x07\xe0\x08\x12\x15+'\n\x05\xc3"
tRp140
I-1
I1
ttRp141
sVhttp://www.quotescover.com/wp-content/uploads/%C2%A0With-patience-you-go-beyond__quotes-by-Catalan-Proverb-71.png
p142
g3
(g4
g5
(g6
(S'\x07\xe0\x05\x1b\x13\x18\x0b\t\x19\x95'
tRp143
S'275'
p144
I1
ttRp145
sVhttp://www.lovethispic.com/uploaded_images/109900-Patience.jpg
p146
g3
(g4
g5
(g6
(S'\x07\xe0\x08\x02\x14(\x02\x00\x12('
tRp147
S'310'
p148
I1
ttRp149
sVhttp://runrichmondky.com/wp-content/uploads/2016/03/god-grant-me-patience.png
p150
g3
(g4
g5
(g6
(S'\x07\xe0\x04\x0f\x10\x0f\r\x07=\xf3'
tRp151
S'241'
p152
I1
ttRp153
sVhttps://ninjatune.net/images/releases/patience-main.jpg
p154
g3
(g4
g5
(g6
(S"\x07\xe0\x08\x12\x15+'\n\x058"
tRp155
I-1
I1
ttRp156
sVhttp://www.thefreshexchangeblog.com/assets/Patience_01.jpg
p157
g3
(g4
g5
(g6
(S'\x07\xe0\x08\x02\x14(\x02\x00\x12\x84'
tRp158
S'326'
p159
I2
ttRp160
sVhttps://cdn.thewatershed.com/wp-content/uploads/2013/03/KEEP-CALM-AND-HAVE-PATIENCE-03-25-13.jpg
p161
g3
(g4
g5
(g6
(S'\x07\xe0\x04\x0f\x10\x0f\r\x07>e'
tRp162
S'3'
I1
ttRp163
sVhttp://facingtrials.com/wp-content/uploads/2013/10/sharron-postcards-fruit-of-spirit-patience.jpg
p164
g3
(g4
g5
(g6
(S"\x07\xe0\x03\t\x13\x17'\x05Gr"
tRp165
S'218'
p166
I1
ttRp167
sVhttps://lswministries.files.wordpress.com/2015/04/image1.jpg
p168
g3
(g4
g5
(g6
(S'\x07\xe0\x03\x12\n-:\x0e\xaa\xc2'
tRp169
S'239'
p170
I1
ttRp171
sVhttp://www.njwomenshistory.org/wp-content/uploads/2013/11/Patience-Lovell-Wright.jpg
p172
g3
(g4
g5
(g6
(S'\x07\xe0\x03\x16\n2-\x04\x92\xf9'
tRp173
S'172'
p174
I1
ttRp175
sVhttps://media.licdn.com/mpr/mpr/p/8/005/07b/058/260f0c1.jpg
p176
g3
(g4
g5
(g6
(S'\x07\xe0\x01\x0b\x10\x0f$\r\xb7\xde'
tRp177
S'146'
p178
I1
ttRp179
sVhttp://my2ndheartbeat.files.wordpress.com/2013/02/patience11.jpg
p180
g3
(g4
g5
(g6
(S'\x07\xe0\x01\x19\x10\x17\x1e\x05\xb1\xe9'
tRp181
S'20'
p182
I1
ttRp183
sVhttp://www.lovethispic.com/uploaded_images/78371-Patience.jpg
p184
g3
(g4
g5
(g6
(S'\x07\xe0\x08\x02\x14(\x02\x00\x12\xce'
tRp185
S'302'
p186
I1
ttRp187
sVhttp://www.ryanhvaughn.com/wp-content/uploads/2012/06/patience.jpg
p188
g3
(g4
g5
(g6
(S'\x07\xdf\x0b\x08\x13\r"\x05+f'
tRp189
I-1
I1
ttRp190
sVhttp://silverleafphotos.com/blog/wp-content/uploads/2016/02/Patience2.png
p191
g3
(g4
g5
(g6
(S'\x07\xe0\x05\x1b\x13\x18\x0b\t\x1a3'
tRp192
S'291'
p193
I1
ttRp194
sVhttps://c2.staticflickr.com/4/3901/14546646743_101aac91f1_b.jpg
p195
g3
(g4
g5
(g6
(S'\x07\xe0\x07\x1b\x14\x13\x17\x0b\x81\xa2'
tRp196
S'196'
p197
I1
ttRp198
sVhttps://i.ytimg.com/vi/VQ4ziRhLGCE/maxresdefault.jpg
p199
g3
(g4
g5
(g6
(S"\x07\xe0\x08\x12\x15+'\n\x05\xb8"
tRp200
S'183'
p201
I1
ttRp202
sVhttp://disgeneration.files.wordpress.com/2013/12/patience-phipps.jpg
p203
g3
(g4
g5
(g6
(S"\x07\xe0\x03\t\x13\x17'\x05H?"
tRp204
S'139'
p205
I1
ttRp206
sVhttp://thumbs.dreamstime.com/z/no-patience-hourglass-under-warning-sign-white-background-34457190.jpg
p207
g3
(g4
g5
(g6
(S'\x07\xe0\x03\x16\n2-\x04\x92\xa5'
tRp208
S'182'
p209
I1
ttRp210
sVhttp://moonstonedragonfly.com/wp-content/uploads/2015/08/patience-quotes-6.jpg
p211
g3
(g4
g5
(g6
(S'\x07\xe0\x01\x0b\x10\x0f$\r\xb7r'
tRp212
S'61'
p213
I1
ttRp214
sVhttp://static1.squarespace.com/static/553d7f4ce4b0fd1d73f6f8eb/55576ba1e4b0607a0bab42ae/5629a0f6e4b0f99eccfd2e30/1447174441834/?format=1500w
p215
g3
(g4
g5
(g6
(S'\x07\xdf\x0c\x0c\x11\x1f\x1f\x04\x01\xd8'
tRp216
S'115'
p217
I1
ttRp218
sVhttp://focuswod.com/wp-content/uploads/2015/06/patience..jpg
p219
g3
(g4
g5
(g6
(S'\x07\xe0\x01\x13\x10\x13\x16\x06)\xa1'
tRp220
S'5'
I1
ttRp221
sVhttp://www.trans4mind.com/quotes/patience.jpg
p222
g3
(g4
g5
(g6
(S'\x07\xe0\x08\x0c\x14.\x18\x00\x9a['
tRp223
S'125'
p224
I1
ttRp225
sVhttp://spiritualcleansing.org/wp-content/uploads/2015/05/Patience-is-not-about-how-long-you-can-wait-but-how-well-you-behave-while-youre-waiting..jpg
p226
g3
(g4
g5
(g6
(S'\x07\xe0\x07\x1f\x14#\x16\t}\xcc'
tRp227
S'253'
p228
I1
ttRp229
sVhttp://happysomeone.com/wp-content/uploads/2013/11/Patience.jpg
p230
g3
(g4
g5
(g6
(S'\x07\xe0\x03\x05\x13\x0e4\x08Q\x99'
tRp231
I-1
I1
ttRp232
sVhttps://molysite.s3.amazonaws.com/uploads/screenshot/image/348/thumb_article_PatienceBanner.png
p233
g3
(g4
g5
(g6
(S'\x07\xe0\x02\x1a\x11\x02\x0f\ra\xdf'
tRp234
S'204'
p235
I1
ttRp236
sVhttp://dailydevotion.tv/wp-content/uploads/2015/04/3030000-poster-p-1-3030000-first-isnt-always-best-when-patience-pays-off.jpg
p237
g3
(g4
g5
(g6
(S'\x07\xe0\x05\x1b\x13\x18\x0b\t\x19{'
tRp238
S'209'
p239
I1
ttRp240
sVhttp://rachelwojo.com/wp-content/uploads/2015/06/patience.jpg
p241
g3
(g4
g5
(g6
(S'\x07\xe0\x07\x1b\x14\x13\x17\x0b\x81`'
tRp242
S'206'
p243
I1
ttRp244
sVhttp://static.rogerebert.com/uploads/review/primary_image/reviews/the-patience-stone-2013/hero_PatienceStone-2013-4.jpg
p245
g3
(g4
g5
(g6
(S'\x07\xe0\x07\x1b\x14\x13\x17\x0b\x81\x13'
tRp246
S'256'
p247
I1
ttRp248
sVhttps://www.patiencebrewster.com/media/catalog/category/AboutPatience_1.jpg
p249
g3
(g4
g5
(g6
(S"\x07\xe0\x08\x12\x15+'\n\x05\x08"
tRp250
S'350'
p251
I1
ttRp252
sVhttps://quotefancy.com/media/wallpaper/3840x2160/19260-Imam-Ali-Quote-Two-things-define-you-Your-patience-when-you-have.jpg
p253
g3
(g4
g5
(g6
(S'\x07\xe0\x07\x15\x0f\x0b\x18\r\xcf\xbf'
tRp254
S'224'
p255
I2
ttRp256
sVhttp://chrismarlow.me/wp-content/uploads/2013/10/httpwww.helponenow.orglegacyprojectday29patience.jpg
p257
g3
(g4
g5
(g6
(S'\x07\xe0\x01\x19\x10\x17\x1e\x05\xb1\xac'
tRp258
S'124'
p259
I1
ttRp260
sVhttp://www.jairekrobbins.com/wp-content/uploads/2015/08/Patience-1.jpg
p261
g3
(g4
g5
(g6
(S'\x07\xe0\x02\x1a\x11\x02\x0f\rbD'
tRp262
S'157'
p263
I1
ttRp264
sVhttps://media.ldscdn.org/images/media-library/by-topic/faith-hope-and-love/meme-patience-1474592-wallpaper.jpg?download=true
p265
g3
(g4
g5
(g6
(S'\x07\xe0\x07\x15\x0f\x0b\x18\r\xd0\x0c'
tRp266
S'324'
p267
I1
ttRp268
sVhttp://sausedo.net/wp-content/uploads/2012/02/patience.gif
p269
g3
(g4
g5
(g6
(S'\x07\xdf\x0b\x1c\x16\x05+\x02\xf3\xd2'
tRp270
S'26'
p271
I1
ttRp272
sVhttps://upload.wikimedia.org/wikipedia/commons/5/53/Pacientia_or_Patience.jpg
p273
g3
(g4
g5
(g6
(S"\x07\xe0\x08\x12\x15+'\n\x05g"
tRp274
S'113'
p275
I1
ttRp276
sVhttp://1.bp.blogspot.com/-ePZfHWHfV04/Ucoku1JuCsI/AAAAAAAAAtM/_RkeDK66uL4/s1600/Patience+is+a+Virtue.jpg
p277
g3
(g4
g5
(g6
(S'\x07\xe0\x07\x1f\x14#\x16\t}\x90'
tRp278
S'252'
p279
I1
ttRp280
sVhttp://www.hdwallpapers-3d.com/wp-content/uploads/2014/06/patience-quotes-hd-wallpaper-9-1024x640.jpg
p281
g3
(g4
g5
(g6
(S'\x07\xe0\x04\x01\x0b\x05\x16\x03\x92\xb1'
tRp282
I-1
I1
ttRp283
sVhttp://www.bstlhj6.com/data/out/145/4915144-patience-wallpapers.jpg
p284
g3
(g4
g5
(g6
(S"\x07\xe0\x08\x12\x15+'\n\x05\x85"
tRp285
I-1
I1
ttRp286
sVhttps://cdn.thewatershed.com/watershed/wp-content/uploads/2013/03/KEEP-CALM-AND-HAVE-PATIENCE-03-25-13.jpg
p287
g3
(g4
g5
(g6
(S"\x07\xe0\x08\x12\x15+'\n\x04\xf8"
tRp288
S'274'
p289
I1
ttRp290
sVhttp://quotes.lifehack.org/media/quotes/quote-Mahatma-Gandhi-if-patience-is-worth-anything-it-must-38915.png
p291
g3
(g4
g5
(g6
(S'\x07\xe0\x07\x1b\x14\x13\x17\x0b\x81|'
tRp292
S'101'
p293
I1
ttRp294
sVhttp://2.bp.blogspot.com/-EnQ31MHoYUI/T6WxAo363aI/AAAAAAAAAdA/RPFTtRXilPE/s1600/Patience-cartoon.png
p295
g3
(g4
g5
(g6
(S"\x07\xe0\x08\x12\x15+'\n\x05\x99"
tRp296
S'349'
p297
I1
ttRp298
sVhttp://stephaniemulac.com/blog/wp-content/uploads/2015/05/Patience.png
p299
g3
(g4
g5
(g6
(S'\x07\xe0\x08\x0c\x14.\x18\x00\x9a_'
tRp300
S'352'
p301
I1
ttRp302
sVhttp://bingeeatingtherapy.com/wp-content/uploads/2011/10/patience.jpg
p303
g3
(g4
g5
(g6
(S'\x07\xe0\x01\x0b\x10\x0f$\r\xb7v'
tRp304
S'152'
p305
I1
ttRp306
sVhttps://i.ytimg.com/vi/XywUr9zBOWU/maxresdefault.jpg
p307
g3
(g4
g5
(g6
(S"\x07\xe0\x08\x12\x15+'\n\x05\xa1"
tRp308
S'102'
p309
I1
ttRp310
sVhttps://quotefancy.com/media/wallpaper/3840x2160/10430-Leonardo-da-Vinci-Quote-Patience-serves-as-a-protection-against.jpg
p311
g3
(g4
g5
(g6
(S'\x07\xe0\x07\x19\x0f\x0e\x15\x07\xba\x90'
tRp312
S'165'
p313
I1
ttRp314
sVhttp://www.themindfulword.org/wp-content/uploads/2015/12/woman-running-perseverance-patience.jpg
p315
g3
(g4
g5
(g6
(S'\x07\xe0\x08\x02\x14(\x02\x00\x13&'
tRp316
S'309'
p317
I1
ttRp318
sVhttp://www.themonolith.com/wp-content/uploads/Skyharbor-Patience-video-still.jpg
p319
g3
(g4
g5
(g6
(S'\x07\xe0\x07\x1b\x14\x13\x17\x0b\x81\xbe'
tRp320
S'330'
p321
I1
ttRp322
sVhttp://www.twitip.com/wp-content/uploads/2008/12/patience.jpg
p323
g3
(g4
g5
(g6
(S'\x07\xdf\x0b\x1c\x16\x05+\x02\xf4\x00'
tRp324
S'8'
I1
ttRp325
sVhttp://www.fantagraphics.com/images/detailed/7/PATIENCE_FC_Colors-(1).png
p326
g3
(g4
g5
(g6
(S"\x07\xe0\x08\x12\x15+'\n\x04\xef"
tRp327
S'292'
p328
I1
ttRp329
sVhttp://quotestalk.net/wp-content/uploads/2013/01/Simplicity-patience-compassion.jpg
p330
g3
(g4
g5
(g6
(S'\x07\xe0\x07\x1b\x14\x13\x17\x0b\x80\xe6'
tRp331
S'340'
p332
I2
ttRp333
sVhttp://thumbs.media.smithsonianmag.com//filer/7b/03/7b03e9f0-6e3f-44db-b7b4-8e937c100427/patience-wright.jpg__800x600_q85_crop.jpg
p334
g3
(g4
g5
(g6
(S'\x07\xe0\x04\x01\x0b\x05\x16\x03\x92|'
tRp335
S'268'
p336
I1
ttRp337
sVhttps://therebelliousmillennial.files.wordpress.com/2014/10/78371-patience.jpg
p338
g3
(g4
g5
(g6
(S'\x07\xe0\x01\x0b\x10\x0f$\r\xb7\xec'
tRp339
S'153'
p340
I1
ttRp341
sVhttp://media.ldscdn.org/images/media-library/by-topic/faith-hope-and-love/meme-patience-1474592-wallpaper.jpg?download=true
p342
g3
(g4
g5
(g6
(S"\x07\xe0\x03\t\x13\x17'\x05GZ"
tRp343
S'223'
p344
I1
ttRp345
sVhttp://mumturnedmom.com/wp-content/uploads/2014/09/patience.jpg
p346
g3
(g4
g5
(g6
(S"\x07\xe0\x08\x12\x15+'\n\x05 "
tRp347
S'232'
p348
I1
ttRp349
sVhttp://www.thequotepedia.com/images/98/patience-has-its-limits-take-it-too-far-and-its-cowardice-patience-quote.png
p350
g3
(g4
g5
(g6
(S'\x07\xe0\x04\x01\x0b\x05\x16\x03\x92\xe1'
tRp351
S'258'
p352
I1
ttRp353
sVhttp://previews.123rf.com/images/kentoh/kentoh1201/kentoh120100001/11807644-Patience-is-a-Virtue-to-Success-and-Glory-Stock-Photo-patience-motivation-motivational.jpg
p354
g3
(g4
g5
(g6
(S'\x07\xe0\x08\x0e\x15*/\x03o\xf4'
tRp355
S'354'
p356
I1
ttRp357
sVhttp://cdn.shopify.com/s/files/1/0171/2222/files/practice_patience.jpg?1363
p358
g3
(g4
g5
(g6
(S'\x07\xe0\x01\x1f\x103\x11\x0eb\x0c'
tRp359
S'168'
p360
I1
ttRp361
sVhttp://www.aheadmarket.com/wp-content/uploads/2015/06/patience.jpg
p362
g3
(g4
g5
(g6
(S'\x07\xe0\x07\x1b\x14\x13\x17\x0b\x81#'
tRp363
S'55'
p364
I1
ttRp365
sVhttps://i.ytimg.com/vi/Y4aAQFM8FOg/maxresdefault.jpg
p366
g3
(g4
g5
(g6
(S'\x07\xe0\x07\x15\x0f\x0b\x18\r\xd0\x05'
tRp367
S'290'
p368
I1
ttRp369
sVhttps://thehubforstartups.files.wordpress.com/2014/09/patience1.jpg
p370
g3
(g4
g5
(g6
(S'\x07\xe0\x07\x1b\x14\x13\x17\x0b\x81D'
tRp371
S'205'
p372
I1
ttRp373
sVhttp://img.picturequotes.com/2/21/20741/patience-is-also-a-form-of-action-quote-1.jpg
p374
g3
(g4
g5
(g6
(S'\x07\xe0\x03\x05\x13\x0e4\x08Q\xe4'
tRp375
S'191'
p376
I1
ttRp377
sVhttp://rawpl.com/wp-content/uploads/2015/12/patience-quotes-for-best-collections-of-patience-quotes-2015-4.jpg
p378
g3
(g4
g5
(g6
(S'\x07\xdf\x0c\x14\x10\t"\rK\xe1'
tRp379
I-1
I1
ttRp380
sVhttp://weneedfun.com/wp-content/uploads/2016/07/Patience-Quotes-4.jpg
p381
g3
(g4
g5
(g6
(S'\x07\xe0\x08\x0c\x14.\x18\x00\x9a\xde'
tRp382
S'345'
p383
I1
ttRp384
sVhttp://cruciality.wordpress.com/files/2008/12/patience.jpg
p385
g3
(g4
g5
(g6
(S'\x07\xe0\x04\x07\r5;\x0en4'
tRp386
S'269'
p387
I1
ttRp388
sVhttp://emilysquotes.com/wp-content/uploads/2014/07/EmilysQuotes.Com-patience-happiness-inspirational-positive-wisdom-African-proverb-Swahili-proverb.jpg
p389
g3
(g4
g5
(g6
(S'\x07\xe0\x07\x1b\x14\x13\x17\x0b\x81\x81'
tRp390
S'333'
p391
I2
ttRp392
sVhttp://fcsl.edu/blogs/pp/files/2011/10/patience-photo-for-blog.gif
p393
g3
(g4
g5
(g6
(S'\x07\xe0\x01\x0b\x10\x0f$\r\xb7\xe2'
tRp394
S'72'
p395
I1
ttRp396
sVhttp://talkingtrading.com.au/wp-content/uploads/2015/10/Patience.jpg
p397
g3
(g4
g5
(g6
(S'\x07\xe0\x07\x19\x0f\x0e\x15\x07\xba\xe4'
tRp398
S'225'
p399
I3
ttRp400
sVhttps://cdn-media.threadless.com/submissions_wm/629524-fffed153b8fbea824670d0ccfff37a0c.jpg
p401
g3
(g4
g5
(g6
(S"\x07\xe0\x08\x12\x15+'\n\x05\x9d"
tRp402
S'98'
p403
I1
ttRp404
sVhttp://2.bp.blogspot.com/-R7qwyQH5nUc/T1o74DGdz3I/AAAAAAAAANk/0PCvnDMdn8U/s1600/Patience.jpg
p405
g3
(g4
g5
(g6
(S'\x07\xe0\x03\x12\n-:\x0e\xaa\xa9'
tRp406
S'169'
p407
I2
ttRp408
sVhttp://1.bp.blogspot.com/-X6US7wM8j_Y/VBaol4WRcuI/AAAAAAAABp8/6SLgSIsCmVE/s1600/patience.jpg
p409
g3
(g4
g5
(g6
(S'\x07\xe0\x04\x01\x0b\x05\x16\x03\x936'
tRp410
S'261'
p411
I1
ttRp412
sVhttp://prayers4america.org/wp-content/uploads/2012/04/patience.jpg
p413
g3
(g4
g5
(g6
(S'\x07\xe0\x07\x15\x0f\x0b\x18\r\xd0\xd5'
tRp414
I-1
I1
ttRp415
sVhttp://www.thequotepedia.com/images/98/ive-said-my-patience-is-not-infinite-patience-quote.png
p416
g3
(g4
g5
(g6
(S'\x07\xe0\x04\x07\r5;\x0em\xb6'
tRp417
S'197'
p418
I1
ttRp419
sVhttps://2.bp.blogspot.com/-LJ8vA0fKITQ/V1beNkpsS5I/AAAAAAAAAeY/_X_ScC9QO2gXa5R5t0iuzPynSmpZygA-gCLcB/s1600/Patience.png
p420
g3
(g4
g5
(g6
(S'\x07\xe0\x08\x02\x14(\x02\x00\x13+'
tRp421
S'307'
p422
I1
ttRp423
sVhttp://quotes.lifehack.org/media/quotes/quote-Darrell-Issa-ive-said-my-patience-is-not-infinite-19185.png
p424
g3
(g4
g5
(g6
(S'\x07\xe0\x07\x1b\x14\x13\x17\x0b\x81\n'
tRp425
S'342'
p426
I1
ttRp427
sVhttp://theaposition.com/robertfagan/wp-content/uploads/sites/33/2011/11/patience.jpg
p428
g3
(g4
g5
(g6
(S'\x07\xe0\x02\x1a\x11\x02\x0f\ra\x9e'
tRp429
I-1
I1
ttRp430
sVhttp://righthandstudios.com/wp-content/uploads/2015/09/Patience_Logo.png
p431
g3
(g4
g5
(g6
(S'\x07\xe0\x01\x13\x10\x13\x16\x06)\xbd'
tRp432
S'60'
p433
I1
ttRp434
sVhttp://www.quotehd.com/imagequotes/authors5/francois-de-la-rochefoucauld-writer-we-have-no-patience-with-other.jpg
p435
g3
(g4
g5
(g6
(S'\x07\xe0\x07\x1f\x14#\x16\t~\x04'
tRp436
S'190'
p437
I1
ttRp438
sVhttp://theworldlyrics.com/wp-content/uploads/2015/06/A-moment-of-patience.jpg
p439
g3
(g4
g5
(g6
(S'\x07\xe0\x07\x1f\x14#\x16\t}z'
tRp440
S'198'
p441
I1
ttRp442
sVhttp://cdn.christianquotes.info/wp-content/uploads/Warren-Wiersbe-Quote-Patience.jpg
p443
g3
(g4
g5
(g6
(S'\x07\xe0\x08\x0c\x14.\x18\x00\x9ai'
tRp444
S'208'
p445
I2
ttRp446
sVhttps://ifhappinesscanlastforever.files.wordpress.com/2014/03/1655898_10101308104135799_82878429_n.jpg
p447
g3
(g4
g5
(g6
(S'\x07\xe0\x07\x1b\x14\x13\x17\x0b\x80\xea'
tRp448
S'334'
p449
I1
ttRp450
sVhttp://www.hdwallpapers-3d.com/wp-content/uploads/2014/06/patience-quotes-hd-wallpaper-22.jpg
p451
g3
(g4
g5
(g6
(S'\x07\xe0\x03\x16\n2-\x04\x93\x01'
tRp452
I-1
I1
ttRp453
sVhttps://4.bp.blogspot.com/-IvSmVo5vl-c/Vw7XpAHNCRI/AAAAAAAAc_s/6SdoHWD5JrwRdUZEY5h85SM0EHPHb-QNACLcB/s1600/patience-quotes-2.jpg
p454
g3
(g4
g5
(g6
(S'\x07\xe0\x08\x0c\x14.\x18\x00\x9a\x8b'
tRp455
S'300'
p456
I1
ttRp457
sVhttps://camo.githubusercontent.com/e1c1aae4418331ebdd825f717c483a6be0772ed8/687474703a2f2f696d672d666f746b692e79616e6465782e72752f6765742f363230352f39383939313933372e382f305f37343839305f61653038353938395f6f726967
p458
g3
(g4
g5
(g6
(S'\x07\xe0\x07\x1b\x14\x13\x17\x0b\x81\x06'
tRp459
S'247'
p460
I1
ttRp461
sVhttp://quotesstack.com/wp-content/uploads/2013/11/patience-001.jpg
p462
g3
(g4
g5
(g6
(S'\x07\xe0\x04\x0f\x10\x0f\r\x07=\xad'
tRp463
S'100'
p464
I1
ttRp465
sVhttp://godsbreathpublications.com/images/fruitpatience.jpg
p466
g3
(g4
g5
(g6
(S'\x07\xe0\x03\x12\n-:\x0e\xa9\xfc'
tRp467
S'235'
p468
I4
ttRp469
sVhttp://static1.squarespace.com/static/55f1bce3e4b0c5134f7f019d/t/569bff62c647addf69b5b570/1453064035467/
p470
g3
(g4
g5
(g6
(S'\x07\xe0\x03\x05\x13\x0e4\x08Q\xc0'
tRp471
S'189'
p472
I1
ttRp473
sVhttp://www.myquotesclub.com/wp-content/uploads/2015/08/I-ve-said-my-patience-is-not-infinite.png
p474
g3
(g4
g5
(g6
(S'\x07\xdf\x0c\x08\x10,\x07\x02\xdb\xfa'
tRp475
S'105'
p476
I1
ttRp477
sVhttp://www.carpejuvenis.com/wp-content/uploads/2013/09/Patience-Quote-10-02-13.jpg
p478
g3
(g4
g5
(g6
(S'\x07\xe0\x03\x16\n2-\x04\x930'
tRp479
S'188'
p480
I2
ttRp481
sVhttps://thewetcanoeist.files.wordpress.com/2013/03/me_113_patience.png
p482
g3
(g4
g5
(g6
(S'\x07\xe0\x07\x05\x0f\x02\x16\x08\xdb\xbe'
tRp483
S'308'
p484
I1
ttRp485
sVhttps://cuteoverload.files.wordpress.com/patience-1278-_tphq.jpg
p486
g3
(g4
g5
(g6
(S'\x07\xe0\x04\x07\r5;\x0el\xb9'
tRp487
S'250'
p488
I1
ttRp489
sVhttps://quotefancy.com/media/wallpaper/3840x2160/2285-Bill-Gates-Quote-Patience-is-a-key-element-of-success.jpg
p490
g3
(g4
g5
(g6
(S'\x07\xe0\x07\x15\x0f\x0b\x18\r\xd03'
tRp491
S'322'
p492
I1
ttRp493
sVhttp://notagrouch.com/wp-content/uploads/patience-870x416.jpg
p494
g3
(g4
g5
(g6
(S'\x07\xe0\x03\x05\x13\x0e4\x08Q\xd9'
tRp495
S'19'
p496
I1
ttRp497
sVhttp://quotesideas.com/wp-content/uploads/2015/02/love-quotes-about-patience-607.jpg
p498
g3
(g4
g5
(g6
(S'\x07\xe0\x08\x02\x14(\x02\x00\x12\x89'
tRp499
I-1
I1
ttRp500
sVhttps://sallyabbas.files.wordpress.com/2012/10/tumblr_mb57s3ftim1qihodeo1_500.jpg
p501
g3
(g4
g5
(g6
(S'\x07\xe0\x01\x13\x10\x13\x16\x06)z'
tRp502
S'9'
I1
ttRp503
sVhttp://3.bp.blogspot.com/-zp_dSW-_lSw/UPyZlD9W8II/AAAAAAAAAJM/Ml64yG2yWXc/s1600/patience-rome.jpg
p504
g3
(g4
g5
(g6
(S"\x07\xe0\x08\x12\x15+'\n\x05z"
tRp505
S'348'
p506
I1
ttRp507
sVhttp://jp1.r0tt.com/l_40a4a3c0-5b12-11e1-8b17-474b0ff00001.jpg
p508
g3
(g4
g5
(g6
(S'\x07\xe0\x08\x02\x14(\x02\x00\x12\xbe'
tRp509
S'294'
p510
I1
ttRp511
sVhttp://image.shutterstock.com/z/stock-vector-hand-drawn-quote-all-we-need-is-little-patience-black-letters-on-pale-gray-textured-background-383792038.jpg
p512
g3
(g4
g5
(g6
(S"\x07\xe0\x08\x12\x15+'\n\x05@"
tRp513
S'346'
p514
I1
ttRp515
sVhttp://refe99.com/wp-content/uploads/2014/09/Patience-in-Leadership.jpg
p516
g3
(g4
g5
(g6
(S'\x07\xe0\x07\x15\x0f\x0b\x18\r\xd0\x96'
tRp517
S'281'
p518
I1
ttRp519
sVhttp://rawpl.com/wp-content/uploads/2015/12/patience-quotes-for-best-collections-of-patience-quotes-2015-31.jpg
p520
g3
(g4
g5
(g6
(S'\x07\xdf\x0c\x14\x10\t"\rK\xb0'
tRp521
S'130'
p522
I1
ttRp523
sVhttp://1.bp.blogspot.com/-2U-8nqHiSc4/UmKe0PjuomI/AAAAAAAAACU/vhBtH7fn1Ag/s1600/Time-Photo1.jpg
p524
g3
(g4
g5
(g6
(S'\x07\xdf\x0c\x14\x10\t"\rL('
tRp525
S'43'
p526
I1
ttRp527
sVhttp://az616578.vo.msecnd.net/files/2016/07/24/636049738916981001-829885414_patience1-1.jpg
p528
g3
(g4
g5
(g6
(S'\x07\xe0\x08\x02\x14(\x02\x00\x12\xae'
tRp529
S'343'
p530
I1
ttRp531
sVhttps://shahqah.files.wordpress.com/2012/03/patience3e.jpg
p532
g3
(g4
g5
(g6
(S'\x07\xe0\x04\x0f\x10\x0f\r\x07<\xde'
tRp533
S'277'
p534
I1
ttRp535
sVhttp://graphicsheat.com/wp-content/uploads/2015/05/EmilysQuotes.Com-patience-problems-relationship-wisdom-Sudanese-proverb-African-proverb.jpg
p536
g3
(g4
g5
(g6
(S"\x07\xe0\x03\t\x13\x17'\x05F\x9d"
tRp537
I-1
I1
ttRp538
sVhttp://islamichub.net/islamich/uploads/2014/11/97816060885241.jpg
p539
g3
(g4
g5
(g6
(S'\x07\xe0\x07\x05\x0f\x02\x16\x08\xdb~'
tRp540
S'22'
p541
I1
ttRp542
sVhttps://otterlover58.files.wordpress.com/2015/10/gods_patience.png
p543
g3
(g4
g5
(g6
(S'\x07\xe0\x04\x01\x0b\x05\x16\x03\x92\x8d'
tRp544
S'276'
p545
I1
ttRp546
sVhttp://backstagevancouver.com/wp-content/uploads/2009/08/The-Patience-Product-Change-of-Heart-Change-of-Tune.jpg
p547
g3
(g4
g5
(g6
(S'\x07\xe0\x01\x13\x10\x13\x16\x06)e'
tRp548
S'142'
p549
I1
ttRp550
sVhttps://i.ytimg.com/vi/GG-MXScOPQ8/maxresdefault.jpg
p551
g3
(g4
g5
(g6
(S'\x07\xe0\x03\x16\n2-\x04\x93\x05'
tRp552
S'185'
p553
I2
ttRp554
sVhttp://simplereminders.com/uploads/images/blog/unknown-author-boarder-moment-patience-anger-regret-6m5x.jpg
p555
g3
(g4
g5
(g6
(S'\x07\xe0\x08\x02\x14(\x02\x00\x12"'
tRp556
I-1
I1
ttRp557
sVhttp://static1.squarespace.com/static/5576063fe4b0429299982f35/t/5603e229e4b07f7d56f508a7/1443095081634/
p558
g3
(g4
g5
(g6
(S'\x07\xdf\x0b\x1c\x16\x05+\x02\xf3{'
tRp559
S'41'
p560
I1
ttRp561
sVhttp://www.drjudithorloff.com/images/patience.jpg
p562
g3
(g4
g5
(g6
(S'\x07\xdf\x0b\x1c\x16\x05+\x02\xf3\xac'
tRp563
S'6'
I1
ttRp564
sVhttps://i.ytimg.com/vi/ByN-vjbDQNk/maxresdefault.jpg
p565
g3
(g4
g5
(g6
(S'\x07\xe0\x03\x12\n-:\x0e\xaah'
tRp566
I-1
I1
ttRp567
sVhttp://quotesideas.com/wp-content/uploads/2015/02/Cute-patience-quote-new-2015.jpg
p568
g3
(g4
g5
(g6
(S'\x07\xe0\x08\x0c\x14.\x18\x00\x9b"'
tRp569
I-1
I1
ttRp570
sVhttp://www.quotehd.com/imagequotes/authors9/w-b-prescott-quote-in-any-contest-between-power-and-patience-bet-on-pa.jpg
p571
g3
(g4
g5
(g6
(S'\x07\xe0\x07\x1b\x14\x13\x17\x0b\x81\xb0'
tRp572
S'266'
p573
I1
ttRp574
sVhttps://s-media-cache-ak0.pinimg.com/736x/45/17/a8/4517a88429ed237ff737b884a0d22a24.jpg
p575
g3
(g4
g5
(g6
(S'\x07\xe0\x04\x0f\x10\x0f\r\x07>\xbd'
tRp576
S'52'
p577
I1
ttRp578
sVhttp://design.bigbangfish.com/wp-content/uploads/quotes/patience/patience-quotes-1-pictures-1024x1024.jpg
p579
g3
(g4
g5
(g6
(S'\x07\xe0\x03\x12\n-:\x0e\xaa{'
tRp580
S'233'
p581
I2
ttRp582
sVhttp://orig00.deviantart.net/fd73/f/2010/026/9/8/patience_by_jonnysnakeseven.jpg
p583
g3
(g4
g5
(g6
(S"\x07\xe0\x08\x12\x15+'\n\x05v"
tRp584
S'94'
p585
I1
ttRp586
sVhttps://media.licdn.com/mpr/mpr/AAEAAQAAAAAAAAK7AAAAJDNlYjg4MjJjLWUyZWQtNDNlZC1hNGI1LWJiMDUwMTM5NGIxZQ.jpg
p587
g3
(g4
g5
(g6
(S'\x07\xe0\x08\x0c\x14.\x18\x00\x9a\xfc'
tRp588
S'282'
p589
I1
ttRp590
sVhttp://islamichub.net/islamich/uploads/2014/11/seek-patience-main_full.jpg
p591
g3
(g4
g5
(g6
(S'\x07\xdf\x0b\t\x13\x11\x02\nWP'
tRp592
S'7'
I1
ttRp593
sVhttp://e.fastcompany.net/multisite_files/fastcompany/poster/2014/05/3030000-poster-p-1-3030000-first-isnt-always-best-when-patience-pays-off.jpg
p594
g3
(g4
g5
(g6
(S'\x07\xe0\x01\x1f\x103\x11\x0eb\xbb'
tRp595
S'1'
I1
ttRp596
sVhttp://www.fitacrosscultures.com/wp-content/uploads/2014/04/ME_113_Patience.png
p597
g3
(g4
g5
(g6
(S"\x07\xe0\x08\x12\x15+'\n\x05\xa9"
tRp598
S'296'
p599
I1
ttRp600
sVhttp://images.huffingtonpost.com/2015-05-28-1432800915-5766422-patiencequotes7.jpg
p601
g3
(g4
g5
(g6
(S'\x07\xdf\x0b\x19\x16\x02\x15\x08\xde\xbb'
tRp602
S'77'
p603
I1
ttRp604
sVhttp://www.glavoquotes.online/wp-content/uploads/2014/03/patience-quotes-6.jpg
p605
g3
(g4
g5
(g6
(S'\x07\xe0\x01\x19\x10\x17\x1e\x05\xb2o'
tRp606
I-1
I1
ttRp607
sVhttp://wallbasehq.net/images/big/patience_and_love-265235.jpg
p608
g3
(g4
g5
(g6
(S'\x07\xdf\x0c\x0c\x11\x1f\x1f\x04\x02k'
tRp609
I-1
I1
ttRp610
sVhttp://www.mylifeatail.com/wp-content/uploads/2013/05/Patience-Roger-Smith-CEO-American-Income-Life.jpg
p611
g3
(g4
g5
(g6
(S'\x07\xe0\x07\x05\x0f\x02\x16\x08\xdc4'
tRp612
S'230'
p613
I1
ttRp614
sVhttp://thumb101.shutterstock.com/display_pic_with_logo/149584/288063977/stock-photo-simplicity-patience-and-compassion-three-words-from-buddha-teaching-on-a-vintage-slate-blackboard-288063977.jpg
p615
g3
(g4
g5
(g6
(S'\x07\xe0\x07\r\x0f\x062\x0cz\xf1'
tRp616
S'207'
p617
I1
ttRp618
sVhttp://img15.deviantart.net/48d0/i/2013/248/a/e/patience_is_beautiful_by_jazzmary-d6l4gzs.jpg
p619
g3
(g4
g5
(g6
(S'\x07\xe0\x04\x07\r5;\x0el\xda'
tRp620
S'97'
p621
I1
ttRp622
sVhttp://assets2.bigthink.com/system/idea_thumbnails/53323/primary/Art-Text-Patience.jpg?1416351159
p623
g3
(g4
g5
(g6
(S'\x07\xe0\x07\r\x0f\x062\x0cz-'
tRp624
S'126'
p625
I1
ttRp626
sVhttp://www.oursaviorshartland.org/hp_wordpress/wp-content/uploads/2014/07/yoda-on-patience.jpg
p627
g3
(g4
g5
(g6
(S'\x07\xdf\x0b\x1c\x16\x05+\x02\xf3f'
tRp628
S'80'
p629
I1
ttRp630
sVhttp://www.picschamp.com/wp-content/uploads/2015/05/patience-quotes-8.jpg
p631
g3
(g4
g5
(g6
(S'\x07\xe0\x01\x1d\x10&:\x00I\xa9'
tRp632
S'170'
p633
I1
ttRp634
sVhttp://www.atdnal.org/Resources/Pictures/patience-fishing.jpg
p635
g3
(g4
g5
(g6
(S'\x07\xe0\x08\x0c\x14.\x18\x00\x9a\xaa'
tRp636
S'46'
p637
I1
ttRp638
sVhttp://api.ning.com/files/ysdCY8Oh2FHgI*aRoIZY6e3pKzQ0kqVPxdYJKtqJlsS9ja9zskHmxkYKo4c5WnA1lF9Rku9bakWsMjBbBuyePmCm5JfnnNZZ/patience2.jpg
p639
g3
(g4
g5
(g6
(S"\x07\xe0\x03\t\x13\x17'\x05F\xa4"
tRp640
S'217'
p641
I1
ttRp642
sVhttp://www.didcotchurch.org.uk/wp-content/uploads/2016/05/picture-blog-patience.png
p643
g3
(g4
g5
(g6
(S'\x07\xe0\x05\x1b\x13\x18\x0b\t\x19\xa7'
tRp644
I-1
I1
ttRp645
sVhttp://quotesideas.com/wp-content/uploads/2015/02/Funny-cartoon-with-patience-quote.png
p646
g3
(g4
g5
(g6
(S"\x07\xe0\x08\x12\x15+'\n\x05<"
tRp647
I-1
I1
ttRp648
sVhttp://www.thebridgemaker.com/wp-content/uploads/2010/06/Patience.jpg
p649
g3
(g4
g5
(g6
(S'\x07\xe0\x02\x1a\x11\x02\x0f\rb4'
tRp650
S'66'
p651
I1
ttRp652
sVhttp://3.bp.blogspot.com/-tnv7VaV0Qg8/VayZ3hzNonI/AAAAAAAABCE/5yRmjx2rUOE/s1600/lord%2Bpatience.png
p653
g3
(g4
g5
(g6
(S'\x07\xdf\x0b\t\x13\x11\x02\nW\xc1'
tRp654
S'39'
p655
I1
ttRp656
sVhttp://refe99.com/wp-content/uploads/2014/09/EmilysQuotes.Com-patience-problems-relationship-wisdom-Sudanese-proverb-African-proverb.jpg
p657
g3
(g4
g5
(g6
(S'\x07\xe0\x07\x15\x0f\x0b\x18\r\xd0\xe6'
tRp658
S'24'
p659
I1
ttRp660
sVhttp://www.mynameisnotmatt.com/wp-content/uploads/2014/04/a-moment-of-patience.jpg
p661
g3
(g4
g5
(g6
(S'\x07\xdf\x0c\x1e\x10\x0e\x19\x0e\x89\xf7'
tRp662
S'128'
p663
I1
ttRp664
sVhttp://fc07.deviantart.net/fs70/i/2011/334/f/5/patience__love_finds_a_way__by_goldendagger-d4hqegh.jpg
p665
g3
(g4
g5
(g6
(S'\x07\xdf\x0b\x1c\x16\x05+\x02\xf3\xb5'
tRp666
S'33'
p667
I1
ttRp668
sVhttp://40.media.tumblr.com/d19c493fa982da2e7638fdcf13c0fb45/tumblr_mme30hYiKC1sqn0lao1_500.jpg
p669
g3
(g4
g5
(g6
(S'\x07\xdf\x0b\x1c\x16\x05+\x02\xf3s'
tRp670
S'79'
p671
I1
ttRp672
sVhttp://thumb1.shutterstock.com/display_pic_with_logo/2971459/384607804/stock-vector-the-best-things-in-life-come-with-patience-inspirational-quote-modern-calligraphic-style-hand-384607804.jpg
p673
g3
(g4
g5
(g6
(S'\x07\xe0\x07\r\x0f\x062\x0cz\xae'
tRp674
S'298'
p675
I1
ttRp676
sVhttp://www.myquotesclub.com/wp-content/uploads/2015/08/Wait-for-what-you-deseve.jpg
p677
g3
(g4
g5
(g6
(S'\x07\xe0\x01\x0b\x10\x0f$\r\xb7\xc5'
tRp678
S'69'
p679
I1
ttRp680
sVhttps://s-media-cache-ak0.pinimg.com/564x/a7/12/ca/a712ca9973609f97a6e93bd92e51697e.jpg
p681
g3
(g4
g5
(g6
(S'\x07\xe0\x02\x1a\x11\x02\x0f\rb\xc0'
tRp682
S'161'
p683
I1
ttRp684
sVhttp://www.thequotepedia.com/images/98/dear-god-i-pray-for-patience-please-send-to-me-the-spirit-of-your-peace-please-give-me-a-strength-to-live-my-life-patience-quote.jpg
p685
g3
(g4
g5
(g6
(S'\x07\xe0\x08\x02\x14(\x02\x00\x12D'
tRp686
S'332'
p687
I1
ttRp688
sVhttp://www.thenewstrans.com/wp-content/uploads/2013/10/Patience-m.jpg
p689
g3
(g4
g5
(g6
(S'\x07\xe0\x05\x1b\x13\x18\x0b\t\x1a\x0f'
tRp690
S'283'
p691
I1
ttRp692
sVhttp://childhood101.com/wp-content/uploads/2016/04/a-lesson-in-patience.jpg
p693
g3
(g4
g5
(g6
(S'\x07\xe0\x07\x1b\x14\x13\x17\x0b\x81\xc8'
tRp694
I-1
I1
ttRp695
sVhttp://geniusquotes.org/wp-content/uploads/2014/03/Patience-Roger-Smith-CEO-American-Income-Life.jpg
p696
g3
(g4
g5
(g6
(S"\x07\xe0\x08\x12\x15+'\n\x05,"
tRp697
I-1
I1
ttRp698
sVhttp://simplereminders.com/uploads/images/blog/mother-teresa-patience-rush-less-3s8h.jpg
p699
g3
(g4
g5
(g6
(S'\x07\xe0\x03\r\x15$!\x05\xd84'
tRp700
I-1
I1
ttRp701
sVhttp://thebigrocks.com/wp-content/uploads/2013/03/032213-theBigRocks-Patience-as-Action.png
p702
g3
(g4
g5
(g6
(S'\x07\xe0\x01\x0b\x10\x0f$\r\xb7\x11'
tRp703
S'34'
p704
I1
ttRp705
sVhttps://media.licdn.com/mpr/mpr/p/5/005/06a/3e5/2a7676a.jpg
p706
g3
(g4
g5
(g6
(S'\x07\xdf\x0b\t\x13\x11\x02\nW\x81'
tRp707
S'18'
p708
I1
ttRp709
sVhttp://images.fineartamerica.com/images-medium-large-5/patience-inspirational-quote-stocktrek-images.jpg
p710
g3
(g4
g5
(g6
(S'\x07\xe0\x07\x1b\x14\x13\x17\x0b\x80\xe0'
tRp711
S'339'
p712
I1
ttRp713
sVhttps://beatingcowdens.files.wordpress.com/2013/01/patience-god-give-me.png
p714
g3
(g4
g5
(g6
(S"\x07\xe0\x08\x12\x15+'\n\x05\x05"
tRp715
S'31'
p716
I1
ttRp717
sVhttp://androidwalls.net/wp-content/uploads/2015/04/Patience%20Is%20A%20Virtue%20Android%20Wallpaper.jpg
p718
g3
(g4
g5
(g6
(S'\x07\xe0\x07\x15\x0f\x0b\x18\r\xcfz'
tRp719
S'216'
p720
I1
ttRp721
sVhttp://img01.deviantart.net/f392/i/2006/305/b/6/no_more_patience_by_habibityn.jpg
p722
g3
(g4
g5
(g6
(S'\x07\xe0\x04\x01\x0b\x05\x16\x03\x92\x85'
tRp723
S'259'
p724
I1
ttRp725
sVhttp://www.myfitfamily.com/wp-content/uploads/2015/08/awesome-pictures-of-patience-quotes.png
p726
g3
(g4
g5
(g6
(S'\x07\xe0\x07\x19\x0f\x0e\x15\x07\xba\xd8'
tRp727
S'89'
p728
I1
ttRp729
sVhttp://mountbethelministries.com/wp-content/uploads/Patience-is-a-Virtue.jpg
p730
g3
(g4
g5
(g6
(S'\x07\xe0\x08\x0c\x14.\x18\x00\x9az'
tRp731
I-1
I1
ttRp732
sVhttp://2.bp.blogspot.com/-OGv87JGKCrw/UK43gmuITlI/AAAAAAAAAGs/H2qvq307Uc4/s1600/Patience.png
p733
g3
(g4
g5
(g6
(S"\x07\xe0\x08\x12\x15+'\n\x05r"
tRp734
I-1
I2
ttRp735
sVhttps://quotefancy.com/media/wallpaper/3840x2160/18020-Ray-Davis-Quote-Patience-is-not-passive-waiting-Patience-is-active.jpg
p736
g3
(g4
g5
(g6
(S'\x07\xe0\x07\x15\x0f\x0b\x18\r\xcf\x9b'
tRp737
S'329'
p738
I1
ttRp739
sVhttp://www.musicalbridgesmt.com/wp-content/uploads/2012/01/patience-is-a-virtue1.png
p740
g3
(g4
g5
(g6
(S'\x07\xe0\x07\x15\x0f\x0b\x18\r\xcf\xa9'
tRp741
I-1
I1
ttRp742
sVhttp://usetyourhouseinorder.com/syho/wp-content/uploads/2015/09/With-patience-you-go-beyond__quotes-by-Catalan-Proverb-71.png
p743
g3
(g4
g5
(g6
(S'\x07\xe0\x03\r\x15$!\x05\xd88'
tRp744
S'226'
p745
I1
ttRp746
sVhttps://f1.bcbits.com/img/a0049061363_10.jpg
p747
g3
(g4
g5
(g6
(S'\x07\xe0\x04\x01\x0b\x05\x16\x03\x92\xc1'
tRp748
S'262'
p749
I1
ttRp750
sVhttps://s-media-cache-ak0.pinimg.com/736x/23/c7/13/23c71309264ba7c8583a31a5f252ec3b.jpg
p751
g3
(g4
g5
(g6
(S'\x07\xe0\x04\x0f\x10\x0f\r\x07>2'
tRp752
S'254'
p753
I2
ttRp754
sVhttp://www.mlayne.com/wp-content/uploads/2013/06/patience.jpg
p755
g3
(g4
g5
(g6
(S'\x07\xdf\x0c\x0c\x11\x1f\x1f\x04\x01\xf6'
tRp756
S'92'
p757
I1
ttRp758
sVhttps://i.ytimg.com/vi/AGbHLiOf0Tc/maxresdefault.jpg
p759
g3
(g4
g5
(g6
(S'\x07\xe0\x07\x19\x0f\x0e\x15\x07\xba\x9f'
tRp760
S'284'
p761
I1
ttRp762
sVhttp://www.bahai.org/chrome/img/action/childrens-classes-presentation/lesson-patience-5.png?0fd0165e
p763
g3
(g4
g5
(g6
(S'\x07\xe0\x07\x15\x0f\x0b\x18\r\xcf\xfe'
tRp764
S'287'
p765
I1
ttRp766
sVhttp://media.salemwebnetwork.com/cms/CW/13762-cm-Gods-patience-absence-perfect-presence-constant-always-with-you-social.png
p767
g3
(g4
g5
(g6
(S"\x07\xe0\x08\x12\x15+'\n\x05c"
tRp768
S'236'
p769
I1
ttRp770
sVhttp://consciousmanifestor.com/wp-content/uploads/2016/04/god-give-me-some-patience.jpg.png
p771
g3
(g4
g5
(g6
(S'\x07\xe0\x07\r\x0f\x062\x0cz\xb3'
tRp772
S'305'
p773
I1
ttRp774
sVhttp://previews.123rf.com/images/winnond/winnond1408/winnond140800010/31032967-the-word-patience-in-the-hole-of-brown-paper-Stock-Photo.jpg
p775
g3
(g4
g5
(g6
(S"\x07\xe0\x08\x12\x15+'\n\x05\x81"
tRp776
S'173'
p777
I1
ttRp778
sVhttp://www.bible-basics-layers-of-understanding.com/images/PaticencePeople.jpg
p779
g3
(g4
g5
(g6
(S'\x07\xdf\x0b\x19\x16\x02\x15\x08\xded'
tRp780
S'82'
p781
I1
ttRp782
sVhttps://illinoiscollegerambler.files.wordpress.com/2016/05/patience.jpg
p783
g3
(g4
g5
(g6
(S'\x07\xe0\x07\x13\x0f\x088\x0be\x0f'
tRp784
S'315'
p785
I1
ttRp786
sVhttp://c.fastcompany.net/multisite_files/fastcompany/imagecache/1280/poster/2014/05/3030000-poster-p-1-3030000-first-isnt-always-best-when-patience-pays-off.jpg
p787
g3
(g4
g5
(g6
(S"\x07\xe0\x08\x12\x15+'\n\x05\x95"
tRp788
S'99'
p789
I1
ttRp790
sVhttps://drdivaphd.files.wordpress.com/2012/02/patience2.jpg
p791
g3
(g4
g5
(g6
(S'\x07\xe0\x03\r\x15$!\x05\xd7\xa8'
tRp792
S'219'
p793
I1
ttRp794
sVhttp://heyjamie.com/wp-content/uploads/2014/09/patience.jpg
p795
g3
(g4
g5
(g6
(S'\x07\xdf\x0b\x19\x16\x02\x15\x08\xde\x97'
tRp796
S'16'
p797
I1
ttRp798
sVhttp://assets3.bigthink.com/system/idea_thumbnails/53323/primary/Art-Text-Patience.jpg?1416351159
p799
g3
(g4
g5
(g6
(S'\x07\xe0\x08\x02\x14(\x02\x00\x129'
tRp800
S'54'
p801
I1
ttRp802
sVhttp://www.myquotesclub.com/wp-content/uploads/2015/08/A-moment-of-patience-in-a-moment-of-anger-saves-you-a-hundred-moments-of-regret.jpg
p803
g3
(g4
g5
(g6
(S'\x07\xe0\x01\x13\x10\x13\x16\x06).'
tRp804
I-1
I1
ttRp805
sVhttp://rawpl.com/wp-content/uploads/2015/12/patience-quotes-for-best-collections-of-patience-quotes-2015-44.jpg
p806
g3
(g4
g5
(g6
(S'\x07\xdf\x0c\x08\x10,\x07\x02\xdc\xf6'
tRp807
I-1
I2
ttRp808
sVhttp://img.picturequotes.com/2/21/20010/a-man-who-masters-patience-masters-everything-else-quote-1.jpg
p809
g3
(g4
g5
(g6
(S'\x07\xe0\x08\x02\x14(\x02\x00\x11\x8f'
tRp810
S'78'
p811
I1
ttRp812
sVhttp://aboutislam.net/wp-content/uploads/2016/01/patience11.jpg?fdb38a
p813
g3
(g4
g5
(g6
(S'\x07\xe0\x08\x0c\x14.\x18\x00\x9a\x1a'
tRp814
S'293'
p815
I1
ttRp816
sVhttp://www.fitmomintraining.com/wp-content/uploads/2011/01/IMG_4512.jpg
p817
g3
(g4
g5
(g6
(S'\x07\xe0\x08\x02\x14(\x02\x00\x11\xcd'
tRp818
S'114'
p819
I1
ttRp820
sVhttp://thefreshexchangeblog.com/assets/Patience_01.jpg
p821
g3
(g4
g5
(g6
(S'\x07\xe0\x04\x0f\x10\x0f\r\x07<\xbf'
tRp822
S'53'
p823
I1
ttRp824
sVhttp://quotes.lifehack.org/media/quotes/quote-Daisaku-Ikeda-with-love-and-patience-nothing-is-impossible-18531.png
p825
g3
(g4
g5
(g6
(S'\x07\xe0\x04\x01\x0b\x05\x16\x03\x92('
tRp826
I-1
I1
ttRp827
sVhttp://www.idlehearts.com/wp-content/uploads/2012/07/Patience-with-others-is-love.jpg
p828
g3
(g4
g5
(g6
(S'\x07\xe0\x02\x1a\x11\x02\x0f\ra\xd0'
tRp829
I-1
I1
ttRp830
sVhttp://bryantmcgill.com/uploads/images/blog/unknown-author-boarder-moment-patience-anger-regret-6m5x.jpg
p831
g3
(g4
g5
(g6
(S'\x07\xe0\x05\x1b\x13\x18\x0b\t\x19='
tRp832
I-1
I1
ttRp833
sVhttp://farm8.staticflickr.com/7163/6477009555_b919e54cef.jpg
p834
g3
(g4
g5
(g6
(S'\x07\xe0\x01\x0b\x10\x0f$\r\xb7g'
tRp835
S'27'
p836
I1
ttRp837
sVhttp://quotespaper.com/wp-content/uploads/2014/01/patience-quotes-2.jpg
p838
g3
(g4
g5
(g6
(S'\x07\xdf\x0b\x1c\x16\x05+\x02\xf3-'
tRp839
S'57'
p840
I1
ttRp841
sVhttp://www.carolecgood.com/patience__love_finds_a_way__by_goldendagger-d4hqegh.jpg
p842
g3
(g4
g5
(g6
(S'\x07\xe0\x04\x07\r5;\x0el\xa8'
tRp843
S'74'
p844
I1
ttRp845
sVhttp://refe99.com/wp-content/uploads/2014/09/From-Perseverance-to-Patience.jpg
p846
g3
(g4
g5
(g6
(S'\x07\xdf\x0c\x1e\x10\x0e\x19\x0e\x89\xd5'
tRp847
S'141'
p848
I1
ttRp849
sVhttps://s-media-cache-ak0.pinimg.com/736x/fd/6d/f4/fd6df42a2925336cf0d8f2bbcae1aca5.jpg
p850
g3
(g4
g5
(g6
(S'\x07\xe0\x04\x01\x0b\x05\x16\x03\x92\x81'
tRp851
S'264'
p852
I1
ttRp853
sVhttp://www.my3c.tv/system/files/imagecache/product_full/power_in_patience.jpg
p854
g3
(g4
g5
(g6
(S'\x07\xe0\x08\x0c\x14.\x18\x00\x9a\xa6'
tRp855
S'166'
p856
I1
ttRp857
sVhttp://www.everydaykiss.com/wp-content/uploads/2013/06/3-Patience.jpg
p858
g3
(g4
g5
(g6
(S'\x07\xe0\x07\x1f\x14#\x16\t}\xc8'
tRp859
I-1
I1
ttRp860
sVhttps://i.ytimg.com/vi/fIoDRnoalrg/maxresdefault.jpg
p861
g3
(g4
g5
(g6
(S'\x07\xe0\x08\x02\x14(\x02\x00\x12`'
tRp862
S'104'
p863
I1
ttRp864
sVhttp://static3.depositphotos.com/1007959/232/i/950/depositphotos_2329759-Patience-Road-Sign.jpg
p865
g3
(g4
g5
(g6
(S'\x07\xe0\x04\x07\r5;\x0em\x1e'
tRp866
I-1
I1
ttRp867
sVhttps://upload.wikimedia.org/wikipedia/commons/9/9f/Patience_Island_in_Rhode_Island.JPG
p868
g3
(g4
g5
(g6
(S'\x07\xe0\x07\x15\x0f\x0b\x18\r\xcf\xe8'
tRp869
S'220'
p870
I1
ttRp871
sVhttp://founderdating.com/wp-content/uploads/2015/07/patience.jpg
p872
g3
(g4
g5
(g6
(S'\x07\xe0\x07\x05\x0f\x02\x16\x08\xdb\xd5'
tRp873
S'83'
p874
I1
ttRp875
sVhttp://previews.123rf.com/images/nenadelameer/nenadelameer1312/nenadelameer131200105/24701263-Patience-on-white-background--Stock-Photo.jpg
p876
g3
(g4
g5
(g6
(S"\x07\xe0\x08\x12\x15+'\n\x05\x00"
tRp877
S'180'
p878
I1
ttRp879
sVhttp://1.bp.blogspot.com/-4lOrYS4qqPs/Uk3c3o41fnI/AAAAAAAAPbg/I1rOiYv0zmg/s1600/Islamic+Quotes+About+Patience+(6).jpg
p880
g3
(g4
g5
(g6
(S"\x07\xe0\x08\x12\x15+'\n\x05W"
tRp881
S'368'
p882
I1
ttRp883
sVhttp://www.myawesomequotes.com/wp-content/uploads/2015/01/St-Augustine-Patience-is.jpg
p884
g3
(g4
g5
(g6
(S'\x07\xe0\x07\x1b\x14\x13\x17\x0b\x81R'
tRp885
S'251'
p886
I2
ttRp887
sVhttp://cristinatrapaniscott.com/wp-content/uploads/2015/07/Best-Patience.jpg
p888
g3
(g4
g5
(g6
(S'\x07\xe0\x07\x19\x0f\x0e\x15\x07\xba\xbc'
tRp889
S'299'
p890
I2
ttRp891
sVhttps://1888.org/images/2013/10/14/13454/patience-trust-faith.png
p892
g3
(g4
g5
(g6
(S'\x07\xe0\x02\x1a\x11\x02\x0f\rb\xb0'
tRp893
S'137'
p894
I1
ttRp895
sVhttp://www.quotehd.com/imagequotes/TopAuthors/leo-tolstoy-novelist-quote-the-two-most-powerful-warriors-are-patience-and.jpg
p896
g3
(g4
g5
(g6
(S'\x07\xe0\x07\x1b\x14\x13\x17\x0b\x81s'
tRp897
S'107'
p898
I2
ttRp899
sVhttp://cdn.notonthehighstreet.com/system/product_images/images/001/474/113/original_patience-champ-badge-medal-pin.jpg
p900
g3
(g4
g5
(g6
(S"\x07\xe0\x08\x12\x15+'\n\x05_"
tRp901
S'353'
p902
I1
ttRp903
sVhttp://faithsmessenger.com/wp-content/uploads/2013/01/patience.jpg
p904
g3
(g4
g5
(g6
(S'\x07\xe0\x05\x1b\x13\x18\x0b\t\x1aR'
tRp905
S'49'
p906
I1
ttRp907
sVhttp://www.quoteslike.com/images/174/key-to-everything-is-patience-arnold-h-glasow-the-best-quotes-kQJSWv-quote.jpg
p908
g3
(g4
g5
(g6
(S'\x07\xe0\x07\x15\x0f\x0b\x18\r\xd0\xcd'
tRp909
I-1
I1
ttRp910
sVhttp://quotesideas.com/wp-content/uploads/2015/02/Patience-is-waiting-instagram-quote.jpg
p911
g3
(g4
g5
(g6
(S'\x07\xe0\x07\r\x0f\x062\x0c{\x11'
tRp912
I-1
I1
ttRp913
sVhttp://www.testimoniesofhope.com/wp-content/uploads/2013/06/patience.jpg
p914
g3
(g4
g5
(g6
(S'\x07\xdf\x0b\t\x13\x11\x02\nW\xd9'
tRp915
S'58'
p916
I1
ttRp917
sVhttp://pintast.com/wp-content/uploads/2014/04/patience-wallpaper-wall-quotes-1397373406gn84k.jpg
p918
g3
(g4
g5
(g6
(S'\x07\xe0\x07\x1b\x14\x13\x17\x0b\x80\xb0'
tRp919
I-1
I1
ttRp920
sVhttp://ihyaauddeen.co.za/wp-content/uploads/2015/03/Patience.jpg
p921
g3
(g4
g5
(g6
(S'\x07\xe0\x04\x07\r5;\x0el\x9c'
tRp922
S'202'
p923
I1
ttRp924
sVhttp://hqwallbase.pw/images/big/patience_and_love-265235.jpg
p925
g3
(g4
g5
(g6
(S'\x07\xe0\x03\x16\n2-\x04\x92\xcd'
tRp926
I-1
I1
ttRp927
sVhttp://media-cache-ec0.pinimg.com/736x/23/c7/13/23c71309264ba7c8583a31a5f252ec3b.jpg
p928
g3
(g4
g5
(g6
(S'\x07\xe0\x07\x1b\x14\x13\x17\x0b\x80\xc1'
tRp929
I-1
I1
ttRp930
sVhttp://www.havefunteaching.com/wp-content/uploads/2013/07/patience-song.png
p931
g3
(g4
g5
(g6
(S'\x07\xe0\x03\x05\x13\x0e4\x08R\x12'
tRp932
I-1
I1
ttRp933
sVhttp://vignette1.wikia.nocookie.net/powerlisting/images/9/9c/Patience-is-not-the-ability-to-wait.jpg/revision/latest?cb=20140814121743
p934
g3
(g4
g5
(g6
(S"\x07\xe0\x08\x12\x15+'\n\x05\x0c"
tRp935
S'11'
p936
I1
ttRp937
sVhttp://rawpl.com/wp-content/uploads/2015/12/patience-quotes-for-best-collections-of-patience-quotes-2015-34.jpg
p938
g3
(g4
g5
(g6
(S'\x07\xdf\x0c\x12\x10\x081\nh\x8f'
tRp939
S'132'
p940
I1
ttRp941
sVhttp://quotes.greet2k.com/image-code/patience-3.jpg
p942
g3
(g4
g5
(g6
(S'\x07\xe0\x01\x13\x10\x13\x16\x06)7'
tRp943
S'133'
p944
I1
ttRp945
sVhttp://135hs578axp246pwi1ooz8fq.wpengine.netdna-cdn.com/wp-content/uploads/2014/08/Patience1-800x683.jpg
p946
g3
(g4
g5
(g6
(S'\x07\xe0\x03\x1e\x0b\x04\r\t\x94]'
tRp947
I-1
I1
ttRp948
sVhttp://istanabagus.com/wp-content/uploads/2014/10/patience-quotes.jpg
p949
g3
(g4
g5
(g6
(S'\x07\xe0\x03\r\x15$!\x05\xd7\xe2'
tRp950
S'215'
p951
I2
ttRp952
sVhttps://blogityheth.files.wordpress.com/2014/11/patience.jpg?w=480
p953
g3
(g4
g5
(g6
(S'\x07\xdf\x0b\t\x13\x11\x02\nW\xac'
tRp954
S'36'
p955
I1
ttRp956
sVhttp://love.catchsmile.com/wp-content/uploads/2013/10/Sometimes-You-Need-Patience.jpg
p957
g3
(g4
g5
(g6
(S'\x07\xe0\x01\x0b\x10\x0f$\r\xb7\x8a'
tRp958
S'158'
p959
I1
ttRp960
sVhttp://www.thequotepedia.com/images/98/have-patience-allah-does-not-deny-the-reward-of-the-righteous-patience-quote.jpg
p961
g3
(g4
g5
(g6
(S'\x07\xe0\x03\x16\n2-\x04\x938'
tRp962
S'238'
p963
I1
ttRp964
sVhttp://lesbeauxproverbes.com/wp-content/uploads/0491.jpg
p965
g3
(g4
g5
(g6
(S'\x07\xe0\x01\x0b\x10\x0f$\r\xb7z'
tRp966
S'145'
p967
I1
ttRp968
sVhttp://99quote.com/wp-content/uploads/2016/07/Patience-In-Love-Relationships-Quotes-4.jpg
p969
g3
(g4
g5
(g6
(S'\x07\xe0\x07\x1f\x14#\x16\t~\x0e'
tRp970
S'366'
p971
I1
ttRp972
sVhttp://www.hippoquotes.com/img/patience-quotes/patience-quotes-2.jpg
p973
g3
(g4
g5
(g6
(S'\x07\xe0\x03\x1e\x0b\x04\r\t\x93,'
tRp974
I-1
I1
ttRp975
sVhttp://1.bp.blogspot.com/-Y3zNIgGYYHM/UKU80bNO07I/AAAAAAAACFw/bNnCtIwMUMw/s1600/patience.JPG
p976
g3
(g4
g5
(g6
(S'\x07\xe0\x05\x1b\x13\x18\x0b\t\x19\xec'
tRp977
S'91'
p978
I1
ttRp979
sVhttp://www.thequotablecoach.com/wp-content/uploads/2015/11/QC-905.jpg
p980
g3
(g4
g5
(g6
(S'\x07\xe0\x01\x0b\x10\x0f$\r\xb7\xbe'
tRp981
S'85'
p982
I1
ttRp983
sVhttp://i.quoteaddicts.com/media/quotes/1/19229-patience-quotes-about-life.jpg
p984
g3
(g4
g5
(g6
(S'\x07\xe0\x07\x19\x0f\x0e\x15\x07\xba\xb4'
tRp985
S'321'
p986
I1
ttRp987
sVhttps://quotefancy.com/media/wallpaper/3840x2160/18887-Geoffrey-Chaucer-Quote-Patience-is-a-conquering-virtue.jpg
p988
g3
(g4
g5
(g6
(S'\x07\xe0\x08\x02\x14(\x02\x00\x12\x98'
tRp989
S'227'
p990
I2
ttRp991
sVhttps://quotefancy.com/media/wallpaper/3840x2160/17134-Mother-Teresa-Quote-Without-patience-we-will-learn-less-in-life-We.jpg
p992
g3
(g4
g5
(g6
(S'\x07\xe0\x07\x15\x0f\x0b\x18\r\xd0,'
tRp993
S'318'
p994
I1
ttRp995
sVhttp://quotesideas.com/wp-content/uploads/2015/02/tumblr_lnzas1wi0p1qhmhdfo1_500.gif
p996
g3
(g4
g5
(g6
(S'\x07\xdf\x0b\t\x13\x11\x02\nW\xbc'
tRp997
I-1
I1
ttRp998
sVhttp://www.picschamp.com/wp-content/uploads/2015/05/Patience-Quotes.jpg
p999
g3
(g4
g5
(g6
(S'\x07\xe0\x01\x0b\x10\x0f$\r\xb7~'
tRp1000
S'159'
p1001
I1
ttRp1002
sVhttps://s-media-cache-ak0.pinimg.com/736x/91/94/3d/91943dc1087fd92685d95a7331f88f25.jpg
p1003
g3
(g4
g5
(g6
(S'\x07\xe0\x04\x07\r5;\x0em\xf9'
tRp1004
S'193'
p1005
I1
ttRp1006
sVhttp://quotesideas.com/wp-content/uploads/2015/02/Patience-quote-new-2015.jpg
p1007
g3
(g4
g5
(g6
(S"\x07\xe0\x08\x12\x15+'\n\x05\x91"
tRp1008
I-1
I1
ttRp1009
sVhttp://liftupyourday.com/wp-content/uploads/2016/01/97816060885241.jpg
p1010
g3
(g4
g5
(g6
(S'\x07\xe0\x05\x1b\x13\x18\x0b\t\x1a+'
tRp1011
S'164'
p1012
I1
ttRp1013
sVhttp://quotesideas.com/wp-content/uploads/2015/02/Wallpaper-Patience-quote-HD-new.jpg
p1014
g3
(g4
g5
(g6
(S'\x07\xe0\x08\x02\x14(\x02\x00\x12\xec'
tRp1015
I-1
I1
ttRp1016
sVhttp://www.crystalandrusmorissette.com/wp-content/uploads/2014/01/legit-patience.jpg
p1017
g3
(g4
g5
(g6
(S'\x07\xe0\x08\x0c\x14.\x18\x00\x9b\x1a'
tRp1018
I-1
I1
ttRp1019
sVhttp://media-cache-ec0.pinimg.com/736x/45/17/a8/4517a88429ed237ff737b884a0d22a24.jpg
p1020
g3
(g4
g5
(g6
(S'\x07\xe0\x07\x1b\x14\x13\x17\x0b\x81\xab'
tRp1021
S'10'
p1022
I1
ttRp1023
sVhttp://www.lifetasteswell.com/wp-content/uploads/2012/07/patience.jpg
p1024
g3
(g4
g5
(g6
(S'\x07\xdf\x0b\x1c\x16\x05+\x02\xf4\x1e'
tRp1025
S'29'
p1026
I1
ttRp1027
sVhttp://www.myquotesclub.com/wp-content/uploads/2015/08/Patience-and-time-do-more-than-strength-or-passion.png
p1028
g3
(g4
g5
(g6
(S'\x07\xe0\x07\x15\x0f\x0b\x18\r\xd0\xfd'
tRp1029
I-1
I1
ttRp1030
sVhttp://www.carolecgood.com/A-moment-of-patience-1.png
p1031
g3
(g4
g5
(g6
(S'\x07\xe0\x01\x13\x10\x13\x16\x06(\xe3'
tRp1032
S'32'
p1033
I1
ttRp1034
sVhttps://i.ytimg.com/vi/ErvgV4P6Fzc/maxresdefault.jpg
p1035
g3
(g4
g5
(g6
(S'\x07\xe0\x07\x13\x0f\x088\x0bd\xf9'
tRp1036
S'187'
p1037
I1
ttRp1038
sVhttp://www.joaoleitao.com/tattoo-name/wp-content/uploads/tattoo-design-name-patience-01.png
p1039
g3
(g4
g5
(g6
(S'\x07\xe0\x07\x1f\x14#\x16\t}h'
tRp1040
S'192'
p1041
I2
ttRp1042
sVhttp://www.dawahskills.com/wp-content/uploads/2012/08/Patience1.jpg
p1043
g3
(g4
g5
(g6
(S"\x07\xe0\x08\x12\x15+'\n\x04\xf3"
tRp1044
S'362'
p1045
I1
ttRp1046
sVhttp://img.picturequotes.com/2/49/48235/even-the-nicest-persons-patience-has-a-limit-quote-1.jpg
p1047
g3
(g4
g5
(g6
(S'\x07\xe0\x07\x1b\x14\x13\x17\x0b\x80\xd1'
tRp1048
S'174'
p1049
I1
ttRp1050
sVhttps://f1.bcbits.com/img/a2511485496_10.jpg
p1051
g3
(g4
g5
(g6
(S'\x07\xe0\x03\x16\n2-\x04\x92\xf4'
tRp1052
S'231'
p1053
I1
ttRp1054
sVhttp://personalexcellence.co/quotes/files/inspirational-quote-patience-wisdom.jpg
p1055
g3
(g4
g5
(g6
(S'\x07\xe0\x04\x07\r5;\x0el\xd6'
tRp1056
S'112'
p1057
I1
ttRp1058
sVhttp://static1.squarespace.com/static/553d7f4ce4b0fd1d73f6f8eb/t/5629b418e4b0d8b406b5e710/1445573657344/
p1059
g3
(g4
g5
(g6
(S'\x07\xe0\x08\x0c\x14.\x18\x00\x9b\x0e'
tRp1060
S'62'
p1061
I1
ttRp1062
sVhttp://www.ithaquecoaching.com/wp-content/uploads/2011/02/patience-endurance.jpg
p1063
g3
(g4
g5
(g6
(S'\x07\xe0\x03\x12\n-:\x0e\xaa+'
tRp1064
S'234'
p1065
I1
ttRp1066
sVhttp://www.ignant.de/wp-content/uploads/2014/07/Josef_Hoflehner_Patience_01.jpg
p1067
g3
(g4
g5
(g6
(S'\x07\xe0\x08\x02\x14(\x02\x00\x12k'
tRp1068
S'176'
p1069
I2
ttRp1070
sVhttp://www.hdwallpapers-3d.com/wp-content/uploads/2014/06/patience-quotes-hd-wallpaper-4.jpg
p1071
g3
(g4
g5
(g6
(S'\x07\xe0\x03\x16\n2-\x04\x93<'
tRp1072
S'119'
p1073
I1
ttRp1074
sVhttps://quotefancy.com/media/wallpaper/3840x2160/2288-Bill-Gates-Quote-Patience-is-a-key-element-of-success.jpg
p1075
g3
(g4
g5
(g6
(S'\x07\xe0\x05\x1b\x13\x18\x0b\t\x19\xc8'
tRp1076
S'273'
p1077
I2
ttRp1078
sVhttp://media-cache-ec0.pinimg.com/736x/e3/a0/56/e3a056114e9c45c14a48a357b678a80c.jpg
p1079
g3
(g4
g5
(g6
(S'\x07\xe0\x04\x01\x0b\x05\x16\x03\x92\xdd'
tRp1080
S'265'
p1081
I1
ttRp1082
sVhttps://media.licdn.com/mpr/mpr/p/5/005/07c/12b/20937e6.jpg
p1083
g3
(g4
g5
(g6
(S'\x07\xdf\x0b\x1c\x16\x05+\x02\xf3\xbd'
tRp1084
S'63'
p1085
I1
ttRp1086
sVhttps://brandonagape.files.wordpress.com/2015/06/lake-bench.jpg
p1087
g3
(g4
g5
(g6
(S'\x07\xe0\x01\x13\x10\x13\x16\x06)\x82'
tRp1088
S'134'
p1089
I1
ttRp1090
sVhttp://thumb101.shutterstock.com/display_pic_with_logo/663421/130766213/stock-photo-patience-cloud-ward-130766213.jpg
p1091
g3
(g4
g5
(g6
(S'\x07\xe0\x07\r\x0f\x062\x0cz\xa9'
tRp1092
S'201'
p1093
I1
ttRp1094
sVhttp://quotescloud.com/wp-content/uploads/2015/11/Your-Patience-When-You-Have-Nothing-and.jpg
p1095
g3
(g4
g5
(g6
(S"\x07\xe0\x08\x12\x15+'\n\x05j"
tRp1096
S'228'
p1097
I3
ttRp1098
sVhttp://www.twomiracles.net/wp-content/uploads/2015/01/Patience.jpg
p1099
g3
(g4
g5
(g6
(S"\x07\xe0\x08\x12\x15+'\n\x05n"
tRp1100
I-1
I1
ttRp1101
sVhttp://www.crystalguidance.com/crystaltip/images/Patience.jpg
p1102
g3
(g4
g5
(g6
(S'\x07\xe0\x07\x1b\x14\x13\x17\x0b\x81['
tRp1103
S'106'
p1104
I1
ttRp1105
sVhttp://rawpl.com/wp-content/uploads/2015/12/patience-quotes-for-best-collections-of-patience-quotes-2015-48.png
p1106
g3
(g4
g5
(g6
(S'\x07\xdf\x0c\x14\x10\t"\rK\xf3'
tRp1107
I-1
I1
ttRp1108
sVhttps://s3.amazonaws.com/rapgenius/yoda-patience1.jpg
p1109
g3
(g4
g5
(g6
(S'\x07\xdf\x0b\x13\x14\n\x01\x0e\xe3\x94'
tRp1110
S'47'
p1111
I1
ttRp1112
sVhttp://inspiremore.com/wp-content/uploads/2014/10/Have-patience.-All-things-are__quotes-by-Saadi-86.png
p1113
g3
(g4
g5
(g6
(S'\x07\xdf\x0b\x1c\x16\x05+\x02\xf3\xef'
tRp1114
I-1
I1
ttRp1115
sVhttps://quotefancy.com/media/wallpaper/3840x2160/2286-Bill-Gates-Quote-Patience-is-a-key-element-of-success.jpg
p1116
g3
(g4
g5
(g6
(S'\x07\xe0\x08\x02\x14(\x02\x00\x12\xfc'
tRp1117
S'213'
p1118
I2
ttRp1119
sVhttp://alameleadership.files.wordpress.com/2013/06/al-inspiring-quote-on-patience.png
p1120
g3
(g4
g5
(g6
(S'\x07\xe0\x01\x19\x10\x17\x1e\x05\xb2]'
tRp1121
S'127'
p1122
I2
ttRp1123
sVhttp://everydayservant.com/wp-content/uploads/2015/09/Top-7-Bible-Verses-1.jpg
p1124
g3
(g4
g5
(g6
(S'\x07\xe0\x08\x02\x14(\x02\x00\x11\xec'
tRp1125
S'328'
p1126
I1
ttRp1127
sVhttps://crazycatfitter.files.wordpress.com/2013/03/gnr-patience.jpg
p1128
g3
(g4
g5
(g6
(S"\x07\xe0\x08\x12\x15+'\n\x05\xbb"
tRp1129
S'364'
p1130
I2
ttRp1131
sVhttp://inspirationboost.com/wp-content/uploads/2014/07/Augustine-of-Hippo-Patience-Quotes.png
p1132
g3
(g4
g5
(g6
(S'\x07\xe0\x08\x02\x14(\x02\x00\x12f'
tRp1133
I-1
I1
ttRp1134
sVhttps://quotescover.com/wp-content/uploads/%C2%A0With-patience-you-go-beyond__quotes-by-Catalan-Proverb-71.png
p1135
g3
(g4
g5
(g6
(S'\x07\xe0\x07\x15\x0f\x0b\x18\r\xcfH'
tRp1136
S'323'
p1137
I1
ttRp1138
sVhttp://irisdeanda.com/wp-content/uploads/2014/02/patience.jpg
p1139
g3
(g4
g5
(g6
(S'\x07\xdf\x0b\x1c\x16\x05+\x02\xf32'
tRp1140
S'42'
p1141
I2
ttRp1142
sVhttp://65.media.tumblr.com/tumblr_mb89ap03Nv1qdxa23o1_1280.jpg
p1143
g3
(g4
g5
(g6
(S"\x07\xe0\x08\x12\x15+'\n\x05O"
tRp1144
S'351'
p1145
I1
ttRp1146
sVhttps://s3.amazonaws.com/livelds/img/patience-eternal-perspective-1200x628.jpeg
p1147
g3
(g4
g5
(g6
(S'\x07\xe0\x07\x1b\x14\x13\x17\x0b\x80\xbc'
tRp1148
S'338'
p1149
I1
ttRp1150
sVhttp://www.redletterchristians.org/wp-content/uploads/Waiting-in-Patience.jpg
p1151
g3
(g4
g5
(g6
(S'\x07\xe0\x01\x19\x10\x17\x1e\x05\xb1>'
tRp1152
S'68'
p1153
I1
ttRp1154
sVhttp://myadventuresinadulthood.files.wordpress.com/2013/02/god-grant-me-patience.png
p1155
g3
(g4
g5
(g6
(S'\x07\xdf\x0b\x16\x15-\x0c\t\xa4\x89'
tRp1156
S'75'
p1157
I2
ttRp1158
sVhttp://www.heartmath.com/wp-content/uploads/2016/03/have-patience-hs-blog.jpg
p1159
g3
(g4
g5
(g6
(S'\x07\xe0\x08\x02\x14(\x02\x00\x13\x0e'
tRp1160
I-1
I1
ttRp1161
sVhttp://www.netpicks.com/wp-content/uploads/2015/02/Trading-Patience-Time1.jpg
p1162
g3
(g4
g5
(g6
(S'\x07\xe0\x08\x02\x14(\x02\x00\x11\xf8'
tRp1163
I-1
I1
ttRp1164
sVhttp://cdn.bigbangfish.com/quotes/patience-quotes-wallpaper/patience-quotes-wallpaper-9.jpg
p1165
g3
(g4
g5
(g6
(S'\x07\xe0\x03\x12\n-:\x0e\xaa\x0f'
tRp1166
S'240'
p1167
I1
ttRp1168
sVhttp://emilysquotes.com/wp-content/uploads/2014/03/EmilysQuotes.Com-patience-heaven-African-Proverb-inspirational-amazing-great-motivational.jpg
p1169
g3
(g4
g5
(g6
(S'\x07\xe0\x03\x16\n2-\x04\x93T'
tRp1170
S'181'
p1171
I1
ttRp1172
sVhttp://www.relatably.com/q/img/patience-persistence-perspiration-quotes/napoleon-hill-writer-patience-persistence-and-perspiration-make-an.jpg
p1173
g3
(g4
g5
(g6
(S'\x07\xe0\x07\x1b\x14\x13\x17\x0b\x80\xc6'
tRp1174
I-1
I1
ttRp1175
sVhttp://quotesideas.com/wp-content/uploads/2015/02/Life-patience-quote-new.jpg
p1176
g3
(g4
g5
(g6
(S'\x07\xe0\x07\x15\x0f\x0b\x18\r\xcf\xa2'
tRp1177
I-1
I1
ttRp1178
sVhttp://s3.amazonaws.com/content.sitezoogle.com/u/55585/3fde3cdbbc711bc7bad32523b1898706f4de8580/original/patience.jpg?1462896381
p1179
g3
(g4
g5
(g6
(S'\x07\xe0\x08\x0c\x14.\x18\x00\x9a\xc3'
tRp1180
S'286'
p1181
I1
ttRp1182
sVhttps://catholic2themax.files.wordpress.com/2015/04/patience_words1.jpg
p1183
g3
(g4
g5
(g6
(S"\x07\xe0\x03\t\x13\x17'\x05Gi"
tRp1184
S'37'
p1185
I2
ttRp1186
sVhttp://3.bp.blogspot.com/-M7axxIx7yiY/UQnWW72JvAI/AAAAAAAAA6M/-0LbFIn9MNo/s1600/patience.png
p1187
g3
(g4
g5
(g6
(S"\x07\xe0\x08\x12\x15+'\n\x05}"
tRp1188
S'295'
p1189
I1
ttRp1190
sVhttps://quotefancy.com/media/wallpaper/3840x2160/2764-Benjamin-Franklin-Quote-He-that-can-have-patience-can-have-what-he.jpg
p1191
g3
(g4
g5
(g6
(S'\x07\xe0\x07\x15\x0f\x0b\x18\r\xd0\xdd'
tRp1192
S'319'
p1193
I1
ttRp1194
sVhttp://griles.files.wordpress.com/2013/09/patience.jpg
p1195
g3
(g4
g5
(g6
(S'\x07\xe0\x03\x05\x13\x0e4\x08R\n'
tRp1196
S'45'
p1197
I1
ttRp1198
sVhttp://buildabusinessonabudget.com/wp-content/uploads/2014/11/Patience.jpg
p1199
g3
(g4
g5
(g6
(S'\x07\xe0\x03\x1e\x0b\x04\r\t\x91\xf9'
tRp1200
S'109'
p1201
I1
ttRp1202
sVhttp://www.barbdahlgren.com/wp-content/uploads/Patience-Bestavros-Quote.jpg
p1203
g3
(g4
g5
(g6
(S'\x07\xe0\x03\x05\x13\x0e4\x08R"'
tRp1204
S'200'
p1205
I1
ttRp1206
sVhttps://pbs.twimg.com/profile_images/441205553570656256/Lyz-vbMp.jpeg
p1207
g3
(g4
g5
(g6
(S"\x07\xe0\x08\x12\x15+'\n\x05\xb4"
tRp1208
S'365'
p1209
I1
ttRp1210
sVhttp://i.imgur.com/pqxi5aZ.jpg
p1211
g3
(g4
g5
(g6
(S'\x07\xe0\x07\x15\x0f\x0b\x18\r\xd0\x7f'
tRp1212
S'317'
p1213
I1
ttRp1214
sVhttp://www.myawesomequotes.com/wp-content/uploads/2015/01/Fulton-J-Sheen-Patience-is-power-Patience-is-not-an-absence-of-action-rather-it-is-timing-it-waits-on-the-right-time-to-act-for-the-right-princeples-and-in-the-right-way.jpg
p1215
g3
(g4
g5
(g6
(S'\x07\xe0\x08\x02\x14(\x02\x00\x12['
tRp1216
S'203'
p1217
I1
ttRp1218
sVhttp://www.hdwallpapers-3d.com/wp-content/uploads/2014/06/patience-quotes-hd-wallpaper-2.jpg
p1219
g3
(g4
g5
(g6
(S'\x07\xe0\x03\x12\n-:\x0e\xaa\xba'
tRp1220
S'179'
p1221
I1
ttRp1222
sVhttp://wishafriend-quotes.s3.amazonaws.com/patience/8186-patience.jpg
p1223
g3
(g4
g5
(g6
(S'\x07\xe0\x01\x0b\x10\x0f$\r\xb7\x9e'
tRp1224
S'149'
p1225
I1
ttRp1226
sVhttp://www.hippoquotes.com/img/patience-quotes/4517a88429ed237ff737b884a0d22a24.jpg
p1227
g3
(g4
g5
(g6
(S'\x07\xe0\x03\x1e\x0b\x04\r\t\x94\x17'
tRp1228
I-1
I1
ttRp1229
sVhttp://www.quotescover.com/wp-content/uploads/Have-patience.-All-things-are__quotes-by-Saadi-86.png
p1230
g3
(g4
g5
(g6
(S'\x07\xe0\x05\x1b\x13\x18\x0b\t\x18E'
tRp1231
S'280'
p1232
I1
ttRp1233
sVhttps://www.addiction.com/wp-content/uploads/2015/09/social-patience.png
p1234
g3
(g4
g5
(g6
(S'\x07\xe0\x07\x19\x0f\x0e\x15\x07\xba\x12'
tRp1235
I-1
I1
ttRp1236
sVhttp://rawpl.com/wp-content/uploads/2015/12/patience-quotes-for-best-collections-of-patience-quotes-2015-13.jpg
p1237
g3
(g4
g5
(g6
(S'\x07\xdf\x0c\x08\x10,\x07\x02\xdb\xb3'
tRp1238
S'118'
p1239
I1
ttRp1240
sVhttp://www.thelifedivine.com/mc_images/product/detail/Patience-carved-stone.jpg
p1241
g3
(g4
g5
(g6
(S'\x07\xe0\x07\r\x0f\x062\x0cz#'
tRp1242
S'314'
p1243
I1
ttRp1244
sVhttp://iphonewalls.net/wp-content/uploads/2014/09/Patience%20Is%20A%20Virtue%20iPhone%206%20Plus%20HD%20Wallpaper.jpg
p1245
g3
(g4
g5
(g6
(S'\x07\xe0\x07\x15\x0f\x0b\x18\r\xcf_'
tRp1246
S'278'
p1247
I1
ttRp1248
sVhttp://www.omdukblog.com/wp-content/uploads/2016/03/Patience-700x336.jpg
p1249
g3
(g4
g5
(g6
(S'\x07\xe0\x08\x02\x14(\x02\x00\x123'
tRp1250
S'297'
p1251
I1
ttRp1252
sVhttps://s-media-cache-ak0.pinimg.com/736x/da/7d/ff/da7dffce0448f77cd64814287dc91205.jpg
p1253
g3
(g4
g5
(g6
(S'\x07\xe0\x04\x01\x0b\x05\x16\x03\x92\x89'
tRp1254
S'267'
p1255
I1
ttRp1256
sVhttp://rawpl.com/wp-content/uploads/2015/12/patience-quotes-for-best-collections-of-patience-quotes-2015-32.jpg
p1257
g3
(g4
g5
(g6
(S'\x07\xdf\x0c\x14\x10\t"\rK\xa3'
tRp1258
I-1
I1
ttRp1259
sVhttps://kristineserendipity.files.wordpress.com/2015/05/patience.png
p1260
g3
(g4
g5
(g6
(S'\x07\xdf\x0b\x1c\x16\x05+\x02\xf3w'
tRp1261
S'70'
p1262
I1
ttRp1263
sVhttp://antiochmissionkids.files.wordpress.com/2013/05/me_113_patience.png
p1264
g3
(g4
g5
(g6
(S'\x07\xdf\x0b\x1c\x16\x05+\x02\xf3\x8a'
tRp1265
S'84'
p1266
I1
ttRp1267
sVhttp://1.bp.blogspot.com/-VFtQZujd-i0/UPHLNL2SaHI/AAAAAAAAAqM/Zc5gDNx-2fw/s1600/patience.jpg
p1268
g3
(g4
g5
(g6
(S"\x07\xe0\x08\x12\x15+'\n\x04\xeb"
tRp1269
S'359'
p1270
I1
ttRp1271
sVhttp://www.perfectionpending.net/wp-content/uploads/2014/03/Patience-Quote.png
p1272
g3
(g4
g5
(g6
(S"\x07\xe0\x08\x12\x15+'\n\x05D"
tRp1273
S'110'
p1274
I1
ttRp1275
sVhttp://www.famous-quotes.us/wp-content/uploads/2015/11/patience-quotes-jpg2.jpg
p1276
g3
(g4
g5
(g6
(S'\x07\xe0\x07\x1f\x14#\x16\t}\xf7'
tRp1277
I-1
I1
ttRp1278
sVhttp://fijourney.com/wp-content/uploads/2013/11/patience.png
p1279
g3
(g4
g5
(g6
(S"\x07\xe0\x08\x12\x15+'\n\x05H"
tRp1280
S'48'
p1281
I1
ttRp1282
sVhttp://cdn.newsday.com/polopoly_fs/1.11916165.1465955043!/httpImage/image.jpeg_gen/derivatives/landscape_1280/image.jpeg
p1283
g3
(g4
g5
(g6
(S"\x07\xe0\x08\x12\x15+'\n\x05L"
tRp1284
S'355'
p1285
I1
ttRp1286
sVhttp://brotherword.org/wp-content/uploads/2013/10/AskBrotherword-Patience-Running-Thin.jpg
p1287
g3
(g4
g5
(g6
(S'\x07\xe0\x05\x1b\x13\x18\x0b\t\x19\xe6'
tRp1288
S'4'
I2
ttRp1289
sVhttp://assets1.bigthink.com/system/idea_thumbnails/53323/primary/Art-Text-Patience.jpg?1416351159
p1290
g3
(g4
g5
(g6
(S'\x07\xe0\x07\x05\x0f\x02\x16\x08\xdb\xe7'
tRp1291
S'156'
p1292
I1
ttRp1293
sVhttp://free4kwallpaper.com/wp-content/uploads/2016/01/Patience-and-Faith-Motivational-Quote-4K-Wallpaper.jpg
p1294
g3
(g4
g5
(g6
(S'\x07\xe0\x07\x19\x0f\x0e\x15\x07\xba\xb8'
tRp1295
I-1
I1
ttRp1296
sVhttp://thumbnails-visually.netdna-ssl.com/patience-quotes_548de162edc7c_w1500.jpg
p1297
g3
(g4
g5
(g6
(S'\x07\xe0\x07\x15\x0f\x0b\x18\r\xd0Y'
tRp1298
S'320'
p1299
I1
ttRp1300
sVhttp://rawpl.com/wp-content/uploads/2015/12/patience-quotes-for-best-collections-of-patience-quotes-2015-24.jpg
p1301
g3
(g4
g5
(g6
(S'\x07\xdf\x0c\x12\x10\x081\nh\xae'
tRp1302
S'135'
p1303
I1
ttRp1304
sVhttp://graphicsheat.com/wp-content/uploads/2015/05/Have-patience.-All-things-are__quotes-by-Saadi-86.png
p1305
g3
(g4
g5
(g6
(S'\x07\xdf\x0c\x12\x10\x081\nh$'
tRp1306
I-1
I1
ttRp1307
sVhttp://spiritualcleansing.org/wp-content/uploads/2015/03/Two-things-define-you.-Your-patience-when-you-have-nothing-and-your-attitude-when-you-have-everything..jpg
p1308
g3
(g4
g5
(g6
(S'\x07\xe0\x07\x1b\x14\x13\x17\x0b\x81\xc3'
tRp1309
S'246'
p1310
I1
ttRp1311
sVhttps://brandonagape.files.wordpress.com/2015/06/lake-bench.jpg?w=529
p1312
g3
(g4
g5
(g6
(S'\x07\xdf\x0b\x1c\x16\x05+\x02\xf3\xdf'
tRp1313
S'73'
p1314
I1
ttRp1315
sVhttp://www.livefromlockdown.com/wp-content/uploads/2015/09/patience-ill-wait.png
p1316
g3
(g4
g5
(g6
(S'\x07\xe0\x08\x0c\x14.\x18\x00\x9b2'
tRp1317
I-1
I1
ttRp1318
sVhttp://quotes.lifehack.org/media/quotes/quote-Alan-Sugar-i-have-no-patience-at-all-153970.png
p1319
g3
(g4
g5
(g6
(S'\x07\xe0\x04\x07\r5;\x0enS'
tRp1320
S'199'
p1321
I1
ttRp1322
sVhttp://www.hdwallpapers-3d.com/wp-content/uploads/2014/06/patience-quotes-hd-wallpaper-9.jpg
p1323
g3
(g4
g5
(g6
(S'\x07\xe0\x04\x0b\x0f: \x0b\xfcQ'
tRp1324
S'88'
p1325
I1
ttRp1326
sVhttp://www.thequotepedia.com/images/98/it-is-scrange-that-the-years-teach-as-patiences-that-the-shorter-our-time-the-greater-our-capacity-for-waiting-patience-quote.jpg
p1327
g3
(g4
g5
(g6
(S"\x07\xe0\x08\x12\x15+'\n\x04\xc7"
tRp1328
S'312'
p1329
I2
ttRp1330
sVhttps://assets.entrepreneur.com/content/16x9/822/1409767643-sleepwalking-through-sales-how-vendors-ignoring-buyers-intelligence.jpg
p1331
g3
(g4
g5
(g6
(S'\x07\xe0\x08\x0c\x14.\x18\x00\x9aL'
tRp1332
S'344'
p1333
I1
ttRp1334
sVhttp://jodiestevenspark.files.wordpress.com/2014/01/pray_for_patience.jpg
p1335
g3
(g4
g5
(g6
(S'\x07\xe0\x04\x01\x0b\x05\x16\x03\x92\xd9'
tRp1336
S'260'
p1337
I1
ttRp1338
sVhttps://quotefancy.com/media/wallpaper/3840x2160/18012-Ray-Davis-Quote-Patience-is-not-passive-waiting-Patience-is-active.jpg
p1339
g3
(g4
g5
(g6
(S'\x07\xe0\x07\x15\x0f\x0b\x18\r\xcf6'
tRp1340
S'212'
p1341
I3
ttRp1342
sVhttp://www.themusicninja.com/wp-content/uploads/2015/08/patience-600x600.jpg
p1343
g3
(g4
g5
(g6
(S'\x07\xe0\x08\x02\x14(\x02\x00\x11\xe5'
tRp1344
S'90'
p1345
I1
ttRp1346
sVhttp://www.lovethispic.com/uploaded_images/44306-Give-Me-Patience.jpg
p1347
g3
(g4
g5
(g6
(S'\x07\xe0\x01\x13\x10\x13\x16\x06(\xff'
tRp1348
S'28'
p1349
I1
ttRp1350
sVhttps://lh5.googleusercontent.com/-hXtzK4NWVPI/VWNJgq1F5tI/AAAAAAAADyA/q6z2AMeMY2g/w800-h450-no/best-patience-quotes.jpg
p1351
g3
(g4
g5
(g6
(S'\x07\xe0\x08\x0c\x14.\x18\x00\x9av'
tRp1352
S'304'
p1353
I1
ttRp1354
sVhttp://refe99.com/wp-content/uploads/2014/09/All-men-commend-patience-although__quotes-by-Thomas-a-Kempis-43.png
p1355
g3
(g4
g5
(g6
(S'\x07\xe0\x05\x1b\x13\x18\x0b\t\x19b'
tRp1356
S'96'
p1357
I1
ttRp1358
sVhttp://1.bp.blogspot.com/-YtB9JXWJlts/Ur2bp57m7BI/AAAAAAAAHpA/5xodq4OgNNg/s1600/Patience.jpg
p1359
g3
(g4
g5
(g6
(S"\x07\xe0\x08\x12\x15+'\n\x05\x1c"
tRp1360
S'237'
p1361
I1
ttRp1362
sVhttp://study2office.com/wp-content/uploads/2014/12/Patience-and-time-do-more__quotes-by-Jean-De-la-Fontaine-62.png
p1363
g3
(g4
g5
(g6
(S'\x07\xe0\x05\x1b\x13\x18\x0b\t\x1aK'
tRp1364
S'140'
p1365
I1
ttRp1366
sVhttp://www.picschamp.com/wp-content/uploads/2015/05/patience-quotes-2.jpg
p1367
g3
(g4
g5
(g6
(S'\x07\xe0\x04\x0f\x10\x0f\r\x07=\xd9'
tRp1368
S'122'
p1369
I1
ttRp1370
sVhttp://fabquote.co/wp-content/uploads/Patience1.jpg
p1371
g3
(g4
g5
(g6
(S'\x07\xe0\x07\x1f\x14#\x16\t}\xde'
tRp1372
S'337'
p1373
I1
ttRp1374
sVhttp://a.abcnews.com/images/US/ap_nightclub_shooting_patience_carter_jc_160614_12x5_1600.jpg
p1375
g3
(g4
g5
(g6
(S"\x07\xe0\x08\x12\x15+'\n\x050"
tRp1376
S'356'
p1377
I1
ttRp1378
sVhttp://ninapaley.com/mimiandeunice/wp-content/uploads/2010/08/ME_113_Patience.png
p1379
g3
(g4
g5
(g6
(S'\x07\xe0\x04\x0f\x10\x0f\r\x07>s'
tRp1380
S'120'
p1381
I1
ttRp1382
sVhttps://quotefancy.com/media/wallpaper/3840x2160/8826-Leo-Tolstoy-Quote-The-two-most-powerful-warriors-are-patience-and.jpg
p1383
g3
(g4
g5
(g6
(S'\x07\xe0\x07\x15\x0f\x0b\x18\r\xcf\xce'
tRp1384
S'327'
p1385
I1
ttRp1386
sVhttp://murphydeesign.com/wp-content/uploads/2013/03/patience.jpg
p1387
g3
(g4
g5
(g6
(S'\x07\xdf\x0b\x16\x15-\x0c\t\xa4\xc5'
tRp1388
S'51'
p1389
I2
ttRp1390
sVhttps://quotefancy.com/media/wallpaper/3840x2160/18013-Ray-Davis-Quote-Patience-is-not-passive-waiting-Patience-is-active.jpg
p1391
g3
(g4
g5
(g6
(S'\x07\xe0\x08\x02\x14(\x02\x00\x12z'
tRp1392
S'211'
p1393
I3
ttRp1394
sVhttp://www.myquotesclub.com/wp-content/uploads/2015/08/With-patience-you-go-beyond-knowiedge.png
p1395
g3
(g4
g5
(g6
(S'\x07\xdf\x0c\x12\x10\x081\nht'
tRp1396
S'138'
p1397
I3
ttRp1398
sVhttp://www.relatably.com/q/img/patience-quotes/539a8b6bd2effa70c0b17c79778eb8f6.jpg
p1399
g3
(g4
g5
(g6
(S'\x07\xe0\x08\x02\x14(\x02\x00\x12\x93'
tRp1400
I-1
I1
ttRp1401
sVhttps://www.motivationalpicturequotes.com/wp-content/uploads/2094/patience-famous-quotes.jpg
p1402
g3
(g4
g5
(g6
(S'\x07\xe0\x05\x1b\x13\x18\x0b\t\x19\xdd'
tRp1403
S'272'
p1404
I2
ttRp1405
sVhttp://fergusonvalues.com/wp-content/uploads/2013/03/Patience-in-Leadership.jpg
p1406
g3
(g4
g5
(g6
(S'\x07\xe0\x03\r\x15$!\x05\xd8?'
tRp1407
S'35'
p1408
I1
ttRp1409
sVhttp://assets4.bigthink.com/system/idea_thumbnails/53323/primary/Art-Text-Patience.jpg?1416351159
p1410
g3
(g4
g5
(g6
(S'\x07\xdf\x0b\x08\x13\r"\x05+\x08'
tRp1411
S'13'
p1412
I1
ttRp1413
sVhttp://geniusquotes.org/wp-content/uploads/2014/03/20130920-patience.jpg
p1414
g3
(g4
g5
(g6
(S"\x07\xe0\x08\x12\x15+'\n\x05\x8a"
tRp1415
I-1
I1
ttRp1416
sVhttp://www.bible-basics-layers-of-understanding.com/images/patience-LOGO2.jpeg
p1417
g3
(g4
g5
(g6
(S"\x07\xe0\x08\x12\x15+'\n\x05\xbf"
tRp1418
S'186'
p1419
I1
ttRp1420
sVhttp://quotesideas.com/wp-content/uploads/2015/02/Waiting-patience-quote-wallpaper-hd.jpg
p1421
g3
(g4
g5
(g6
(S'\x07\xe0\x07\x19\x0f\x0e\x15\x07\xbad'
tRp1422
I-1
I1
ttRp1423
sVhttp://kidsstuffworld.com/wp-content/uploads/2016/01/patience-5.jpg
p1424
g3
(g4
g5
(g6
(S'\x07\xe0\x03\x05\x13\x0e4\x08Q\xa1'
tRp1425
I-1
I1
ttRp1426
sVhttp://familydeploymentips.files.wordpress.com/2013/07/patience.jpg
p1427
g3
(g4
g5
(g6
(S'\x07\xe0\x03\x16\n2-\x04\x93\x8c'
tRp1428
I-1
I1
ttRp1429
sVhttps://christianstt.com/wp-content/uploads/2015/05/Prayer-for-Patience.png
p1430
g3
(g4
g5
(g6
(S"\x07\xe0\x08\x12\x15+'\n\x05\xa5"
tRp1431
S'367'
p1432
I1
ttRp1433
sVhttp://cocktailswithmom.com/wp-content/uploads/2011/12/patience7.jpg
p1434
g3
(g4
g5
(g6
(S'\x07\xdf\x0b\x13\x14\n\x01\x0e\xe3\xc6'
tRp1435
S'30'
p1436
I1
ttRp1437
sVhttp://i.quoteaddicts.com/media/quotes/1/19217-quotes-about-having-patience.jpg
p1438
g3
(g4
g5
(g6
(S'\x07\xe0\x07\x15\x0f\x0b\x18\r\xd0\xee'
tRp1439
S'316'
p1440
I1
ttRp1441
sVhttps://s-media-cache-ak0.pinimg.com/736x/53/9a/8b/539a8b6bd2effa70c0b17c79778eb8f6.jpg
p1442
g3
(g4
g5
(g6
(S'\x07\xe0\x07\x1f\x14#\x16\t~x'
tRp1443
S'103'
p1444
I1
ttRp1445
sVhttp://www.quoteshunger.com/wp-content/uploads/2014/08/quote.jpg
p1446
g3
(g4
g5
(g6
(S'\x07\xe0\x01\x13\x10\x13\x16\x06(\xe9'
tRp1447
S'25'
p1448
I1
ttRp1449
sVhttps://ehappy.files.wordpress.com/2011/04/wabi-patience-is-a-virtue.jpg
p1450
g3
(g4
g5
(g6
(S'\x07\xe0\x01\x13\x10\x13\x16\x06(\xf4'
tRp1451
S'17'
p1452
I1
ttRp1453
sVhttp://graphicsheat.com/wp-content/uploads/2015/05/patience-quotes-2.jpg
p1454
g3
(g4
g5
(g6
(S'\x07\xe0\x07\x1b\x14\x13\x17\x0b\x81\x0e'
tRp1455
I-1
I1
ttRp1456
sVhttp://www.quotehd.com/imagequotes/authors35/steve-nickerson-quote-theyre-definitely-testing-my-patience.jpg
p1457
g3
(g4
g5
(g6
(S'\x07\xe0\x04\x07\r5;\x0em\x16'
tRp1458
S'243'
p1459
I1
ttRp1460
sVhttp://agbeat.com/wp-content/uploads/2013/11/patience.jpg
p1461
g3
(g4
g5
(g6
(S'\x07\xe0\x07\x01\x0f\x02.\n\x11\xc4'
tRp1462
S'136'
p1463
I1
ttRp1464
sVhttp://theindiansailor.com/wp-content/uploads/2015/08/Patience.png
p1465
g3
(g4
g5
(g6
(S'\x07\xdf\x0c\x1e\x10\x0e\x19\x0e\x89\x90'
tRp1466
S'44'
p1467
I1
ttRp1468
sVhttps://s-media-cache-ak0.pinimg.com/736x/62/10/67/6210674b7ce89577a6546490161a7789.jpg
p1469
g3
(g4
g5
(g6
(S'\x07\xe0\x04\x01\x0b\x05\x16\x03\x92x'
tRp1470
S'244'
p1471
I1
ttRp1472
sVhttp://rippedbody.jp/wp-content/uploads/2012/11/Patience-for-diet-success-1.jpg
p1473
g3
(g4
g5
(g6
(S'\x07\xe0\x07\x1f\x14#\x16\t}\xd0'
tRp1474
S'341'
p1475
I1
ttRp1476
sVhttp://distinctivediscipleship.com/wp-content/uploads/2014/02/patience-is-a-virtue.jpg
p1477
g3
(g4
g5
(g6
(S'\x07\xe0\x08\x02\x14(\x02\x00\x12\xb3'
tRp1478
I-1
I1
ttRp1479
sVhttps://f4.bcbits.com/img/a0972201264_10.jpg
p1480
g3
(g4
g5
(g6
(S"\x07\xe0\x08\x12\x15+'\n\x053"
tRp1481
S'357'
p1482
I1
ttRp1483
sVhttps://alameleadership.files.wordpress.com/2013/06/al-inspiring-quote-on-patience.png
p1484
g3
(g4
g5
(g6
(S'\x07\xe0\x03\x05\x13\x0e4\x08Q\xcf'
tRp1485
S'194'
p1486
I1
ttRp1487
sVhttp://cdn.bigbangfish.com/quotes/patience-quotes-wallpaper/patience-quotes-wallpaper-8.jpg
p1488
g3
(g4
g5
(g6
(S'\x07\xe0\x04\x07\r5;\x0enB'
tRp1489
I-1
I1
ttRp1490
sVhttps://sandysandmeyer.files.wordpress.com/2013/04/patience-chick.jpg
p1491
g3
(g4
g5
(g6
(S"\x07\xe0\x08\x12\x15+'\n\x05["
tRp1492
S'177'
p1493
I2
ttRp1494
sVhttps://i.ytimg.com/vi/Lj9mJHp4wnQ/hqdefault.jpg
p1495
g3
(g4
g5
(g6
(S'\x07\xe0\x02\x1a\x11\x02\x0f\ra\xf9'
tRp1496
I-1
I1
ttRp1497
sVhttp://matthewandrews.typepad.com/.a/6a0154326e1d1c970c01bb08152b35970d-pi
p1498
g3
(g4
g5
(g6
(S'\x07\xe0\x05\x1b\x13\x18\x0b\t\x19\xf1'
tRp1499
S'2'
I1
ttRp1500
sVhttp://mob-fit.com/wp-content/uploads/2015/02/patience.jpg
p1501
g3
(g4
g5
(g6
(S'\x07\xe0\x03\x05\x13\x0e4\x08Q\xff'
tRp1502
S'160'
p1503
I1
ttRp1504
sVhttp://quotesta.com/wp-content/uploads/Patience-In-Love-Relationships-Quotes-4.jpg
p1505
g3
(g4
g5
(g6
(S'\x07\xe0\x07\x19\x0f\x0e\x15\x07\xba\x93'
tRp1506
S'335'
p1507
I1
ttRp1508
sVhttp://www.thetwocities.com/wp-content/uploads/2014/08/97816060885241.jpg
p1509
g3
(g4
g5
(g6
(S'\x07\xdf\x0b\x1c\x16\x05+\x02\xf3\xe3'
tRp1510
S'71'
p1511
I1
ttRp1512
sVhttp://www.glavo.online/wp-content/uploads/2014/03/patience-quotes-6.jpg
p1513
g3
(g4
g5
(g6
(S'\x07\xdf\x0b\x1c\x16\x05+\x02\xf3\xeb'
tRp1514
I-1
I1
ttRp1515
sVhttp://images.elephantjournal.com/wp-content/uploads/2012/06/patience.jpg
p1516
g3
(g4
g5
(g6
(S'\x07\xdf\x0c\x0c\x11\x1f\x1f\x04\x02@'
tRp1517
I-1
I1
ttRp1518
sVhttps://c2.staticflickr.com/8/7163/6477009555_b919e54cef.jpg
p1519
g3
(g4
g5
(g6
(S'\x07\xe0\x07\x05\x0f\x02\x16\x08\xdc\x18'
tRp1520
S'162'
p1521
I1
ttRp1522
sVhttp://motivationalreads.com/wp-content/uploads/patience-is-not-the-ability.jpg
p1523
g3
(g4
g5
(g6
(S"\x07\xe0\x03\t\x13\x17'\x05G\xf5"
tRp1524
S'214'
p1525
I2
ttRp1526
sVhttps://format-com-cld-res.cloudinary.com/image/private/s--KCu3hN2L--/c_limit,g_center,h_1200,w_65535/a_auto,fl_keep_iptc.progressive,q_95/131851-11059449-Screen_Shot_2014-04-23_at_21_31_29_png.png
p1527
g3
(g4
g5
(g6
(S"\x07\xe0\x08\x12\x15+'\n\x05\xad"
tRp1528
S'363'
p1529
I1
ttRp1530
sVhttp://www.davidfroud.com/wp-content/uploads/2014/08/Strategic-Patience.png
p1531
g3
(g4
g5
(g6
(S'\x07\xe0\x07\x15\x0f\x0b\x18\r\xd0\xc5'
tRp1532
S'116'
p1533
I1
ttRp1534
sVhttps://www.alquranclasses.com/wp-content/uploads/2011/12/Patience_Islam.jpg
p1535
g3
(g4
g5
(g6
(S'\x07\xe0\x01\x19\x10\x17\x1e\x05\xb2c'
tRp1536
S'143'
p1537
I1
ttRp1538
sVhttp://anti-deprime.com/wp-content/uploads/2015/09/La-patience-na-lair-de-rien-cest-tout.jpg
p1539
g3
(g4
g5
(g6
(S'\x07\xe0\x07\x1b\x14\x13\x17\x0b\x81\xba'
tRp1540
S'249'
p1541
I1
ttRp1542
sVhttp://static1.squarespace.com/static/537cad0be4b02cb9fe04985f/t/552990c9e4b0b1018b2af566/1428787401935/Patience.jpg
p1543
g3
(g4
g5
(g6
(S'\x07\xdf\x0b\t\x13\x11\x02\nX8'
tRp1544
S'21'
p1545
I1
ttRp1546
sVhttp://simplereminders.com/uploads/images/blog/stock-woman-waiting-road-patience-9n3x.jpg
p1547
g3
(g4
g5
(g6
(S"\x07\xe0\x08\x12\x15+'\n\x05\xc7"
tRp1548
I-1
I1
ttRp1549
sVhttps://3gigglygirlsathome.files.wordpress.com/2013/12/p1080399.jpg
p1550
g3
(g4
g5
(g6
(S"\x07\xe0\x03\t\x13\x17'\x05FY"
tRp1551
S'222'
p1552
I1
ttRp1553
sVhttp://c6cc.http.cdn.softlayer.net/80C6CC/inspiremore.com/wp-content/uploads/2014/10/Have-patience.-All-things-are__quotes-by-Saadi-86.png
p1554
g3
(g4
g5
(g6
(S'\x07\xdf\x0b\x13\x14\n\x01\x0e\xe2\xbc'
tRp1555
I-1
I1
ttRp1556
sVhttp://jamierobson.com/wp-content/uploads/2016/06/Patience.jpg
p1557
g3
(g4
g5
(g6
(S'\x07\xe0\x08\x0c\x14.\x18\x00\x9b\x12'
tRp1558
I-1
I1
ttRp1559
sVhttp://blog.olivetree.com/wp-content/uploads/2012/12/bigstock-HS-Patience-48914204.jpg
p1560
g3
(g4
g5
(g6
(S"\x07\xe0\x08\x12\x15+'\n\x04\xfc"
tRp1561
S'40'
p1562
I2
ttRp1563
sVhttp://www.histreasureseekers.com/wp-content/uploads/2012/06/patience_t_nv.jpg
p1564
g3
(g4
g5
(g6
(S'\x07\xe0\x07\x1f\x14#\x16\t}~'
tRp1565
S'93'
p1566
I3
ttRp1567
sVhttp://image.shutterstock.com/z/stock-vector-patience-chinese-language-grunge-brush-freestyle-font-designed-using-black-and-white-handwriting-258203468.jpg
p1568
g3
(g4
g5
(g6
(S"\x07\xe0\x08\x12\x15+'\n\x04\xe1"
tRp1569
S'347'
p1570
I1
ttRp1571
sVhttp://pinkpolkadotcreations.com/wp-content/uploads/2013/08/Give-me-Patience-000-Page-1.jpg
p1572
g3
(g4
g5
(g6
(S"\x07\xe0\x08\x12\x15+'\n\x05\x18"
tRp1573
S'175'
p1574
I1
ttRp1575
sVhttps://lsaruminations.edublogs.org/files/2015/05/Patience-carved-stone-1nfaubl.jpg
p1576
g3
(g4
g5
(g6
(S'\x07\xdf\x0b\x1c\x16\x05+\x02\xf3a'
tRp1577
I-1
I1
ttRp1578
sVhttps://f4.bcbits.com/img/a2710275168_10.jpg
p1579
g3
(g4
g5
(g6
(S"\x07\xe0\x08\x12\x15+'\n\x05\x14"
tRp1580
S'358'
p1581
I1
ttRp1582
sVhttp://cdn-media-2.lifehack.org/wp-content/files/2015/02/eb01ed89be55f5a6ed079983a1fafe88.jpg
p1583
g3
(g4
g5
(g6
(S'\x07\xe0\x01\x13\x10\x13\x16\x06)*'
tRp1584
S'87'
p1585
I1
ttRp1586
sVhttp://rwjm.com/wp-content/uploads/2016/02/patience.jpg
p1587
g3
(g4
g5
(g6
(S'\x07\xe0\x08\x0c\x14.\x18\x00\x9a\x8f'
tRp1588
S'289'
p1589
I1
ttRp1590
sVhttp://4.bp.blogspot.com/-rQHEW09GaDA/UJxJYFnDoGI/AAAAAAAAA4s/dFTDO-TZn-4/s1600/Patience.jpg
p1591
g3
(g4
g5
(g6
(S"\x07\xe0\x08\x12\x15+'\n\x05$"
tRp1592
S'360'
p1593
I1
ttRp1594
sVhttps://www.motivationalpicturequotes.com/wp-content/uploads/2094/Patience-Quotes-Images.jpg
p1595
g3
(g4
g5
(g6
(S'\x07\xe0\x05\x1b\x13\x18\x0b\t\x19\xd7'
tRp1596
S'279'
p1597
I3
ttRp1598
sVhttp://www.conflictdynamics.org/blog/wp-content/uploads/2012/06/patience.jpg
p1599
g3
(g4
g5
(g6
(S'\x07\xe0\x07\r\x0f\x062\x0cz\x9b'
tRp1600
S'147'
p1601
I1
ttRp1602
sVhttp://blog-cdn.yesheis.com/en/wp-content/uploads/2012/05/Patience.png
p1603
g3
(g4
g5
(g6
(S'\x07\xe0\x05\x19\x10\x12\x0e\x04\x07\x05'
tRp1604
S'154'
p1605
I1
ttRp1606
sVhttp://www.brcvpa.com/uploads/2/9/5/6/29568609/9615518_orig.jpg
p1607
g3
(g4
g5
(g6
(S'\x07\xe0\x07\r\x0f\x062\x0cz\x80'
tRp1608
S'313'
p1609
I1
ttRp1610
sVhttp://quotesideas.com/wp-content/uploads/2015/02/patience_words1.jpg
p1611
g3
(g4
g5
(g6
(S'\x07\xe0\x07\x15\x0f\x0b\x18\r\xcf\xd5'
tRp1612
S'229'
p1613
I1
ttRp1614
sVhttp://globalradiokkay.com/wp-content/uploads/2014/06/patience-kkay-radio.jpg
p1615
g3
(g4
g5
(g6
(S'\x07\xdf\x0b\x1c\x16\x05+\x02\xf3\xa8'
tRp1616
S'23'
p1617
I1
ttRp1618
sVhttp://www.notable-quotes.com/p/patience_quote.jpg
p1619
g3
(g4
g5
(g6
(S'\x07\xe0\x08\x0c\x14.\x18\x00\x9a\x87'
tRp1620
S'64'
p1621
I1
ttRp1622
sVhttp://images.forwallpaper.com/files/thumbs/preview/61/612071__patience-quote-by-buddah_p.jpg
p1623
g3
(g4
g5
(g6
(S'\x07\xe0\x04\x07\r5;\x0el\xcc'
tRp1624
S'270'
p1625
I2
ttRp1626
sVhttp://www.joaoleitao.com/tattoo-name/files/female-names4/tattoo-design-name-patience-03.png
p1627
g3
(g4
g5
(g6
(S'\x07\xe0\x07\x1b\x14\x13\x17\x0b\x816'
tRp1628
S'263'
p1629
I1
ttRp1630
sVhttp://southernbellecharm.com/wp-content/uploads/2015/06/Patience.jpg
p1631
g3
(g4
g5
(g6
(S'\x07\xe0\x04\x07\r5;\x0emH'
tRp1632
I-1
I1
ttRp1633
sVhttp://img.picturequotes.com/2/21/20581/for-the-friendship-of-two-the-patience-of-one-is-required-quote-1.jpg
p1634
g3
(g4
g5
(g6
(S'\x07\xe0\x08\x02\x14(\x02\x00\x12\x8e'
tRp1635
S'167'
p1636
I1
ttRp1637
sVhttp://aboutislam.net/wp-content/uploads/2016/01/patience11.jpg
p1638
g3
(g4
g5
(g6
(S'\x07\xe0\x05\x1b\x13\x18\x0b\t\x1a\x17'
tRp1639
S'285'
p1640
I1
ttRp1641
sVhttp://www.quotesbuddy.com/wp-content/uploads/2014/12/Patience-is-the-greatest-prayer.jpg
p1642
g3
(g4
g5
(g6
(S"\x07\xe0\x08\x12\x15+'\n\x05\xb0"
tRp1643
S'361'
p1644
I1
ttRp1645
sVhttp://aboutislam.net/wp-content/uploads/2015/12/What-Is-Beautiful-Patience-Part-1-.jpg
p1646
g3
(g4
g5
(g6
(S'\x07\xe0\x04\x0f\x10\x0f\r\x07>\xea'
tRp1647
I-1
I1
ttRp1648
sVhttps://dealdash.files.wordpress.com/2016/06/943bb-1463022985226.jpg
p1649
g3
(g4
g5
(g6
(S'\x07\xe0\x08\x0c\x14.\x18\x00\x9a\xf8'
tRp1650
S'306'
p1651
I1
ttRp1652
sVhttp://media-cache-ec0.pinimg.com/736x/0b/9d/91/0b9d91091c4d1dc8e5ac3d0fb9ebed93.jpg
p1653
g3
(g4
g5
(g6
(S'\x07\xe0\x02\x1a\x11\x02\x0f\rb\xc4'
tRp1654
S'150'
p1655
I1
ttRp1656
sVhttp://rawpl.com/wp-content/uploads/2015/12/patience-quotes-for-best-collections-of-patience-quotes-2015-7.jpg
p1657
g3
(g4
g5
(g6
(S'\x07\xdf\x0c\x14\x10\t"\rK\xf9'
tRp1658
S'144'
p1659
I1
ttRp1660
sVhttp://joeandpatience.com/wp-content/uploads/2014/09/Semiahmoo-Resort-Wedding-by-Bellingham-Wedding-Photographer-Joe-and-Patience.jpg
p1661
g3
(g4
g5
(g6
(S'\x07\xe0\x08\x02\x14(\x02\x00\x13\x16'
tRp1662
I-1
I1
ttRp1663
sVhttp://www.joaoleitao.com/tattoo-name/files/female-names4/tattoo-design-name-patience-05.png
p1664
g3
(g4
g5
(g6
(S'\x07\xe0\x07\x1b\x14\x13\x17\x0b\x81\x98'
tRp1665
S'336'
p1666
I1
ttRp1667
sVhttp://rawpl.com/wp-content/uploads/2015/12/patience-quotes-for-best-collections-of-patience-quotes-2015-61.jpg
p1668
g3
(g4
g5
(g6
(S'\x07\xdf\x0c\x14\x10\t"\rL%'
tRp1669
S'111'
p1670
I1
ttRp1671
sVhttp://fantagraphics.com/flog/wp-content/uploads/2015/12/patiencetour-2-1024x1024.jpg
p1672
g3
(g4
g5
(g6
(S"\x07\xe0\x08\x12\x15+'\n\x05\x8e"
tRp1673
I-1
I1
ttRp1674
sVhttps://s-media-cache-ak0.pinimg.com/736x/4d/45/5f/4d455f32399c79bf96f73d74a08f1cd7.jpg
p1675
g3
(g4
g5
(g6
(S'\x07\xe0\x03\x05\x13\x0e4\x08RG'
tRp1676
S'56'
p1677
I1
ttRp1678
s.